
mm.riscv:     ファイル形式 elf32-littleriscv


セクション .text.init の逆アセンブル:

80000000 <_start>:
80000000:	00000093          	li	ra,0
80000004:	00000113          	li	sp,0
80000008:	00000193          	li	gp,0
8000000c:	00000213          	li	tp,0
80000010:	00000293          	li	t0,0
80000014:	00000313          	li	t1,0
80000018:	00000393          	li	t2,0
8000001c:	00000413          	li	s0,0
80000020:	00000493          	li	s1,0
80000024:	00000513          	li	a0,0
80000028:	00000593          	li	a1,0
8000002c:	00000613          	li	a2,0
80000030:	00000693          	li	a3,0
80000034:	00000713          	li	a4,0
80000038:	00000793          	li	a5,0
8000003c:	00000813          	li	a6,0
80000040:	00000893          	li	a7,0
80000044:	00000913          	li	s2,0
80000048:	00000993          	li	s3,0
8000004c:	00000a13          	li	s4,0
80000050:	00000a93          	li	s5,0
80000054:	00000b13          	li	s6,0
80000058:	00000b93          	li	s7,0
8000005c:	00000c13          	li	s8,0
80000060:	00000c93          	li	s9,0
80000064:	00000d13          	li	s10,0
80000068:	00000d93          	li	s11,0
8000006c:	00000e13          	li	t3,0
80000070:	00000e93          	li	t4,0
80000074:	00000f13          	li	t5,0
80000078:	00000f93          	li	t6,0
8000007c:	0001e2b7          	lui	t0,0x1e
80000080:	3002a073          	csrs	mstatus,t0
80000084:	00100293          	li	t0,1
80000088:	01f29293          	slli	t0,t0,0x1f
8000008c:	0002ca63          	bltz	t0,800000a0 <_start+0xa0>
80000090:	00100513          	li	a0,1
80000094:	00001297          	auipc	t0,0x1
80000098:	f6a2a623          	sw	a0,-148(t0) # 80001000 <tohost>
8000009c:	ff5ff06f          	j	80000090 <_start+0x90>
800000a0:	00000297          	auipc	t0,0x0
800000a4:	04028293          	addi	t0,t0,64 # 800000e0 <trap_entry>
800000a8:	30529073          	csrw	mtvec,t0
800000ac:	00010197          	auipc	gp,0x10
800000b0:	0f418193          	addi	gp,gp,244 # 800101a0 <__global_pointer$>
800000b4:	c5f18213          	addi	tp,gp,-929 # 8000fdff <_end+0x3f>
800000b8:	fc027213          	andi	tp,tp,-64
800000bc:	f1402573          	csrr	a0,mhartid
800000c0:	00100593          	li	a1,1
800000c4:	00b57063          	bgeu	a0,a1,800000c4 <_start+0xc4>
800000c8:	00150113          	addi	sp,a0,1
800000cc:	01111113          	slli	sp,sp,0x11
800000d0:	00410133          	add	sp,sp,tp
800000d4:	01151613          	slli	a2,a0,0x11
800000d8:	00c20233          	add	tp,tp,a2
800000dc:	1140d06f          	j	8000d1f0 <_init>

800000e0 <trap_entry>:
800000e0:	ef010113          	addi	sp,sp,-272
800000e4:	00112223          	sw	ra,4(sp)
800000e8:	00212423          	sw	sp,8(sp)
800000ec:	00312623          	sw	gp,12(sp)
800000f0:	00412823          	sw	tp,16(sp)
800000f4:	00512a23          	sw	t0,20(sp)
800000f8:	00612c23          	sw	t1,24(sp)
800000fc:	00712e23          	sw	t2,28(sp)
80000100:	02812023          	sw	s0,32(sp)
80000104:	02912223          	sw	s1,36(sp)
80000108:	02a12423          	sw	a0,40(sp)
8000010c:	02b12623          	sw	a1,44(sp)
80000110:	02c12823          	sw	a2,48(sp)
80000114:	02d12a23          	sw	a3,52(sp)
80000118:	02e12c23          	sw	a4,56(sp)
8000011c:	02f12e23          	sw	a5,60(sp)
80000120:	05012023          	sw	a6,64(sp)
80000124:	05112223          	sw	a7,68(sp)
80000128:	05212423          	sw	s2,72(sp)
8000012c:	05312623          	sw	s3,76(sp)
80000130:	05412823          	sw	s4,80(sp)
80000134:	05512a23          	sw	s5,84(sp)
80000138:	05612c23          	sw	s6,88(sp)
8000013c:	05712e23          	sw	s7,92(sp)
80000140:	07812023          	sw	s8,96(sp)
80000144:	07912223          	sw	s9,100(sp)
80000148:	07a12423          	sw	s10,104(sp)
8000014c:	07b12623          	sw	s11,108(sp)
80000150:	07c12823          	sw	t3,112(sp)
80000154:	07d12a23          	sw	t4,116(sp)
80000158:	07e12c23          	sw	t5,120(sp)
8000015c:	07f12e23          	sw	t6,124(sp)
80000160:	34202573          	csrr	a0,mcause
80000164:	341025f3          	csrr	a1,mepc
80000168:	00010613          	mv	a2,sp
8000016c:	6150c0ef          	jal	ra,8000cf80 <handle_trap>
80000170:	34151073          	csrw	mepc,a0
80000174:	000022b7          	lui	t0,0x2
80000178:	80028293          	addi	t0,t0,-2048 # 1800 <buflen.2941+0x1780>
8000017c:	3002a073          	csrs	mstatus,t0
80000180:	00412083          	lw	ra,4(sp)
80000184:	00812103          	lw	sp,8(sp)
80000188:	00c12183          	lw	gp,12(sp)
8000018c:	01012203          	lw	tp,16(sp)
80000190:	01412283          	lw	t0,20(sp)
80000194:	01812303          	lw	t1,24(sp)
80000198:	01c12383          	lw	t2,28(sp)
8000019c:	02012403          	lw	s0,32(sp)
800001a0:	02412483          	lw	s1,36(sp)
800001a4:	02812503          	lw	a0,40(sp)
800001a8:	02c12583          	lw	a1,44(sp)
800001ac:	03012603          	lw	a2,48(sp)
800001b0:	03412683          	lw	a3,52(sp)
800001b4:	03812703          	lw	a4,56(sp)
800001b8:	03c12783          	lw	a5,60(sp)
800001bc:	04012803          	lw	a6,64(sp)
800001c0:	04412883          	lw	a7,68(sp)
800001c4:	04812903          	lw	s2,72(sp)
800001c8:	04c12983          	lw	s3,76(sp)
800001cc:	05012a03          	lw	s4,80(sp)
800001d0:	05412a83          	lw	s5,84(sp)
800001d4:	05812b03          	lw	s6,88(sp)
800001d8:	05c12b83          	lw	s7,92(sp)
800001dc:	06012c03          	lw	s8,96(sp)
800001e0:	06412c83          	lw	s9,100(sp)
800001e4:	06812d03          	lw	s10,104(sp)
800001e8:	06c12d83          	lw	s11,108(sp)
800001ec:	07012e03          	lw	t3,112(sp)
800001f0:	07412e83          	lw	t4,116(sp)
800001f4:	07812f03          	lw	t5,120(sp)
800001f8:	07c12f83          	lw	t6,124(sp)
800001fc:	11010113          	addi	sp,sp,272
80000200:	30200073          	mret

セクション .text の逆アセンブル:

80001048 <mm_naive>:
80001048:	f6010113          	addi	sp,sp,-160
8000104c:	08112e23          	sw	ra,156(sp)
80001050:	08812c23          	sw	s0,152(sp)
80001054:	08912a23          	sw	s1,148(sp)
80001058:	09212823          	sw	s2,144(sp)
8000105c:	09312623          	sw	s3,140(sp)
80001060:	09412423          	sw	s4,136(sp)
80001064:	09512223          	sw	s5,132(sp)
80001068:	09612023          	sw	s6,128(sp)
8000106c:	07712e23          	sw	s7,124(sp)
80001070:	07812c23          	sw	s8,120(sp)
80001074:	07912a23          	sw	s9,116(sp)
80001078:	07a12823          	sw	s10,112(sp)
8000107c:	07b12623          	sw	s11,108(sp)
80001080:	04a12623          	sw	a0,76(sp)
80001084:	02b12423          	sw	a1,40(sp)
80001088:	02c12623          	sw	a2,44(sp)
8000108c:	02d12823          	sw	a3,48(sp)
80001090:	04e12823          	sw	a4,80(sp)
80001094:	00f12e23          	sw	a5,28(sp)
80001098:	03012c23          	sw	a6,56(sp)
8000109c:	05112c23          	sw	a7,88(sp)
800010a0:	2c050e63          	beqz	a0,8000137c <mm_naive+0x334>
800010a4:	00371713          	slli	a4,a4,0x3
800010a8:	00181793          	slli	a5,a6,0x1
800010ac:	ffc67593          	andi	a1,a2,-4
800010b0:	010787b3          	add	a5,a5,a6
800010b4:	04e12423          	sw	a4,72(sp)
800010b8:	00581713          	slli	a4,a6,0x5
800010bc:	00379793          	slli	a5,a5,0x3
800010c0:	00e12623          	sw	a4,12(sp)
800010c4:	ffc58713          	addi	a4,a1,-4
800010c8:	00361c13          	slli	s8,a2,0x3
800010cc:	04e12a23          	sw	a4,84(sp)
800010d0:	02f12e23          	sw	a5,60(sp)
800010d4:	00481713          	slli	a4,a6,0x4
800010d8:	02068793          	addi	a5,a3,32
800010dc:	00b12c23          	sw	a1,24(sp)
800010e0:	00dc0c33          	add	s8,s8,a3
800010e4:	00381b13          	slli	s6,a6,0x3
800010e8:	00e12423          	sw	a4,8(sp)
800010ec:	04012023          	sw	zero,64(sp)
800010f0:	02012223          	sw	zero,36(sp)
800010f4:	04012223          	sw	zero,68(sp)
800010f8:	04f12e23          	sw	a5,92(sp)
800010fc:	02812783          	lw	a5,40(sp)
80001100:	24078063          	beqz	a5,80001340 <mm_naive+0x2f8>
80001104:	02412783          	lw	a5,36(sp)
80001108:	05412703          	lw	a4,84(sp)
8000110c:	05812683          	lw	a3,88(sp)
80001110:	00012823          	sw	zero,16(sp)
80001114:	00e78bb3          	add	s7,a5,a4
80001118:	04012703          	lw	a4,64(sp)
8000111c:	00379793          	slli	a5,a5,0x3
80001120:	003b9b93          	slli	s7,s7,0x3
80001124:	00371713          	slli	a4,a4,0x3
80001128:	00e68733          	add	a4,a3,a4
8000112c:	00e12a23          	sw	a4,20(sp)
80001130:	03012703          	lw	a4,48(sp)
80001134:	00f707b3          	add	a5,a4,a5
80001138:	02f12a23          	sw	a5,52(sp)
8000113c:	05c12783          	lw	a5,92(sp)
80001140:	00fb87b3          	add	a5,s7,a5
80001144:	00f12223          	sw	a5,4(sp)
80001148:	01412783          	lw	a5,20(sp)
8000114c:	0007ad03          	lw	s10,0(a5)
80001150:	0047ac83          	lw	s9,4(a5)
80001154:	01812783          	lw	a5,24(sp)
80001158:	26078063          	beqz	a5,800013b8 <mm_naive+0x370>
8000115c:	01012783          	lw	a5,16(sp)
80001160:	00000b93          	li	s7,0
80001164:	00000d93          	li	s11,0
80001168:	00379493          	slli	s1,a5,0x3
8000116c:	01c12783          	lw	a5,28(sp)
80001170:	03812023          	sw	s8,32(sp)
80001174:	03412403          	lw	s0,52(sp)
80001178:	000b8c13          	mv	s8,s7
8000117c:	000b0b93          	mv	s7,s6
80001180:	000c8b13          	mv	s6,s9
80001184:	000d8c93          	mv	s9,s11
80001188:	000d0d93          	mv	s11,s10
8000118c:	03c12d03          	lw	s10,60(sp)
80001190:	009784b3          	add	s1,a5,s1
80001194:	00000a93          	li	s5,0
80001198:	00000993          	li	s3,0
8000119c:	00000a13          	li	s4,0
800011a0:	00000913          	li	s2,0
800011a4:	0004a603          	lw	a2,0(s1)
800011a8:	0044a683          	lw	a3,4(s1)
800011ac:	00042503          	lw	a0,0(s0)
800011b0:	00442583          	lw	a1,4(s0)
800011b4:	000d8713          	mv	a4,s11
800011b8:	000b0793          	mv	a5,s6
800011bc:	2600c0ef          	jal	ra,8000d41c <fma>
800011c0:	017487b3          	add	a5,s1,s7
800011c4:	0007a603          	lw	a2,0(a5)
800011c8:	0047a683          	lw	a3,4(a5)
800011cc:	00050d93          	mv	s11,a0
800011d0:	00058b13          	mv	s6,a1
800011d4:	00842503          	lw	a0,8(s0)
800011d8:	00c42583          	lw	a1,12(s0)
800011dc:	000a0713          	mv	a4,s4
800011e0:	00090793          	mv	a5,s2
800011e4:	2380c0ef          	jal	ra,8000d41c <fma>
800011e8:	00812783          	lw	a5,8(sp)
800011ec:	00050a13          	mv	s4,a0
800011f0:	00058913          	mv	s2,a1
800011f4:	00f487b3          	add	a5,s1,a5
800011f8:	0007a603          	lw	a2,0(a5)
800011fc:	0047a683          	lw	a3,4(a5)
80001200:	01042503          	lw	a0,16(s0)
80001204:	01442583          	lw	a1,20(s0)
80001208:	000a8713          	mv	a4,s5
8000120c:	00098793          	mv	a5,s3
80001210:	20c0c0ef          	jal	ra,8000d41c <fma>
80001214:	01a487b3          	add	a5,s1,s10
80001218:	0007a603          	lw	a2,0(a5)
8000121c:	0047a683          	lw	a3,4(a5)
80001220:	00050a93          	mv	s5,a0
80001224:	00058993          	mv	s3,a1
80001228:	01842503          	lw	a0,24(s0)
8000122c:	01c42583          	lw	a1,28(s0)
80001230:	000c8793          	mv	a5,s9
80001234:	000c0713          	mv	a4,s8
80001238:	1e40c0ef          	jal	ra,8000d41c <fma>
8000123c:	00c12783          	lw	a5,12(sp)
80001240:	02040413          	addi	s0,s0,32
80001244:	00050c13          	mv	s8,a0
80001248:	00f484b3          	add	s1,s1,a5
8000124c:	00412783          	lw	a5,4(sp)
80001250:	00058c93          	mv	s9,a1
80001254:	f48798e3          	bne	a5,s0,800011a4 <mm_naive+0x15c>
80001258:	000a8613          	mv	a2,s5
8000125c:	00098693          	mv	a3,s3
80001260:	000d8d13          	mv	s10,s11
80001264:	000b0c93          	mv	s9,s6
80001268:	00058d93          	mv	s11,a1
8000126c:	000b8b13          	mv	s6,s7
80001270:	00090593          	mv	a1,s2
80001274:	00050b93          	mv	s7,a0
80001278:	000a0513          	mv	a0,s4
8000127c:	6590c0ef          	jal	ra,8000e0d4 <__adddf3>
80001280:	000b8613          	mv	a2,s7
80001284:	000d8693          	mv	a3,s11
80001288:	64d0c0ef          	jal	ra,8000e0d4 <__adddf3>
8000128c:	02012c03          	lw	s8,32(sp)
80001290:	01812903          	lw	s2,24(sp)
80001294:	00050493          	mv	s1,a0
80001298:	00058413          	mv	s0,a1
8000129c:	02c12783          	lw	a5,44(sp)
800012a0:	06f97263          	bgeu	s2,a5,80001304 <mm_naive+0x2bc>
800012a4:	03812783          	lw	a5,56(sp)
800012a8:	032789b3          	mul	s3,a5,s2
800012ac:	02412783          	lw	a5,36(sp)
800012b0:	00f90933          	add	s2,s2,a5
800012b4:	03012783          	lw	a5,48(sp)
800012b8:	00391913          	slli	s2,s2,0x3
800012bc:	01278933          	add	s2,a5,s2
800012c0:	01012783          	lw	a5,16(sp)
800012c4:	00f989b3          	add	s3,s3,a5
800012c8:	01c12783          	lw	a5,28(sp)
800012cc:	00399993          	slli	s3,s3,0x3
800012d0:	013789b3          	add	s3,a5,s3
800012d4:	0009a603          	lw	a2,0(s3)
800012d8:	0049a683          	lw	a3,4(s3)
800012dc:	00092503          	lw	a0,0(s2)
800012e0:	00492583          	lw	a1,4(s2)
800012e4:	000d0713          	mv	a4,s10
800012e8:	000c8793          	mv	a5,s9
800012ec:	1300c0ef          	jal	ra,8000d41c <fma>
800012f0:	00890913          	addi	s2,s2,8
800012f4:	00050d13          	mv	s10,a0
800012f8:	00058c93          	mv	s9,a1
800012fc:	016989b3          	add	s3,s3,s6
80001300:	fd2c1ae3          	bne	s8,s2,800012d4 <mm_naive+0x28c>
80001304:	00048613          	mv	a2,s1
80001308:	000d0513          	mv	a0,s10
8000130c:	00040693          	mv	a3,s0
80001310:	000c8593          	mv	a1,s9
80001314:	5c10c0ef          	jal	ra,8000e0d4 <__adddf3>
80001318:	01412783          	lw	a5,20(sp)
8000131c:	01012703          	lw	a4,16(sp)
80001320:	00a7a023          	sw	a0,0(a5)
80001324:	00b7a223          	sw	a1,4(a5)
80001328:	00878793          	addi	a5,a5,8
8000132c:	00f12a23          	sw	a5,20(sp)
80001330:	02812783          	lw	a5,40(sp)
80001334:	00170713          	addi	a4,a4,1
80001338:	00e12823          	sw	a4,16(sp)
8000133c:	e0e796e3          	bne	a5,a4,80001148 <mm_naive+0x100>
80001340:	02412703          	lw	a4,36(sp)
80001344:	05012683          	lw	a3,80(sp)
80001348:	04412783          	lw	a5,68(sp)
8000134c:	00d70733          	add	a4,a4,a3
80001350:	02e12223          	sw	a4,36(sp)
80001354:	04812703          	lw	a4,72(sp)
80001358:	0a012683          	lw	a3,160(sp)
8000135c:	00178793          	addi	a5,a5,1
80001360:	00ec0c33          	add	s8,s8,a4
80001364:	04012703          	lw	a4,64(sp)
80001368:	04f12223          	sw	a5,68(sp)
8000136c:	00d70733          	add	a4,a4,a3
80001370:	04e12023          	sw	a4,64(sp)
80001374:	04c12703          	lw	a4,76(sp)
80001378:	d8f712e3          	bne	a4,a5,800010fc <mm_naive+0xb4>
8000137c:	09c12083          	lw	ra,156(sp)
80001380:	09812403          	lw	s0,152(sp)
80001384:	09412483          	lw	s1,148(sp)
80001388:	09012903          	lw	s2,144(sp)
8000138c:	08c12983          	lw	s3,140(sp)
80001390:	08812a03          	lw	s4,136(sp)
80001394:	08412a83          	lw	s5,132(sp)
80001398:	08012b03          	lw	s6,128(sp)
8000139c:	07c12b83          	lw	s7,124(sp)
800013a0:	07812c03          	lw	s8,120(sp)
800013a4:	07412c83          	lw	s9,116(sp)
800013a8:	07012d03          	lw	s10,112(sp)
800013ac:	06c12d83          	lw	s11,108(sp)
800013b0:	0a010113          	addi	sp,sp,160
800013b4:	00008067          	ret
800013b8:	00000913          	li	s2,0
800013bc:	00000493          	li	s1,0
800013c0:	00000413          	li	s0,0
800013c4:	ed9ff06f          	j	8000129c <mm_naive+0x254>

800013c8 <mm_cb>:
800013c8:	d7010113          	addi	sp,sp,-656
800013cc:	28812423          	sw	s0,648(sp)
800013d0:	28112623          	sw	ra,652(sp)
800013d4:	29010413          	addi	s0,sp,656
800013d8:	28912223          	sw	s1,644(sp)
800013dc:	29212023          	sw	s2,640(sp)
800013e0:	27312e23          	sw	s3,636(sp)
800013e4:	27412c23          	sw	s4,632(sp)
800013e8:	27512a23          	sw	s5,628(sp)
800013ec:	27612823          	sw	s6,624(sp)
800013f0:	27712623          	sw	s7,620(sp)
800013f4:	27812423          	sw	s8,616(sp)
800013f8:	27912223          	sw	s9,612(sp)
800013fc:	27a12023          	sw	s10,608(sp)
80001400:	25b12e23          	sw	s11,604(sp)
80001404:	00060f13          	mv	t5,a2
80001408:	e2c42a23          	sw	a2,-460(s0)
8000140c:	01900613          	li	a2,25
80001410:	02c5de33          	divu	t3,a1,a2
80001414:	01800313          	li	t1,24
80001418:	00070e93          	mv	t4,a4
8000141c:	e2e42e23          	sw	a4,-452(s0)
80001420:	def42223          	sw	a5,-540(s0)
80001424:	e5042223          	sw	a6,-444(s0)
80001428:	dea42423          	sw	a0,-536(s0)
8000142c:	00002637          	lui	a2,0x2
80001430:	fff60613          	addi	a2,a2,-1 # 1fff <buflen.2941+0x1f7f>
80001434:	e0b42c23          	sw	a1,-488(s0)
80001438:	ffffe5b7          	lui	a1,0xffffe
8000143c:	dcd42223          	sw	a3,-572(s0)
80001440:	e1142423          	sw	a7,-504(s0)
80001444:	026f5733          	divu	a4,t5,t1
80001448:	001e1793          	slli	a5,t3,0x1
8000144c:	01c787b3          	add	a5,a5,t3
80001450:	00379793          	slli	a5,a5,0x3
80001454:	01c78833          	add	a6,a5,t3
80001458:	e3c42423          	sw	t3,-472(s0)
8000145c:	e5042023          	sw	a6,-448(s0)
80001460:	02655333          	divu	t1,a0,t1
80001464:	00171793          	slli	a5,a4,0x1
80001468:	faf42823          	sw	a5,-80(s0)
8000146c:	00e787b3          	add	a5,a5,a4
80001470:	e0e42023          	sw	a4,-512(s0)
80001474:	00379713          	slli	a4,a5,0x3
80001478:	e2e42c23          	sw	a4,-456(s0)
8000147c:	00131793          	slli	a5,t1,0x1
80001480:	00678333          	add	t1,a5,t1
80001484:	00331513          	slli	a0,t1,0x3
80001488:	02e507b3          	mul	a5,a0,a4
8000148c:	e2a42823          	sw	a0,-464(s0)
80001490:	40078793          	addi	a5,a5,1024
80001494:	00379793          	slli	a5,a5,0x3
80001498:	01078793          	addi	a5,a5,16
8000149c:	40f10133          	sub	sp,sp,a5
800014a0:	01710793          	addi	a5,sp,23
800014a4:	ff07f793          	andi	a5,a5,-16
800014a8:	00c787b3          	add	a5,a5,a2
800014ac:	00b7f7b3          	and	a5,a5,a1
800014b0:	02e80733          	mul	a4,a6,a4
800014b4:	dcf42c23          	sw	a5,-552(s0)
800014b8:	030507b3          	mul	a5,a0,a6
800014bc:	40070713          	addi	a4,a4,1024
800014c0:	00371713          	slli	a4,a4,0x3
800014c4:	01070713          	addi	a4,a4,16
800014c8:	40e10133          	sub	sp,sp,a4
800014cc:	01710713          	addi	a4,sp,23
800014d0:	ff077713          	andi	a4,a4,-16
800014d4:	00c70733          	add	a4,a4,a2
800014d8:	00b77733          	and	a4,a4,a1
800014dc:	dce42a23          	sw	a4,-556(s0)
800014e0:	40078793          	addi	a5,a5,1024
800014e4:	00379793          	slli	a5,a5,0x3
800014e8:	01078793          	addi	a5,a5,16
800014ec:	40f10133          	sub	sp,sp,a5
800014f0:	01710793          	addi	a5,sp,23
800014f4:	ff07f793          	andi	a5,a5,-16
800014f8:	00c78633          	add	a2,a5,a2
800014fc:	00b677b3          	and	a5,a2,a1
80001500:	e0f42a23          	sw	a5,-492(s0)
80001504:	00051463          	bnez	a0,8000150c <mm_cb+0x144>
80001508:	7480606f          	j	80007c50 <mm_cb+0x6888>
8000150c:	001e9d13          	slli	s10,t4,0x1
80001510:	01dd07b3          	add	a5,s10,t4
80001514:	00679793          	slli	a5,a5,0x6
80001518:	faf42c23          	sw	a5,-72(s0)
8000151c:	003e9793          	slli	a5,t4,0x3
80001520:	00068c93          	mv	s9,a3
80001524:	e6f42e23          	sw	a5,-388(s0)
80001528:	00000c13          	li	s8,0
8000152c:	01800d93          	li	s11,24
80001530:	e3842783          	lw	a5,-456(s0)
80001534:	10078463          	beqz	a5,8000163c <mm_cb+0x274>
80001538:	03bc5a33          	divu	s4,s8,s11
8000153c:	e0042783          	lw	a5,-512(s0)
80001540:	000c8b13          	mv	s6,s9
80001544:	00000a93          	li	s5,0
80001548:	02fa0a33          	mul	s4,s4,a5
8000154c:	0c0b0b13          	addi	s6,s6,192
80001550:	000b0293          	mv	t0,s6
80001554:	00000b93          	li	s7,0
80001558:	03bad7b3          	divu	a5,s5,s11
8000155c:	014787b3          	add	a5,a5,s4
80001560:	00379493          	slli	s1,a5,0x3
80001564:	00f484b3          	add	s1,s1,a5
80001568:	dd842783          	lw	a5,-552(s0)
8000156c:	00949493          	slli	s1,s1,0x9
80001570:	009784b3          	add	s1,a5,s1
80001574:	f4028793          	addi	a5,t0,-192
80001578:	00048713          	mv	a4,s1
8000157c:	fb442423          	sw	s4,-88(s0)
80001580:	fb542023          	sw	s5,-96(s0)
80001584:	0087a903          	lw	s2,8(a5)
80001588:	00c7a983          	lw	s3,12(a5)
8000158c:	0107af03          	lw	t5,16(a5)
80001590:	0147af83          	lw	t6,20(a5)
80001594:	0187ae03          	lw	t3,24(a5)
80001598:	01c7ae83          	lw	t4,28(a5)
8000159c:	0207a303          	lw	t1,32(a5)
800015a0:	0247a383          	lw	t2,36(a5)
800015a4:	0287a803          	lw	a6,40(a5)
800015a8:	02c7a883          	lw	a7,44(a5)
800015ac:	0307a503          	lw	a0,48(a5)
800015b0:	0347a583          	lw	a1,52(a5)
800015b4:	0387a603          	lw	a2,56(a5)
800015b8:	03c7a683          	lw	a3,60(a5)
800015bc:	0007aa03          	lw	s4,0(a5)
800015c0:	0047aa83          	lw	s5,4(a5)
800015c4:	01272423          	sw	s2,8(a4)
800015c8:	01472023          	sw	s4,0(a4)
800015cc:	01572223          	sw	s5,4(a4)
800015d0:	01372623          	sw	s3,12(a4)
800015d4:	01e72823          	sw	t5,16(a4)
800015d8:	01f72a23          	sw	t6,20(a4)
800015dc:	01c72c23          	sw	t3,24(a4)
800015e0:	01d72e23          	sw	t4,28(a4)
800015e4:	02672023          	sw	t1,32(a4)
800015e8:	02772223          	sw	t2,36(a4)
800015ec:	03072423          	sw	a6,40(a4)
800015f0:	03172623          	sw	a7,44(a4)
800015f4:	02a72823          	sw	a0,48(a4)
800015f8:	02b72a23          	sw	a1,52(a4)
800015fc:	02c72c23          	sw	a2,56(a4)
80001600:	02d72e23          	sw	a3,60(a4)
80001604:	04078793          	addi	a5,a5,64
80001608:	04070713          	addi	a4,a4,64
8000160c:	f6f29ce3          	bne	t0,a5,80001584 <mm_cb+0x1bc>
80001610:	e7c42783          	lw	a5,-388(s0)
80001614:	018b8b93          	addi	s7,s7,24
80001618:	fa842a03          	lw	s4,-88(s0)
8000161c:	00f282b3          	add	t0,t0,a5
80001620:	24000793          	li	a5,576
80001624:	fa042a83          	lw	s5,-96(s0)
80001628:	0c048493          	addi	s1,s1,192
8000162c:	f4fb94e3          	bne	s7,a5,80001574 <mm_cb+0x1ac>
80001630:	e3842783          	lw	a5,-456(s0)
80001634:	018a8a93          	addi	s5,s5,24
80001638:	f0faeae3          	bltu	s5,a5,8000154c <mm_cb+0x184>
8000163c:	fb842783          	lw	a5,-72(s0)
80001640:	018c0c13          	addi	s8,s8,24
80001644:	00fc8cb3          	add	s9,s9,a5
80001648:	e3042783          	lw	a5,-464(s0)
8000164c:	eefc62e3          	bltu	s8,a5,80001530 <mm_cb+0x168>
80001650:	e3842783          	lw	a5,-456(s0)
80001654:	00079463          	bnez	a5,8000165c <mm_cb+0x294>
80001658:	0d90806f          	j	80009f30 <mm_cb+0x8b68>
8000165c:	e4442783          	lw	a5,-444(s0)
80001660:	de442c83          	lw	s9,-540(s0)
80001664:	00000c13          	li	s8,0
80001668:	00179d93          	slli	s11,a5,0x1
8000166c:	00fd8d33          	add	s10,s11,a5
80001670:	00379793          	slli	a5,a5,0x3
80001674:	e6f42a23          	sw	a5,-396(s0)
80001678:	000017b7          	lui	a5,0x1
8000167c:	2c078793          	addi	a5,a5,704 # 12c0 <buflen.2941+0x1240>
80001680:	006d1d13          	slli	s10,s10,0x6
80001684:	faf42c23          	sw	a5,-72(s0)
80001688:	e4042783          	lw	a5,-448(s0)
8000168c:	10078e63          	beqz	a5,800017a8 <mm_cb+0x3e0>
80001690:	01800793          	li	a5,24
80001694:	02fc5a33          	divu	s4,s8,a5
80001698:	e2842783          	lw	a5,-472(s0)
8000169c:	000c8b13          	mv	s6,s9
800016a0:	00000a93          	li	s5,0
800016a4:	02fa0a33          	mul	s4,s4,a5
800016a8:	01900793          	li	a5,25
800016ac:	0c0b0293          	addi	t0,s6,192
800016b0:	00000b93          	li	s7,0
800016b4:	02fad4b3          	divu	s1,s5,a5
800016b8:	fb842783          	lw	a5,-72(s0)
800016bc:	014484b3          	add	s1,s1,s4
800016c0:	02f484b3          	mul	s1,s1,a5
800016c4:	dd442783          	lw	a5,-556(s0)
800016c8:	009784b3          	add	s1,a5,s1
800016cc:	f4028793          	addi	a5,t0,-192
800016d0:	00048713          	mv	a4,s1
800016d4:	fb442423          	sw	s4,-88(s0)
800016d8:	fb542023          	sw	s5,-96(s0)
800016dc:	0087a903          	lw	s2,8(a5)
800016e0:	00c7a983          	lw	s3,12(a5)
800016e4:	0107af03          	lw	t5,16(a5)
800016e8:	0147af83          	lw	t6,20(a5)
800016ec:	0187ae03          	lw	t3,24(a5)
800016f0:	01c7ae83          	lw	t4,28(a5)
800016f4:	0207a303          	lw	t1,32(a5)
800016f8:	0247a383          	lw	t2,36(a5)
800016fc:	0287a803          	lw	a6,40(a5)
80001700:	02c7a883          	lw	a7,44(a5)
80001704:	0307a503          	lw	a0,48(a5)
80001708:	0347a583          	lw	a1,52(a5)
8000170c:	0387a603          	lw	a2,56(a5)
80001710:	03c7a683          	lw	a3,60(a5)
80001714:	0007aa03          	lw	s4,0(a5)
80001718:	0047aa83          	lw	s5,4(a5)
8000171c:	01272423          	sw	s2,8(a4)
80001720:	01472023          	sw	s4,0(a4)
80001724:	01572223          	sw	s5,4(a4)
80001728:	01372623          	sw	s3,12(a4)
8000172c:	01e72823          	sw	t5,16(a4)
80001730:	01f72a23          	sw	t6,20(a4)
80001734:	01c72c23          	sw	t3,24(a4)
80001738:	01d72e23          	sw	t4,28(a4)
8000173c:	02672023          	sw	t1,32(a4)
80001740:	02772223          	sw	t2,36(a4)
80001744:	03072423          	sw	a6,40(a4)
80001748:	03172623          	sw	a7,44(a4)
8000174c:	02a72823          	sw	a0,48(a4)
80001750:	02b72a23          	sw	a1,52(a4)
80001754:	02c72c23          	sw	a2,56(a4)
80001758:	02d72e23          	sw	a3,60(a4)
8000175c:	04078793          	addi	a5,a5,64
80001760:	04070713          	addi	a4,a4,64
80001764:	f6f29ce3          	bne	t0,a5,800016dc <mm_cb+0x314>
80001768:	0042a783          	lw	a5,4(t0)
8000176c:	0c848493          	addi	s1,s1,200
80001770:	0002a703          	lw	a4,0(t0)
80001774:	fef4ae23          	sw	a5,-4(s1)
80001778:	e7442783          	lw	a5,-396(s0)
8000177c:	019b8b93          	addi	s7,s7,25
80001780:	fee4ac23          	sw	a4,-8(s1)
80001784:	00f282b3          	add	t0,t0,a5
80001788:	25800793          	li	a5,600
8000178c:	fa842a03          	lw	s4,-88(s0)
80001790:	fa042a83          	lw	s5,-96(s0)
80001794:	f2fb9ce3          	bne	s7,a5,800016cc <mm_cb+0x304>
80001798:	e4042783          	lw	a5,-448(s0)
8000179c:	019a8a93          	addi	s5,s5,25
800017a0:	0c8b0b13          	addi	s6,s6,200
800017a4:	f0fae2e3          	bltu	s5,a5,800016a8 <mm_cb+0x2e0>
800017a8:	e3842783          	lw	a5,-456(s0)
800017ac:	018c0c13          	addi	s8,s8,24
800017b0:	01ac8cb3          	add	s9,s9,s10
800017b4:	ecfc6ae3          	bltu	s8,a5,80001688 <mm_cb+0x2c0>
800017b8:	e3c42783          	lw	a5,-452(s0)
800017bc:	00179d13          	slli	s10,a5,0x1
800017c0:	00379793          	slli	a5,a5,0x3
800017c4:	e6f42e23          	sw	a5,-388(s0)
800017c8:	e3042783          	lw	a5,-464(s0)
800017cc:	00079463          	bnez	a5,800017d4 <mm_cb+0x40c>
800017d0:	48c0606f          	j	80007c5c <mm_cb+0x6894>
800017d4:	00042783          	lw	a5,0(s0)
800017d8:	00042703          	lw	a4,0(s0)
800017dc:	e0842c83          	lw	s9,-504(s0)
800017e0:	00179793          	slli	a5,a5,0x1
800017e4:	daf42e23          	sw	a5,-580(s0)
800017e8:	00e787b3          	add	a5,a5,a4
800017ec:	00679793          	slli	a5,a5,0x6
800017f0:	e0f42223          	sw	a5,-508(s0)
800017f4:	00371793          	slli	a5,a4,0x3
800017f8:	e2f42223          	sw	a5,-476(s0)
800017fc:	000017b7          	lui	a5,0x1
80001800:	2c078793          	addi	a5,a5,704 # 12c0 <buflen.2941+0x1240>
80001804:	00000c13          	li	s8,0
80001808:	faf42c23          	sw	a5,-72(s0)
8000180c:	e4042783          	lw	a5,-448(s0)
80001810:	10078e63          	beqz	a5,8000192c <mm_cb+0x564>
80001814:	01800793          	li	a5,24
80001818:	02fc5a33          	divu	s4,s8,a5
8000181c:	e2842783          	lw	a5,-472(s0)
80001820:	000c8b13          	mv	s6,s9
80001824:	00000a93          	li	s5,0
80001828:	02fa0a33          	mul	s4,s4,a5
8000182c:	01900793          	li	a5,25
80001830:	0c0b0293          	addi	t0,s6,192
80001834:	00000b93          	li	s7,0
80001838:	02fad4b3          	divu	s1,s5,a5
8000183c:	fb842783          	lw	a5,-72(s0)
80001840:	014484b3          	add	s1,s1,s4
80001844:	02f484b3          	mul	s1,s1,a5
80001848:	e1442783          	lw	a5,-492(s0)
8000184c:	009784b3          	add	s1,a5,s1
80001850:	f4028793          	addi	a5,t0,-192
80001854:	00048713          	mv	a4,s1
80001858:	fb442423          	sw	s4,-88(s0)
8000185c:	fb542023          	sw	s5,-96(s0)
80001860:	0087a903          	lw	s2,8(a5)
80001864:	00c7a983          	lw	s3,12(a5)
80001868:	0107af03          	lw	t5,16(a5)
8000186c:	0147af83          	lw	t6,20(a5)
80001870:	0187ae03          	lw	t3,24(a5)
80001874:	01c7ae83          	lw	t4,28(a5)
80001878:	0207a303          	lw	t1,32(a5)
8000187c:	0247a383          	lw	t2,36(a5)
80001880:	0287a803          	lw	a6,40(a5)
80001884:	02c7a883          	lw	a7,44(a5)
80001888:	0307a503          	lw	a0,48(a5)
8000188c:	0347a583          	lw	a1,52(a5)
80001890:	0387a603          	lw	a2,56(a5)
80001894:	03c7a683          	lw	a3,60(a5)
80001898:	0007aa03          	lw	s4,0(a5)
8000189c:	0047aa83          	lw	s5,4(a5)
800018a0:	01272423          	sw	s2,8(a4)
800018a4:	01472023          	sw	s4,0(a4)
800018a8:	01572223          	sw	s5,4(a4)
800018ac:	01372623          	sw	s3,12(a4)
800018b0:	01e72823          	sw	t5,16(a4)
800018b4:	01f72a23          	sw	t6,20(a4)
800018b8:	01c72c23          	sw	t3,24(a4)
800018bc:	01d72e23          	sw	t4,28(a4)
800018c0:	02672023          	sw	t1,32(a4)
800018c4:	02772223          	sw	t2,36(a4)
800018c8:	03072423          	sw	a6,40(a4)
800018cc:	03172623          	sw	a7,44(a4)
800018d0:	02a72823          	sw	a0,48(a4)
800018d4:	02b72a23          	sw	a1,52(a4)
800018d8:	02c72c23          	sw	a2,56(a4)
800018dc:	02d72e23          	sw	a3,60(a4)
800018e0:	04078793          	addi	a5,a5,64
800018e4:	04070713          	addi	a4,a4,64
800018e8:	f6f29ce3          	bne	t0,a5,80001860 <mm_cb+0x498>
800018ec:	0042a783          	lw	a5,4(t0)
800018f0:	0c848493          	addi	s1,s1,200
800018f4:	0002a703          	lw	a4,0(t0)
800018f8:	fef4ae23          	sw	a5,-4(s1)
800018fc:	e2442783          	lw	a5,-476(s0)
80001900:	019b8b93          	addi	s7,s7,25
80001904:	fee4ac23          	sw	a4,-8(s1)
80001908:	00f282b3          	add	t0,t0,a5
8000190c:	25800793          	li	a5,600
80001910:	fa842a03          	lw	s4,-88(s0)
80001914:	fa042a83          	lw	s5,-96(s0)
80001918:	f2fb9ce3          	bne	s7,a5,80001850 <mm_cb+0x488>
8000191c:	e4042783          	lw	a5,-448(s0)
80001920:	019a8a93          	addi	s5,s5,25
80001924:	0c8b0b13          	addi	s6,s6,200
80001928:	f0fae2e3          	bltu	s5,a5,8000182c <mm_cb+0x464>
8000192c:	e0442783          	lw	a5,-508(s0)
80001930:	018c0c13          	addi	s8,s8,24
80001934:	00fc8cb3          	add	s9,s9,a5
80001938:	e3042783          	lw	a5,-464(s0)
8000193c:	ecfc68e3          	bltu	s8,a5,8000180c <mm_cb+0x444>
80001940:	e3442703          	lw	a4,-460(s0)
80001944:	e4442583          	lw	a1,-444(s0)
80001948:	01800793          	li	a5,24
8000194c:	02f77533          	remu	a0,a4,a5
80001950:	e0042803          	lw	a6,-512(s0)
80001954:	fb042783          	lw	a5,-80(s0)
80001958:	e3c42303          	lw	t1,-452(s0)
8000195c:	00259693          	slli	a3,a1,0x2
80001960:	01078633          	add	a2,a5,a6
80001964:	00b686b3          	add	a3,a3,a1
80001968:	00281793          	slli	a5,a6,0x2
8000196c:	40f807b3          	sub	a5,a6,a5
80001970:	00369693          	slli	a3,a3,0x3
80001974:	006d0d33          	add	s10,s10,t1
80001978:	00bd8db3          	add	s11,s11,a1
8000197c:	e4d42c23          	sw	a3,-424(s0)
80001980:	00679793          	slli	a5,a5,0x6
80001984:	006d1693          	slli	a3,s10,0x6
80001988:	ded42023          	sw	a3,-544(s0)
8000198c:	d8f42823          	sw	a5,-624(s0)
80001990:	dc442683          	lw	a3,-572(s0)
80001994:	006d9793          	slli	a5,s11,0x6
80001998:	d8f42623          	sw	a5,-628(s0)
8000199c:	00042783          	lw	a5,0(s0)
800019a0:	00661613          	slli	a2,a2,0x6
800019a4:	00c686b3          	add	a3,a3,a2
800019a8:	e2d42023          	sw	a3,-480(s0)
800019ac:	00579793          	slli	a5,a5,0x5
800019b0:	00531693          	slli	a3,t1,0x5
800019b4:	dcd42623          	sw	a3,-564(s0)
800019b8:	d8f42c23          	sw	a5,-616(s0)
800019bc:	e1842683          	lw	a3,-488(s0)
800019c0:	fffff7b7          	lui	a5,0xfffff
800019c4:	d4078793          	addi	a5,a5,-704 # ffffed40 <__global_pointer$+0x7ffeeba0>
800019c8:	e6f42623          	sw	a5,-404(s0)
800019cc:	01900793          	li	a5,25
800019d0:	00500713          	li	a4,5
800019d4:	02f6f7b3          	remu	a5,a3,a5
800019d8:	00351693          	slli	a3,a0,0x3
800019dc:	dad42423          	sw	a3,-600(s0)
800019e0:	00600693          	li	a3,6
800019e4:	dca42823          	sw	a0,-560(s0)
800019e8:	00459813          	slli	a6,a1,0x4
800019ec:	e7042223          	sw	a6,-412(s0)
800019f0:	003d9813          	slli	a6,s11,0x3
800019f4:	e5042e23          	sw	a6,-420(s0)
800019f8:	00559813          	slli	a6,a1,0x5
800019fc:	004d9893          	slli	a7,s11,0x4
80001a00:	e7142423          	sw	a7,-408(s0)
80001a04:	e7042023          	sw	a6,-416(s0)
80001a08:	de042e23          	sw	zero,-516(s0)
80001a0c:	02d556b3          	divu	a3,a0,a3
80001a10:	daf42823          	sw	a5,-592(s0)
80001a14:	00078513          	mv	a0,a5
80001a18:	02e7d633          	divu	a2,a5,a4
80001a1c:	00169793          	slli	a5,a3,0x1
80001a20:	00d787b3          	add	a5,a5,a3
80001a24:	00479793          	slli	a5,a5,0x4
80001a28:	d8f42a23          	sw	a5,-620(s0)
80001a2c:	e3842783          	lw	a5,-456(s0)
80001a30:	02b787b3          	mul	a5,a5,a1
80001a34:	00261593          	slli	a1,a2,0x2
80001a38:	00c58633          	add	a2,a1,a2
80001a3c:	e2842583          	lw	a1,-472(s0)
80001a40:	e0c42623          	sw	a2,-500(s0)
80001a44:	00361613          	slli	a2,a2,0x3
80001a48:	dcc42023          	sw	a2,-576(s0)
80001a4c:	0c800613          	li	a2,200
80001a50:	02c58633          	mul	a2,a1,a2
80001a54:	de442583          	lw	a1,-540(s0)
80001a58:	01978793          	addi	a5,a5,25
80001a5c:	00379793          	slli	a5,a5,0x3
80001a60:	00f587b3          	add	a5,a1,a5
80001a64:	daf42023          	sw	a5,-608(s0)
80001a68:	02e577b3          	remu	a5,a0,a4
80001a6c:	daf42223          	sw	a5,-604(s0)
80001a70:	e0842783          	lw	a5,-504(s0)
80001a74:	00c787b3          	add	a5,a5,a2
80001a78:	e0f42e23          	sw	a5,-484(s0)
80001a7c:	00c587b3          	add	a5,a1,a2
80001a80:	d8f42e23          	sw	a5,-612(s0)
80001a84:	02d887b3          	mul	a5,a7,a3
80001a88:	def42a23          	sw	a5,-524(s0)
80001a8c:	e4042783          	lw	a5,-448(s0)
80001a90:	00079463          	bnez	a5,80001a98 <mm_cb+0x6d0>
80001a94:	7c90506f          	j	80007a5c <mm_cb+0x6694>
80001a98:	dfc42703          	lw	a4,-516(s0)
80001a9c:	01800793          	li	a5,24
80001aa0:	e2042683          	lw	a3,-480(s0)
80001aa4:	02f757b3          	divu	a5,a4,a5
80001aa8:	de042703          	lw	a4,-544(s0)
80001aac:	e0042823          	sw	zero,-496(s0)
80001ab0:	00d70733          	add	a4,a4,a3
80001ab4:	dce42e23          	sw	a4,-548(s0)
80001ab8:	da042703          	lw	a4,-608(s0)
80001abc:	e2e42623          	sw	a4,-468(s0)
80001ac0:	e0042703          	lw	a4,-512(s0)
80001ac4:	02e78733          	mul	a4,a5,a4
80001ac8:	dee42623          	sw	a4,-532(s0)
80001acc:	e2842703          	lw	a4,-472(s0)
80001ad0:	02e787b3          	mul	a5,a5,a4
80001ad4:	def42823          	sw	a5,-528(s0)
80001ad8:	e3842783          	lw	a5,-456(s0)
80001adc:	00079463          	bnez	a5,80001ae4 <mm_cb+0x71c>
80001ae0:	4f90106f          	j	800037d8 <mm_cb+0x2410>
80001ae4:	e1042783          	lw	a5,-496(s0)
80001ae8:	01900713          	li	a4,25
80001aec:	de042c23          	sw	zero,-520(s0)
80001af0:	02e7d7b3          	divu	a5,a5,a4
80001af4:	df042703          	lw	a4,-528(s0)
80001af8:	daf42c23          	sw	a5,-584(s0)
80001afc:	00e787b3          	add	a5,a5,a4
80001b00:	00001737          	lui	a4,0x1
80001b04:	2c070693          	addi	a3,a4,704 # 12c0 <buflen.2941+0x1240>
80001b08:	02d787b3          	mul	a5,a5,a3
80001b0c:	e1442683          	lw	a3,-492(s0)
80001b10:	2c070713          	addi	a4,a4,704
80001b14:	00f687b3          	add	a5,a3,a5
80001b18:	00e78733          	add	a4,a5,a4
80001b1c:	0c878793          	addi	a5,a5,200
80001b20:	dae42623          	sw	a4,-596(s0)
80001b24:	d8f42423          	sw	a5,-632(s0)
80001b28:	df842703          	lw	a4,-520(s0)
80001b2c:	01800793          	li	a5,24
80001b30:	dec42683          	lw	a3,-532(s0)
80001b34:	02f757b3          	divu	a5,a4,a5
80001b38:	d8842703          	lw	a4,-632(s0)
80001b3c:	e4042823          	sw	zero,-432(s0)
80001b40:	e4e42a23          	sw	a4,-428(s0)
80001b44:	e2842703          	lw	a4,-472(s0)
80001b48:	02e78733          	mul	a4,a5,a4
80001b4c:	00f687b3          	add	a5,a3,a5
80001b50:	00379693          	slli	a3,a5,0x3
80001b54:	00f687b3          	add	a5,a3,a5
80001b58:	dd842683          	lw	a3,-552(s0)
80001b5c:	00979793          	slli	a5,a5,0x9
80001b60:	00f687b3          	add	a5,a3,a5
80001b64:	dcf42423          	sw	a5,-568(s0)
80001b68:	e6f42c23          	sw	a5,-392(s0)
80001b6c:	db842783          	lw	a5,-584(s0)
80001b70:	00f707b3          	add	a5,a4,a5
80001b74:	00001737          	lui	a4,0x1
80001b78:	2c070693          	addi	a3,a4,704 # 12c0 <buflen.2941+0x1240>
80001b7c:	02d787b3          	mul	a5,a5,a3
80001b80:	dd442683          	lw	a3,-556(s0)
80001b84:	00f687b3          	add	a5,a3,a5
80001b88:	0c878693          	addi	a3,a5,200
80001b8c:	e4d42623          	sw	a3,-436(s0)
80001b90:	2c070693          	addi	a3,a4,704
80001b94:	38870713          	addi	a4,a4,904
80001b98:	00d786b3          	add	a3,a5,a3
80001b9c:	daf42a23          	sw	a5,-588(s0)
80001ba0:	00e787b3          	add	a5,a5,a4
80001ba4:	e4d42423          	sw	a3,-440(s0)
80001ba8:	e6f42823          	sw	a5,-400(s0)
80001bac:	e5442783          	lw	a5,-428(s0)
80001bb0:	f3878f13          	addi	t5,a5,-200
80001bb4:	e4842783          	lw	a5,-440(s0)
80001bb8:	000f0293          	mv	t0,t5
80001bbc:	e8f42223          	sw	a5,-380(s0)
80001bc0:	0042a783          	lw	a5,4(t0)
80001bc4:	0002ae83          	lw	t4,0(t0)
80001bc8:	f6f42823          	sw	a5,-144(s0)
80001bcc:	0082a783          	lw	a5,8(t0)
80001bd0:	000e8993          	mv	s3,t4
80001bd4:	f6f42423          	sw	a5,-152(s0)
80001bd8:	00c2a783          	lw	a5,12(t0)
80001bdc:	f6f42c23          	sw	a5,-136(s0)
80001be0:	0102a783          	lw	a5,16(t0)
80001be4:	f6f42023          	sw	a5,-160(s0)
80001be8:	0142a783          	lw	a5,20(t0)
80001bec:	f4f42e23          	sw	a5,-164(s0)
80001bf0:	0182a783          	lw	a5,24(t0)
80001bf4:	f4f42823          	sw	a5,-176(s0)
80001bf8:	01c2a783          	lw	a5,28(t0)
80001bfc:	f4f42c23          	sw	a5,-168(s0)
80001c00:	0202a783          	lw	a5,32(t0)
80001c04:	f4f42423          	sw	a5,-184(s0)
80001c08:	0242a783          	lw	a5,36(t0)
80001c0c:	f4f42223          	sw	a5,-188(s0)
80001c10:	0c82a783          	lw	a5,200(t0)
80001c14:	f2f42c23          	sw	a5,-200(s0)
80001c18:	0cc2a783          	lw	a5,204(t0)
80001c1c:	f4f42023          	sw	a5,-192(s0)
80001c20:	0d02a783          	lw	a5,208(t0)
80001c24:	f8f42023          	sw	a5,-128(s0)
80001c28:	0d42a783          	lw	a5,212(t0)
80001c2c:	f6f42e23          	sw	a5,-132(s0)
80001c30:	0d82a783          	lw	a5,216(t0)
80001c34:	faf42423          	sw	a5,-88(s0)
80001c38:	0dc2a783          	lw	a5,220(t0)
80001c3c:	faf42023          	sw	a5,-96(s0)
80001c40:	0e02a783          	lw	a5,224(t0)
80001c44:	faf42c23          	sw	a5,-72(s0)
80001c48:	0e42a783          	lw	a5,228(t0)
80001c4c:	faf42823          	sw	a5,-80(s0)
80001c50:	0e82a783          	lw	a5,232(t0)
80001c54:	f2f42a23          	sw	a5,-204(s0)
80001c58:	0ec2a783          	lw	a5,236(t0)
80001c5c:	f2f42823          	sw	a5,-208(s0)
80001c60:	1902a783          	lw	a5,400(t0)
80001c64:	f2f42623          	sw	a5,-212(s0)
80001c68:	1942a783          	lw	a5,404(t0)
80001c6c:	f2f42423          	sw	a5,-216(s0)
80001c70:	1982a783          	lw	a5,408(t0)
80001c74:	f2f42223          	sw	a5,-220(s0)
80001c78:	19c2a783          	lw	a5,412(t0)
80001c7c:	f2f42023          	sw	a5,-224(s0)
80001c80:	1a02a783          	lw	a5,416(t0)
80001c84:	f0f42e23          	sw	a5,-228(s0)
80001c88:	1a42a783          	lw	a5,420(t0)
80001c8c:	f0f42c23          	sw	a5,-232(s0)
80001c90:	1a82a783          	lw	a5,424(t0)
80001c94:	f0f42a23          	sw	a5,-236(s0)
80001c98:	1ac2a783          	lw	a5,428(t0)
80001c9c:	f0f42423          	sw	a5,-248(s0)
80001ca0:	1b02a783          	lw	a5,432(t0)
80001ca4:	f0f42823          	sw	a5,-240(s0)
80001ca8:	1b42a783          	lw	a5,436(t0)
80001cac:	f0f42023          	sw	a5,-256(s0)
80001cb0:	2582a783          	lw	a5,600(t0)
80001cb4:	eef42c23          	sw	a5,-264(s0)
80001cb8:	25c2a783          	lw	a5,604(t0)
80001cbc:	eef42823          	sw	a5,-272(s0)
80001cc0:	2602a783          	lw	a5,608(t0)
80001cc4:	eef42423          	sw	a5,-280(s0)
80001cc8:	2642a783          	lw	a5,612(t0)
80001ccc:	e6c42703          	lw	a4,-404(s0)
80001cd0:	e8542023          	sw	t0,-384(s0)
80001cd4:	eef42023          	sw	a5,-288(s0)
80001cd8:	2682a783          	lw	a5,616(t0)
80001cdc:	ecf42c23          	sw	a5,-296(s0)
80001ce0:	26c2a783          	lw	a5,620(t0)
80001ce4:	ecf42823          	sw	a5,-304(s0)
80001ce8:	2702a783          	lw	a5,624(t0)
80001cec:	f8f42423          	sw	a5,-120(s0)
80001cf0:	2742a783          	lw	a5,628(t0)
80001cf4:	f8f42823          	sw	a5,-112(s0)
80001cf8:	2782a783          	lw	a5,632(t0)
80001cfc:	f8f42c23          	sw	a5,-104(s0)
80001d00:	27c2a783          	lw	a5,636(t0)
80001d04:	f8f42a23          	sw	a5,-108(s0)
80001d08:	e8442783          	lw	a5,-380(s0)
80001d0c:	00e784b3          	add	s1,a5,a4
80001d10:	e7842783          	lw	a5,-392(s0)
80001d14:	00078913          	mv	s2,a5
80001d18:	00092a03          	lw	s4,0(s2)
80001d1c:	00492a83          	lw	s5,4(s2)
80001d20:	0004ad03          	lw	s10,0(s1)
80001d24:	0044ad83          	lw	s11,4(s1)
80001d28:	f7042783          	lw	a5,-144(s0)
80001d2c:	00098713          	mv	a4,s3
80001d30:	000d0613          	mv	a2,s10
80001d34:	000d8693          	mv	a3,s11
80001d38:	000a0513          	mv	a0,s4
80001d3c:	000a8593          	mv	a1,s5
80001d40:	6dc0b0ef          	jal	ra,8000d41c <fma>
80001d44:	0084a803          	lw	a6,8(s1)
80001d48:	00c4a883          	lw	a7,12(s1)
80001d4c:	f6842703          	lw	a4,-152(s0)
80001d50:	f7842783          	lw	a5,-136(s0)
80001d54:	00058e93          	mv	t4,a1
80001d58:	00080613          	mv	a2,a6
80001d5c:	00088693          	mv	a3,a7
80001d60:	00050993          	mv	s3,a0
80001d64:	000a8593          	mv	a1,s5
80001d68:	000a0513          	mv	a0,s4
80001d6c:	ebd42423          	sw	t4,-344(s0)
80001d70:	ed042023          	sw	a6,-320(s0)
80001d74:	ed142223          	sw	a7,-316(s0)
80001d78:	6a40b0ef          	jal	ra,8000d41c <fma>
80001d7c:	0104a303          	lw	t1,16(s1)
80001d80:	0144a383          	lw	t2,20(s1)
80001d84:	f6042703          	lw	a4,-160(s0)
80001d88:	f5c42783          	lw	a5,-164(s0)
80001d8c:	00050f13          	mv	t5,a0
80001d90:	00058f93          	mv	t6,a1
80001d94:	00030613          	mv	a2,t1
80001d98:	00038693          	mv	a3,t2
80001d9c:	000a0513          	mv	a0,s4
80001da0:	000a8593          	mv	a1,s5
80001da4:	ebe42c23          	sw	t5,-328(s0)
80001da8:	ebf42823          	sw	t6,-336(s0)
80001dac:	ec642423          	sw	t1,-312(s0)
80001db0:	ec742623          	sw	t2,-308(s0)
80001db4:	6680b0ef          	jal	ra,8000d41c <fma>
80001db8:	0184ac03          	lw	s8,24(s1)
80001dbc:	01c4ac83          	lw	s9,28(s1)
80001dc0:	f5042703          	lw	a4,-176(s0)
80001dc4:	f5842783          	lw	a5,-168(s0)
80001dc8:	00050293          	mv	t0,a0
80001dcc:	00058e13          	mv	t3,a1
80001dd0:	000c0613          	mv	a2,s8
80001dd4:	000c8693          	mv	a3,s9
80001dd8:	000a0513          	mv	a0,s4
80001ddc:	000a8593          	mv	a1,s5
80001de0:	ea542e23          	sw	t0,-324(s0)
80001de4:	f7c42823          	sw	t3,-144(s0)
80001de8:	6340b0ef          	jal	ra,8000d41c <fma>
80001dec:	0204ab03          	lw	s6,32(s1)
80001df0:	0244ab83          	lw	s7,36(s1)
80001df4:	f4842703          	lw	a4,-184(s0)
80001df8:	f4442783          	lw	a5,-188(s0)
80001dfc:	00050093          	mv	ra,a0
80001e00:	00058e13          	mv	t3,a1
80001e04:	000b0613          	mv	a2,s6
80001e08:	000b8693          	mv	a3,s7
80001e0c:	000a0513          	mv	a0,s4
80001e10:	000a8593          	mv	a1,s5
80001e14:	f6142423          	sw	ra,-152(s0)
80001e18:	f7c42c23          	sw	t3,-136(s0)
80001e1c:	6000b0ef          	jal	ra,8000d41c <fma>
80001e20:	0c092a03          	lw	s4,192(s2)
80001e24:	0c492a83          	lw	s5,196(s2)
80001e28:	f3842703          	lw	a4,-200(s0)
80001e2c:	f4042783          	lw	a5,-192(s0)
80001e30:	00050093          	mv	ra,a0
80001e34:	00058e13          	mv	t3,a1
80001e38:	000d0613          	mv	a2,s10
80001e3c:	000d8693          	mv	a3,s11
80001e40:	000a0513          	mv	a0,s4
80001e44:	000a8593          	mv	a1,s5
80001e48:	f6142023          	sw	ra,-160(s0)
80001e4c:	f5c42e23          	sw	t3,-164(s0)
80001e50:	5cc0b0ef          	jal	ra,8000d41c <fma>
80001e54:	ec042803          	lw	a6,-320(s0)
80001e58:	ec442883          	lw	a7,-316(s0)
80001e5c:	f8042703          	lw	a4,-128(s0)
80001e60:	f7c42783          	lw	a5,-132(s0)
80001e64:	00080613          	mv	a2,a6
80001e68:	00088693          	mv	a3,a7
80001e6c:	00050093          	mv	ra,a0
80001e70:	00058e13          	mv	t3,a1
80001e74:	000a0513          	mv	a0,s4
80001e78:	000a8593          	mv	a1,s5
80001e7c:	f3042c23          	sw	a6,-200(s0)
80001e80:	f3142e23          	sw	a7,-196(s0)
80001e84:	f8142023          	sw	ra,-128(s0)
80001e88:	f7c42e23          	sw	t3,-132(s0)
80001e8c:	5900b0ef          	jal	ra,8000d41c <fma>
80001e90:	ec842303          	lw	t1,-312(s0)
80001e94:	ecc42383          	lw	t2,-308(s0)
80001e98:	fa842703          	lw	a4,-88(s0)
80001e9c:	fa042783          	lw	a5,-96(s0)
80001ea0:	00030613          	mv	a2,t1
80001ea4:	00038693          	mv	a3,t2
80001ea8:	00050093          	mv	ra,a0
80001eac:	00058e13          	mv	t3,a1
80001eb0:	000a0513          	mv	a0,s4
80001eb4:	000a8593          	mv	a1,s5
80001eb8:	fa142423          	sw	ra,-88(s0)
80001ebc:	fbc42023          	sw	t3,-96(s0)
80001ec0:	55c0b0ef          	jal	ra,8000d41c <fma>
80001ec4:	fb842703          	lw	a4,-72(s0)
80001ec8:	fb042783          	lw	a5,-80(s0)
80001ecc:	00050093          	mv	ra,a0
80001ed0:	00058e13          	mv	t3,a1
80001ed4:	000c0613          	mv	a2,s8
80001ed8:	000c8693          	mv	a3,s9
80001edc:	000a0513          	mv	a0,s4
80001ee0:	000a8593          	mv	a1,s5
80001ee4:	fa142c23          	sw	ra,-72(s0)
80001ee8:	fbc42823          	sw	t3,-80(s0)
80001eec:	5300b0ef          	jal	ra,8000d41c <fma>
80001ef0:	f3442703          	lw	a4,-204(s0)
80001ef4:	f3042783          	lw	a5,-208(s0)
80001ef8:	00050093          	mv	ra,a0
80001efc:	00058e13          	mv	t3,a1
80001f00:	000b0613          	mv	a2,s6
80001f04:	000b8693          	mv	a3,s7
80001f08:	000a0513          	mv	a0,s4
80001f0c:	000a8593          	mv	a1,s5
80001f10:	f4142823          	sw	ra,-176(s0)
80001f14:	f5c42c23          	sw	t3,-168(s0)
80001f18:	5040b0ef          	jal	ra,8000d41c <fma>
80001f1c:	18092a03          	lw	s4,384(s2)
80001f20:	18492a83          	lw	s5,388(s2)
80001f24:	f2c42703          	lw	a4,-212(s0)
80001f28:	f2842783          	lw	a5,-216(s0)
80001f2c:	00050093          	mv	ra,a0
80001f30:	00058e13          	mv	t3,a1
80001f34:	000d0613          	mv	a2,s10
80001f38:	000d8693          	mv	a3,s11
80001f3c:	000a0513          	mv	a0,s4
80001f40:	000a8593          	mv	a1,s5
80001f44:	f4142423          	sw	ra,-184(s0)
80001f48:	f5c42223          	sw	t3,-188(s0)
80001f4c:	4d00b0ef          	jal	ra,8000d41c <fma>
80001f50:	f3842803          	lw	a6,-200(s0)
80001f54:	f3c42883          	lw	a7,-196(s0)
80001f58:	f2442703          	lw	a4,-220(s0)
80001f5c:	f2042783          	lw	a5,-224(s0)
80001f60:	00080613          	mv	a2,a6
80001f64:	00088693          	mv	a3,a7
80001f68:	00050093          	mv	ra,a0
80001f6c:	00058e13          	mv	t3,a1
80001f70:	000a0513          	mv	a0,s4
80001f74:	000a8593          	mv	a1,s5
80001f78:	f2142c23          	sw	ra,-200(s0)
80001f7c:	f5c42023          	sw	t3,-192(s0)
80001f80:	49c0b0ef          	jal	ra,8000d41c <fma>
80001f84:	ec842303          	lw	t1,-312(s0)
80001f88:	ecc42383          	lw	t2,-308(s0)
80001f8c:	f1c42703          	lw	a4,-228(s0)
80001f90:	f1842783          	lw	a5,-232(s0)
80001f94:	00050093          	mv	ra,a0
80001f98:	00030613          	mv	a2,t1
80001f9c:	00038693          	mv	a3,t2
80001fa0:	00058e13          	mv	t3,a1
80001fa4:	f2142a23          	sw	ra,-204(s0)
80001fa8:	000a0513          	mv	a0,s4
80001fac:	000a8593          	mv	a1,s5
80001fb0:	f3c42823          	sw	t3,-208(s0)
80001fb4:	4680b0ef          	jal	ra,8000d41c <fma>
80001fb8:	f1442703          	lw	a4,-236(s0)
80001fbc:	f0842783          	lw	a5,-248(s0)
80001fc0:	00050093          	mv	ra,a0
80001fc4:	00058e13          	mv	t3,a1
80001fc8:	000c0613          	mv	a2,s8
80001fcc:	000c8693          	mv	a3,s9
80001fd0:	000a0513          	mv	a0,s4
80001fd4:	000a8593          	mv	a1,s5
80001fd8:	f2142623          	sw	ra,-212(s0)
80001fdc:	f3c42423          	sw	t3,-216(s0)
80001fe0:	43c0b0ef          	jal	ra,8000d41c <fma>
80001fe4:	f1042703          	lw	a4,-240(s0)
80001fe8:	f0042783          	lw	a5,-256(s0)
80001fec:	00050093          	mv	ra,a0
80001ff0:	00058e13          	mv	t3,a1
80001ff4:	000b0613          	mv	a2,s6
80001ff8:	000b8693          	mv	a3,s7
80001ffc:	000a0513          	mv	a0,s4
80002000:	000a8593          	mv	a1,s5
80002004:	f2142223          	sw	ra,-220(s0)
80002008:	f3c42023          	sw	t3,-224(s0)
8000200c:	4100b0ef          	jal	ra,8000d41c <fma>
80002010:	24092a03          	lw	s4,576(s2)
80002014:	24492a83          	lw	s5,580(s2)
80002018:	ef842703          	lw	a4,-264(s0)
8000201c:	ef042783          	lw	a5,-272(s0)
80002020:	00050093          	mv	ra,a0
80002024:	00058e13          	mv	t3,a1
80002028:	000d0613          	mv	a2,s10
8000202c:	000d8693          	mv	a3,s11
80002030:	000a0513          	mv	a0,s4
80002034:	000a8593          	mv	a1,s5
80002038:	f0142e23          	sw	ra,-228(s0)
8000203c:	f1c42c23          	sw	t3,-232(s0)
80002040:	3dc0b0ef          	jal	ra,8000d41c <fma>
80002044:	ec042803          	lw	a6,-320(s0)
80002048:	ec442883          	lw	a7,-316(s0)
8000204c:	ee842703          	lw	a4,-280(s0)
80002050:	ee042783          	lw	a5,-288(s0)
80002054:	00050093          	mv	ra,a0
80002058:	00058e13          	mv	t3,a1
8000205c:	00080613          	mv	a2,a6
80002060:	00088693          	mv	a3,a7
80002064:	000a0513          	mv	a0,s4
80002068:	000a8593          	mv	a1,s5
8000206c:	f0142a23          	sw	ra,-236(s0)
80002070:	f1c42423          	sw	t3,-248(s0)
80002074:	3a80b0ef          	jal	ra,8000d41c <fma>
80002078:	ecc42383          	lw	t2,-308(s0)
8000207c:	ec842303          	lw	t1,-312(s0)
80002080:	ed842703          	lw	a4,-296(s0)
80002084:	ed042783          	lw	a5,-304(s0)
80002088:	00038693          	mv	a3,t2
8000208c:	00030613          	mv	a2,t1
80002090:	00050893          	mv	a7,a0
80002094:	00058813          	mv	a6,a1
80002098:	000a0513          	mv	a0,s4
8000209c:	000a8593          	mv	a1,s5
800020a0:	f1142823          	sw	a7,-240(s0)
800020a4:	f1042023          	sw	a6,-256(s0)
800020a8:	3740b0ef          	jal	ra,8000d41c <fma>
800020ac:	f8842703          	lw	a4,-120(s0)
800020b0:	f9042783          	lw	a5,-112(s0)
800020b4:	00050893          	mv	a7,a0
800020b8:	00058813          	mv	a6,a1
800020bc:	000c0613          	mv	a2,s8
800020c0:	000c8693          	mv	a3,s9
800020c4:	000a0513          	mv	a0,s4
800020c8:	000a8593          	mv	a1,s5
800020cc:	f9142423          	sw	a7,-120(s0)
800020d0:	f9042823          	sw	a6,-112(s0)
800020d4:	3480b0ef          	jal	ra,8000d41c <fma>
800020d8:	f9842703          	lw	a4,-104(s0)
800020dc:	f9442783          	lw	a5,-108(s0)
800020e0:	00050893          	mv	a7,a0
800020e4:	00058813          	mv	a6,a1
800020e8:	000b0613          	mv	a2,s6
800020ec:	000b8693          	mv	a3,s7
800020f0:	000a0513          	mv	a0,s4
800020f4:	000a8593          	mv	a1,s5
800020f8:	f9142c23          	sw	a7,-104(s0)
800020fc:	f9042a23          	sw	a6,-108(s0)
80002100:	31c0b0ef          	jal	ra,8000d41c <fma>
80002104:	00892a03          	lw	s4,8(s2)
80002108:	00c92a83          	lw	s5,12(s2)
8000210c:	0c84ad03          	lw	s10,200(s1)
80002110:	0cc4ad83          	lw	s11,204(s1)
80002114:	ea842e83          	lw	t4,-344(s0)
80002118:	00058e13          	mv	t3,a1
8000211c:	00050813          	mv	a6,a0
80002120:	00098713          	mv	a4,s3
80002124:	000e8793          	mv	a5,t4
80002128:	000d0613          	mv	a2,s10
8000212c:	000d8693          	mv	a3,s11
80002130:	000a0513          	mv	a0,s4
80002134:	000a8593          	mv	a1,s5
80002138:	edc42823          	sw	t3,-304(s0)
8000213c:	00080993          	mv	s3,a6
80002140:	2dc0b0ef          	jal	ra,8000d41c <fma>
80002144:	eb042f83          	lw	t6,-336(s0)
80002148:	0d04a803          	lw	a6,208(s1)
8000214c:	0d44a883          	lw	a7,212(s1)
80002150:	eb842f03          	lw	t5,-328(s0)
80002154:	000f8793          	mv	a5,t6
80002158:	00080613          	mv	a2,a6
8000215c:	00088693          	mv	a3,a7
80002160:	00050e93          	mv	t4,a0
80002164:	00058313          	mv	t1,a1
80002168:	000f0713          	mv	a4,t5
8000216c:	000a0513          	mv	a0,s4
80002170:	000a8593          	mv	a1,s5
80002174:	ef042023          	sw	a6,-288(s0)
80002178:	ef142223          	sw	a7,-284(s0)
8000217c:	edd42c23          	sw	t4,-296(s0)
80002180:	ee642c23          	sw	t1,-264(s0)
80002184:	2980b0ef          	jal	ra,8000d41c <fma>
80002188:	ebc42283          	lw	t0,-324(s0)
8000218c:	0d84a303          	lw	t1,216(s1)
80002190:	0dc4a383          	lw	t2,220(s1)
80002194:	f7042783          	lw	a5,-144(s0)
80002198:	00028713          	mv	a4,t0
8000219c:	00030613          	mv	a2,t1
800021a0:	00038693          	mv	a3,t2
800021a4:	00050f13          	mv	t5,a0
800021a8:	00058e93          	mv	t4,a1
800021ac:	000a0513          	mv	a0,s4
800021b0:	000a8593          	mv	a1,s5
800021b4:	ee642423          	sw	t1,-280(s0)
800021b8:	ee742623          	sw	t2,-276(s0)
800021bc:	f7e42823          	sw	t5,-144(s0)
800021c0:	efd42823          	sw	t4,-272(s0)
800021c4:	2580b0ef          	jal	ra,8000d41c <fma>
800021c8:	0e04ac03          	lw	s8,224(s1)
800021cc:	0e44ac83          	lw	s9,228(s1)
800021d0:	f6842703          	lw	a4,-152(s0)
800021d4:	f7842783          	lw	a5,-136(s0)
800021d8:	00050f13          	mv	t5,a0
800021dc:	00058e93          	mv	t4,a1
800021e0:	000c0613          	mv	a2,s8
800021e4:	000c8693          	mv	a3,s9
800021e8:	000a0513          	mv	a0,s4
800021ec:	000a8593          	mv	a1,s5
800021f0:	f7e42423          	sw	t5,-152(s0)
800021f4:	f7d42c23          	sw	t4,-136(s0)
800021f8:	2240b0ef          	jal	ra,8000d41c <fma>
800021fc:	0e84ab03          	lw	s6,232(s1)
80002200:	0ec4ab83          	lw	s7,236(s1)
80002204:	f6042703          	lw	a4,-160(s0)
80002208:	f5c42783          	lw	a5,-164(s0)
8000220c:	00050f13          	mv	t5,a0
80002210:	00058e93          	mv	t4,a1
80002214:	000b0613          	mv	a2,s6
80002218:	000b8693          	mv	a3,s7
8000221c:	000a0513          	mv	a0,s4
80002220:	000a8593          	mv	a1,s5
80002224:	f7e42023          	sw	t5,-160(s0)
80002228:	f5d42e23          	sw	t4,-164(s0)
8000222c:	1f00b0ef          	jal	ra,8000d41c <fma>
80002230:	0c892a03          	lw	s4,200(s2)
80002234:	0cc92a83          	lw	s5,204(s2)
80002238:	f8042703          	lw	a4,-128(s0)
8000223c:	f7c42783          	lw	a5,-132(s0)
80002240:	00050f13          	mv	t5,a0
80002244:	00058e93          	mv	t4,a1
80002248:	000d0613          	mv	a2,s10
8000224c:	000d8693          	mv	a3,s11
80002250:	000a0513          	mv	a0,s4
80002254:	000a8593          	mv	a1,s5
80002258:	f9e42023          	sw	t5,-128(s0)
8000225c:	f7d42e23          	sw	t4,-132(s0)
80002260:	1bc0b0ef          	jal	ra,8000d41c <fma>
80002264:	ee042803          	lw	a6,-288(s0)
80002268:	ee442883          	lw	a7,-284(s0)
8000226c:	fa842703          	lw	a4,-88(s0)
80002270:	fa042783          	lw	a5,-96(s0)
80002274:	00050f13          	mv	t5,a0
80002278:	00080613          	mv	a2,a6
8000227c:	00088693          	mv	a3,a7
80002280:	00058e93          	mv	t4,a1
80002284:	fbe42423          	sw	t5,-88(s0)
80002288:	000a0513          	mv	a0,s4
8000228c:	000a8593          	mv	a1,s5
80002290:	fbd42023          	sw	t4,-96(s0)
80002294:	1880b0ef          	jal	ra,8000d41c <fma>
80002298:	ee842303          	lw	t1,-280(s0)
8000229c:	eec42383          	lw	t2,-276(s0)
800022a0:	fb842703          	lw	a4,-72(s0)
800022a4:	fb042783          	lw	a5,-80(s0)
800022a8:	00030613          	mv	a2,t1
800022ac:	00038693          	mv	a3,t2
800022b0:	00050f13          	mv	t5,a0
800022b4:	00058e93          	mv	t4,a1
800022b8:	000a0513          	mv	a0,s4
800022bc:	000a8593          	mv	a1,s5
800022c0:	fbe42c23          	sw	t5,-72(s0)
800022c4:	fbd42823          	sw	t4,-80(s0)
800022c8:	1540b0ef          	jal	ra,8000d41c <fma>
800022cc:	f5042703          	lw	a4,-176(s0)
800022d0:	f5842783          	lw	a5,-168(s0)
800022d4:	00050f13          	mv	t5,a0
800022d8:	00058e93          	mv	t4,a1
800022dc:	000c0613          	mv	a2,s8
800022e0:	000c8693          	mv	a3,s9
800022e4:	000a0513          	mv	a0,s4
800022e8:	000a8593          	mv	a1,s5
800022ec:	f5e42823          	sw	t5,-176(s0)
800022f0:	f5d42c23          	sw	t4,-168(s0)
800022f4:	1280b0ef          	jal	ra,8000d41c <fma>
800022f8:	f4842703          	lw	a4,-184(s0)
800022fc:	f4442783          	lw	a5,-188(s0)
80002300:	00050f13          	mv	t5,a0
80002304:	00058e93          	mv	t4,a1
80002308:	000b0613          	mv	a2,s6
8000230c:	000b8693          	mv	a3,s7
80002310:	000a0513          	mv	a0,s4
80002314:	000a8593          	mv	a1,s5
80002318:	f5e42423          	sw	t5,-184(s0)
8000231c:	f5d42223          	sw	t4,-188(s0)
80002320:	0fc0b0ef          	jal	ra,8000d41c <fma>
80002324:	18892a03          	lw	s4,392(s2)
80002328:	18c92a83          	lw	s5,396(s2)
8000232c:	f3842703          	lw	a4,-200(s0)
80002330:	f4042783          	lw	a5,-192(s0)
80002334:	00050f13          	mv	t5,a0
80002338:	00058e93          	mv	t4,a1
8000233c:	000d0613          	mv	a2,s10
80002340:	000d8693          	mv	a3,s11
80002344:	000a0513          	mv	a0,s4
80002348:	000a8593          	mv	a1,s5
8000234c:	f3e42c23          	sw	t5,-200(s0)
80002350:	f5d42023          	sw	t4,-192(s0)
80002354:	0c80b0ef          	jal	ra,8000d41c <fma>
80002358:	ee042803          	lw	a6,-288(s0)
8000235c:	ee442883          	lw	a7,-284(s0)
80002360:	f3442703          	lw	a4,-204(s0)
80002364:	f3042783          	lw	a5,-208(s0)
80002368:	00080613          	mv	a2,a6
8000236c:	00088693          	mv	a3,a7
80002370:	00050f13          	mv	t5,a0
80002374:	00058e93          	mv	t4,a1
80002378:	000a0513          	mv	a0,s4
8000237c:	000a8593          	mv	a1,s5
80002380:	f3e42a23          	sw	t5,-204(s0)
80002384:	f3d42823          	sw	t4,-208(s0)
80002388:	0940b0ef          	jal	ra,8000d41c <fma>
8000238c:	ee842303          	lw	t1,-280(s0)
80002390:	eec42383          	lw	t2,-276(s0)
80002394:	f2c42703          	lw	a4,-212(s0)
80002398:	f2842783          	lw	a5,-216(s0)
8000239c:	00030613          	mv	a2,t1
800023a0:	00038693          	mv	a3,t2
800023a4:	00050f13          	mv	t5,a0
800023a8:	00058e93          	mv	t4,a1
800023ac:	000a0513          	mv	a0,s4
800023b0:	000a8593          	mv	a1,s5
800023b4:	f3e42623          	sw	t5,-212(s0)
800023b8:	f3d42423          	sw	t4,-216(s0)
800023bc:	0600b0ef          	jal	ra,8000d41c <fma>
800023c0:	f2442703          	lw	a4,-220(s0)
800023c4:	f2042783          	lw	a5,-224(s0)
800023c8:	00050f13          	mv	t5,a0
800023cc:	00058e93          	mv	t4,a1
800023d0:	000c0613          	mv	a2,s8
800023d4:	000c8693          	mv	a3,s9
800023d8:	000a0513          	mv	a0,s4
800023dc:	000a8593          	mv	a1,s5
800023e0:	f3e42223          	sw	t5,-220(s0)
800023e4:	f3d42023          	sw	t4,-224(s0)
800023e8:	0340b0ef          	jal	ra,8000d41c <fma>
800023ec:	f1c42703          	lw	a4,-228(s0)
800023f0:	f1842783          	lw	a5,-232(s0)
800023f4:	00050f13          	mv	t5,a0
800023f8:	00058e93          	mv	t4,a1
800023fc:	000b0613          	mv	a2,s6
80002400:	000b8693          	mv	a3,s7
80002404:	000a0513          	mv	a0,s4
80002408:	000a8593          	mv	a1,s5
8000240c:	f1e42e23          	sw	t5,-228(s0)
80002410:	f1d42c23          	sw	t4,-232(s0)
80002414:	0080b0ef          	jal	ra,8000d41c <fma>
80002418:	24892a03          	lw	s4,584(s2)
8000241c:	24c92a83          	lw	s5,588(s2)
80002420:	f1442703          	lw	a4,-236(s0)
80002424:	f0842783          	lw	a5,-248(s0)
80002428:	00050f13          	mv	t5,a0
8000242c:	00058e93          	mv	t4,a1
80002430:	000d0613          	mv	a2,s10
80002434:	000d8693          	mv	a3,s11
80002438:	000a0513          	mv	a0,s4
8000243c:	000a8593          	mv	a1,s5
80002440:	f1e42a23          	sw	t5,-236(s0)
80002444:	f1d42423          	sw	t4,-248(s0)
80002448:	7d50a0ef          	jal	ra,8000d41c <fma>
8000244c:	ee042803          	lw	a6,-288(s0)
80002450:	ee442883          	lw	a7,-284(s0)
80002454:	f1042703          	lw	a4,-240(s0)
80002458:	f0042783          	lw	a5,-256(s0)
8000245c:	00050f13          	mv	t5,a0
80002460:	00058e93          	mv	t4,a1
80002464:	00080613          	mv	a2,a6
80002468:	00088693          	mv	a3,a7
8000246c:	000a0513          	mv	a0,s4
80002470:	000a8593          	mv	a1,s5
80002474:	f1e42823          	sw	t5,-240(s0)
80002478:	f1d42023          	sw	t4,-256(s0)
8000247c:	7a10a0ef          	jal	ra,8000d41c <fma>
80002480:	ee842303          	lw	t1,-280(s0)
80002484:	eec42383          	lw	t2,-276(s0)
80002488:	f8842703          	lw	a4,-120(s0)
8000248c:	f9042783          	lw	a5,-112(s0)
80002490:	00030613          	mv	a2,t1
80002494:	00038693          	mv	a3,t2
80002498:	00050893          	mv	a7,a0
8000249c:	00058813          	mv	a6,a1
800024a0:	000a0513          	mv	a0,s4
800024a4:	000a8593          	mv	a1,s5
800024a8:	f9142423          	sw	a7,-120(s0)
800024ac:	f9042823          	sw	a6,-112(s0)
800024b0:	76d0a0ef          	jal	ra,8000d41c <fma>
800024b4:	f9842703          	lw	a4,-104(s0)
800024b8:	f9442783          	lw	a5,-108(s0)
800024bc:	00050893          	mv	a7,a0
800024c0:	00058813          	mv	a6,a1
800024c4:	000c0613          	mv	a2,s8
800024c8:	000c8693          	mv	a3,s9
800024cc:	000a0513          	mv	a0,s4
800024d0:	000a8593          	mv	a1,s5
800024d4:	f9142c23          	sw	a7,-104(s0)
800024d8:	f9042a23          	sw	a6,-108(s0)
800024dc:	7410a0ef          	jal	ra,8000d41c <fma>
800024e0:	ed042e03          	lw	t3,-304(s0)
800024e4:	00050893          	mv	a7,a0
800024e8:	00058813          	mv	a6,a1
800024ec:	00098713          	mv	a4,s3
800024f0:	000e0793          	mv	a5,t3
800024f4:	000b0613          	mv	a2,s6
800024f8:	000b8693          	mv	a3,s7
800024fc:	000a0513          	mv	a0,s4
80002500:	000a8593          	mv	a1,s5
80002504:	ef142423          	sw	a7,-280(s0)
80002508:	ef042023          	sw	a6,-288(s0)
8000250c:	7110a0ef          	jal	ra,8000d41c <fma>
80002510:	ed842f83          	lw	t6,-296(s0)
80002514:	01092a03          	lw	s4,16(s2)
80002518:	01492a83          	lw	s5,20(s2)
8000251c:	1904ad03          	lw	s10,400(s1)
80002520:	1944ad83          	lw	s11,404(s1)
80002524:	ef842783          	lw	a5,-264(s0)
80002528:	00058e13          	mv	t3,a1
8000252c:	00050993          	mv	s3,a0
80002530:	000f8713          	mv	a4,t6
80002534:	000d0613          	mv	a2,s10
80002538:	000d8693          	mv	a3,s11
8000253c:	000a0513          	mv	a0,s4
80002540:	000a8593          	mv	a1,s5
80002544:	edc42423          	sw	t3,-312(s0)
80002548:	6d50a0ef          	jal	ra,8000d41c <fma>
8000254c:	19c4a883          	lw	a7,412(s1)
80002550:	1984a803          	lw	a6,408(s1)
80002554:	f7042703          	lw	a4,-144(s0)
80002558:	ef042783          	lw	a5,-272(s0)
8000255c:	00050f93          	mv	t6,a0
80002560:	00058293          	mv	t0,a1
80002564:	00080613          	mv	a2,a6
80002568:	00088693          	mv	a3,a7
8000256c:	000a0513          	mv	a0,s4
80002570:	000a8593          	mv	a1,s5
80002574:	ef042823          	sw	a6,-272(s0)
80002578:	edf42823          	sw	t6,-304(s0)
8000257c:	ec542c23          	sw	t0,-296(s0)
80002580:	ef142a23          	sw	a7,-268(s0)
80002584:	6990a0ef          	jal	ra,8000d41c <fma>
80002588:	1a04a303          	lw	t1,416(s1)
8000258c:	1a44a383          	lw	t2,420(s1)
80002590:	f6842703          	lw	a4,-152(s0)
80002594:	f7842783          	lw	a5,-136(s0)
80002598:	00030613          	mv	a2,t1
8000259c:	00038693          	mv	a3,t2
800025a0:	00050f13          	mv	t5,a0
800025a4:	00058e93          	mv	t4,a1
800025a8:	000a0513          	mv	a0,s4
800025ac:	000a8593          	mv	a1,s5
800025b0:	ee642c23          	sw	t1,-264(s0)
800025b4:	ee742e23          	sw	t2,-260(s0)
800025b8:	f7e42823          	sw	t5,-144(s0)
800025bc:	f7d42423          	sw	t4,-152(s0)
800025c0:	65d0a0ef          	jal	ra,8000d41c <fma>
800025c4:	1a84ac03          	lw	s8,424(s1)
800025c8:	1ac4ac83          	lw	s9,428(s1)
800025cc:	f6042703          	lw	a4,-160(s0)
800025d0:	f5c42783          	lw	a5,-164(s0)
800025d4:	00050f13          	mv	t5,a0
800025d8:	00058e93          	mv	t4,a1
800025dc:	000c0613          	mv	a2,s8
800025e0:	000c8693          	mv	a3,s9
800025e4:	000a0513          	mv	a0,s4
800025e8:	000a8593          	mv	a1,s5
800025ec:	f7e42c23          	sw	t5,-136(s0)
800025f0:	f7d42023          	sw	t4,-160(s0)
800025f4:	6290a0ef          	jal	ra,8000d41c <fma>
800025f8:	1b04ab03          	lw	s6,432(s1)
800025fc:	1b44ab83          	lw	s7,436(s1)
80002600:	f8042703          	lw	a4,-128(s0)
80002604:	f7c42783          	lw	a5,-132(s0)
80002608:	00050f13          	mv	t5,a0
8000260c:	00058e93          	mv	t4,a1
80002610:	000b0613          	mv	a2,s6
80002614:	000b8693          	mv	a3,s7
80002618:	000a0513          	mv	a0,s4
8000261c:	000a8593          	mv	a1,s5
80002620:	f9e42023          	sw	t5,-128(s0)
80002624:	f7d42e23          	sw	t4,-132(s0)
80002628:	5f50a0ef          	jal	ra,8000d41c <fma>
8000262c:	0d092a03          	lw	s4,208(s2)
80002630:	0d492a83          	lw	s5,212(s2)
80002634:	fa842703          	lw	a4,-88(s0)
80002638:	fa042783          	lw	a5,-96(s0)
8000263c:	00050f13          	mv	t5,a0
80002640:	00058e93          	mv	t4,a1
80002644:	000d0613          	mv	a2,s10
80002648:	000d8693          	mv	a3,s11
8000264c:	000a0513          	mv	a0,s4
80002650:	000a8593          	mv	a1,s5
80002654:	fbe42423          	sw	t5,-88(s0)
80002658:	fbd42023          	sw	t4,-96(s0)
8000265c:	5c10a0ef          	jal	ra,8000d41c <fma>
80002660:	ef042803          	lw	a6,-272(s0)
80002664:	ef442883          	lw	a7,-268(s0)
80002668:	fb842703          	lw	a4,-72(s0)
8000266c:	fb042783          	lw	a5,-80(s0)
80002670:	00080613          	mv	a2,a6
80002674:	00088693          	mv	a3,a7
80002678:	00050f13          	mv	t5,a0
8000267c:	00058e93          	mv	t4,a1
80002680:	000a0513          	mv	a0,s4
80002684:	000a8593          	mv	a1,s5
80002688:	fbe42c23          	sw	t5,-72(s0)
8000268c:	fbd42823          	sw	t4,-80(s0)
80002690:	58d0a0ef          	jal	ra,8000d41c <fma>
80002694:	ef842303          	lw	t1,-264(s0)
80002698:	efc42383          	lw	t2,-260(s0)
8000269c:	f5042703          	lw	a4,-176(s0)
800026a0:	f5842783          	lw	a5,-168(s0)
800026a4:	00030613          	mv	a2,t1
800026a8:	00038693          	mv	a3,t2
800026ac:	00050f13          	mv	t5,a0
800026b0:	00058e93          	mv	t4,a1
800026b4:	000a0513          	mv	a0,s4
800026b8:	000a8593          	mv	a1,s5
800026bc:	f5e42e23          	sw	t5,-164(s0)
800026c0:	f5d42823          	sw	t4,-176(s0)
800026c4:	5590a0ef          	jal	ra,8000d41c <fma>
800026c8:	f4842703          	lw	a4,-184(s0)
800026cc:	f4442783          	lw	a5,-188(s0)
800026d0:	00050f13          	mv	t5,a0
800026d4:	00058e93          	mv	t4,a1
800026d8:	000c0613          	mv	a2,s8
800026dc:	000c8693          	mv	a3,s9
800026e0:	000a0513          	mv	a0,s4
800026e4:	000a8593          	mv	a1,s5
800026e8:	f5e42c23          	sw	t5,-168(s0)
800026ec:	f5d42423          	sw	t4,-184(s0)
800026f0:	52d0a0ef          	jal	ra,8000d41c <fma>
800026f4:	f3842703          	lw	a4,-200(s0)
800026f8:	f4042783          	lw	a5,-192(s0)
800026fc:	00050f13          	mv	t5,a0
80002700:	00058e93          	mv	t4,a1
80002704:	000b0613          	mv	a2,s6
80002708:	000b8693          	mv	a3,s7
8000270c:	000a0513          	mv	a0,s4
80002710:	000a8593          	mv	a1,s5
80002714:	f5e42223          	sw	t5,-188(s0)
80002718:	f3d42c23          	sw	t4,-200(s0)
8000271c:	5010a0ef          	jal	ra,8000d41c <fma>
80002720:	19092a03          	lw	s4,400(s2)
80002724:	19492a83          	lw	s5,404(s2)
80002728:	f3442703          	lw	a4,-204(s0)
8000272c:	f3042783          	lw	a5,-208(s0)
80002730:	00050f13          	mv	t5,a0
80002734:	00058e93          	mv	t4,a1
80002738:	000d0613          	mv	a2,s10
8000273c:	000d8693          	mv	a3,s11
80002740:	000a0513          	mv	a0,s4
80002744:	000a8593          	mv	a1,s5
80002748:	f5e42023          	sw	t5,-192(s0)
8000274c:	f3d42a23          	sw	t4,-204(s0)
80002750:	4cd0a0ef          	jal	ra,8000d41c <fma>
80002754:	ef042803          	lw	a6,-272(s0)
80002758:	ef442883          	lw	a7,-268(s0)
8000275c:	f2c42703          	lw	a4,-212(s0)
80002760:	f2842783          	lw	a5,-216(s0)
80002764:	00080613          	mv	a2,a6
80002768:	00088693          	mv	a3,a7
8000276c:	00050f13          	mv	t5,a0
80002770:	00058e93          	mv	t4,a1
80002774:	000a0513          	mv	a0,s4
80002778:	000a8593          	mv	a1,s5
8000277c:	f3e42823          	sw	t5,-208(s0)
80002780:	f3d42623          	sw	t4,-212(s0)
80002784:	4990a0ef          	jal	ra,8000d41c <fma>
80002788:	ef842303          	lw	t1,-264(s0)
8000278c:	efc42383          	lw	t2,-260(s0)
80002790:	f2442703          	lw	a4,-220(s0)
80002794:	f2042783          	lw	a5,-224(s0)
80002798:	00030613          	mv	a2,t1
8000279c:	00038693          	mv	a3,t2
800027a0:	00050f13          	mv	t5,a0
800027a4:	00058e93          	mv	t4,a1
800027a8:	000a0513          	mv	a0,s4
800027ac:	000a8593          	mv	a1,s5
800027b0:	f3e42423          	sw	t5,-216(s0)
800027b4:	f3d42223          	sw	t4,-220(s0)
800027b8:	4650a0ef          	jal	ra,8000d41c <fma>
800027bc:	f1c42703          	lw	a4,-228(s0)
800027c0:	f1842783          	lw	a5,-232(s0)
800027c4:	00050f13          	mv	t5,a0
800027c8:	00058e93          	mv	t4,a1
800027cc:	000c0613          	mv	a2,s8
800027d0:	000c8693          	mv	a3,s9
800027d4:	000a0513          	mv	a0,s4
800027d8:	000a8593          	mv	a1,s5
800027dc:	f3e42023          	sw	t5,-224(s0)
800027e0:	f1d42e23          	sw	t4,-228(s0)
800027e4:	4390a0ef          	jal	ra,8000d41c <fma>
800027e8:	f1442703          	lw	a4,-236(s0)
800027ec:	f0842783          	lw	a5,-248(s0)
800027f0:	00050f13          	mv	t5,a0
800027f4:	00058e93          	mv	t4,a1
800027f8:	000b0613          	mv	a2,s6
800027fc:	000b8693          	mv	a3,s7
80002800:	000a0513          	mv	a0,s4
80002804:	000a8593          	mv	a1,s5
80002808:	f1e42c23          	sw	t5,-232(s0)
8000280c:	f1d42a23          	sw	t4,-236(s0)
80002810:	40d0a0ef          	jal	ra,8000d41c <fma>
80002814:	25092a03          	lw	s4,592(s2)
80002818:	25492a83          	lw	s5,596(s2)
8000281c:	f1042703          	lw	a4,-240(s0)
80002820:	f0042783          	lw	a5,-256(s0)
80002824:	00050f13          	mv	t5,a0
80002828:	00058e93          	mv	t4,a1
8000282c:	000d0613          	mv	a2,s10
80002830:	000d8693          	mv	a3,s11
80002834:	000a0513          	mv	a0,s4
80002838:	000a8593          	mv	a1,s5
8000283c:	f1e42423          	sw	t5,-248(s0)
80002840:	f1d42823          	sw	t4,-240(s0)
80002844:	3d90a0ef          	jal	ra,8000d41c <fma>
80002848:	ef042803          	lw	a6,-272(s0)
8000284c:	ef442883          	lw	a7,-268(s0)
80002850:	f8842703          	lw	a4,-120(s0)
80002854:	f9042783          	lw	a5,-112(s0)
80002858:	00050f13          	mv	t5,a0
8000285c:	00058e93          	mv	t4,a1
80002860:	00080613          	mv	a2,a6
80002864:	00088693          	mv	a3,a7
80002868:	000a0513          	mv	a0,s4
8000286c:	000a8593          	mv	a1,s5
80002870:	f9e42423          	sw	t5,-120(s0)
80002874:	f9d42823          	sw	t4,-112(s0)
80002878:	3a50a0ef          	jal	ra,8000d41c <fma>
8000287c:	ef842303          	lw	t1,-264(s0)
80002880:	efc42383          	lw	t2,-260(s0)
80002884:	f9842703          	lw	a4,-104(s0)
80002888:	f9442783          	lw	a5,-108(s0)
8000288c:	00030613          	mv	a2,t1
80002890:	00038693          	mv	a3,t2
80002894:	00050893          	mv	a7,a0
80002898:	00058813          	mv	a6,a1
8000289c:	000a0513          	mv	a0,s4
800028a0:	000a8593          	mv	a1,s5
800028a4:	f9142c23          	sw	a7,-104(s0)
800028a8:	f9042a23          	sw	a6,-108(s0)
800028ac:	3710a0ef          	jal	ra,8000d41c <fma>
800028b0:	ee842703          	lw	a4,-280(s0)
800028b4:	ee042783          	lw	a5,-288(s0)
800028b8:	00050893          	mv	a7,a0
800028bc:	00058813          	mv	a6,a1
800028c0:	000c0613          	mv	a2,s8
800028c4:	000c8693          	mv	a3,s9
800028c8:	000a0513          	mv	a0,s4
800028cc:	000a8593          	mv	a1,s5
800028d0:	f1142023          	sw	a7,-256(s0)
800028d4:	ef042c23          	sw	a6,-264(s0)
800028d8:	3450a0ef          	jal	ra,8000d41c <fma>
800028dc:	ec842e03          	lw	t3,-312(s0)
800028e0:	00050893          	mv	a7,a0
800028e4:	00058813          	mv	a6,a1
800028e8:	00098713          	mv	a4,s3
800028ec:	000e0793          	mv	a5,t3
800028f0:	000b0613          	mv	a2,s6
800028f4:	000b8693          	mv	a3,s7
800028f8:	000a0513          	mv	a0,s4
800028fc:	000a8593          	mv	a1,s5
80002900:	ef142823          	sw	a7,-272(s0)
80002904:	ef042423          	sw	a6,-280(s0)
80002908:	3150a0ef          	jal	ra,8000d41c <fma>
8000290c:	ed042f83          	lw	t6,-304(s0)
80002910:	01892a03          	lw	s4,24(s2)
80002914:	01c92a83          	lw	s5,28(s2)
80002918:	2584ad03          	lw	s10,600(s1)
8000291c:	25c4ad83          	lw	s11,604(s1)
80002920:	ed842283          	lw	t0,-296(s0)
80002924:	00058e13          	mv	t3,a1
80002928:	00050993          	mv	s3,a0
8000292c:	000f8713          	mv	a4,t6
80002930:	00028793          	mv	a5,t0
80002934:	000d0613          	mv	a2,s10
80002938:	000d8693          	mv	a3,s11
8000293c:	000a0513          	mv	a0,s4
80002940:	000a8593          	mv	a1,s5
80002944:	edc42023          	sw	t3,-320(s0)
80002948:	2d50a0ef          	jal	ra,8000d41c <fma>
8000294c:	2604a803          	lw	a6,608(s1)
80002950:	2644a883          	lw	a7,612(s1)
80002954:	f7042703          	lw	a4,-144(s0)
80002958:	f6842783          	lw	a5,-152(s0)
8000295c:	00050f93          	mv	t6,a0
80002960:	00058293          	mv	t0,a1
80002964:	00080613          	mv	a2,a6
80002968:	00088693          	mv	a3,a7
8000296c:	000a0513          	mv	a0,s4
80002970:	000a8593          	mv	a1,s5
80002974:	edf42423          	sw	t6,-312(s0)
80002978:	ec542823          	sw	t0,-304(s0)
8000297c:	ed042c23          	sw	a6,-296(s0)
80002980:	ed142e23          	sw	a7,-292(s0)
80002984:	2990a0ef          	jal	ra,8000d41c <fma>
80002988:	26c4a383          	lw	t2,620(s1)
8000298c:	2684a303          	lw	t1,616(s1)
80002990:	f7842703          	lw	a4,-136(s0)
80002994:	f6042783          	lw	a5,-160(s0)
80002998:	00030613          	mv	a2,t1
8000299c:	00038693          	mv	a3,t2
800029a0:	00050f13          	mv	t5,a0
800029a4:	00058e93          	mv	t4,a1
800029a8:	000a0513          	mv	a0,s4
800029ac:	000a8593          	mv	a1,s5
800029b0:	ee642023          	sw	t1,-288(s0)
800029b4:	ee742223          	sw	t2,-284(s0)
800029b8:	f7e42823          	sw	t5,-144(s0)
800029bc:	f7d42423          	sw	t4,-152(s0)
800029c0:	25d0a0ef          	jal	ra,8000d41c <fma>
800029c4:	2704ac03          	lw	s8,624(s1)
800029c8:	2744ac83          	lw	s9,628(s1)
800029cc:	f8042703          	lw	a4,-128(s0)
800029d0:	f7c42783          	lw	a5,-132(s0)
800029d4:	00050f13          	mv	t5,a0
800029d8:	00058e93          	mv	t4,a1
800029dc:	000c0613          	mv	a2,s8
800029e0:	000c8693          	mv	a3,s9
800029e4:	000a0513          	mv	a0,s4
800029e8:	000a8593          	mv	a1,s5
800029ec:	f9e42023          	sw	t5,-128(s0)
800029f0:	f7d42e23          	sw	t4,-132(s0)
800029f4:	2290a0ef          	jal	ra,8000d41c <fma>
800029f8:	2784ab03          	lw	s6,632(s1)
800029fc:	27c4ab83          	lw	s7,636(s1)
80002a00:	fa842703          	lw	a4,-88(s0)
80002a04:	fa042783          	lw	a5,-96(s0)
80002a08:	00050f13          	mv	t5,a0
80002a0c:	00058e93          	mv	t4,a1
80002a10:	000b0613          	mv	a2,s6
80002a14:	000b8693          	mv	a3,s7
80002a18:	000a0513          	mv	a0,s4
80002a1c:	000a8593          	mv	a1,s5
80002a20:	fbe42423          	sw	t5,-88(s0)
80002a24:	fbd42023          	sw	t4,-96(s0)
80002a28:	1f50a0ef          	jal	ra,8000d41c <fma>
80002a2c:	0d892a03          	lw	s4,216(s2)
80002a30:	0dc92a83          	lw	s5,220(s2)
80002a34:	fb842703          	lw	a4,-72(s0)
80002a38:	fb042783          	lw	a5,-80(s0)
80002a3c:	00050f13          	mv	t5,a0
80002a40:	00058e93          	mv	t4,a1
80002a44:	000d0613          	mv	a2,s10
80002a48:	000d8693          	mv	a3,s11
80002a4c:	000a0513          	mv	a0,s4
80002a50:	000a8593          	mv	a1,s5
80002a54:	fbe42c23          	sw	t5,-72(s0)
80002a58:	fbd42823          	sw	t4,-80(s0)
80002a5c:	1c10a0ef          	jal	ra,8000d41c <fma>
80002a60:	ed842803          	lw	a6,-296(s0)
80002a64:	edc42883          	lw	a7,-292(s0)
80002a68:	f5c42703          	lw	a4,-164(s0)
80002a6c:	f5042783          	lw	a5,-176(s0)
80002a70:	00080613          	mv	a2,a6
80002a74:	00088693          	mv	a3,a7
80002a78:	00050f13          	mv	t5,a0
80002a7c:	00058e93          	mv	t4,a1
80002a80:	000a0513          	mv	a0,s4
80002a84:	000a8593          	mv	a1,s5
80002a88:	f7e42c23          	sw	t5,-136(s0)
80002a8c:	f7d42023          	sw	t4,-160(s0)
80002a90:	18d0a0ef          	jal	ra,8000d41c <fma>
80002a94:	ee042303          	lw	t1,-288(s0)
80002a98:	ee442383          	lw	t2,-284(s0)
80002a9c:	f5842703          	lw	a4,-168(s0)
80002aa0:	f4842783          	lw	a5,-184(s0)
80002aa4:	00030613          	mv	a2,t1
80002aa8:	00038693          	mv	a3,t2
80002aac:	00050f13          	mv	t5,a0
80002ab0:	00058e93          	mv	t4,a1
80002ab4:	000a0513          	mv	a0,s4
80002ab8:	000a8593          	mv	a1,s5
80002abc:	f5e42e23          	sw	t5,-164(s0)
80002ac0:	f5d42823          	sw	t4,-176(s0)
80002ac4:	1590a0ef          	jal	ra,8000d41c <fma>
80002ac8:	f4442703          	lw	a4,-188(s0)
80002acc:	f3842783          	lw	a5,-200(s0)
80002ad0:	00050f13          	mv	t5,a0
80002ad4:	00058e93          	mv	t4,a1
80002ad8:	000c0613          	mv	a2,s8
80002adc:	000c8693          	mv	a3,s9
80002ae0:	000a0513          	mv	a0,s4
80002ae4:	000a8593          	mv	a1,s5
80002ae8:	f5e42c23          	sw	t5,-168(s0)
80002aec:	f5d42423          	sw	t4,-184(s0)
80002af0:	12d0a0ef          	jal	ra,8000d41c <fma>
80002af4:	f4042703          	lw	a4,-192(s0)
80002af8:	f3442783          	lw	a5,-204(s0)
80002afc:	00050f13          	mv	t5,a0
80002b00:	00058e93          	mv	t4,a1
80002b04:	000b0613          	mv	a2,s6
80002b08:	000b8693          	mv	a3,s7
80002b0c:	f5e42223          	sw	t5,-188(s0)
80002b10:	000a0513          	mv	a0,s4
80002b14:	000a8593          	mv	a1,s5
80002b18:	f3d42c23          	sw	t4,-200(s0)
80002b1c:	1010a0ef          	jal	ra,8000d41c <fma>
80002b20:	19892a03          	lw	s4,408(s2)
80002b24:	19c92a83          	lw	s5,412(s2)
80002b28:	f3042703          	lw	a4,-208(s0)
80002b2c:	f2c42783          	lw	a5,-212(s0)
80002b30:	00050f13          	mv	t5,a0
80002b34:	00058e93          	mv	t4,a1
80002b38:	000d0613          	mv	a2,s10
80002b3c:	000d8693          	mv	a3,s11
80002b40:	000a0513          	mv	a0,s4
80002b44:	000a8593          	mv	a1,s5
80002b48:	f5e42023          	sw	t5,-192(s0)
80002b4c:	f3d42a23          	sw	t4,-204(s0)
80002b50:	0cd0a0ef          	jal	ra,8000d41c <fma>
80002b54:	ed842803          	lw	a6,-296(s0)
80002b58:	edc42883          	lw	a7,-292(s0)
80002b5c:	f2842703          	lw	a4,-216(s0)
80002b60:	f2442783          	lw	a5,-220(s0)
80002b64:	00080613          	mv	a2,a6
80002b68:	00088693          	mv	a3,a7
80002b6c:	00050f13          	mv	t5,a0
80002b70:	00058e93          	mv	t4,a1
80002b74:	000a0513          	mv	a0,s4
80002b78:	000a8593          	mv	a1,s5
80002b7c:	f3e42823          	sw	t5,-208(s0)
80002b80:	f3d42623          	sw	t4,-212(s0)
80002b84:	0990a0ef          	jal	ra,8000d41c <fma>
80002b88:	ee042303          	lw	t1,-288(s0)
80002b8c:	ee442383          	lw	t2,-284(s0)
80002b90:	f2042703          	lw	a4,-224(s0)
80002b94:	f1c42783          	lw	a5,-228(s0)
80002b98:	00030613          	mv	a2,t1
80002b9c:	00038693          	mv	a3,t2
80002ba0:	00050f13          	mv	t5,a0
80002ba4:	00058e93          	mv	t4,a1
80002ba8:	000a0513          	mv	a0,s4
80002bac:	000a8593          	mv	a1,s5
80002bb0:	f3e42423          	sw	t5,-216(s0)
80002bb4:	f3d42223          	sw	t4,-220(s0)
80002bb8:	0650a0ef          	jal	ra,8000d41c <fma>
80002bbc:	f1842703          	lw	a4,-232(s0)
80002bc0:	f1442783          	lw	a5,-236(s0)
80002bc4:	00050f13          	mv	t5,a0
80002bc8:	00058e93          	mv	t4,a1
80002bcc:	000c0613          	mv	a2,s8
80002bd0:	000c8693          	mv	a3,s9
80002bd4:	000a0513          	mv	a0,s4
80002bd8:	000a8593          	mv	a1,s5
80002bdc:	f3e42023          	sw	t5,-224(s0)
80002be0:	f1d42e23          	sw	t4,-228(s0)
80002be4:	0390a0ef          	jal	ra,8000d41c <fma>
80002be8:	f0842703          	lw	a4,-248(s0)
80002bec:	f1042783          	lw	a5,-240(s0)
80002bf0:	00050f13          	mv	t5,a0
80002bf4:	00058e93          	mv	t4,a1
80002bf8:	000b0613          	mv	a2,s6
80002bfc:	000b8693          	mv	a3,s7
80002c00:	000a0513          	mv	a0,s4
80002c04:	000a8593          	mv	a1,s5
80002c08:	f1e42c23          	sw	t5,-232(s0)
80002c0c:	f1d42a23          	sw	t4,-236(s0)
80002c10:	00d0a0ef          	jal	ra,8000d41c <fma>
80002c14:	25892a03          	lw	s4,600(s2)
80002c18:	25c92a83          	lw	s5,604(s2)
80002c1c:	f8842703          	lw	a4,-120(s0)
80002c20:	f9042783          	lw	a5,-112(s0)
80002c24:	00050f13          	mv	t5,a0
80002c28:	00058e93          	mv	t4,a1
80002c2c:	000d0613          	mv	a2,s10
80002c30:	000d8693          	mv	a3,s11
80002c34:	000a0513          	mv	a0,s4
80002c38:	000a8593          	mv	a1,s5
80002c3c:	f9e42423          	sw	t5,-120(s0)
80002c40:	f9d42823          	sw	t4,-112(s0)
80002c44:	7d80a0ef          	jal	ra,8000d41c <fma>
80002c48:	ed842803          	lw	a6,-296(s0)
80002c4c:	edc42883          	lw	a7,-292(s0)
80002c50:	f9842703          	lw	a4,-104(s0)
80002c54:	f9442783          	lw	a5,-108(s0)
80002c58:	00050f13          	mv	t5,a0
80002c5c:	00058e93          	mv	t4,a1
80002c60:	f9e42c23          	sw	t5,-104(s0)
80002c64:	00080613          	mv	a2,a6
80002c68:	00088693          	mv	a3,a7
80002c6c:	000a0513          	mv	a0,s4
80002c70:	000a8593          	mv	a1,s5
80002c74:	f9d42a23          	sw	t4,-108(s0)
80002c78:	7a40a0ef          	jal	ra,8000d41c <fma>
80002c7c:	ee042303          	lw	t1,-288(s0)
80002c80:	ee442383          	lw	t2,-284(s0)
80002c84:	f0042703          	lw	a4,-256(s0)
80002c88:	ef842783          	lw	a5,-264(s0)
80002c8c:	00030613          	mv	a2,t1
80002c90:	00038693          	mv	a3,t2
80002c94:	00050893          	mv	a7,a0
80002c98:	00058813          	mv	a6,a1
80002c9c:	000a0513          	mv	a0,s4
80002ca0:	000a8593          	mv	a1,s5
80002ca4:	f1142423          	sw	a7,-248(s0)
80002ca8:	f1042823          	sw	a6,-240(s0)
80002cac:	7700a0ef          	jal	ra,8000d41c <fma>
80002cb0:	ef042703          	lw	a4,-272(s0)
80002cb4:	ee842783          	lw	a5,-280(s0)
80002cb8:	00050893          	mv	a7,a0
80002cbc:	00058813          	mv	a6,a1
80002cc0:	000c0613          	mv	a2,s8
80002cc4:	000c8693          	mv	a3,s9
80002cc8:	000a0513          	mv	a0,s4
80002ccc:	000a8593          	mv	a1,s5
80002cd0:	f1142023          	sw	a7,-256(s0)
80002cd4:	ef042c23          	sw	a6,-264(s0)
80002cd8:	7440a0ef          	jal	ra,8000d41c <fma>
80002cdc:	ec042e03          	lw	t3,-320(s0)
80002ce0:	00050893          	mv	a7,a0
80002ce4:	00058813          	mv	a6,a1
80002ce8:	00098713          	mv	a4,s3
80002cec:	000e0793          	mv	a5,t3
80002cf0:	000b0613          	mv	a2,s6
80002cf4:	000b8693          	mv	a3,s7
80002cf8:	000a0513          	mv	a0,s4
80002cfc:	000a8593          	mv	a1,s5
80002d00:	ef142823          	sw	a7,-272(s0)
80002d04:	ef042423          	sw	a6,-280(s0)
80002d08:	7140a0ef          	jal	ra,8000d41c <fma>
80002d0c:	ec842f83          	lw	t6,-312(s0)
80002d10:	02092a03          	lw	s4,32(s2)
80002d14:	02492a83          	lw	s5,36(s2)
80002d18:	3204ad03          	lw	s10,800(s1)
80002d1c:	3244ad83          	lw	s11,804(s1)
80002d20:	ed042283          	lw	t0,-304(s0)
80002d24:	00058e13          	mv	t3,a1
80002d28:	00050993          	mv	s3,a0
80002d2c:	000f8713          	mv	a4,t6
80002d30:	00028793          	mv	a5,t0
80002d34:	000d0613          	mv	a2,s10
80002d38:	000d8693          	mv	a3,s11
80002d3c:	000a0513          	mv	a0,s4
80002d40:	000a8593          	mv	a1,s5
80002d44:	e9c42a23          	sw	t3,-364(s0)
80002d48:	6d40a0ef          	jal	ra,8000d41c <fma>
80002d4c:	3284a803          	lw	a6,808(s1)
80002d50:	32c4a883          	lw	a7,812(s1)
80002d54:	f7042703          	lw	a4,-144(s0)
80002d58:	f6842783          	lw	a5,-152(s0)
80002d5c:	00050f93          	mv	t6,a0
80002d60:	00058293          	mv	t0,a1
80002d64:	00080613          	mv	a2,a6
80002d68:	00088693          	mv	a3,a7
80002d6c:	000a0513          	mv	a0,s4
80002d70:	000a8593          	mv	a1,s5
80002d74:	e9f42423          	sw	t6,-376(s0)
80002d78:	e8542623          	sw	t0,-372(s0)
80002d7c:	f7042423          	sw	a6,-152(s0)
80002d80:	f7142623          	sw	a7,-148(s0)
80002d84:	6980a0ef          	jal	ra,8000d41c <fma>
80002d88:	3304a303          	lw	t1,816(s1)
80002d8c:	3344a383          	lw	t2,820(s1)
80002d90:	f8042703          	lw	a4,-128(s0)
80002d94:	f7c42783          	lw	a5,-132(s0)
80002d98:	00030613          	mv	a2,t1
80002d9c:	00038693          	mv	a3,t2
80002da0:	00050f13          	mv	t5,a0
80002da4:	00058e93          	mv	t4,a1
80002da8:	000a0513          	mv	a0,s4
80002dac:	000a8593          	mv	a1,s5
80002db0:	f6642823          	sw	t1,-144(s0)
80002db4:	f6742a23          	sw	t2,-140(s0)
80002db8:	f9e42023          	sw	t5,-128(s0)
80002dbc:	f7d42e23          	sw	t4,-132(s0)
80002dc0:	65c0a0ef          	jal	ra,8000d41c <fma>
80002dc4:	3384ac03          	lw	s8,824(s1)
80002dc8:	33c4ac83          	lw	s9,828(s1)
80002dcc:	fa842703          	lw	a4,-88(s0)
80002dd0:	fa042783          	lw	a5,-96(s0)
80002dd4:	00050f13          	mv	t5,a0
80002dd8:	00058e93          	mv	t4,a1
80002ddc:	000c0613          	mv	a2,s8
80002de0:	000c8693          	mv	a3,s9
80002de4:	000a0513          	mv	a0,s4
80002de8:	000a8593          	mv	a1,s5
80002dec:	fbe42423          	sw	t5,-88(s0)
80002df0:	fbd42023          	sw	t4,-96(s0)
80002df4:	6280a0ef          	jal	ra,8000d41c <fma>
80002df8:	3404ab03          	lw	s6,832(s1)
80002dfc:	3444ab83          	lw	s7,836(s1)
80002e00:	fb842703          	lw	a4,-72(s0)
80002e04:	fb042783          	lw	a5,-80(s0)
80002e08:	00050f13          	mv	t5,a0
80002e0c:	00058e93          	mv	t4,a1
80002e10:	000b0613          	mv	a2,s6
80002e14:	000b8693          	mv	a3,s7
80002e18:	000a0513          	mv	a0,s4
80002e1c:	000a8593          	mv	a1,s5
80002e20:	fbe42c23          	sw	t5,-72(s0)
80002e24:	fbd42823          	sw	t4,-80(s0)
80002e28:	5f40a0ef          	jal	ra,8000d41c <fma>
80002e2c:	0e092a03          	lw	s4,224(s2)
80002e30:	0e492a83          	lw	s5,228(s2)
80002e34:	f7842703          	lw	a4,-136(s0)
80002e38:	f6042783          	lw	a5,-160(s0)
80002e3c:	00050f13          	mv	t5,a0
80002e40:	00058e93          	mv	t4,a1
80002e44:	000d0613          	mv	a2,s10
80002e48:	000d8693          	mv	a3,s11
80002e4c:	000a0513          	mv	a0,s4
80002e50:	000a8593          	mv	a1,s5
80002e54:	efe42023          	sw	t5,-288(s0)
80002e58:	edd42c23          	sw	t4,-296(s0)
80002e5c:	5c00a0ef          	jal	ra,8000d41c <fma>
80002e60:	f6842803          	lw	a6,-152(s0)
80002e64:	f6c42883          	lw	a7,-148(s0)
80002e68:	f5c42703          	lw	a4,-164(s0)
80002e6c:	f5042783          	lw	a5,-176(s0)
80002e70:	00080613          	mv	a2,a6
80002e74:	00088693          	mv	a3,a7
80002e78:	00050f13          	mv	t5,a0
80002e7c:	00058e93          	mv	t4,a1
80002e80:	000a0513          	mv	a0,s4
80002e84:	000a8593          	mv	a1,s5
80002e88:	ede42823          	sw	t5,-304(s0)
80002e8c:	edd42423          	sw	t4,-312(s0)
80002e90:	58c0a0ef          	jal	ra,8000d41c <fma>
80002e94:	f7042303          	lw	t1,-144(s0)
80002e98:	f7442383          	lw	t2,-140(s0)
80002e9c:	f5842703          	lw	a4,-168(s0)
80002ea0:	f4842783          	lw	a5,-184(s0)
80002ea4:	00030613          	mv	a2,t1
80002ea8:	00038693          	mv	a3,t2
80002eac:	00050f13          	mv	t5,a0
80002eb0:	00058e93          	mv	t4,a1
80002eb4:	000a0513          	mv	a0,s4
80002eb8:	000a8593          	mv	a1,s5
80002ebc:	ede42023          	sw	t5,-320(s0)
80002ec0:	ebd42e23          	sw	t4,-324(s0)
80002ec4:	5580a0ef          	jal	ra,8000d41c <fma>
80002ec8:	f4442703          	lw	a4,-188(s0)
80002ecc:	f3842783          	lw	a5,-200(s0)
80002ed0:	00050f13          	mv	t5,a0
80002ed4:	00058e93          	mv	t4,a1
80002ed8:	000c0613          	mv	a2,s8
80002edc:	000c8693          	mv	a3,s9
80002ee0:	000a0513          	mv	a0,s4
80002ee4:	000a8593          	mv	a1,s5
80002ee8:	ebe42823          	sw	t5,-336(s0)
80002eec:	ebd42c23          	sw	t4,-328(s0)
80002ef0:	52c0a0ef          	jal	ra,8000d41c <fma>
80002ef4:	f3442783          	lw	a5,-204(s0)
80002ef8:	f4042703          	lw	a4,-192(s0)
80002efc:	00050f13          	mv	t5,a0
80002f00:	00058e93          	mv	t4,a1
80002f04:	000b0613          	mv	a2,s6
80002f08:	000b8693          	mv	a3,s7
80002f0c:	000a0513          	mv	a0,s4
80002f10:	000a8593          	mv	a1,s5
80002f14:	f3e42a23          	sw	t5,-204(s0)
80002f18:	ebd42423          	sw	t4,-344(s0)
80002f1c:	5000a0ef          	jal	ra,8000d41c <fma>
80002f20:	1a092a03          	lw	s4,416(s2)
80002f24:	1a492a83          	lw	s5,420(s2)
80002f28:	f3042703          	lw	a4,-208(s0)
80002f2c:	f2c42783          	lw	a5,-212(s0)
80002f30:	00050f13          	mv	t5,a0
80002f34:	00058e93          	mv	t4,a1
80002f38:	000d0613          	mv	a2,s10
80002f3c:	000d8693          	mv	a3,s11
80002f40:	f3e42823          	sw	t5,-208(s0)
80002f44:	000a0513          	mv	a0,s4
80002f48:	000a8593          	mv	a1,s5
80002f4c:	f3d42623          	sw	t4,-212(s0)
80002f50:	4cc0a0ef          	jal	ra,8000d41c <fma>
80002f54:	f6842803          	lw	a6,-152(s0)
80002f58:	f6c42883          	lw	a7,-148(s0)
80002f5c:	f2842703          	lw	a4,-216(s0)
80002f60:	f2442783          	lw	a5,-220(s0)
80002f64:	00080613          	mv	a2,a6
80002f68:	00088693          	mv	a3,a7
80002f6c:	00050f13          	mv	t5,a0
80002f70:	00058e93          	mv	t4,a1
80002f74:	000a0513          	mv	a0,s4
80002f78:	000a8593          	mv	a1,s5
80002f7c:	f3e42423          	sw	t5,-216(s0)
80002f80:	f3d42223          	sw	t4,-220(s0)
80002f84:	4980a0ef          	jal	ra,8000d41c <fma>
80002f88:	f7042303          	lw	t1,-144(s0)
80002f8c:	f7442383          	lw	t2,-140(s0)
80002f90:	f2042703          	lw	a4,-224(s0)
80002f94:	f1c42783          	lw	a5,-228(s0)
80002f98:	00030613          	mv	a2,t1
80002f9c:	00038693          	mv	a3,t2
80002fa0:	00050f13          	mv	t5,a0
80002fa4:	00058e93          	mv	t4,a1
80002fa8:	000a0513          	mv	a0,s4
80002fac:	000a8593          	mv	a1,s5
80002fb0:	f3e42023          	sw	t5,-224(s0)
80002fb4:	f1d42e23          	sw	t4,-228(s0)
80002fb8:	4640a0ef          	jal	ra,8000d41c <fma>
80002fbc:	f1842703          	lw	a4,-232(s0)
80002fc0:	f1442783          	lw	a5,-236(s0)
80002fc4:	00050f13          	mv	t5,a0
80002fc8:	00058e93          	mv	t4,a1
80002fcc:	000c0613          	mv	a2,s8
80002fd0:	000c8693          	mv	a3,s9
80002fd4:	000a0513          	mv	a0,s4
80002fd8:	000a8593          	mv	a1,s5
80002fdc:	f1e42c23          	sw	t5,-232(s0)
80002fe0:	f1d42a23          	sw	t4,-236(s0)
80002fe4:	4380a0ef          	jal	ra,8000d41c <fma>
80002fe8:	f8842703          	lw	a4,-120(s0)
80002fec:	f9042783          	lw	a5,-112(s0)
80002ff0:	00050f13          	mv	t5,a0
80002ff4:	00058e93          	mv	t4,a1
80002ff8:	000b0613          	mv	a2,s6
80002ffc:	000b8693          	mv	a3,s7
80003000:	000a0513          	mv	a0,s4
80003004:	000a8593          	mv	a1,s5
80003008:	f9e42423          	sw	t5,-120(s0)
8000300c:	f9d42823          	sw	t4,-112(s0)
80003010:	40c0a0ef          	jal	ra,8000d41c <fma>
80003014:	26092a03          	lw	s4,608(s2)
80003018:	26492a83          	lw	s5,612(s2)
8000301c:	f9842703          	lw	a4,-104(s0)
80003020:	f9442783          	lw	a5,-108(s0)
80003024:	00050f13          	mv	t5,a0
80003028:	00058e93          	mv	t4,a1
8000302c:	000d0613          	mv	a2,s10
80003030:	000d8693          	mv	a3,s11
80003034:	000a0513          	mv	a0,s4
80003038:	000a8593          	mv	a1,s5
8000303c:	f9e42c23          	sw	t5,-104(s0)
80003040:	f9d42a23          	sw	t4,-108(s0)
80003044:	3d80a0ef          	jal	ra,8000d41c <fma>
80003048:	f6842803          	lw	a6,-152(s0)
8000304c:	f6c42883          	lw	a7,-148(s0)
80003050:	f1042783          	lw	a5,-240(s0)
80003054:	f0842703          	lw	a4,-248(s0)
80003058:	00050f13          	mv	t5,a0
8000305c:	00058e93          	mv	t4,a1
80003060:	00080613          	mv	a2,a6
80003064:	00088693          	mv	a3,a7
80003068:	000a0513          	mv	a0,s4
8000306c:	000a8593          	mv	a1,s5
80003070:	f1e42823          	sw	t5,-240(s0)
80003074:	ebd42023          	sw	t4,-352(s0)
80003078:	3a40a0ef          	jal	ra,8000d41c <fma>
8000307c:	f7442383          	lw	t2,-140(s0)
80003080:	f7042303          	lw	t1,-144(s0)
80003084:	ef842783          	lw	a5,-264(s0)
80003088:	f0042703          	lw	a4,-256(s0)
8000308c:	00050893          	mv	a7,a0
80003090:	00038693          	mv	a3,t2
80003094:	00030613          	mv	a2,t1
80003098:	00058813          	mv	a6,a1
8000309c:	ef142c23          	sw	a7,-264(s0)
800030a0:	000a0513          	mv	a0,s4
800030a4:	000a8593          	mv	a1,s5
800030a8:	e9042e23          	sw	a6,-356(s0)
800030ac:	3700a0ef          	jal	ra,8000d41c <fma>
800030b0:	ee842783          	lw	a5,-280(s0)
800030b4:	ef042703          	lw	a4,-272(s0)
800030b8:	00050893          	mv	a7,a0
800030bc:	00058813          	mv	a6,a1
800030c0:	000c0613          	mv	a2,s8
800030c4:	000c8693          	mv	a3,s9
800030c8:	000a0513          	mv	a0,s4
800030cc:	000a8593          	mv	a1,s5
800030d0:	ef142423          	sw	a7,-280(s0)
800030d4:	e9042c23          	sw	a6,-360(s0)
800030d8:	3440a0ef          	jal	ra,8000d41c <fma>
800030dc:	e9442e03          	lw	t3,-364(s0)
800030e0:	00050893          	mv	a7,a0
800030e4:	00058813          	mv	a6,a1
800030e8:	00098713          	mv	a4,s3
800030ec:	000e0793          	mv	a5,t3
800030f0:	000b0613          	mv	a2,s6
800030f4:	000b8693          	mv	a3,s7
800030f8:	000a0513          	mv	a0,s4
800030fc:	000a8593          	mv	a1,s5
80003100:	e9142a23          	sw	a7,-364(s0)
80003104:	e9042823          	sw	a6,-368(s0)
80003108:	3140a0ef          	jal	ra,8000d41c <fma>
8000310c:	e8c42283          	lw	t0,-372(s0)
80003110:	02892a03          	lw	s4,40(s2)
80003114:	02c92a83          	lw	s5,44(s2)
80003118:	3e84ad03          	lw	s10,1000(s1)
8000311c:	3ec4ad83          	lw	s11,1004(s1)
80003120:	e8842f83          	lw	t6,-376(s0)
80003124:	00050e13          	mv	t3,a0
80003128:	00058e93          	mv	t4,a1
8000312c:	00028793          	mv	a5,t0
80003130:	000f8713          	mv	a4,t6
80003134:	000d0613          	mv	a2,s10
80003138:	000d8693          	mv	a3,s11
8000313c:	000a0513          	mv	a0,s4
80003140:	000a8593          	mv	a1,s5
80003144:	e9c42423          	sw	t3,-376(s0)
80003148:	e9d42623          	sw	t4,-372(s0)
8000314c:	2d00a0ef          	jal	ra,8000d41c <fma>
80003150:	3f04a803          	lw	a6,1008(s1)
80003154:	3f44a883          	lw	a7,1012(s1)
80003158:	f8042703          	lw	a4,-128(s0)
8000315c:	f7c42783          	lw	a5,-132(s0)
80003160:	00080613          	mv	a2,a6
80003164:	00088693          	mv	a3,a7
80003168:	00058313          	mv	t1,a1
8000316c:	00050993          	mv	s3,a0
80003170:	000a8593          	mv	a1,s5
80003174:	000a0513          	mv	a0,s4
80003178:	f9042023          	sw	a6,-128(s0)
8000317c:	f9142223          	sw	a7,-124(s0)
80003180:	f6642823          	sw	t1,-144(s0)
80003184:	2980a0ef          	jal	ra,8000d41c <fma>
80003188:	3f84a303          	lw	t1,1016(s1)
8000318c:	3fc4a383          	lw	t2,1020(s1)
80003190:	fa842703          	lw	a4,-88(s0)
80003194:	fa042783          	lw	a5,-96(s0)
80003198:	00030613          	mv	a2,t1
8000319c:	00038693          	mv	a3,t2
800031a0:	00050f93          	mv	t6,a0
800031a4:	00058f13          	mv	t5,a1
800031a8:	000a0513          	mv	a0,s4
800031ac:	000a8593          	mv	a1,s5
800031b0:	fa642423          	sw	t1,-88(s0)
800031b4:	fa742623          	sw	t2,-84(s0)
800031b8:	f7f42423          	sw	t6,-152(s0)
800031bc:	f7e42c23          	sw	t5,-136(s0)
800031c0:	25c0a0ef          	jal	ra,8000d41c <fma>
800031c4:	4004ac03          	lw	s8,1024(s1)
800031c8:	4044ac83          	lw	s9,1028(s1)
800031cc:	fb842703          	lw	a4,-72(s0)
800031d0:	fb042783          	lw	a5,-80(s0)
800031d4:	00050f93          	mv	t6,a0
800031d8:	00058f13          	mv	t5,a1
800031dc:	000c0613          	mv	a2,s8
800031e0:	000c8693          	mv	a3,s9
800031e4:	000a0513          	mv	a0,s4
800031e8:	000a8593          	mv	a1,s5
800031ec:	f7f42023          	sw	t6,-160(s0)
800031f0:	f5e42e23          	sw	t5,-164(s0)
800031f4:	2280a0ef          	jal	ra,8000d41c <fma>
800031f8:	4084ab03          	lw	s6,1032(s1)
800031fc:	40c4ab83          	lw	s7,1036(s1)
80003200:	ee042703          	lw	a4,-288(s0)
80003204:	ed842783          	lw	a5,-296(s0)
80003208:	00050f93          	mv	t6,a0
8000320c:	00058f13          	mv	t5,a1
80003210:	000b0613          	mv	a2,s6
80003214:	000b8693          	mv	a3,s7
80003218:	000a0513          	mv	a0,s4
8000321c:	000a8593          	mv	a1,s5
80003220:	f5f42823          	sw	t6,-176(s0)
80003224:	f5e42c23          	sw	t5,-168(s0)
80003228:	1f40a0ef          	jal	ra,8000d41c <fma>
8000322c:	0e892a03          	lw	s4,232(s2)
80003230:	0ec92a83          	lw	s5,236(s2)
80003234:	ed042703          	lw	a4,-304(s0)
80003238:	ec842783          	lw	a5,-312(s0)
8000323c:	00050f93          	mv	t6,a0
80003240:	00058f13          	mv	t5,a1
80003244:	000d0613          	mv	a2,s10
80003248:	000d8693          	mv	a3,s11
8000324c:	000a0513          	mv	a0,s4
80003250:	000a8593          	mv	a1,s5
80003254:	f5f42423          	sw	t6,-184(s0)
80003258:	f5e42223          	sw	t5,-188(s0)
8000325c:	1c00a0ef          	jal	ra,8000d41c <fma>
80003260:	f8042803          	lw	a6,-128(s0)
80003264:	f8442883          	lw	a7,-124(s0)
80003268:	ec042703          	lw	a4,-320(s0)
8000326c:	ebc42783          	lw	a5,-324(s0)
80003270:	00080613          	mv	a2,a6
80003274:	00088693          	mv	a3,a7
80003278:	00050f93          	mv	t6,a0
8000327c:	00058f13          	mv	t5,a1
80003280:	000a0513          	mv	a0,s4
80003284:	000a8593          	mv	a1,s5
80003288:	f1042023          	sw	a6,-256(s0)
8000328c:	f1142223          	sw	a7,-252(s0)
80003290:	f3f42c23          	sw	t6,-200(s0)
80003294:	f5e42023          	sw	t5,-192(s0)
80003298:	1840a0ef          	jal	ra,8000d41c <fma>
8000329c:	fa842303          	lw	t1,-88(s0)
800032a0:	fac42383          	lw	t2,-84(s0)
800032a4:	eb042703          	lw	a4,-336(s0)
800032a8:	eb842783          	lw	a5,-328(s0)
800032ac:	00030613          	mv	a2,t1
800032b0:	00038693          	mv	a3,t2
800032b4:	00050f93          	mv	t6,a0
800032b8:	00058f13          	mv	t5,a1
800032bc:	000a0513          	mv	a0,s4
800032c0:	000a8593          	mv	a1,s5
800032c4:	f0642423          	sw	t1,-248(s0)
800032c8:	f0742623          	sw	t2,-244(s0)
800032cc:	f9f42023          	sw	t6,-128(s0)
800032d0:	f7e42e23          	sw	t5,-132(s0)
800032d4:	1480a0ef          	jal	ra,8000d41c <fma>
800032d8:	f3442703          	lw	a4,-204(s0)
800032dc:	ea842783          	lw	a5,-344(s0)
800032e0:	00050f93          	mv	t6,a0
800032e4:	00058f13          	mv	t5,a1
800032e8:	000c0613          	mv	a2,s8
800032ec:	000c8693          	mv	a3,s9
800032f0:	000a0513          	mv	a0,s4
800032f4:	000a8593          	mv	a1,s5
800032f8:	fbf42423          	sw	t6,-88(s0)
800032fc:	fbe42023          	sw	t5,-96(s0)
80003300:	11c0a0ef          	jal	ra,8000d41c <fma>
80003304:	f3042703          	lw	a4,-208(s0)
80003308:	f2c42783          	lw	a5,-212(s0)
8000330c:	00050f93          	mv	t6,a0
80003310:	00058f13          	mv	t5,a1
80003314:	000b0613          	mv	a2,s6
80003318:	000b8693          	mv	a3,s7
8000331c:	000a0513          	mv	a0,s4
80003320:	000a8593          	mv	a1,s5
80003324:	fbf42c23          	sw	t6,-72(s0)
80003328:	fbe42823          	sw	t5,-80(s0)
8000332c:	0f00a0ef          	jal	ra,8000d41c <fma>
80003330:	1a892a03          	lw	s4,424(s2)
80003334:	1ac92a83          	lw	s5,428(s2)
80003338:	f2842703          	lw	a4,-216(s0)
8000333c:	f2442783          	lw	a5,-220(s0)
80003340:	00050f93          	mv	t6,a0
80003344:	00058f13          	mv	t5,a1
80003348:	000d0613          	mv	a2,s10
8000334c:	000d8693          	mv	a3,s11
80003350:	000a0513          	mv	a0,s4
80003354:	000a8593          	mv	a1,s5
80003358:	f3f42a23          	sw	t6,-204(s0)
8000335c:	f3e42823          	sw	t5,-208(s0)
80003360:	0bc0a0ef          	jal	ra,8000d41c <fma>
80003364:	f0042803          	lw	a6,-256(s0)
80003368:	f0442883          	lw	a7,-252(s0)
8000336c:	f2042703          	lw	a4,-224(s0)
80003370:	f1c42783          	lw	a5,-228(s0)
80003374:	00080613          	mv	a2,a6
80003378:	00088693          	mv	a3,a7
8000337c:	ef042823          	sw	a6,-272(s0)
80003380:	00050f93          	mv	t6,a0
80003384:	00058f13          	mv	t5,a1
80003388:	000a0513          	mv	a0,s4
8000338c:	000a8593          	mv	a1,s5
80003390:	ef142a23          	sw	a7,-268(s0)
80003394:	f3f42623          	sw	t6,-212(s0)
80003398:	f3e42423          	sw	t5,-216(s0)
8000339c:	0800a0ef          	jal	ra,8000d41c <fma>
800033a0:	f0842303          	lw	t1,-248(s0)
800033a4:	f0c42383          	lw	t2,-244(s0)
800033a8:	f1842703          	lw	a4,-232(s0)
800033ac:	f1442783          	lw	a5,-236(s0)
800033b0:	00030613          	mv	a2,t1
800033b4:	00038693          	mv	a3,t2
800033b8:	00050f93          	mv	t6,a0
800033bc:	00058f13          	mv	t5,a1
800033c0:	000a0513          	mv	a0,s4
800033c4:	000a8593          	mv	a1,s5
800033c8:	ee642023          	sw	t1,-288(s0)
800033cc:	ee742223          	sw	t2,-284(s0)
800033d0:	f3f42223          	sw	t6,-220(s0)
800033d4:	f3e42023          	sw	t5,-224(s0)
800033d8:	0440a0ef          	jal	ra,8000d41c <fma>
800033dc:	f8842703          	lw	a4,-120(s0)
800033e0:	f9042783          	lw	a5,-112(s0)
800033e4:	00050f93          	mv	t6,a0
800033e8:	00058f13          	mv	t5,a1
800033ec:	000c0613          	mv	a2,s8
800033f0:	000c8693          	mv	a3,s9
800033f4:	000a0513          	mv	a0,s4
800033f8:	000a8593          	mv	a1,s5
800033fc:	f1f42e23          	sw	t6,-228(s0)
80003400:	f1e42c23          	sw	t5,-232(s0)
80003404:	0180a0ef          	jal	ra,8000d41c <fma>
80003408:	f9842703          	lw	a4,-104(s0)
8000340c:	f9442783          	lw	a5,-108(s0)
80003410:	00050f93          	mv	t6,a0
80003414:	00058f13          	mv	t5,a1
80003418:	000b0613          	mv	a2,s6
8000341c:	000b8693          	mv	a3,s7
80003420:	000a0513          	mv	a0,s4
80003424:	000a8593          	mv	a1,s5
80003428:	f1f42a23          	sw	t6,-236(s0)
8000342c:	f1e42423          	sw	t5,-248(s0)
80003430:	7ed090ef          	jal	ra,8000d41c <fma>
80003434:	26892a03          	lw	s4,616(s2)
80003438:	26c92a83          	lw	s5,620(s2)
8000343c:	f1042703          	lw	a4,-240(s0)
80003440:	ea042783          	lw	a5,-352(s0)
80003444:	00050f93          	mv	t6,a0
80003448:	00058f13          	mv	t5,a1
8000344c:	000d0613          	mv	a2,s10
80003450:	000d8693          	mv	a3,s11
80003454:	000a0513          	mv	a0,s4
80003458:	000a8593          	mv	a1,s5
8000345c:	f1f42823          	sw	t6,-240(s0)
80003460:	f1e42023          	sw	t5,-256(s0)
80003464:	7b9090ef          	jal	ra,8000d41c <fma>
80003468:	ef042803          	lw	a6,-272(s0)
8000346c:	ef442883          	lw	a7,-268(s0)
80003470:	ef842703          	lw	a4,-264(s0)
80003474:	e9c42783          	lw	a5,-356(s0)
80003478:	00050f93          	mv	t6,a0
8000347c:	00058f13          	mv	t5,a1
80003480:	00080613          	mv	a2,a6
80003484:	00088693          	mv	a3,a7
80003488:	000a0513          	mv	a0,s4
8000348c:	000a8593          	mv	a1,s5
80003490:	eff42c23          	sw	t6,-264(s0)
80003494:	efe42823          	sw	t5,-272(s0)
80003498:	785090ef          	jal	ra,8000d41c <fma>
8000349c:	ee042303          	lw	t1,-288(s0)
800034a0:	ee442383          	lw	t2,-284(s0)
800034a4:	ee842703          	lw	a4,-280(s0)
800034a8:	e9842783          	lw	a5,-360(s0)
800034ac:	00050893          	mv	a7,a0
800034b0:	00058813          	mv	a6,a1
800034b4:	00030613          	mv	a2,t1
800034b8:	00038693          	mv	a3,t2
800034bc:	000a0513          	mv	a0,s4
800034c0:	000a8593          	mv	a1,s5
800034c4:	ef142423          	sw	a7,-280(s0)
800034c8:	ef042023          	sw	a6,-288(s0)
800034cc:	751090ef          	jal	ra,8000d41c <fma>
800034d0:	e9442703          	lw	a4,-364(s0)
800034d4:	e9042783          	lw	a5,-368(s0)
800034d8:	00050893          	mv	a7,a0
800034dc:	00058813          	mv	a6,a1
800034e0:	000c0613          	mv	a2,s8
800034e4:	000c8693          	mv	a3,s9
800034e8:	000a0513          	mv	a0,s4
800034ec:	000a8593          	mv	a1,s5
800034f0:	ed142c23          	sw	a7,-296(s0)
800034f4:	ed042823          	sw	a6,-304(s0)
800034f8:	725090ef          	jal	ra,8000d41c <fma>
800034fc:	e8842e03          	lw	t3,-376(s0)
80003500:	e8c42e83          	lw	t4,-372(s0)
80003504:	00050893          	mv	a7,a0
80003508:	00058813          	mv	a6,a1
8000350c:	000e8793          	mv	a5,t4
80003510:	000e0713          	mv	a4,t3
80003514:	000b0613          	mv	a2,s6
80003518:	000b8693          	mv	a3,s7
8000351c:	000a0513          	mv	a0,s4
80003520:	000a8593          	mv	a1,s5
80003524:	f9142423          	sw	a7,-120(s0)
80003528:	f9042823          	sw	a6,-112(s0)
8000352c:	6f1090ef          	jal	ra,8000d41c <fma>
80003530:	e8442783          	lw	a5,-380(s0)
80003534:	4b048493          	addi	s1,s1,1200
80003538:	f8a42c23          	sw	a0,-104(s0)
8000353c:	f8b42a23          	sw	a1,-108(s0)
80003540:	03090913          	addi	s2,s2,48
80003544:	00f48463          	beq	s1,a5,8000354c <mm_cb+0x2184>
80003548:	fd0fe06f          	j	80001d18 <mm_cb+0x950>
8000354c:	f1c42083          	lw	ra,-228(s0)
80003550:	fb842a03          	lw	s4,-72(s0)
80003554:	fa842903          	lw	s2,-88(s0)
80003558:	fa142c23          	sw	ra,-72(s0)
8000355c:	f1442083          	lw	ra,-236(s0)
80003560:	f8042f03          	lw	t5,-128(s0)
80003564:	f6842703          	lw	a4,-152(s0)
80003568:	fa142423          	sw	ra,-88(s0)
8000356c:	f1042083          	lw	ra,-240(s0)
80003570:	f6042503          	lw	a0,-160(s0)
80003574:	e8042283          	lw	t0,-384(s0)
80003578:	f8142023          	sw	ra,-128(s0)
8000357c:	ef842083          	lw	ra,-264(s0)
80003580:	f5042803          	lw	a6,-176(s0)
80003584:	f4842303          	lw	t1,-184(s0)
80003588:	f6142423          	sw	ra,-152(s0)
8000358c:	ee842083          	lw	ra,-280(s0)
80003590:	f3842e03          	lw	t3,-200(s0)
80003594:	f3442b03          	lw	s6,-204(s0)
80003598:	f6142023          	sw	ra,-160(s0)
8000359c:	ed842083          	lw	ra,-296(s0)
800035a0:	f2c42c03          	lw	s8,-212(s0)
800035a4:	f2442d03          	lw	s10,-220(s0)
800035a8:	f4142823          	sw	ra,-176(s0)
800035ac:	f8842083          	lw	ra,-120(s0)
800035b0:	f7842783          	lw	a5,-136(s0)
800035b4:	00098613          	mv	a2,s3
800035b8:	f4142423          	sw	ra,-184(s0)
800035bc:	f9842083          	lw	ra,-104(s0)
800035c0:	f7042683          	lw	a3,-144(s0)
800035c4:	f5c42583          	lw	a1,-164(s0)
800035c8:	f2142c23          	sw	ra,-200(s0)
800035cc:	f1842083          	lw	ra,-232(s0)
800035d0:	f5842883          	lw	a7,-168(s0)
800035d4:	f4442383          	lw	t2,-188(s0)
800035d8:	fa142e23          	sw	ra,-68(s0)
800035dc:	f0842083          	lw	ra,-248(s0)
800035e0:	f4042e83          	lw	t4,-192(s0)
800035e4:	f7c42f83          	lw	t6,-132(s0)
800035e8:	fa142623          	sw	ra,-84(s0)
800035ec:	f0042083          	lw	ra,-256(s0)
800035f0:	fa042983          	lw	s3,-96(s0)
800035f4:	fb042a83          	lw	s5,-80(s0)
800035f8:	f8142223          	sw	ra,-124(s0)
800035fc:	ef042083          	lw	ra,-272(s0)
80003600:	f3042b83          	lw	s7,-208(s0)
80003604:	f2842c83          	lw	s9,-216(s0)
80003608:	f6142623          	sw	ra,-148(s0)
8000360c:	ee042083          	lw	ra,-288(s0)
80003610:	f2042d83          	lw	s11,-224(s0)
80003614:	02828293          	addi	t0,t0,40
80003618:	f6142223          	sw	ra,-156(s0)
8000361c:	ed042083          	lw	ra,-304(s0)
80003620:	f4142a23          	sw	ra,-172(s0)
80003624:	f9042083          	lw	ra,-112(s0)
80003628:	f4142623          	sw	ra,-180(s0)
8000362c:	f9442083          	lw	ra,-108(s0)
80003630:	f2142e23          	sw	ra,-196(s0)
80003634:	fcc2ac23          	sw	a2,-40(t0)
80003638:	fef2a223          	sw	a5,-28(t0)
8000363c:	fb842783          	lw	a5,-72(s0)
80003640:	ff02a823          	sw	a6,-16(t0)
80003644:	fbc42803          	lw	a6,-68(s0)
80003648:	16f2ac23          	sw	a5,376(t0)
8000364c:	fa842783          	lw	a5,-88(s0)
80003650:	1702ae23          	sw	a6,380(t0)
80003654:	fac42803          	lw	a6,-84(s0)
80003658:	18f2a023          	sw	a5,384(t0)
8000365c:	f8042783          	lw	a5,-128(s0)
80003660:	fee2a023          	sw	a4,-32(t0)
80003664:	fcd2ae23          	sw	a3,-36(t0)
80003668:	fea2a423          	sw	a0,-24(t0)
8000366c:	feb2a623          	sw	a1,-20(t0)
80003670:	ff12aa23          	sw	a7,-12(t0)
80003674:	fe62ac23          	sw	t1,-8(t0)
80003678:	fe72ae23          	sw	t2,-4(t0)
8000367c:	0bc2a023          	sw	t3,160(t0)
80003680:	0bd2a223          	sw	t4,164(t0)
80003684:	0be2a423          	sw	t5,168(t0)
80003688:	0bf2a623          	sw	t6,172(t0)
8000368c:	0b22a823          	sw	s2,176(t0)
80003690:	0b32aa23          	sw	s3,180(t0)
80003694:	0b42ac23          	sw	s4,184(t0)
80003698:	0b52ae23          	sw	s5,188(t0)
8000369c:	0d62a023          	sw	s6,192(t0)
800036a0:	0d72a223          	sw	s7,196(t0)
800036a4:	1782a423          	sw	s8,360(t0)
800036a8:	1792a623          	sw	s9,364(t0)
800036ac:	17a2a823          	sw	s10,368(t0)
800036b0:	17b2aa23          	sw	s11,372(t0)
800036b4:	1902a223          	sw	a6,388(t0)
800036b8:	f8442803          	lw	a6,-124(s0)
800036bc:	18f2a423          	sw	a5,392(t0)
800036c0:	f6842783          	lw	a5,-152(s0)
800036c4:	1902a623          	sw	a6,396(t0)
800036c8:	f6c42803          	lw	a6,-148(s0)
800036cc:	22f2a823          	sw	a5,560(t0)
800036d0:	f6042783          	lw	a5,-160(s0)
800036d4:	2302aa23          	sw	a6,564(t0)
800036d8:	f6442803          	lw	a6,-156(s0)
800036dc:	22f2ac23          	sw	a5,568(t0)
800036e0:	f5042783          	lw	a5,-176(s0)
800036e4:	2302ae23          	sw	a6,572(t0)
800036e8:	f5442803          	lw	a6,-172(s0)
800036ec:	24f2a023          	sw	a5,576(t0)
800036f0:	f4842783          	lw	a5,-184(s0)
800036f4:	2502a223          	sw	a6,580(t0)
800036f8:	f4c42803          	lw	a6,-180(s0)
800036fc:	24f2a423          	sw	a5,584(t0)
80003700:	f3842783          	lw	a5,-200(s0)
80003704:	2502a623          	sw	a6,588(t0)
80003708:	f3c42803          	lw	a6,-196(s0)
8000370c:	e7042703          	lw	a4,-400(s0)
80003710:	24f2a823          	sw	a5,592(t0)
80003714:	02848793          	addi	a5,s1,40
80003718:	2502aa23          	sw	a6,596(t0)
8000371c:	e8f42223          	sw	a5,-380(s0)
80003720:	00f70463          	beq	a4,a5,80003728 <mm_cb+0x2360>
80003724:	c9cfe06f          	j	80001bc0 <mm_cb+0x7f8>
80003728:	e5442983          	lw	s3,-428(s0)
8000372c:	e7842903          	lw	s2,-392(s0)
80003730:	e5042303          	lw	t1,-432(s0)
80003734:	01900793          	li	a5,25
80003738:	00f12023          	sw	a5,0(sp)
8000373c:	e4c42783          	lw	a5,-436(s0)
80003740:	06430493          	addi	s1,t1,100
80003744:	00098893          	mv	a7,s3
80003748:	00090693          	mv	a3,s2
8000374c:	01900813          	li	a6,25
80003750:	01800713          	li	a4,24
80003754:	01800613          	li	a2,24
80003758:	00000593          	li	a1,0
8000375c:	00400513          	li	a0,4
80003760:	e4942823          	sw	s1,-432(s0)
80003764:	8e5fd0ef          	jal	ra,80001048 <mm_naive>
80003768:	30090793          	addi	a5,s2,768
8000376c:	e6f42c23          	sw	a5,-392(s0)
80003770:	32098793          	addi	a5,s3,800
80003774:	e4f42a23          	sw	a5,-428(s0)
80003778:	25800793          	li	a5,600
8000377c:	00f48463          	beq	s1,a5,80003784 <mm_cb+0x23bc>
80003780:	c2cfe06f          	j	80001bac <mm_cb+0x7e4>
80003784:	df842303          	lw	t1,-520(s0)
80003788:	dc842683          	lw	a3,-568(s0)
8000378c:	01900793          	li	a5,25
80003790:	00f12023          	sw	a5,0(sp)
80003794:	dac42883          	lw	a7,-596(s0)
80003798:	db442783          	lw	a5,-588(s0)
8000379c:	00001637          	lui	a2,0x1
800037a0:	20060613          	addi	a2,a2,512 # 1200 <buflen.2941+0x1180>
800037a4:	01830313          	addi	t1,t1,24
800037a8:	00c686b3          	add	a3,a3,a2
800037ac:	01900813          	li	a6,25
800037b0:	01800713          	li	a4,24
800037b4:	01800613          	li	a2,24
800037b8:	01900593          	li	a1,25
800037bc:	00000513          	li	a0,0
800037c0:	00030493          	mv	s1,t1
800037c4:	de642c23          	sw	t1,-520(s0)
800037c8:	881fd0ef          	jal	ra,80001048 <mm_naive>
800037cc:	e3842783          	lw	a5,-456(s0)
800037d0:	00f4f463          	bgeu	s1,a5,800037d8 <mm_cb+0x2410>
800037d4:	b54fe06f          	j	80001b28 <mm_cb+0x760>
800037d8:	e3442783          	lw	a5,-460(s0)
800037dc:	e3842703          	lw	a4,-456(s0)
800037e0:	00f77463          	bgeu	a4,a5,800037e8 <mm_cb+0x2420>
800037e4:	1880206f          	j	8000596c <mm_cb+0x45a4>
800037e8:	e2c42703          	lw	a4,-468(s0)
800037ec:	e1042783          	lw	a5,-496(s0)
800037f0:	0c870713          	addi	a4,a4,200
800037f4:	e2e42623          	sw	a4,-468(s0)
800037f8:	e4042703          	lw	a4,-448(s0)
800037fc:	01978793          	addi	a5,a5,25
80003800:	e0f42823          	sw	a5,-496(s0)
80003804:	00e7f463          	bgeu	a5,a4,8000380c <mm_cb+0x2444>
80003808:	ad0fe06f          	j	80001ad8 <mm_cb+0x710>
8000380c:	e1842783          	lw	a5,-488(s0)
80003810:	e4042703          	lw	a4,-448(s0)
80003814:	00f76463          	bltu	a4,a5,8000381c <mm_cb+0x2454>
80003818:	2640406f          	j	80007a7c <mm_cb+0x66b4>
8000381c:	e3442783          	lw	a5,-460(s0)
80003820:	00079463          	bnez	a5,80003828 <mm_cb+0x2460>
80003824:	2580406f          	j	80007a7c <mm_cb+0x66b4>
80003828:	e1c42703          	lw	a4,-484(s0)
8000382c:	e0442783          	lw	a5,-508(s0)
80003830:	00e787b3          	add	a5,a5,a4
80003834:	e0f42823          	sw	a5,-496(s0)
80003838:	e2042703          	lw	a4,-480(s0)
8000383c:	d9042783          	lw	a5,-624(s0)
80003840:	e2042023          	sw	zero,-480(s0)
80003844:	00e787b3          	add	a5,a5,a4
80003848:	def42823          	sw	a5,-528(s0)
8000384c:	d9c42783          	lw	a5,-612(s0)
80003850:	e2f42623          	sw	a5,-468(s0)
80003854:	e2042703          	lw	a4,-480(s0)
80003858:	e3442783          	lw	a5,-460(s0)
8000385c:	40e787b3          	sub	a5,a5,a4
80003860:	e4f42423          	sw	a5,-440(s0)
80003864:	01800713          	li	a4,24
80003868:	00f77663          	bgeu	a4,a5,80003874 <mm_cb+0x24ac>
8000386c:	01800793          	li	a5,24
80003870:	e4f42423          	sw	a5,-440(s0)
80003874:	e4842783          	lw	a5,-440(s0)
80003878:	00600713          	li	a4,6
8000387c:	e2c42603          	lw	a2,-468(s0)
80003880:	02e7d733          	divu	a4,a5,a4
80003884:	dc042683          	lw	a3,-576(s0)
80003888:	00379793          	slli	a5,a5,0x3
8000388c:	00c686b3          	add	a3,a3,a2
80003890:	dad42c23          	sw	a3,-584(s0)
80003894:	df042683          	lw	a3,-528(s0)
80003898:	e6842603          	lw	a2,-408(s0)
8000389c:	00f687b3          	add	a5,a3,a5
800038a0:	e8f42423          	sw	a5,-376(s0)
800038a4:	e1c42783          	lw	a5,-484(s0)
800038a8:	e4d42623          	sw	a3,-436(s0)
800038ac:	def42623          	sw	a5,-532(s0)
800038b0:	00600793          	li	a5,6
800038b4:	dcf42423          	sw	a5,-568(s0)
800038b8:	00171793          	slli	a5,a4,0x1
800038bc:	00e787b3          	add	a5,a5,a4
800038c0:	02e60733          	mul	a4,a2,a4
800038c4:	00479793          	slli	a5,a5,0x4
800038c8:	00f687b3          	add	a5,a3,a5
800038cc:	e8f42623          	sw	a5,-372(s0)
800038d0:	dee42c23          	sw	a4,-520(s0)
800038d4:	e0c42783          	lw	a5,-500(s0)
800038d8:	00079463          	bnez	a5,800038e0 <mm_cb+0x2518>
800038dc:	7ad0106f          	j	80005888 <mm_cb+0x44c0>
800038e0:	e2442783          	lw	a5,-476(s0)
800038e4:	dec42683          	lw	a3,-532(s0)
800038e8:	e4042823          	sw	zero,-432(s0)
800038ec:	00d78733          	add	a4,a5,a3
800038f0:	e6e42823          	sw	a4,-400(s0)
800038f4:	00e78733          	add	a4,a5,a4
800038f8:	00e787b3          	add	a5,a5,a4
800038fc:	e8f42023          	sw	a5,-384(s0)
80003900:	e2c42783          	lw	a5,-468(s0)
80003904:	e6e42c23          	sw	a4,-392(s0)
80003908:	e4d42a23          	sw	a3,-428(s0)
8000390c:	e8f42223          	sw	a5,-380(s0)
80003910:	e5442783          	lw	a5,-428(s0)
80003914:	0087a703          	lw	a4,8(a5)
80003918:	0007af03          	lw	t5,0(a5)
8000391c:	0047ae83          	lw	t4,4(a5)
80003920:	f8e42c23          	sw	a4,-104(s0)
80003924:	00c7a703          	lw	a4,12(a5)
80003928:	f8e42a23          	sw	a4,-108(s0)
8000392c:	0107a703          	lw	a4,16(a5)
80003930:	f8e42423          	sw	a4,-120(s0)
80003934:	0147a703          	lw	a4,20(a5)
80003938:	f8e42823          	sw	a4,-112(s0)
8000393c:	0187a703          	lw	a4,24(a5)
80003940:	f8e42023          	sw	a4,-128(s0)
80003944:	01c7a703          	lw	a4,28(a5)
80003948:	f6e42e23          	sw	a4,-132(s0)
8000394c:	0207a703          	lw	a4,32(a5)
80003950:	0247a783          	lw	a5,36(a5)
80003954:	f6e42823          	sw	a4,-144(s0)
80003958:	f6f42423          	sw	a5,-152(s0)
8000395c:	e7042783          	lw	a5,-400(s0)
80003960:	0007a703          	lw	a4,0(a5)
80003964:	f6e42c23          	sw	a4,-136(s0)
80003968:	0047a703          	lw	a4,4(a5)
8000396c:	f6e42023          	sw	a4,-160(s0)
80003970:	0087a703          	lw	a4,8(a5)
80003974:	f4e42e23          	sw	a4,-164(s0)
80003978:	00c7a703          	lw	a4,12(a5)
8000397c:	f4e42823          	sw	a4,-176(s0)
80003980:	0107a703          	lw	a4,16(a5)
80003984:	f4e42c23          	sw	a4,-168(s0)
80003988:	0147a703          	lw	a4,20(a5)
8000398c:	f4e42423          	sw	a4,-184(s0)
80003990:	0187a703          	lw	a4,24(a5)
80003994:	f4e42223          	sw	a4,-188(s0)
80003998:	01c7a703          	lw	a4,28(a5)
8000399c:	f2e42c23          	sw	a4,-200(s0)
800039a0:	0207a703          	lw	a4,32(a5)
800039a4:	0247a783          	lw	a5,36(a5)
800039a8:	f4e42023          	sw	a4,-192(s0)
800039ac:	f2f42a23          	sw	a5,-204(s0)
800039b0:	e7842783          	lw	a5,-392(s0)
800039b4:	0007a703          	lw	a4,0(a5)
800039b8:	f2e42823          	sw	a4,-208(s0)
800039bc:	0047a703          	lw	a4,4(a5)
800039c0:	f2e42623          	sw	a4,-212(s0)
800039c4:	0087a703          	lw	a4,8(a5)
800039c8:	f2e42423          	sw	a4,-216(s0)
800039cc:	00c7a703          	lw	a4,12(a5)
800039d0:	f2e42223          	sw	a4,-220(s0)
800039d4:	0107a703          	lw	a4,16(a5)
800039d8:	f2e42023          	sw	a4,-224(s0)
800039dc:	0147a703          	lw	a4,20(a5)
800039e0:	f0e42e23          	sw	a4,-228(s0)
800039e4:	0187a703          	lw	a4,24(a5)
800039e8:	f0e42c23          	sw	a4,-232(s0)
800039ec:	01c7a703          	lw	a4,28(a5)
800039f0:	f0e42a23          	sw	a4,-236(s0)
800039f4:	0207a703          	lw	a4,32(a5)
800039f8:	0247a783          	lw	a5,36(a5)
800039fc:	f0e42423          	sw	a4,-248(s0)
80003a00:	f0f42823          	sw	a5,-240(s0)
80003a04:	e8042783          	lw	a5,-384(s0)
80003a08:	0007a703          	lw	a4,0(a5)
80003a0c:	f0e42023          	sw	a4,-256(s0)
80003a10:	0047a703          	lw	a4,4(a5)
80003a14:	e8442483          	lw	s1,-380(s0)
80003a18:	eee42c23          	sw	a4,-264(s0)
80003a1c:	0087a703          	lw	a4,8(a5)
80003a20:	eee42823          	sw	a4,-272(s0)
80003a24:	00c7a703          	lw	a4,12(a5)
80003a28:	eee42423          	sw	a4,-280(s0)
80003a2c:	0107a703          	lw	a4,16(a5)
80003a30:	eee42023          	sw	a4,-288(s0)
80003a34:	0147a703          	lw	a4,20(a5)
80003a38:	ece42c23          	sw	a4,-296(s0)
80003a3c:	0187a703          	lw	a4,24(a5)
80003a40:	ece42823          	sw	a4,-304(s0)
80003a44:	01c7a703          	lw	a4,28(a5)
80003a48:	ece42423          	sw	a4,-312(s0)
80003a4c:	0207a703          	lw	a4,32(a5)
80003a50:	0247a783          	lw	a5,36(a5)
80003a54:	ece42023          	sw	a4,-320(s0)
80003a58:	eaf42e23          	sw	a5,-324(s0)
80003a5c:	e8c42703          	lw	a4,-372(s0)
80003a60:	e4c42783          	lw	a5,-436(s0)
80003a64:	00e7e463          	bltu	a5,a4,80003a6c <mm_cb+0x26a4>
80003a68:	0510106f          	j	800052b8 <mm_cb+0x3ef0>
80003a6c:	e7c42703          	lw	a4,-388(s0)
80003a70:	faf42c23          	sw	a5,-72(s0)
80003a74:	00f706b3          	add	a3,a4,a5
80003a78:	fad42023          	sw	a3,-96(s0)
80003a7c:	00d706b3          	add	a3,a4,a3
80003a80:	00d70733          	add	a4,a4,a3
80003a84:	fad42423          	sw	a3,-88(s0)
80003a88:	fae42823          	sw	a4,-80(s0)
80003a8c:	fb842783          	lw	a5,-72(s0)
80003a90:	0004ad03          	lw	s10,0(s1)
80003a94:	0044ad83          	lw	s11,4(s1)
80003a98:	0007a903          	lw	s2,0(a5)
80003a9c:	0047a983          	lw	s3,4(a5)
80003aa0:	000f0713          	mv	a4,t5
80003aa4:	000e8793          	mv	a5,t4
80003aa8:	000d0613          	mv	a2,s10
80003aac:	000d8693          	mv	a3,s11
80003ab0:	00090513          	mv	a0,s2
80003ab4:	00098593          	mv	a1,s3
80003ab8:	165090ef          	jal	ra,8000d41c <fma>
80003abc:	0084ac03          	lw	s8,8(s1)
80003ac0:	00c4ac83          	lw	s9,12(s1)
80003ac4:	f9842703          	lw	a4,-104(s0)
80003ac8:	f9442783          	lw	a5,-108(s0)
80003acc:	00050313          	mv	t1,a0
80003ad0:	00058e13          	mv	t3,a1
80003ad4:	000c0613          	mv	a2,s8
80003ad8:	000c8693          	mv	a3,s9
80003adc:	00090513          	mv	a0,s2
80003ae0:	00098593          	mv	a1,s3
80003ae4:	e8642c23          	sw	t1,-360(s0)
80003ae8:	e9c42e23          	sw	t3,-356(s0)
80003aec:	131090ef          	jal	ra,8000d41c <fma>
80003af0:	0104ab03          	lw	s6,16(s1)
80003af4:	0144ab83          	lw	s7,20(s1)
80003af8:	f8842703          	lw	a4,-120(s0)
80003afc:	f9042783          	lw	a5,-112(s0)
80003b00:	00050f93          	mv	t6,a0
80003b04:	00058293          	mv	t0,a1
80003b08:	000b0613          	mv	a2,s6
80003b0c:	000b8693          	mv	a3,s7
80003b10:	00090513          	mv	a0,s2
80003b14:	00098593          	mv	a1,s3
80003b18:	ebf42023          	sw	t6,-352(s0)
80003b1c:	ea542423          	sw	t0,-344(s0)
80003b20:	0fd090ef          	jal	ra,8000d41c <fma>
80003b24:	0184aa03          	lw	s4,24(s1)
80003b28:	01c4aa83          	lw	s5,28(s1)
80003b2c:	f8042703          	lw	a4,-128(s0)
80003b30:	f7c42783          	lw	a5,-132(s0)
80003b34:	00050393          	mv	t2,a0
80003b38:	00058813          	mv	a6,a1
80003b3c:	000a0613          	mv	a2,s4
80003b40:	000a8693          	mv	a3,s5
80003b44:	00090513          	mv	a0,s2
80003b48:	00098593          	mv	a1,s3
80003b4c:	ea742c23          	sw	t2,-328(s0)
80003b50:	f9042c23          	sw	a6,-104(s0)
80003b54:	0c9090ef          	jal	ra,8000d41c <fma>
80003b58:	0204a803          	lw	a6,32(s1)
80003b5c:	0244a883          	lw	a7,36(s1)
80003b60:	f7042703          	lw	a4,-144(s0)
80003b64:	f6842783          	lw	a5,-152(s0)
80003b68:	00080613          	mv	a2,a6
80003b6c:	00088693          	mv	a3,a7
80003b70:	00050f13          	mv	t5,a0
80003b74:	00058e93          	mv	t4,a1
80003b78:	00090513          	mv	a0,s2
80003b7c:	00098593          	mv	a1,s3
80003b80:	eb042823          	sw	a6,-336(s0)
80003b84:	eb142a23          	sw	a7,-332(s0)
80003b88:	f9e42a23          	sw	t5,-108(s0)
80003b8c:	f9d42423          	sw	t4,-120(s0)
80003b90:	08d090ef          	jal	ra,8000d41c <fma>
80003b94:	fa042703          	lw	a4,-96(s0)
80003b98:	f6042783          	lw	a5,-160(s0)
80003b9c:	00050f13          	mv	t5,a0
80003ba0:	00072903          	lw	s2,0(a4)
80003ba4:	00472983          	lw	s3,4(a4)
80003ba8:	f7842703          	lw	a4,-136(s0)
80003bac:	00058e93          	mv	t4,a1
80003bb0:	000d0613          	mv	a2,s10
80003bb4:	000d8693          	mv	a3,s11
80003bb8:	f9e42823          	sw	t5,-112(s0)
80003bbc:	00090513          	mv	a0,s2
80003bc0:	00098593          	mv	a1,s3
80003bc4:	f9d42023          	sw	t4,-128(s0)
80003bc8:	055090ef          	jal	ra,8000d41c <fma>
80003bcc:	f5c42703          	lw	a4,-164(s0)
80003bd0:	f5042783          	lw	a5,-176(s0)
80003bd4:	00050f13          	mv	t5,a0
80003bd8:	00058e93          	mv	t4,a1
80003bdc:	000c0613          	mv	a2,s8
80003be0:	000c8693          	mv	a3,s9
80003be4:	00090513          	mv	a0,s2
80003be8:	00098593          	mv	a1,s3
80003bec:	f7e42e23          	sw	t5,-132(s0)
80003bf0:	f7d42823          	sw	t4,-144(s0)
80003bf4:	029090ef          	jal	ra,8000d41c <fma>
80003bf8:	f5842703          	lw	a4,-168(s0)
80003bfc:	f4842783          	lw	a5,-184(s0)
80003c00:	00050f13          	mv	t5,a0
80003c04:	00058e93          	mv	t4,a1
80003c08:	000b0613          	mv	a2,s6
80003c0c:	000b8693          	mv	a3,s7
80003c10:	00090513          	mv	a0,s2
80003c14:	00098593          	mv	a1,s3
80003c18:	f7e42423          	sw	t5,-152(s0)
80003c1c:	f7d42c23          	sw	t4,-136(s0)
80003c20:	7fc090ef          	jal	ra,8000d41c <fma>
80003c24:	f4442703          	lw	a4,-188(s0)
80003c28:	f3842783          	lw	a5,-200(s0)
80003c2c:	00050f13          	mv	t5,a0
80003c30:	00058e93          	mv	t4,a1
80003c34:	000a0613          	mv	a2,s4
80003c38:	000a8693          	mv	a3,s5
80003c3c:	00090513          	mv	a0,s2
80003c40:	00098593          	mv	a1,s3
80003c44:	f7e42023          	sw	t5,-160(s0)
80003c48:	f5d42e23          	sw	t4,-164(s0)
80003c4c:	7d0090ef          	jal	ra,8000d41c <fma>
80003c50:	eb442883          	lw	a7,-332(s0)
80003c54:	eb042803          	lw	a6,-336(s0)
80003c58:	f4042703          	lw	a4,-192(s0)
80003c5c:	f3442783          	lw	a5,-204(s0)
80003c60:	00080613          	mv	a2,a6
80003c64:	00088693          	mv	a3,a7
80003c68:	00050f13          	mv	t5,a0
80003c6c:	00058e93          	mv	t4,a1
80003c70:	00090513          	mv	a0,s2
80003c74:	00098593          	mv	a1,s3
80003c78:	f5e42823          	sw	t5,-176(s0)
80003c7c:	f5d42c23          	sw	t4,-168(s0)
80003c80:	79c090ef          	jal	ra,8000d41c <fma>
80003c84:	fa842683          	lw	a3,-88(s0)
80003c88:	f3042703          	lw	a4,-208(s0)
80003c8c:	f2c42783          	lw	a5,-212(s0)
80003c90:	0006a903          	lw	s2,0(a3)
80003c94:	0046a983          	lw	s3,4(a3)
80003c98:	00050f13          	mv	t5,a0
80003c9c:	00058e93          	mv	t4,a1
80003ca0:	000d0613          	mv	a2,s10
80003ca4:	000d8693          	mv	a3,s11
80003ca8:	00090513          	mv	a0,s2
80003cac:	00098593          	mv	a1,s3
80003cb0:	f5e42423          	sw	t5,-184(s0)
80003cb4:	f5d42223          	sw	t4,-188(s0)
80003cb8:	764090ef          	jal	ra,8000d41c <fma>
80003cbc:	f2842703          	lw	a4,-216(s0)
80003cc0:	f2442783          	lw	a5,-220(s0)
80003cc4:	00050f13          	mv	t5,a0
80003cc8:	00058e93          	mv	t4,a1
80003ccc:	000c0613          	mv	a2,s8
80003cd0:	000c8693          	mv	a3,s9
80003cd4:	00090513          	mv	a0,s2
80003cd8:	00098593          	mv	a1,s3
80003cdc:	f3e42c23          	sw	t5,-200(s0)
80003ce0:	f5d42023          	sw	t4,-192(s0)
80003ce4:	738090ef          	jal	ra,8000d41c <fma>
80003ce8:	f2042703          	lw	a4,-224(s0)
80003cec:	f1c42783          	lw	a5,-228(s0)
80003cf0:	00050f13          	mv	t5,a0
80003cf4:	00058e93          	mv	t4,a1
80003cf8:	000b0613          	mv	a2,s6
80003cfc:	000b8693          	mv	a3,s7
80003d00:	00090513          	mv	a0,s2
80003d04:	00098593          	mv	a1,s3
80003d08:	f3e42a23          	sw	t5,-204(s0)
80003d0c:	f3d42823          	sw	t4,-208(s0)
80003d10:	70c090ef          	jal	ra,8000d41c <fma>
80003d14:	f1842703          	lw	a4,-232(s0)
80003d18:	f1442783          	lw	a5,-236(s0)
80003d1c:	00050f13          	mv	t5,a0
80003d20:	00058e93          	mv	t4,a1
80003d24:	000a0613          	mv	a2,s4
80003d28:	000a8693          	mv	a3,s5
80003d2c:	00090513          	mv	a0,s2
80003d30:	00098593          	mv	a1,s3
80003d34:	f3e42623          	sw	t5,-212(s0)
80003d38:	f3d42423          	sw	t4,-216(s0)
80003d3c:	6e0090ef          	jal	ra,8000d41c <fma>
80003d40:	f0842703          	lw	a4,-248(s0)
80003d44:	f1042783          	lw	a5,-240(s0)
80003d48:	eb042803          	lw	a6,-336(s0)
80003d4c:	eb442883          	lw	a7,-332(s0)
80003d50:	00050f13          	mv	t5,a0
80003d54:	00080613          	mv	a2,a6
80003d58:	00088693          	mv	a3,a7
80003d5c:	00058e93          	mv	t4,a1
80003d60:	00090513          	mv	a0,s2
80003d64:	00098593          	mv	a1,s3
80003d68:	f3e42223          	sw	t5,-220(s0)
80003d6c:	f3d42023          	sw	t4,-224(s0)
80003d70:	6ac090ef          	jal	ra,8000d41c <fma>
80003d74:	fb042603          	lw	a2,-80(s0)
80003d78:	f0042703          	lw	a4,-256(s0)
80003d7c:	ef842783          	lw	a5,-264(s0)
80003d80:	00062903          	lw	s2,0(a2)
80003d84:	00462983          	lw	s3,4(a2)
80003d88:	00050f13          	mv	t5,a0
80003d8c:	00058e93          	mv	t4,a1
80003d90:	000d0613          	mv	a2,s10
80003d94:	000d8693          	mv	a3,s11
80003d98:	00090513          	mv	a0,s2
80003d9c:	00098593          	mv	a1,s3
80003da0:	f1e42e23          	sw	t5,-228(s0)
80003da4:	f1d42c23          	sw	t4,-232(s0)
80003da8:	674090ef          	jal	ra,8000d41c <fma>
80003dac:	ef042703          	lw	a4,-272(s0)
80003db0:	ee842783          	lw	a5,-280(s0)
80003db4:	00050f13          	mv	t5,a0
80003db8:	00058e93          	mv	t4,a1
80003dbc:	000c0613          	mv	a2,s8
80003dc0:	000c8693          	mv	a3,s9
80003dc4:	00090513          	mv	a0,s2
80003dc8:	00098593          	mv	a1,s3
80003dcc:	f1e42a23          	sw	t5,-236(s0)
80003dd0:	f1d42423          	sw	t4,-248(s0)
80003dd4:	648090ef          	jal	ra,8000d41c <fma>
80003dd8:	ee042703          	lw	a4,-288(s0)
80003ddc:	ed842783          	lw	a5,-296(s0)
80003de0:	00050f13          	mv	t5,a0
80003de4:	00058e93          	mv	t4,a1
80003de8:	000b0613          	mv	a2,s6
80003dec:	000b8693          	mv	a3,s7
80003df0:	00090513          	mv	a0,s2
80003df4:	00098593          	mv	a1,s3
80003df8:	f1e42823          	sw	t5,-240(s0)
80003dfc:	f1d42023          	sw	t4,-256(s0)
80003e00:	61c090ef          	jal	ra,8000d41c <fma>
80003e04:	ed042703          	lw	a4,-304(s0)
80003e08:	ec842783          	lw	a5,-312(s0)
80003e0c:	00050f13          	mv	t5,a0
80003e10:	00058e93          	mv	t4,a1
80003e14:	000a0613          	mv	a2,s4
80003e18:	000a8693          	mv	a3,s5
80003e1c:	00090513          	mv	a0,s2
80003e20:	00098593          	mv	a1,s3
80003e24:	efe42c23          	sw	t5,-264(s0)
80003e28:	efd42823          	sw	t4,-272(s0)
80003e2c:	5f0090ef          	jal	ra,8000d41c <fma>
80003e30:	eb042803          	lw	a6,-336(s0)
80003e34:	eb442883          	lw	a7,-332(s0)
80003e38:	00058e93          	mv	t4,a1
80003e3c:	e7442583          	lw	a1,-396(s0)
80003e40:	ec042703          	lw	a4,-320(s0)
80003e44:	ebc42783          	lw	a5,-324(s0)
80003e48:	00b48a33          	add	s4,s1,a1
80003e4c:	00050f13          	mv	t5,a0
80003e50:	00080613          	mv	a2,a6
80003e54:	00088693          	mv	a3,a7
80003e58:	00090513          	mv	a0,s2
80003e5c:	00098593          	mv	a1,s3
80003e60:	efe42423          	sw	t5,-280(s0)
80003e64:	efd42023          	sw	t4,-288(s0)
80003e68:	5b4090ef          	jal	ra,8000d41c <fma>
80003e6c:	fb842783          	lw	a5,-72(s0)
80003e70:	000a2803          	lw	a6,0(s4)
80003e74:	004a2883          	lw	a7,4(s4)
80003e78:	0087a903          	lw	s2,8(a5)
80003e7c:	00c7a983          	lw	s3,12(a5)
80003e80:	e9842303          	lw	t1,-360(s0)
80003e84:	e9c42e03          	lw	t3,-356(s0)
80003e88:	00050f13          	mv	t5,a0
80003e8c:	00058e93          	mv	t4,a1
80003e90:	00080613          	mv	a2,a6
80003e94:	00088693          	mv	a3,a7
80003e98:	ed042c23          	sw	a6,-296(s0)
80003e9c:	00030713          	mv	a4,t1
80003ea0:	000e0793          	mv	a5,t3
80003ea4:	00090513          	mv	a0,s2
80003ea8:	00098593          	mv	a1,s3
80003eac:	ed142e23          	sw	a7,-292(s0)
80003eb0:	ebe42823          	sw	t5,-336(s0)
80003eb4:	ebd42e23          	sw	t4,-324(s0)
80003eb8:	564090ef          	jal	ra,8000d41c <fma>
80003ebc:	ea042f83          	lw	t6,-352(s0)
80003ec0:	ea842283          	lw	t0,-344(s0)
80003ec4:	008a2d03          	lw	s10,8(s4)
80003ec8:	00ca2d83          	lw	s11,12(s4)
80003ecc:	000f8713          	mv	a4,t6
80003ed0:	00028793          	mv	a5,t0
80003ed4:	00050e13          	mv	t3,a0
80003ed8:	00058313          	mv	t1,a1
80003edc:	000d0613          	mv	a2,s10
80003ee0:	000d8693          	mv	a3,s11
80003ee4:	00090513          	mv	a0,s2
80003ee8:	00098593          	mv	a1,s3
80003eec:	edc42023          	sw	t3,-320(s0)
80003ef0:	ec642823          	sw	t1,-304(s0)
80003ef4:	528090ef          	jal	ra,8000d41c <fma>
80003ef8:	eb842383          	lw	t2,-328(s0)
80003efc:	010a2c03          	lw	s8,16(s4)
80003f00:	014a2c83          	lw	s9,20(s4)
80003f04:	f9842783          	lw	a5,-104(s0)
80003f08:	00038713          	mv	a4,t2
80003f0c:	00050e13          	mv	t3,a0
80003f10:	00058313          	mv	t1,a1
80003f14:	000c0613          	mv	a2,s8
80003f18:	000c8693          	mv	a3,s9
80003f1c:	00090513          	mv	a0,s2
80003f20:	00098593          	mv	a1,s3
80003f24:	edc42423          	sw	t3,-312(s0)
80003f28:	f8642c23          	sw	t1,-104(s0)
80003f2c:	4f0090ef          	jal	ra,8000d41c <fma>
80003f30:	018a2b03          	lw	s6,24(s4)
80003f34:	01ca2b83          	lw	s7,28(s4)
80003f38:	f9442703          	lw	a4,-108(s0)
80003f3c:	f8842783          	lw	a5,-120(s0)
80003f40:	00050e13          	mv	t3,a0
80003f44:	00058313          	mv	t1,a1
80003f48:	000b0613          	mv	a2,s6
80003f4c:	000b8693          	mv	a3,s7
80003f50:	00090513          	mv	a0,s2
80003f54:	00098593          	mv	a1,s3
80003f58:	f9c42a23          	sw	t3,-108(s0)
80003f5c:	f8642423          	sw	t1,-120(s0)
80003f60:	4bc090ef          	jal	ra,8000d41c <fma>
80003f64:	024a2a83          	lw	s5,36(s4)
80003f68:	020a2a03          	lw	s4,32(s4)
80003f6c:	f9042703          	lw	a4,-112(s0)
80003f70:	f8042783          	lw	a5,-128(s0)
80003f74:	00050e13          	mv	t3,a0
80003f78:	00058313          	mv	t1,a1
80003f7c:	000a0613          	mv	a2,s4
80003f80:	000a8693          	mv	a3,s5
80003f84:	00090513          	mv	a0,s2
80003f88:	00098593          	mv	a1,s3
80003f8c:	f9c42823          	sw	t3,-112(s0)
80003f90:	f8642023          	sw	t1,-128(s0)
80003f94:	488090ef          	jal	ra,8000d41c <fma>
80003f98:	fa042703          	lw	a4,-96(s0)
80003f9c:	ed842803          	lw	a6,-296(s0)
80003fa0:	edc42883          	lw	a7,-292(s0)
80003fa4:	00872903          	lw	s2,8(a4)
80003fa8:	00c72983          	lw	s3,12(a4)
80003fac:	f7042783          	lw	a5,-144(s0)
80003fb0:	f7c42703          	lw	a4,-132(s0)
80003fb4:	00080613          	mv	a2,a6
80003fb8:	00088693          	mv	a3,a7
80003fbc:	00050e13          	mv	t3,a0
80003fc0:	00058313          	mv	t1,a1
80003fc4:	00090513          	mv	a0,s2
80003fc8:	00098593          	mv	a1,s3
80003fcc:	f7c42e23          	sw	t3,-132(s0)
80003fd0:	f6642823          	sw	t1,-144(s0)
80003fd4:	448090ef          	jal	ra,8000d41c <fma>
80003fd8:	f6842703          	lw	a4,-152(s0)
80003fdc:	f7842783          	lw	a5,-136(s0)
80003fe0:	00050e13          	mv	t3,a0
80003fe4:	00058313          	mv	t1,a1
80003fe8:	000d0613          	mv	a2,s10
80003fec:	000d8693          	mv	a3,s11
80003ff0:	f7c42423          	sw	t3,-152(s0)
80003ff4:	00090513          	mv	a0,s2
80003ff8:	00098593          	mv	a1,s3
80003ffc:	f6642c23          	sw	t1,-136(s0)
80004000:	41c090ef          	jal	ra,8000d41c <fma>
80004004:	f6042703          	lw	a4,-160(s0)
80004008:	f5c42783          	lw	a5,-164(s0)
8000400c:	00050e13          	mv	t3,a0
80004010:	00058313          	mv	t1,a1
80004014:	000c0613          	mv	a2,s8
80004018:	000c8693          	mv	a3,s9
8000401c:	00090513          	mv	a0,s2
80004020:	00098593          	mv	a1,s3
80004024:	f7c42023          	sw	t3,-160(s0)
80004028:	f4642e23          	sw	t1,-164(s0)
8000402c:	3f0090ef          	jal	ra,8000d41c <fma>
80004030:	f5042703          	lw	a4,-176(s0)
80004034:	f5842783          	lw	a5,-168(s0)
80004038:	00050e13          	mv	t3,a0
8000403c:	00058313          	mv	t1,a1
80004040:	000b0613          	mv	a2,s6
80004044:	000b8693          	mv	a3,s7
80004048:	00090513          	mv	a0,s2
8000404c:	00098593          	mv	a1,s3
80004050:	f5c42823          	sw	t3,-176(s0)
80004054:	f4642c23          	sw	t1,-168(s0)
80004058:	3c4090ef          	jal	ra,8000d41c <fma>
8000405c:	f4842703          	lw	a4,-184(s0)
80004060:	f4442783          	lw	a5,-188(s0)
80004064:	00050e13          	mv	t3,a0
80004068:	00058313          	mv	t1,a1
8000406c:	000a0613          	mv	a2,s4
80004070:	000a8693          	mv	a3,s5
80004074:	00090513          	mv	a0,s2
80004078:	00098593          	mv	a1,s3
8000407c:	f5c42423          	sw	t3,-184(s0)
80004080:	f4642223          	sw	t1,-188(s0)
80004084:	398090ef          	jal	ra,8000d41c <fma>
80004088:	fa842683          	lw	a3,-88(s0)
8000408c:	ed842803          	lw	a6,-296(s0)
80004090:	edc42883          	lw	a7,-292(s0)
80004094:	0086a903          	lw	s2,8(a3)
80004098:	00c6a983          	lw	s3,12(a3)
8000409c:	f3842703          	lw	a4,-200(s0)
800040a0:	f4042783          	lw	a5,-192(s0)
800040a4:	00080613          	mv	a2,a6
800040a8:	00088693          	mv	a3,a7
800040ac:	00050e13          	mv	t3,a0
800040b0:	00058313          	mv	t1,a1
800040b4:	00090513          	mv	a0,s2
800040b8:	00098593          	mv	a1,s3
800040bc:	f3c42c23          	sw	t3,-200(s0)
800040c0:	f4642023          	sw	t1,-192(s0)
800040c4:	358090ef          	jal	ra,8000d41c <fma>
800040c8:	f3442703          	lw	a4,-204(s0)
800040cc:	f3042783          	lw	a5,-208(s0)
800040d0:	00050e13          	mv	t3,a0
800040d4:	00058313          	mv	t1,a1
800040d8:	000d0613          	mv	a2,s10
800040dc:	000d8693          	mv	a3,s11
800040e0:	00090513          	mv	a0,s2
800040e4:	00098593          	mv	a1,s3
800040e8:	f3c42a23          	sw	t3,-204(s0)
800040ec:	f2642823          	sw	t1,-208(s0)
800040f0:	32c090ef          	jal	ra,8000d41c <fma>
800040f4:	f2c42703          	lw	a4,-212(s0)
800040f8:	f2842783          	lw	a5,-216(s0)
800040fc:	00050e13          	mv	t3,a0
80004100:	00058313          	mv	t1,a1
80004104:	000c0613          	mv	a2,s8
80004108:	000c8693          	mv	a3,s9
8000410c:	00090513          	mv	a0,s2
80004110:	00098593          	mv	a1,s3
80004114:	f3c42623          	sw	t3,-212(s0)
80004118:	f2642423          	sw	t1,-216(s0)
8000411c:	300090ef          	jal	ra,8000d41c <fma>
80004120:	f2442703          	lw	a4,-220(s0)
80004124:	f2042783          	lw	a5,-224(s0)
80004128:	00050e13          	mv	t3,a0
8000412c:	00058313          	mv	t1,a1
80004130:	000b0613          	mv	a2,s6
80004134:	000b8693          	mv	a3,s7
80004138:	00090513          	mv	a0,s2
8000413c:	00098593          	mv	a1,s3
80004140:	f3c42223          	sw	t3,-220(s0)
80004144:	f2642023          	sw	t1,-224(s0)
80004148:	2d4090ef          	jal	ra,8000d41c <fma>
8000414c:	f1c42703          	lw	a4,-228(s0)
80004150:	f1842783          	lw	a5,-232(s0)
80004154:	00050e13          	mv	t3,a0
80004158:	00058313          	mv	t1,a1
8000415c:	000a0613          	mv	a2,s4
80004160:	000a8693          	mv	a3,s5
80004164:	00090513          	mv	a0,s2
80004168:	00098593          	mv	a1,s3
8000416c:	f1c42e23          	sw	t3,-228(s0)
80004170:	f0642c23          	sw	t1,-232(s0)
80004174:	2a8090ef          	jal	ra,8000d41c <fma>
80004178:	fb042603          	lw	a2,-80(s0)
8000417c:	00050e13          	mv	t3,a0
80004180:	00058313          	mv	t1,a1
80004184:	00862903          	lw	s2,8(a2)
80004188:	00c62983          	lw	s3,12(a2)
8000418c:	ed842803          	lw	a6,-296(s0)
80004190:	edc42883          	lw	a7,-292(s0)
80004194:	f1442703          	lw	a4,-236(s0)
80004198:	f0842783          	lw	a5,-248(s0)
8000419c:	00080613          	mv	a2,a6
800041a0:	00088693          	mv	a3,a7
800041a4:	00090513          	mv	a0,s2
800041a8:	00098593          	mv	a1,s3
800041ac:	f1c42a23          	sw	t3,-236(s0)
800041b0:	f0642423          	sw	t1,-248(s0)
800041b4:	268090ef          	jal	ra,8000d41c <fma>
800041b8:	f1042703          	lw	a4,-240(s0)
800041bc:	f0042783          	lw	a5,-256(s0)
800041c0:	00050893          	mv	a7,a0
800041c4:	00058813          	mv	a6,a1
800041c8:	000d0613          	mv	a2,s10
800041cc:	000d8693          	mv	a3,s11
800041d0:	00090513          	mv	a0,s2
800041d4:	00098593          	mv	a1,s3
800041d8:	f1142823          	sw	a7,-240(s0)
800041dc:	f1042023          	sw	a6,-256(s0)
800041e0:	23c090ef          	jal	ra,8000d41c <fma>
800041e4:	ef842703          	lw	a4,-264(s0)
800041e8:	ef042783          	lw	a5,-272(s0)
800041ec:	00050893          	mv	a7,a0
800041f0:	00058813          	mv	a6,a1
800041f4:	000c0613          	mv	a2,s8
800041f8:	000c8693          	mv	a3,s9
800041fc:	00090513          	mv	a0,s2
80004200:	00098593          	mv	a1,s3
80004204:	ef142c23          	sw	a7,-264(s0)
80004208:	ef042823          	sw	a6,-272(s0)
8000420c:	210090ef          	jal	ra,8000d41c <fma>
80004210:	ee842703          	lw	a4,-280(s0)
80004214:	ee042783          	lw	a5,-288(s0)
80004218:	00050893          	mv	a7,a0
8000421c:	00058813          	mv	a6,a1
80004220:	000b0613          	mv	a2,s6
80004224:	000b8693          	mv	a3,s7
80004228:	00090513          	mv	a0,s2
8000422c:	00098593          	mv	a1,s3
80004230:	ef142423          	sw	a7,-280(s0)
80004234:	ef042023          	sw	a6,-288(s0)
80004238:	1e4090ef          	jal	ra,8000d41c <fma>
8000423c:	eb042f03          	lw	t5,-336(s0)
80004240:	ebc42e83          	lw	t4,-324(s0)
80004244:	00058813          	mv	a6,a1
80004248:	e6442583          	lw	a1,-412(s0)
8000424c:	000f0713          	mv	a4,t5
80004250:	000e8793          	mv	a5,t4
80004254:	00958b33          	add	s6,a1,s1
80004258:	00050893          	mv	a7,a0
8000425c:	000a0613          	mv	a2,s4
80004260:	000a8693          	mv	a3,s5
80004264:	00090513          	mv	a0,s2
80004268:	00098593          	mv	a1,s3
8000426c:	eb142823          	sw	a7,-336(s0)
80004270:	eb042e23          	sw	a6,-324(s0)
80004274:	1a8090ef          	jal	ra,8000d41c <fma>
80004278:	fb842783          	lw	a5,-72(s0)
8000427c:	ec042f83          	lw	t6,-320(s0)
80004280:	ed042283          	lw	t0,-304(s0)
80004284:	000b2803          	lw	a6,0(s6)
80004288:	004b2883          	lw	a7,4(s6)
8000428c:	0107a903          	lw	s2,16(a5)
80004290:	0147a983          	lw	s3,20(a5)
80004294:	000f8713          	mv	a4,t6
80004298:	00028793          	mv	a5,t0
8000429c:	00080613          	mv	a2,a6
800042a0:	00088693          	mv	a3,a7
800042a4:	00050e13          	mv	t3,a0
800042a8:	00058313          	mv	t1,a1
800042ac:	00090513          	mv	a0,s2
800042b0:	00098593          	mv	a1,s3
800042b4:	ed042023          	sw	a6,-320(s0)
800042b8:	ed142223          	sw	a7,-316(s0)
800042bc:	edc42c23          	sw	t3,-296(s0)
800042c0:	ec642823          	sw	t1,-304(s0)
800042c4:	158090ef          	jal	ra,8000d41c <fma>
800042c8:	ec842383          	lw	t2,-312(s0)
800042cc:	008b2d03          	lw	s10,8(s6)
800042d0:	00cb2d83          	lw	s11,12(s6)
800042d4:	f9842783          	lw	a5,-104(s0)
800042d8:	00050e13          	mv	t3,a0
800042dc:	00038713          	mv	a4,t2
800042e0:	00058313          	mv	t1,a1
800042e4:	000d0613          	mv	a2,s10
800042e8:	000d8693          	mv	a3,s11
800042ec:	f9c42c23          	sw	t3,-104(s0)
800042f0:	00090513          	mv	a0,s2
800042f4:	00098593          	mv	a1,s3
800042f8:	ec642423          	sw	t1,-312(s0)
800042fc:	120090ef          	jal	ra,8000d41c <fma>
80004300:	010b2c03          	lw	s8,16(s6)
80004304:	014b2c83          	lw	s9,20(s6)
80004308:	f9442703          	lw	a4,-108(s0)
8000430c:	f8842783          	lw	a5,-120(s0)
80004310:	00050e13          	mv	t3,a0
80004314:	00058313          	mv	t1,a1
80004318:	000c0613          	mv	a2,s8
8000431c:	000c8693          	mv	a3,s9
80004320:	00090513          	mv	a0,s2
80004324:	00098593          	mv	a1,s3
80004328:	f9c42a23          	sw	t3,-108(s0)
8000432c:	f8642423          	sw	t1,-120(s0)
80004330:	0ec090ef          	jal	ra,8000d41c <fma>
80004334:	018b2a03          	lw	s4,24(s6)
80004338:	01cb2a83          	lw	s5,28(s6)
8000433c:	f9042703          	lw	a4,-112(s0)
80004340:	f8042783          	lw	a5,-128(s0)
80004344:	00050e13          	mv	t3,a0
80004348:	00058313          	mv	t1,a1
8000434c:	000a0613          	mv	a2,s4
80004350:	000a8693          	mv	a3,s5
80004354:	00090513          	mv	a0,s2
80004358:	00098593          	mv	a1,s3
8000435c:	f9c42823          	sw	t3,-112(s0)
80004360:	f8642023          	sw	t1,-128(s0)
80004364:	0b8090ef          	jal	ra,8000d41c <fma>
80004368:	024b2b83          	lw	s7,36(s6)
8000436c:	020b2b03          	lw	s6,32(s6)
80004370:	f7c42703          	lw	a4,-132(s0)
80004374:	f7042783          	lw	a5,-144(s0)
80004378:	00050e13          	mv	t3,a0
8000437c:	00058313          	mv	t1,a1
80004380:	000b0613          	mv	a2,s6
80004384:	000b8693          	mv	a3,s7
80004388:	00090513          	mv	a0,s2
8000438c:	00098593          	mv	a1,s3
80004390:	f7c42e23          	sw	t3,-132(s0)
80004394:	f6642823          	sw	t1,-144(s0)
80004398:	084090ef          	jal	ra,8000d41c <fma>
8000439c:	fa042703          	lw	a4,-96(s0)
800043a0:	ec042803          	lw	a6,-320(s0)
800043a4:	ec442883          	lw	a7,-316(s0)
800043a8:	01072903          	lw	s2,16(a4)
800043ac:	01472983          	lw	s3,20(a4)
800043b0:	f7842783          	lw	a5,-136(s0)
800043b4:	f6842703          	lw	a4,-152(s0)
800043b8:	00080613          	mv	a2,a6
800043bc:	00088693          	mv	a3,a7
800043c0:	00050e13          	mv	t3,a0
800043c4:	00058313          	mv	t1,a1
800043c8:	00090513          	mv	a0,s2
800043cc:	00098593          	mv	a1,s3
800043d0:	f7c42423          	sw	t3,-152(s0)
800043d4:	f6642c23          	sw	t1,-136(s0)
800043d8:	044090ef          	jal	ra,8000d41c <fma>
800043dc:	f6042703          	lw	a4,-160(s0)
800043e0:	f5c42783          	lw	a5,-164(s0)
800043e4:	00050e13          	mv	t3,a0
800043e8:	00058313          	mv	t1,a1
800043ec:	000d0613          	mv	a2,s10
800043f0:	000d8693          	mv	a3,s11
800043f4:	00090513          	mv	a0,s2
800043f8:	00098593          	mv	a1,s3
800043fc:	f7c42023          	sw	t3,-160(s0)
80004400:	f4642e23          	sw	t1,-164(s0)
80004404:	018090ef          	jal	ra,8000d41c <fma>
80004408:	f5042703          	lw	a4,-176(s0)
8000440c:	f5842783          	lw	a5,-168(s0)
80004410:	00050e13          	mv	t3,a0
80004414:	00058313          	mv	t1,a1
80004418:	000c0613          	mv	a2,s8
8000441c:	000c8693          	mv	a3,s9
80004420:	00090513          	mv	a0,s2
80004424:	00098593          	mv	a1,s3
80004428:	f5c42823          	sw	t3,-176(s0)
8000442c:	f4642c23          	sw	t1,-168(s0)
80004430:	7ed080ef          	jal	ra,8000d41c <fma>
80004434:	f4842703          	lw	a4,-184(s0)
80004438:	f4442783          	lw	a5,-188(s0)
8000443c:	00050e13          	mv	t3,a0
80004440:	00058313          	mv	t1,a1
80004444:	000a0613          	mv	a2,s4
80004448:	000a8693          	mv	a3,s5
8000444c:	00090513          	mv	a0,s2
80004450:	00098593          	mv	a1,s3
80004454:	f5c42423          	sw	t3,-184(s0)
80004458:	f4642223          	sw	t1,-188(s0)
8000445c:	7c1080ef          	jal	ra,8000d41c <fma>
80004460:	f3842703          	lw	a4,-200(s0)
80004464:	f4042783          	lw	a5,-192(s0)
80004468:	00050e13          	mv	t3,a0
8000446c:	00058313          	mv	t1,a1
80004470:	000b0613          	mv	a2,s6
80004474:	000b8693          	mv	a3,s7
80004478:	00090513          	mv	a0,s2
8000447c:	00098593          	mv	a1,s3
80004480:	f3c42c23          	sw	t3,-200(s0)
80004484:	f4642023          	sw	t1,-192(s0)
80004488:	795080ef          	jal	ra,8000d41c <fma>
8000448c:	fa842683          	lw	a3,-88(s0)
80004490:	ec042803          	lw	a6,-320(s0)
80004494:	ec442883          	lw	a7,-316(s0)
80004498:	0106a903          	lw	s2,16(a3)
8000449c:	0146a983          	lw	s3,20(a3)
800044a0:	f3442703          	lw	a4,-204(s0)
800044a4:	f3042783          	lw	a5,-208(s0)
800044a8:	00080613          	mv	a2,a6
800044ac:	00088693          	mv	a3,a7
800044b0:	00050e13          	mv	t3,a0
800044b4:	00058313          	mv	t1,a1
800044b8:	00090513          	mv	a0,s2
800044bc:	00098593          	mv	a1,s3
800044c0:	f3c42a23          	sw	t3,-204(s0)
800044c4:	f2642823          	sw	t1,-208(s0)
800044c8:	755080ef          	jal	ra,8000d41c <fma>
800044cc:	f2c42703          	lw	a4,-212(s0)
800044d0:	f2842783          	lw	a5,-216(s0)
800044d4:	00050e13          	mv	t3,a0
800044d8:	00058313          	mv	t1,a1
800044dc:	000d0613          	mv	a2,s10
800044e0:	000d8693          	mv	a3,s11
800044e4:	00090513          	mv	a0,s2
800044e8:	00098593          	mv	a1,s3
800044ec:	f3c42623          	sw	t3,-212(s0)
800044f0:	f2642423          	sw	t1,-216(s0)
800044f4:	729080ef          	jal	ra,8000d41c <fma>
800044f8:	f2442703          	lw	a4,-220(s0)
800044fc:	f2042783          	lw	a5,-224(s0)
80004500:	00050e13          	mv	t3,a0
80004504:	00058313          	mv	t1,a1
80004508:	000c0613          	mv	a2,s8
8000450c:	000c8693          	mv	a3,s9
80004510:	00090513          	mv	a0,s2
80004514:	00098593          	mv	a1,s3
80004518:	f3c42223          	sw	t3,-220(s0)
8000451c:	f2642023          	sw	t1,-224(s0)
80004520:	6fd080ef          	jal	ra,8000d41c <fma>
80004524:	f1c42703          	lw	a4,-228(s0)
80004528:	f1842783          	lw	a5,-232(s0)
8000452c:	00050e13          	mv	t3,a0
80004530:	00058313          	mv	t1,a1
80004534:	000a0613          	mv	a2,s4
80004538:	000a8693          	mv	a3,s5
8000453c:	00090513          	mv	a0,s2
80004540:	00098593          	mv	a1,s3
80004544:	f1c42e23          	sw	t3,-228(s0)
80004548:	f0642c23          	sw	t1,-232(s0)
8000454c:	6d1080ef          	jal	ra,8000d41c <fma>
80004550:	f1442703          	lw	a4,-236(s0)
80004554:	f0842783          	lw	a5,-248(s0)
80004558:	00050e13          	mv	t3,a0
8000455c:	00058313          	mv	t1,a1
80004560:	000b0613          	mv	a2,s6
80004564:	000b8693          	mv	a3,s7
80004568:	00090513          	mv	a0,s2
8000456c:	00098593          	mv	a1,s3
80004570:	f1c42a23          	sw	t3,-236(s0)
80004574:	f0642423          	sw	t1,-248(s0)
80004578:	6a5080ef          	jal	ra,8000d41c <fma>
8000457c:	fb042603          	lw	a2,-80(s0)
80004580:	ec042803          	lw	a6,-320(s0)
80004584:	ec442883          	lw	a7,-316(s0)
80004588:	01062903          	lw	s2,16(a2)
8000458c:	01462983          	lw	s3,20(a2)
80004590:	f1042703          	lw	a4,-240(s0)
80004594:	f0042783          	lw	a5,-256(s0)
80004598:	00050e13          	mv	t3,a0
8000459c:	00058313          	mv	t1,a1
800045a0:	f1c42823          	sw	t3,-240(s0)
800045a4:	00080613          	mv	a2,a6
800045a8:	00088693          	mv	a3,a7
800045ac:	00090513          	mv	a0,s2
800045b0:	00098593          	mv	a1,s3
800045b4:	f0642023          	sw	t1,-256(s0)
800045b8:	665080ef          	jal	ra,8000d41c <fma>
800045bc:	ef842703          	lw	a4,-264(s0)
800045c0:	ef042783          	lw	a5,-272(s0)
800045c4:	00050893          	mv	a7,a0
800045c8:	00058813          	mv	a6,a1
800045cc:	000d0613          	mv	a2,s10
800045d0:	000d8693          	mv	a3,s11
800045d4:	00090513          	mv	a0,s2
800045d8:	00098593          	mv	a1,s3
800045dc:	ef142c23          	sw	a7,-264(s0)
800045e0:	ef042823          	sw	a6,-272(s0)
800045e4:	639080ef          	jal	ra,8000d41c <fma>
800045e8:	ee842703          	lw	a4,-280(s0)
800045ec:	ee042783          	lw	a5,-288(s0)
800045f0:	00050893          	mv	a7,a0
800045f4:	00058813          	mv	a6,a1
800045f8:	000c0613          	mv	a2,s8
800045fc:	000c8693          	mv	a3,s9
80004600:	00090513          	mv	a0,s2
80004604:	00098593          	mv	a1,s3
80004608:	ef142423          	sw	a7,-280(s0)
8000460c:	ef042023          	sw	a6,-288(s0)
80004610:	60d080ef          	jal	ra,8000d41c <fma>
80004614:	ebc42f03          	lw	t5,-324(s0)
80004618:	eb042e83          	lw	t4,-336(s0)
8000461c:	00050893          	mv	a7,a0
80004620:	000f0793          	mv	a5,t5
80004624:	000e8713          	mv	a4,t4
80004628:	00058813          	mv	a6,a1
8000462c:	000a0613          	mv	a2,s4
80004630:	000a8693          	mv	a3,s5
80004634:	00090513          	mv	a0,s2
80004638:	00098593          	mv	a1,s3
8000463c:	ed142023          	sw	a7,-320(s0)
80004640:	eb042e23          	sw	a6,-324(s0)
80004644:	5d9080ef          	jal	ra,8000d41c <fma>
80004648:	00058293          	mv	t0,a1
8000464c:	e5c42583          	lw	a1,-420(s0)
80004650:	ed842703          	lw	a4,-296(s0)
80004654:	ed042783          	lw	a5,-304(s0)
80004658:	00050f93          	mv	t6,a0
8000465c:	00b48a33          	add	s4,s1,a1
80004660:	000b0613          	mv	a2,s6
80004664:	000b8693          	mv	a3,s7
80004668:	00090513          	mv	a0,s2
8000466c:	00098593          	mv	a1,s3
80004670:	ebf42c23          	sw	t6,-328(s0)
80004674:	ec542823          	sw	t0,-304(s0)
80004678:	5a5080ef          	jal	ra,8000d41c <fma>
8000467c:	fb842783          	lw	a5,-72(s0)
80004680:	000a2803          	lw	a6,0(s4)
80004684:	004a2883          	lw	a7,4(s4)
80004688:	0187a903          	lw	s2,24(a5)
8000468c:	01c7a983          	lw	s3,28(a5)
80004690:	f9842703          	lw	a4,-104(s0)
80004694:	ec842783          	lw	a5,-312(s0)
80004698:	00050393          	mv	t2,a0
8000469c:	00080613          	mv	a2,a6
800046a0:	00088693          	mv	a3,a7
800046a4:	00058313          	mv	t1,a1
800046a8:	00090513          	mv	a0,s2
800046ac:	00098593          	mv	a1,s3
800046b0:	ec742423          	sw	t2,-312(s0)
800046b4:	ed042c23          	sw	a6,-296(s0)
800046b8:	ed142e23          	sw	a7,-292(s0)
800046bc:	f8642c23          	sw	t1,-104(s0)
800046c0:	55d080ef          	jal	ra,8000d41c <fma>
800046c4:	008a2d03          	lw	s10,8(s4)
800046c8:	00ca2d83          	lw	s11,12(s4)
800046cc:	f9442703          	lw	a4,-108(s0)
800046d0:	f8842783          	lw	a5,-120(s0)
800046d4:	00050e13          	mv	t3,a0
800046d8:	00058313          	mv	t1,a1
800046dc:	000d0613          	mv	a2,s10
800046e0:	000d8693          	mv	a3,s11
800046e4:	00090513          	mv	a0,s2
800046e8:	00098593          	mv	a1,s3
800046ec:	f9c42a23          	sw	t3,-108(s0)
800046f0:	f8642423          	sw	t1,-120(s0)
800046f4:	529080ef          	jal	ra,8000d41c <fma>
800046f8:	010a2c03          	lw	s8,16(s4)
800046fc:	014a2c83          	lw	s9,20(s4)
80004700:	f9042703          	lw	a4,-112(s0)
80004704:	f8042783          	lw	a5,-128(s0)
80004708:	00050e13          	mv	t3,a0
8000470c:	00058313          	mv	t1,a1
80004710:	000c0613          	mv	a2,s8
80004714:	000c8693          	mv	a3,s9
80004718:	f9c42823          	sw	t3,-112(s0)
8000471c:	00090513          	mv	a0,s2
80004720:	00098593          	mv	a1,s3
80004724:	f8642023          	sw	t1,-128(s0)
80004728:	4f5080ef          	jal	ra,8000d41c <fma>
8000472c:	018a2b03          	lw	s6,24(s4)
80004730:	01ca2b83          	lw	s7,28(s4)
80004734:	f7c42703          	lw	a4,-132(s0)
80004738:	f7042783          	lw	a5,-144(s0)
8000473c:	00050e13          	mv	t3,a0
80004740:	00058313          	mv	t1,a1
80004744:	000b0613          	mv	a2,s6
80004748:	000b8693          	mv	a3,s7
8000474c:	00090513          	mv	a0,s2
80004750:	00098593          	mv	a1,s3
80004754:	f7c42e23          	sw	t3,-132(s0)
80004758:	f6642823          	sw	t1,-144(s0)
8000475c:	4c1080ef          	jal	ra,8000d41c <fma>
80004760:	024a2a83          	lw	s5,36(s4)
80004764:	020a2a03          	lw	s4,32(s4)
80004768:	f6842703          	lw	a4,-152(s0)
8000476c:	f7842783          	lw	a5,-136(s0)
80004770:	00050e13          	mv	t3,a0
80004774:	00058313          	mv	t1,a1
80004778:	000a0613          	mv	a2,s4
8000477c:	000a8693          	mv	a3,s5
80004780:	00090513          	mv	a0,s2
80004784:	00098593          	mv	a1,s3
80004788:	f7c42423          	sw	t3,-152(s0)
8000478c:	f6642c23          	sw	t1,-136(s0)
80004790:	48d080ef          	jal	ra,8000d41c <fma>
80004794:	fa042703          	lw	a4,-96(s0)
80004798:	ed842803          	lw	a6,-296(s0)
8000479c:	edc42883          	lw	a7,-292(s0)
800047a0:	01872903          	lw	s2,24(a4)
800047a4:	01c72983          	lw	s3,28(a4)
800047a8:	f5c42783          	lw	a5,-164(s0)
800047ac:	f6042703          	lw	a4,-160(s0)
800047b0:	00080613          	mv	a2,a6
800047b4:	00088693          	mv	a3,a7
800047b8:	00050e13          	mv	t3,a0
800047bc:	00058313          	mv	t1,a1
800047c0:	00090513          	mv	a0,s2
800047c4:	00098593          	mv	a1,s3
800047c8:	f7c42023          	sw	t3,-160(s0)
800047cc:	f4642e23          	sw	t1,-164(s0)
800047d0:	44d080ef          	jal	ra,8000d41c <fma>
800047d4:	f5042703          	lw	a4,-176(s0)
800047d8:	f5842783          	lw	a5,-168(s0)
800047dc:	00050e13          	mv	t3,a0
800047e0:	00058313          	mv	t1,a1
800047e4:	000d0613          	mv	a2,s10
800047e8:	000d8693          	mv	a3,s11
800047ec:	00090513          	mv	a0,s2
800047f0:	00098593          	mv	a1,s3
800047f4:	f5c42823          	sw	t3,-176(s0)
800047f8:	f4642c23          	sw	t1,-168(s0)
800047fc:	421080ef          	jal	ra,8000d41c <fma>
80004800:	f4842703          	lw	a4,-184(s0)
80004804:	f4442783          	lw	a5,-188(s0)
80004808:	00050e13          	mv	t3,a0
8000480c:	00058313          	mv	t1,a1
80004810:	000c0613          	mv	a2,s8
80004814:	000c8693          	mv	a3,s9
80004818:	00090513          	mv	a0,s2
8000481c:	00098593          	mv	a1,s3
80004820:	f5c42423          	sw	t3,-184(s0)
80004824:	f4642223          	sw	t1,-188(s0)
80004828:	3f5080ef          	jal	ra,8000d41c <fma>
8000482c:	f3842703          	lw	a4,-200(s0)
80004830:	f4042783          	lw	a5,-192(s0)
80004834:	00050e13          	mv	t3,a0
80004838:	00058313          	mv	t1,a1
8000483c:	000b0613          	mv	a2,s6
80004840:	000b8693          	mv	a3,s7
80004844:	00090513          	mv	a0,s2
80004848:	00098593          	mv	a1,s3
8000484c:	f3c42c23          	sw	t3,-200(s0)
80004850:	f4642023          	sw	t1,-192(s0)
80004854:	3c9080ef          	jal	ra,8000d41c <fma>
80004858:	f3442703          	lw	a4,-204(s0)
8000485c:	f3042783          	lw	a5,-208(s0)
80004860:	00050e13          	mv	t3,a0
80004864:	00058313          	mv	t1,a1
80004868:	000a0613          	mv	a2,s4
8000486c:	000a8693          	mv	a3,s5
80004870:	00090513          	mv	a0,s2
80004874:	00098593          	mv	a1,s3
80004878:	f3c42a23          	sw	t3,-204(s0)
8000487c:	f2642823          	sw	t1,-208(s0)
80004880:	39d080ef          	jal	ra,8000d41c <fma>
80004884:	fa842683          	lw	a3,-88(s0)
80004888:	ed842803          	lw	a6,-296(s0)
8000488c:	edc42883          	lw	a7,-292(s0)
80004890:	0186a903          	lw	s2,24(a3)
80004894:	01c6a983          	lw	s3,28(a3)
80004898:	f2c42703          	lw	a4,-212(s0)
8000489c:	f2842783          	lw	a5,-216(s0)
800048a0:	00080613          	mv	a2,a6
800048a4:	00088693          	mv	a3,a7
800048a8:	00050e13          	mv	t3,a0
800048ac:	00058313          	mv	t1,a1
800048b0:	00090513          	mv	a0,s2
800048b4:	00098593          	mv	a1,s3
800048b8:	f3c42623          	sw	t3,-212(s0)
800048bc:	f2642423          	sw	t1,-216(s0)
800048c0:	35d080ef          	jal	ra,8000d41c <fma>
800048c4:	f2442703          	lw	a4,-220(s0)
800048c8:	f2042783          	lw	a5,-224(s0)
800048cc:	00050e13          	mv	t3,a0
800048d0:	00058313          	mv	t1,a1
800048d4:	000d0613          	mv	a2,s10
800048d8:	000d8693          	mv	a3,s11
800048dc:	00090513          	mv	a0,s2
800048e0:	00098593          	mv	a1,s3
800048e4:	f3c42223          	sw	t3,-220(s0)
800048e8:	f2642023          	sw	t1,-224(s0)
800048ec:	331080ef          	jal	ra,8000d41c <fma>
800048f0:	f1c42703          	lw	a4,-228(s0)
800048f4:	f1842783          	lw	a5,-232(s0)
800048f8:	00050e13          	mv	t3,a0
800048fc:	00058313          	mv	t1,a1
80004900:	000c0613          	mv	a2,s8
80004904:	000c8693          	mv	a3,s9
80004908:	00090513          	mv	a0,s2
8000490c:	00098593          	mv	a1,s3
80004910:	f1c42e23          	sw	t3,-228(s0)
80004914:	f0642c23          	sw	t1,-232(s0)
80004918:	305080ef          	jal	ra,8000d41c <fma>
8000491c:	f1442703          	lw	a4,-236(s0)
80004920:	f0842783          	lw	a5,-248(s0)
80004924:	00050e13          	mv	t3,a0
80004928:	00058313          	mv	t1,a1
8000492c:	000b0613          	mv	a2,s6
80004930:	000b8693          	mv	a3,s7
80004934:	00090513          	mv	a0,s2
80004938:	00098593          	mv	a1,s3
8000493c:	f1c42a23          	sw	t3,-236(s0)
80004940:	f0642423          	sw	t1,-248(s0)
80004944:	2d9080ef          	jal	ra,8000d41c <fma>
80004948:	f1042703          	lw	a4,-240(s0)
8000494c:	f0042783          	lw	a5,-256(s0)
80004950:	00050e13          	mv	t3,a0
80004954:	00058313          	mv	t1,a1
80004958:	000a0613          	mv	a2,s4
8000495c:	000a8693          	mv	a3,s5
80004960:	00090513          	mv	a0,s2
80004964:	00098593          	mv	a1,s3
80004968:	f1c42823          	sw	t3,-240(s0)
8000496c:	f0642023          	sw	t1,-256(s0)
80004970:	2ad080ef          	jal	ra,8000d41c <fma>
80004974:	fb042603          	lw	a2,-80(s0)
80004978:	ed842803          	lw	a6,-296(s0)
8000497c:	edc42883          	lw	a7,-292(s0)
80004980:	01862903          	lw	s2,24(a2)
80004984:	01c62983          	lw	s3,28(a2)
80004988:	ef842703          	lw	a4,-264(s0)
8000498c:	ef042783          	lw	a5,-272(s0)
80004990:	00050e13          	mv	t3,a0
80004994:	00058313          	mv	t1,a1
80004998:	00080613          	mv	a2,a6
8000499c:	00088693          	mv	a3,a7
800049a0:	00090513          	mv	a0,s2
800049a4:	00098593          	mv	a1,s3
800049a8:	efc42c23          	sw	t3,-264(s0)
800049ac:	ee642823          	sw	t1,-272(s0)
800049b0:	26d080ef          	jal	ra,8000d41c <fma>
800049b4:	ee842703          	lw	a4,-280(s0)
800049b8:	ee042783          	lw	a5,-288(s0)
800049bc:	00050893          	mv	a7,a0
800049c0:	00058813          	mv	a6,a1
800049c4:	ef142423          	sw	a7,-280(s0)
800049c8:	000d0613          	mv	a2,s10
800049cc:	000d8693          	mv	a3,s11
800049d0:	00090513          	mv	a0,s2
800049d4:	00098593          	mv	a1,s3
800049d8:	ef042023          	sw	a6,-288(s0)
800049dc:	241080ef          	jal	ra,8000d41c <fma>
800049e0:	ec042703          	lw	a4,-320(s0)
800049e4:	ebc42783          	lw	a5,-324(s0)
800049e8:	00050e93          	mv	t4,a0
800049ec:	00058f13          	mv	t5,a1
800049f0:	000c0613          	mv	a2,s8
800049f4:	000c8693          	mv	a3,s9
800049f8:	00090513          	mv	a0,s2
800049fc:	00098593          	mv	a1,s3
80004a00:	ebd42823          	sw	t4,-336(s0)
80004a04:	ebe42e23          	sw	t5,-324(s0)
80004a08:	215080ef          	jal	ra,8000d41c <fma>
80004a0c:	ed042283          	lw	t0,-304(s0)
80004a10:	eb842f83          	lw	t6,-328(s0)
80004a14:	00050893          	mv	a7,a0
80004a18:	00028793          	mv	a5,t0
80004a1c:	000f8713          	mv	a4,t6
80004a20:	00058813          	mv	a6,a1
80004a24:	000b0613          	mv	a2,s6
80004a28:	000b8693          	mv	a3,s7
80004a2c:	00090513          	mv	a0,s2
80004a30:	00098593          	mv	a1,s3
80004a34:	ed142c23          	sw	a7,-296(s0)
80004a38:	ed042823          	sw	a6,-304(s0)
80004a3c:	1e1080ef          	jal	ra,8000d41c <fma>
80004a40:	ec842383          	lw	t2,-312(s0)
80004a44:	00058813          	mv	a6,a1
80004a48:	e6042583          	lw	a1,-416(s0)
80004a4c:	f9842783          	lw	a5,-104(s0)
80004a50:	00038713          	mv	a4,t2
80004a54:	00958b33          	add	s6,a1,s1
80004a58:	00050893          	mv	a7,a0
80004a5c:	000a0613          	mv	a2,s4
80004a60:	000a8693          	mv	a3,s5
80004a64:	00090513          	mv	a0,s2
80004a68:	00098593          	mv	a1,s3
80004a6c:	f9142c23          	sw	a7,-104(s0)
80004a70:	ed042423          	sw	a6,-312(s0)
80004a74:	1a9080ef          	jal	ra,8000d41c <fma>
80004a78:	fb842783          	lw	a5,-72(s0)
80004a7c:	000b2803          	lw	a6,0(s6)
80004a80:	004b2883          	lw	a7,4(s6)
80004a84:	0207a903          	lw	s2,32(a5)
80004a88:	0247a983          	lw	s3,36(a5)
80004a8c:	f9442703          	lw	a4,-108(s0)
80004a90:	f8842783          	lw	a5,-120(s0)
80004a94:	00080613          	mv	a2,a6
80004a98:	00088693          	mv	a3,a7
80004a9c:	00050e13          	mv	t3,a0
80004aa0:	00058313          	mv	t1,a1
80004aa4:	00090513          	mv	a0,s2
80004aa8:	00098593          	mv	a1,s3
80004aac:	ed042023          	sw	a6,-320(s0)
80004ab0:	ed142223          	sw	a7,-316(s0)
80004ab4:	f9c42a23          	sw	t3,-108(s0)
80004ab8:	f8642423          	sw	t1,-120(s0)
80004abc:	161080ef          	jal	ra,8000d41c <fma>
80004ac0:	008b2d03          	lw	s10,8(s6)
80004ac4:	00cb2d83          	lw	s11,12(s6)
80004ac8:	f9042703          	lw	a4,-112(s0)
80004acc:	f8042783          	lw	a5,-128(s0)
80004ad0:	00050e13          	mv	t3,a0
80004ad4:	00058313          	mv	t1,a1
80004ad8:	000d0613          	mv	a2,s10
80004adc:	000d8693          	mv	a3,s11
80004ae0:	00090513          	mv	a0,s2
80004ae4:	00098593          	mv	a1,s3
80004ae8:	f9c42823          	sw	t3,-112(s0)
80004aec:	f8642023          	sw	t1,-128(s0)
80004af0:	12d080ef          	jal	ra,8000d41c <fma>
80004af4:	010b2c03          	lw	s8,16(s6)
80004af8:	014b2c83          	lw	s9,20(s6)
80004afc:	f7c42703          	lw	a4,-132(s0)
80004b00:	f7042783          	lw	a5,-144(s0)
80004b04:	00050e13          	mv	t3,a0
80004b08:	00058313          	mv	t1,a1
80004b0c:	000c0613          	mv	a2,s8
80004b10:	000c8693          	mv	a3,s9
80004b14:	00090513          	mv	a0,s2
80004b18:	00098593          	mv	a1,s3
80004b1c:	f7c42e23          	sw	t3,-132(s0)
80004b20:	f6642823          	sw	t1,-144(s0)
80004b24:	0f9080ef          	jal	ra,8000d41c <fma>
80004b28:	018b2a03          	lw	s4,24(s6)
80004b2c:	01cb2a83          	lw	s5,28(s6)
80004b30:	f6842703          	lw	a4,-152(s0)
80004b34:	f7842783          	lw	a5,-136(s0)
80004b38:	00050e13          	mv	t3,a0
80004b3c:	00058313          	mv	t1,a1
80004b40:	000a0613          	mv	a2,s4
80004b44:	000a8693          	mv	a3,s5
80004b48:	00090513          	mv	a0,s2
80004b4c:	00098593          	mv	a1,s3
80004b50:	f7c42423          	sw	t3,-152(s0)
80004b54:	f6642c23          	sw	t1,-136(s0)
80004b58:	0c5080ef          	jal	ra,8000d41c <fma>
80004b5c:	024b2b83          	lw	s7,36(s6)
80004b60:	020b2b03          	lw	s6,32(s6)
80004b64:	f6042703          	lw	a4,-160(s0)
80004b68:	f5c42783          	lw	a5,-164(s0)
80004b6c:	00050e13          	mv	t3,a0
80004b70:	00058313          	mv	t1,a1
80004b74:	000b0613          	mv	a2,s6
80004b78:	000b8693          	mv	a3,s7
80004b7c:	00090513          	mv	a0,s2
80004b80:	00098593          	mv	a1,s3
80004b84:	f7c42023          	sw	t3,-160(s0)
80004b88:	f4642e23          	sw	t1,-164(s0)
80004b8c:	091080ef          	jal	ra,8000d41c <fma>
80004b90:	fa042703          	lw	a4,-96(s0)
80004b94:	ec442883          	lw	a7,-316(s0)
80004b98:	ec042803          	lw	a6,-320(s0)
80004b9c:	02072903          	lw	s2,32(a4)
80004ba0:	02472983          	lw	s3,36(a4)
80004ba4:	f5842783          	lw	a5,-168(s0)
80004ba8:	f5042703          	lw	a4,-176(s0)
80004bac:	00080613          	mv	a2,a6
80004bb0:	00088693          	mv	a3,a7
80004bb4:	00050e13          	mv	t3,a0
80004bb8:	00058313          	mv	t1,a1
80004bbc:	00090513          	mv	a0,s2
80004bc0:	00098593          	mv	a1,s3
80004bc4:	f5c42823          	sw	t3,-176(s0)
80004bc8:	f4642c23          	sw	t1,-168(s0)
80004bcc:	051080ef          	jal	ra,8000d41c <fma>
80004bd0:	f4842703          	lw	a4,-184(s0)
80004bd4:	f4442783          	lw	a5,-188(s0)
80004bd8:	00050e13          	mv	t3,a0
80004bdc:	00058313          	mv	t1,a1
80004be0:	000d0613          	mv	a2,s10
80004be4:	000d8693          	mv	a3,s11
80004be8:	00090513          	mv	a0,s2
80004bec:	00098593          	mv	a1,s3
80004bf0:	f5c42423          	sw	t3,-184(s0)
80004bf4:	f4642223          	sw	t1,-188(s0)
80004bf8:	025080ef          	jal	ra,8000d41c <fma>
80004bfc:	f3842703          	lw	a4,-200(s0)
80004c00:	f4042783          	lw	a5,-192(s0)
80004c04:	00050e13          	mv	t3,a0
80004c08:	00058313          	mv	t1,a1
80004c0c:	000c0613          	mv	a2,s8
80004c10:	000c8693          	mv	a3,s9
80004c14:	00090513          	mv	a0,s2
80004c18:	00098593          	mv	a1,s3
80004c1c:	f3c42c23          	sw	t3,-200(s0)
80004c20:	f4642023          	sw	t1,-192(s0)
80004c24:	7f8080ef          	jal	ra,8000d41c <fma>
80004c28:	f3442703          	lw	a4,-204(s0)
80004c2c:	f3042783          	lw	a5,-208(s0)
80004c30:	00050e13          	mv	t3,a0
80004c34:	00058313          	mv	t1,a1
80004c38:	000a0613          	mv	a2,s4
80004c3c:	000a8693          	mv	a3,s5
80004c40:	00090513          	mv	a0,s2
80004c44:	00098593          	mv	a1,s3
80004c48:	f3c42a23          	sw	t3,-204(s0)
80004c4c:	f2642823          	sw	t1,-208(s0)
80004c50:	7cc080ef          	jal	ra,8000d41c <fma>
80004c54:	f2c42703          	lw	a4,-212(s0)
80004c58:	f2842783          	lw	a5,-216(s0)
80004c5c:	00050e13          	mv	t3,a0
80004c60:	00058313          	mv	t1,a1
80004c64:	000b0613          	mv	a2,s6
80004c68:	000b8693          	mv	a3,s7
80004c6c:	00090513          	mv	a0,s2
80004c70:	00098593          	mv	a1,s3
80004c74:	f3c42623          	sw	t3,-212(s0)
80004c78:	f2642423          	sw	t1,-216(s0)
80004c7c:	7a0080ef          	jal	ra,8000d41c <fma>
80004c80:	fa842683          	lw	a3,-88(s0)
80004c84:	f2442703          	lw	a4,-220(s0)
80004c88:	f2042783          	lw	a5,-224(s0)
80004c8c:	0206a903          	lw	s2,32(a3)
80004c90:	0246a983          	lw	s3,36(a3)
80004c94:	ec042803          	lw	a6,-320(s0)
80004c98:	ec442883          	lw	a7,-316(s0)
80004c9c:	00050e13          	mv	t3,a0
80004ca0:	00080613          	mv	a2,a6
80004ca4:	00088693          	mv	a3,a7
80004ca8:	00058313          	mv	t1,a1
80004cac:	00090513          	mv	a0,s2
80004cb0:	00098593          	mv	a1,s3
80004cb4:	f3c42223          	sw	t3,-220(s0)
80004cb8:	f2642023          	sw	t1,-224(s0)
80004cbc:	760080ef          	jal	ra,8000d41c <fma>
80004cc0:	f1c42703          	lw	a4,-228(s0)
80004cc4:	f1842783          	lw	a5,-232(s0)
80004cc8:	00050e13          	mv	t3,a0
80004ccc:	00058313          	mv	t1,a1
80004cd0:	000d0613          	mv	a2,s10
80004cd4:	000d8693          	mv	a3,s11
80004cd8:	00090513          	mv	a0,s2
80004cdc:	00098593          	mv	a1,s3
80004ce0:	f1c42e23          	sw	t3,-228(s0)
80004ce4:	f0642c23          	sw	t1,-232(s0)
80004ce8:	734080ef          	jal	ra,8000d41c <fma>
80004cec:	f1442703          	lw	a4,-236(s0)
80004cf0:	f0842783          	lw	a5,-248(s0)
80004cf4:	00050e13          	mv	t3,a0
80004cf8:	00058313          	mv	t1,a1
80004cfc:	000c0613          	mv	a2,s8
80004d00:	000c8693          	mv	a3,s9
80004d04:	00090513          	mv	a0,s2
80004d08:	00098593          	mv	a1,s3
80004d0c:	f1c42a23          	sw	t3,-236(s0)
80004d10:	f0642423          	sw	t1,-248(s0)
80004d14:	708080ef          	jal	ra,8000d41c <fma>
80004d18:	f1042703          	lw	a4,-240(s0)
80004d1c:	f0042783          	lw	a5,-256(s0)
80004d20:	00050e13          	mv	t3,a0
80004d24:	00058313          	mv	t1,a1
80004d28:	000a0613          	mv	a2,s4
80004d2c:	000a8693          	mv	a3,s5
80004d30:	00090513          	mv	a0,s2
80004d34:	00098593          	mv	a1,s3
80004d38:	f1c42823          	sw	t3,-240(s0)
80004d3c:	f0642023          	sw	t1,-256(s0)
80004d40:	6dc080ef          	jal	ra,8000d41c <fma>
80004d44:	ef842703          	lw	a4,-264(s0)
80004d48:	ef042783          	lw	a5,-272(s0)
80004d4c:	00050e13          	mv	t3,a0
80004d50:	00058313          	mv	t1,a1
80004d54:	000b0613          	mv	a2,s6
80004d58:	000b8693          	mv	a3,s7
80004d5c:	00090513          	mv	a0,s2
80004d60:	00098593          	mv	a1,s3
80004d64:	efc42c23          	sw	t3,-264(s0)
80004d68:	ee642823          	sw	t1,-272(s0)
80004d6c:	6b0080ef          	jal	ra,8000d41c <fma>
80004d70:	fb042603          	lw	a2,-80(s0)
80004d74:	ec042803          	lw	a6,-320(s0)
80004d78:	ec442883          	lw	a7,-316(s0)
80004d7c:	02062903          	lw	s2,32(a2)
80004d80:	02462983          	lw	s3,36(a2)
80004d84:	ee842703          	lw	a4,-280(s0)
80004d88:	ee042783          	lw	a5,-288(s0)
80004d8c:	00050e13          	mv	t3,a0
80004d90:	00058313          	mv	t1,a1
80004d94:	00080613          	mv	a2,a6
80004d98:	00088693          	mv	a3,a7
80004d9c:	00090513          	mv	a0,s2
80004da0:	00098593          	mv	a1,s3
80004da4:	efc42423          	sw	t3,-280(s0)
80004da8:	ee642023          	sw	t1,-288(s0)
80004dac:	670080ef          	jal	ra,8000d41c <fma>
80004db0:	ebc42f03          	lw	t5,-324(s0)
80004db4:	eb042e83          	lw	t4,-336(s0)
80004db8:	00050893          	mv	a7,a0
80004dbc:	000f0793          	mv	a5,t5
80004dc0:	000e8713          	mv	a4,t4
80004dc4:	00058813          	mv	a6,a1
80004dc8:	000d0613          	mv	a2,s10
80004dcc:	000d8693          	mv	a3,s11
80004dd0:	00090513          	mv	a0,s2
80004dd4:	00098593          	mv	a1,s3
80004dd8:	ed142023          	sw	a7,-320(s0)
80004ddc:	eb042e23          	sw	a6,-324(s0)
80004de0:	63c080ef          	jal	ra,8000d41c <fma>
80004de4:	ed842703          	lw	a4,-296(s0)
80004de8:	ed042783          	lw	a5,-304(s0)
80004dec:	00050f93          	mv	t6,a0
80004df0:	00058293          	mv	t0,a1
80004df4:	000c0613          	mv	a2,s8
80004df8:	000c8693          	mv	a3,s9
80004dfc:	00090513          	mv	a0,s2
80004e00:	00098593          	mv	a1,s3
80004e04:	e9f42823          	sw	t6,-368(s0)
80004e08:	e8542a23          	sw	t0,-364(s0)
80004e0c:	610080ef          	jal	ra,8000d41c <fma>
80004e10:	f9842703          	lw	a4,-104(s0)
80004e14:	ec842783          	lw	a5,-312(s0)
80004e18:	00050393          	mv	t2,a0
80004e1c:	e8742c23          	sw	t2,-360(s0)
80004e20:	00058813          	mv	a6,a1
80004e24:	000a0613          	mv	a2,s4
80004e28:	000a8693          	mv	a3,s5
80004e2c:	00090513          	mv	a0,s2
80004e30:	00098593          	mv	a1,s3
80004e34:	ed042c23          	sw	a6,-296(s0)
80004e38:	5e4080ef          	jal	ra,8000d41c <fma>
80004e3c:	00058813          	mv	a6,a1
80004e40:	e5842583          	lw	a1,-424(s0)
80004e44:	f9442703          	lw	a4,-108(s0)
80004e48:	f8842783          	lw	a5,-120(s0)
80004e4c:	00b48a33          	add	s4,s1,a1
80004e50:	00050893          	mv	a7,a0
80004e54:	000b0613          	mv	a2,s6
80004e58:	000b8693          	mv	a3,s7
80004e5c:	00090513          	mv	a0,s2
80004e60:	00098593          	mv	a1,s3
80004e64:	ed142823          	sw	a7,-304(s0)
80004e68:	ed042423          	sw	a6,-312(s0)
80004e6c:	5b0080ef          	jal	ra,8000d41c <fma>
80004e70:	fb842783          	lw	a5,-72(s0)
80004e74:	000a2803          	lw	a6,0(s4)
80004e78:	004a2883          	lw	a7,4(s4)
80004e7c:	0287a903          	lw	s2,40(a5)
80004e80:	02c7a983          	lw	s3,44(a5)
80004e84:	f9042703          	lw	a4,-112(s0)
80004e88:	f8042783          	lw	a5,-128(s0)
80004e8c:	00080613          	mv	a2,a6
80004e90:	00088693          	mv	a3,a7
80004e94:	00050e13          	mv	t3,a0
80004e98:	00058313          	mv	t1,a1
80004e9c:	00090513          	mv	a0,s2
80004ea0:	00098593          	mv	a1,s3
80004ea4:	eb042423          	sw	a6,-344(s0)
80004ea8:	eb142623          	sw	a7,-340(s0)
80004eac:	ebc42823          	sw	t3,-336(s0)
80004eb0:	ea642c23          	sw	t1,-328(s0)
80004eb4:	568080ef          	jal	ra,8000d41c <fma>
80004eb8:	008a2d03          	lw	s10,8(s4)
80004ebc:	00ca2d83          	lw	s11,12(s4)
80004ec0:	f7c42703          	lw	a4,-132(s0)
80004ec4:	f7042783          	lw	a5,-144(s0)
80004ec8:	00050f13          	mv	t5,a0
80004ecc:	00058e93          	mv	t4,a1
80004ed0:	000d0613          	mv	a2,s10
80004ed4:	000d8693          	mv	a3,s11
80004ed8:	00090513          	mv	a0,s2
80004edc:	00098593          	mv	a1,s3
80004ee0:	e9e42e23          	sw	t5,-356(s0)
80004ee4:	ebd42023          	sw	t4,-352(s0)
80004ee8:	534080ef          	jal	ra,8000d41c <fma>
80004eec:	010a2c03          	lw	s8,16(s4)
80004ef0:	014a2c83          	lw	s9,20(s4)
80004ef4:	f6842703          	lw	a4,-152(s0)
80004ef8:	f7842783          	lw	a5,-136(s0)
80004efc:	00050e13          	mv	t3,a0
80004f00:	00058313          	mv	t1,a1
80004f04:	000c0613          	mv	a2,s8
80004f08:	000c8693          	mv	a3,s9
80004f0c:	00090513          	mv	a0,s2
80004f10:	00098593          	mv	a1,s3
80004f14:	f9c42c23          	sw	t3,-104(s0)
80004f18:	f8642a23          	sw	t1,-108(s0)
80004f1c:	500080ef          	jal	ra,8000d41c <fma>
80004f20:	018a2b03          	lw	s6,24(s4)
80004f24:	01ca2b83          	lw	s7,28(s4)
80004f28:	f6042703          	lw	a4,-160(s0)
80004f2c:	f5c42783          	lw	a5,-164(s0)
80004f30:	00050e13          	mv	t3,a0
80004f34:	00058313          	mv	t1,a1
80004f38:	000b0613          	mv	a2,s6
80004f3c:	000b8693          	mv	a3,s7
80004f40:	00090513          	mv	a0,s2
80004f44:	00098593          	mv	a1,s3
80004f48:	f9c42423          	sw	t3,-120(s0)
80004f4c:	f8642823          	sw	t1,-112(s0)
80004f50:	4cc080ef          	jal	ra,8000d41c <fma>
80004f54:	024a2a83          	lw	s5,36(s4)
80004f58:	020a2a03          	lw	s4,32(s4)
80004f5c:	f5042703          	lw	a4,-176(s0)
80004f60:	f5842783          	lw	a5,-168(s0)
80004f64:	00050e13          	mv	t3,a0
80004f68:	00058313          	mv	t1,a1
80004f6c:	000a0613          	mv	a2,s4
80004f70:	000a8693          	mv	a3,s5
80004f74:	00090513          	mv	a0,s2
80004f78:	00098593          	mv	a1,s3
80004f7c:	f9c42023          	sw	t3,-128(s0)
80004f80:	f6642e23          	sw	t1,-132(s0)
80004f84:	498080ef          	jal	ra,8000d41c <fma>
80004f88:	fa042703          	lw	a4,-96(s0)
80004f8c:	ea842803          	lw	a6,-344(s0)
80004f90:	eac42883          	lw	a7,-340(s0)
80004f94:	02872903          	lw	s2,40(a4)
80004f98:	02c72983          	lw	s3,44(a4)
80004f9c:	f4442783          	lw	a5,-188(s0)
80004fa0:	f4842703          	lw	a4,-184(s0)
80004fa4:	00080613          	mv	a2,a6
80004fa8:	00088693          	mv	a3,a7
80004fac:	00050e13          	mv	t3,a0
80004fb0:	00058313          	mv	t1,a1
80004fb4:	00090513          	mv	a0,s2
80004fb8:	00098593          	mv	a1,s3
80004fbc:	f7c42823          	sw	t3,-144(s0)
80004fc0:	f6642423          	sw	t1,-152(s0)
80004fc4:	458080ef          	jal	ra,8000d41c <fma>
80004fc8:	f3842703          	lw	a4,-200(s0)
80004fcc:	f4042783          	lw	a5,-192(s0)
80004fd0:	00050e13          	mv	t3,a0
80004fd4:	00058313          	mv	t1,a1
80004fd8:	000d0613          	mv	a2,s10
80004fdc:	000d8693          	mv	a3,s11
80004fe0:	00090513          	mv	a0,s2
80004fe4:	00098593          	mv	a1,s3
80004fe8:	f7c42c23          	sw	t3,-136(s0)
80004fec:	f6642023          	sw	t1,-160(s0)
80004ff0:	42c080ef          	jal	ra,8000d41c <fma>
80004ff4:	f3442703          	lw	a4,-204(s0)
80004ff8:	f3042783          	lw	a5,-208(s0)
80004ffc:	00050e13          	mv	t3,a0
80005000:	00058313          	mv	t1,a1
80005004:	000c0613          	mv	a2,s8
80005008:	000c8693          	mv	a3,s9
8000500c:	00090513          	mv	a0,s2
80005010:	00098593          	mv	a1,s3
80005014:	f5c42e23          	sw	t3,-164(s0)
80005018:	f4642823          	sw	t1,-176(s0)
8000501c:	400080ef          	jal	ra,8000d41c <fma>
80005020:	f2c42703          	lw	a4,-212(s0)
80005024:	f2842783          	lw	a5,-216(s0)
80005028:	00050e13          	mv	t3,a0
8000502c:	00058313          	mv	t1,a1
80005030:	000b0613          	mv	a2,s6
80005034:	000b8693          	mv	a3,s7
80005038:	00090513          	mv	a0,s2
8000503c:	00098593          	mv	a1,s3
80005040:	f5c42c23          	sw	t3,-168(s0)
80005044:	f4642423          	sw	t1,-184(s0)
80005048:	3d4080ef          	jal	ra,8000d41c <fma>
8000504c:	f2442703          	lw	a4,-220(s0)
80005050:	f2042783          	lw	a5,-224(s0)
80005054:	00050e13          	mv	t3,a0
80005058:	00058313          	mv	t1,a1
8000505c:	000a0613          	mv	a2,s4
80005060:	000a8693          	mv	a3,s5
80005064:	00090513          	mv	a0,s2
80005068:	00098593          	mv	a1,s3
8000506c:	f5c42223          	sw	t3,-188(s0)
80005070:	f2642c23          	sw	t1,-200(s0)
80005074:	3a8080ef          	jal	ra,8000d41c <fma>
80005078:	fa842683          	lw	a3,-88(s0)
8000507c:	ea842803          	lw	a6,-344(s0)
80005080:	eac42883          	lw	a7,-340(s0)
80005084:	0286a903          	lw	s2,40(a3)
80005088:	02c6a983          	lw	s3,44(a3)
8000508c:	f1c42703          	lw	a4,-228(s0)
80005090:	f1842783          	lw	a5,-232(s0)
80005094:	00080613          	mv	a2,a6
80005098:	00088693          	mv	a3,a7
8000509c:	00050e13          	mv	t3,a0
800050a0:	00058313          	mv	t1,a1
800050a4:	00090513          	mv	a0,s2
800050a8:	00098593          	mv	a1,s3
800050ac:	f5c42023          	sw	t3,-192(s0)
800050b0:	f2642a23          	sw	t1,-204(s0)
800050b4:	368080ef          	jal	ra,8000d41c <fma>
800050b8:	f1442703          	lw	a4,-236(s0)
800050bc:	f0842783          	lw	a5,-248(s0)
800050c0:	00050e13          	mv	t3,a0
800050c4:	00058313          	mv	t1,a1
800050c8:	f3c42823          	sw	t3,-208(s0)
800050cc:	000d0613          	mv	a2,s10
800050d0:	000d8693          	mv	a3,s11
800050d4:	00090513          	mv	a0,s2
800050d8:	00098593          	mv	a1,s3
800050dc:	f2642623          	sw	t1,-212(s0)
800050e0:	33c080ef          	jal	ra,8000d41c <fma>
800050e4:	f1042703          	lw	a4,-240(s0)
800050e8:	f0042783          	lw	a5,-256(s0)
800050ec:	00050e13          	mv	t3,a0
800050f0:	00058313          	mv	t1,a1
800050f4:	000c0613          	mv	a2,s8
800050f8:	000c8693          	mv	a3,s9
800050fc:	00090513          	mv	a0,s2
80005100:	00098593          	mv	a1,s3
80005104:	f3c42423          	sw	t3,-216(s0)
80005108:	f2642223          	sw	t1,-220(s0)
8000510c:	310080ef          	jal	ra,8000d41c <fma>
80005110:	ef842703          	lw	a4,-264(s0)
80005114:	ef042783          	lw	a5,-272(s0)
80005118:	00050e13          	mv	t3,a0
8000511c:	00058313          	mv	t1,a1
80005120:	000b0613          	mv	a2,s6
80005124:	000b8693          	mv	a3,s7
80005128:	00090513          	mv	a0,s2
8000512c:	00098593          	mv	a1,s3
80005130:	f3c42023          	sw	t3,-224(s0)
80005134:	f0642e23          	sw	t1,-228(s0)
80005138:	2e4080ef          	jal	ra,8000d41c <fma>
8000513c:	ee842703          	lw	a4,-280(s0)
80005140:	ee042783          	lw	a5,-288(s0)
80005144:	00050e13          	mv	t3,a0
80005148:	00058313          	mv	t1,a1
8000514c:	000a0613          	mv	a2,s4
80005150:	000a8693          	mv	a3,s5
80005154:	00090513          	mv	a0,s2
80005158:	00098593          	mv	a1,s3
8000515c:	f1c42c23          	sw	t3,-232(s0)
80005160:	f0642a23          	sw	t1,-236(s0)
80005164:	2b8080ef          	jal	ra,8000d41c <fma>
80005168:	fb042603          	lw	a2,-80(s0)
8000516c:	ea842803          	lw	a6,-344(s0)
80005170:	eac42883          	lw	a7,-340(s0)
80005174:	02862903          	lw	s2,40(a2)
80005178:	02c62983          	lw	s3,44(a2)
8000517c:	ec042703          	lw	a4,-320(s0)
80005180:	ebc42783          	lw	a5,-324(s0)
80005184:	00050e13          	mv	t3,a0
80005188:	00058313          	mv	t1,a1
8000518c:	00080613          	mv	a2,a6
80005190:	00088693          	mv	a3,a7
80005194:	00090513          	mv	a0,s2
80005198:	00098593          	mv	a1,s3
8000519c:	f1c42423          	sw	t3,-248(s0)
800051a0:	f0642823          	sw	t1,-240(s0)
800051a4:	278080ef          	jal	ra,8000d41c <fma>
800051a8:	e9042f83          	lw	t6,-368(s0)
800051ac:	e9442283          	lw	t0,-364(s0)
800051b0:	00050893          	mv	a7,a0
800051b4:	000f8713          	mv	a4,t6
800051b8:	00028793          	mv	a5,t0
800051bc:	00058813          	mv	a6,a1
800051c0:	000d0613          	mv	a2,s10
800051c4:	000d8693          	mv	a3,s11
800051c8:	00090513          	mv	a0,s2
800051cc:	00098593          	mv	a1,s3
800051d0:	f1142023          	sw	a7,-256(s0)
800051d4:	ef042c23          	sw	a6,-264(s0)
800051d8:	244080ef          	jal	ra,8000d41c <fma>
800051dc:	e9842383          	lw	t2,-360(s0)
800051e0:	ed842783          	lw	a5,-296(s0)
800051e4:	00050893          	mv	a7,a0
800051e8:	00058813          	mv	a6,a1
800051ec:	00038713          	mv	a4,t2
800051f0:	000c0613          	mv	a2,s8
800051f4:	000c8693          	mv	a3,s9
800051f8:	00090513          	mv	a0,s2
800051fc:	00098593          	mv	a1,s3
80005200:	ef142823          	sw	a7,-272(s0)
80005204:	ef042423          	sw	a6,-280(s0)
80005208:	214080ef          	jal	ra,8000d41c <fma>
8000520c:	ed042703          	lw	a4,-304(s0)
80005210:	ec842783          	lw	a5,-312(s0)
80005214:	00050893          	mv	a7,a0
80005218:	00058813          	mv	a6,a1
8000521c:	000b0613          	mv	a2,s6
80005220:	000b8693          	mv	a3,s7
80005224:	00090513          	mv	a0,s2
80005228:	00098593          	mv	a1,s3
8000522c:	ef142023          	sw	a7,-288(s0)
80005230:	ed042c23          	sw	a6,-296(s0)
80005234:	1e8080ef          	jal	ra,8000d41c <fma>
80005238:	00058813          	mv	a6,a1
8000523c:	ed042423          	sw	a6,-312(s0)
80005240:	fb842803          	lw	a6,-72(s0)
80005244:	eb042703          	lw	a4,-336(s0)
80005248:	eb842783          	lw	a5,-328(s0)
8000524c:	00050893          	mv	a7,a0
80005250:	000a0613          	mv	a2,s4
80005254:	000a8693          	mv	a3,s5
80005258:	00090513          	mv	a0,s2
8000525c:	ed142823          	sw	a7,-304(s0)
80005260:	03080913          	addi	s2,a6,48
80005264:	00098593          	mv	a1,s3
80005268:	fb242c23          	sw	s2,-72(s0)
8000526c:	1b0080ef          	jal	ra,8000d41c <fma>
80005270:	e6842783          	lw	a5,-408(s0)
80005274:	fa042703          	lw	a4,-96(s0)
80005278:	fa842683          	lw	a3,-88(s0)
8000527c:	fb042603          	lw	a2,-80(s0)
80005280:	00f484b3          	add	s1,s1,a5
80005284:	03070793          	addi	a5,a4,48
80005288:	faf42023          	sw	a5,-96(s0)
8000528c:	03068793          	addi	a5,a3,48
80005290:	faf42423          	sw	a5,-88(s0)
80005294:	03060793          	addi	a5,a2,48
80005298:	faf42823          	sw	a5,-80(s0)
8000529c:	e8c42783          	lw	a5,-372(s0)
800052a0:	eca42023          	sw	a0,-320(s0)
800052a4:	eab42e23          	sw	a1,-324(s0)
800052a8:	ea042e83          	lw	t4,-352(s0)
800052ac:	e9c42f03          	lw	t5,-356(s0)
800052b0:	00f97463          	bgeu	s2,a5,800052b8 <mm_cb+0x3ef0>
800052b4:	fd8fe06f          	j	80003a8c <mm_cb+0x26c4>
800052b8:	df842783          	lw	a5,-520(s0)
800052bc:	e8442703          	lw	a4,-380(s0)
800052c0:	00e78933          	add	s2,a5,a4
800052c4:	e8c42783          	lw	a5,-372(s0)
800052c8:	e8842703          	lw	a4,-376(s0)
800052cc:	42e7f663          	bgeu	a5,a4,800056f8 <mm_cb+0x4330>
800052d0:	00078993          	mv	s3,a5
800052d4:	0009aa03          	lw	s4,0(s3)
800052d8:	0049aa83          	lw	s5,4(s3)
800052dc:	00092c03          	lw	s8,0(s2)
800052e0:	00492c83          	lw	s9,4(s2)
800052e4:	000f0713          	mv	a4,t5
800052e8:	000e8793          	mv	a5,t4
800052ec:	000c0613          	mv	a2,s8
800052f0:	000c8693          	mv	a3,s9
800052f4:	000a0513          	mv	a0,s4
800052f8:	000a8593          	mv	a1,s5
800052fc:	120080ef          	jal	ra,8000d41c <fma>
80005300:	00892b03          	lw	s6,8(s2)
80005304:	00c92b83          	lw	s7,12(s2)
80005308:	f9842703          	lw	a4,-104(s0)
8000530c:	f9442783          	lw	a5,-108(s0)
80005310:	00050f13          	mv	t5,a0
80005314:	00058e93          	mv	t4,a1
80005318:	000b0613          	mv	a2,s6
8000531c:	000b8693          	mv	a3,s7
80005320:	000a0513          	mv	a0,s4
80005324:	000a8593          	mv	a1,s5
80005328:	fbe42023          	sw	t5,-96(s0)
8000532c:	fbd42423          	sw	t4,-88(s0)
80005330:	0ec080ef          	jal	ra,8000d41c <fma>
80005334:	01092d03          	lw	s10,16(s2)
80005338:	01492d83          	lw	s11,20(s2)
8000533c:	f8842703          	lw	a4,-120(s0)
80005340:	f9042783          	lw	a5,-112(s0)
80005344:	00050893          	mv	a7,a0
80005348:	00058813          	mv	a6,a1
8000534c:	000d0613          	mv	a2,s10
80005350:	000d8693          	mv	a3,s11
80005354:	000a0513          	mv	a0,s4
80005358:	000a8593          	mv	a1,s5
8000535c:	f9142c23          	sw	a7,-104(s0)
80005360:	f9042a23          	sw	a6,-108(s0)
80005364:	0b8080ef          	jal	ra,8000d41c <fma>
80005368:	01892803          	lw	a6,24(s2)
8000536c:	01c92883          	lw	a7,28(s2)
80005370:	f8042703          	lw	a4,-128(s0)
80005374:	f7c42783          	lw	a5,-132(s0)
80005378:	00080613          	mv	a2,a6
8000537c:	00088693          	mv	a3,a7
80005380:	00050e13          	mv	t3,a0
80005384:	00058313          	mv	t1,a1
80005388:	000a0513          	mv	a0,s4
8000538c:	000a8593          	mv	a1,s5
80005390:	fb042823          	sw	a6,-80(s0)
80005394:	fb142a23          	sw	a7,-76(s0)
80005398:	f9c42423          	sw	t3,-120(s0)
8000539c:	f8642823          	sw	t1,-112(s0)
800053a0:	07c080ef          	jal	ra,8000d41c <fma>
800053a4:	02092303          	lw	t1,32(s2)
800053a8:	02492383          	lw	t2,36(s2)
800053ac:	e7c42683          	lw	a3,-388(s0)
800053b0:	f7042703          	lw	a4,-144(s0)
800053b4:	f6842783          	lw	a5,-152(s0)
800053b8:	00030613          	mv	a2,t1
800053bc:	00d984b3          	add	s1,s3,a3
800053c0:	00050f93          	mv	t6,a0
800053c4:	00038693          	mv	a3,t2
800053c8:	00058e13          	mv	t3,a1
800053cc:	000a0513          	mv	a0,s4
800053d0:	000a8593          	mv	a1,s5
800053d4:	fa642c23          	sw	t1,-72(s0)
800053d8:	fa742e23          	sw	t2,-68(s0)
800053dc:	f9f42023          	sw	t6,-128(s0)
800053e0:	f7c42e23          	sw	t3,-132(s0)
800053e4:	038080ef          	jal	ra,8000d41c <fma>
800053e8:	0004aa03          	lw	s4,0(s1)
800053ec:	0044aa83          	lw	s5,4(s1)
800053f0:	f7842703          	lw	a4,-136(s0)
800053f4:	f6042783          	lw	a5,-160(s0)
800053f8:	00050f93          	mv	t6,a0
800053fc:	00058e13          	mv	t3,a1
80005400:	000c0613          	mv	a2,s8
80005404:	000c8693          	mv	a3,s9
80005408:	000a0513          	mv	a0,s4
8000540c:	000a8593          	mv	a1,s5
80005410:	f7f42823          	sw	t6,-144(s0)
80005414:	f7c42423          	sw	t3,-152(s0)
80005418:	004080ef          	jal	ra,8000d41c <fma>
8000541c:	f5c42703          	lw	a4,-164(s0)
80005420:	f5042783          	lw	a5,-176(s0)
80005424:	00050f93          	mv	t6,a0
80005428:	00058e13          	mv	t3,a1
8000542c:	000b0613          	mv	a2,s6
80005430:	000b8693          	mv	a3,s7
80005434:	000a0513          	mv	a0,s4
80005438:	000a8593          	mv	a1,s5
8000543c:	f7f42c23          	sw	t6,-136(s0)
80005440:	f7c42023          	sw	t3,-160(s0)
80005444:	7d9070ef          	jal	ra,8000d41c <fma>
80005448:	f5842703          	lw	a4,-168(s0)
8000544c:	f4842783          	lw	a5,-184(s0)
80005450:	00050f93          	mv	t6,a0
80005454:	00058e13          	mv	t3,a1
80005458:	000d0613          	mv	a2,s10
8000545c:	000d8693          	mv	a3,s11
80005460:	000a0513          	mv	a0,s4
80005464:	000a8593          	mv	a1,s5
80005468:	f5f42e23          	sw	t6,-164(s0)
8000546c:	f5c42823          	sw	t3,-176(s0)
80005470:	7ad070ef          	jal	ra,8000d41c <fma>
80005474:	fb042803          	lw	a6,-80(s0)
80005478:	fb442883          	lw	a7,-76(s0)
8000547c:	f4442703          	lw	a4,-188(s0)
80005480:	f3842783          	lw	a5,-200(s0)
80005484:	00080613          	mv	a2,a6
80005488:	00088693          	mv	a3,a7
8000548c:	00050f93          	mv	t6,a0
80005490:	00058e13          	mv	t3,a1
80005494:	000a0513          	mv	a0,s4
80005498:	000a8593          	mv	a1,s5
8000549c:	f5f42c23          	sw	t6,-168(s0)
800054a0:	f5c42423          	sw	t3,-184(s0)
800054a4:	779070ef          	jal	ra,8000d41c <fma>
800054a8:	fb842303          	lw	t1,-72(s0)
800054ac:	fbc42383          	lw	t2,-68(s0)
800054b0:	00058e13          	mv	t3,a1
800054b4:	e7c42583          	lw	a1,-388(s0)
800054b8:	f4042703          	lw	a4,-192(s0)
800054bc:	f3442783          	lw	a5,-204(s0)
800054c0:	00030613          	mv	a2,t1
800054c4:	00038693          	mv	a3,t2
800054c8:	00050f93          	mv	t6,a0
800054cc:	00b484b3          	add	s1,s1,a1
800054d0:	000a0513          	mv	a0,s4
800054d4:	000a8593          	mv	a1,s5
800054d8:	f5f42223          	sw	t6,-188(s0)
800054dc:	f3c42c23          	sw	t3,-200(s0)
800054e0:	73d070ef          	jal	ra,8000d41c <fma>
800054e4:	0004aa03          	lw	s4,0(s1)
800054e8:	0044aa83          	lw	s5,4(s1)
800054ec:	f3042703          	lw	a4,-208(s0)
800054f0:	f2c42783          	lw	a5,-212(s0)
800054f4:	00050f93          	mv	t6,a0
800054f8:	00058e13          	mv	t3,a1
800054fc:	000c0613          	mv	a2,s8
80005500:	000c8693          	mv	a3,s9
80005504:	000a0513          	mv	a0,s4
80005508:	000a8593          	mv	a1,s5
8000550c:	f5f42023          	sw	t6,-192(s0)
80005510:	f3c42a23          	sw	t3,-204(s0)
80005514:	709070ef          	jal	ra,8000d41c <fma>
80005518:	f2842703          	lw	a4,-216(s0)
8000551c:	f2442783          	lw	a5,-220(s0)
80005520:	00050f93          	mv	t6,a0
80005524:	00058e13          	mv	t3,a1
80005528:	000b0613          	mv	a2,s6
8000552c:	000b8693          	mv	a3,s7
80005530:	000a0513          	mv	a0,s4
80005534:	000a8593          	mv	a1,s5
80005538:	f3f42823          	sw	t6,-208(s0)
8000553c:	f3c42623          	sw	t3,-212(s0)
80005540:	6dd070ef          	jal	ra,8000d41c <fma>
80005544:	f2042703          	lw	a4,-224(s0)
80005548:	f1c42783          	lw	a5,-228(s0)
8000554c:	00050f93          	mv	t6,a0
80005550:	00058e13          	mv	t3,a1
80005554:	000d0613          	mv	a2,s10
80005558:	000d8693          	mv	a3,s11
8000555c:	000a0513          	mv	a0,s4
80005560:	000a8593          	mv	a1,s5
80005564:	f3f42423          	sw	t6,-216(s0)
80005568:	f3c42223          	sw	t3,-220(s0)
8000556c:	6b1070ef          	jal	ra,8000d41c <fma>
80005570:	fb042803          	lw	a6,-80(s0)
80005574:	f1842703          	lw	a4,-232(s0)
80005578:	f1442783          	lw	a5,-236(s0)
8000557c:	fb442883          	lw	a7,-76(s0)
80005580:	00080613          	mv	a2,a6
80005584:	00050f93          	mv	t6,a0
80005588:	00088693          	mv	a3,a7
8000558c:	00058e13          	mv	t3,a1
80005590:	000a0513          	mv	a0,s4
80005594:	000a8593          	mv	a1,s5
80005598:	f3f42023          	sw	t6,-224(s0)
8000559c:	f1c42e23          	sw	t3,-228(s0)
800055a0:	67d070ef          	jal	ra,8000d41c <fma>
800055a4:	fb842303          	lw	t1,-72(s0)
800055a8:	fbc42383          	lw	t2,-68(s0)
800055ac:	f0842703          	lw	a4,-248(s0)
800055b0:	f1042783          	lw	a5,-240(s0)
800055b4:	00030613          	mv	a2,t1
800055b8:	00038693          	mv	a3,t2
800055bc:	00050f93          	mv	t6,a0
800055c0:	00058e13          	mv	t3,a1
800055c4:	000a0513          	mv	a0,s4
800055c8:	000a8593          	mv	a1,s5
800055cc:	f1f42c23          	sw	t6,-232(s0)
800055d0:	f1c42a23          	sw	t3,-236(s0)
800055d4:	649070ef          	jal	ra,8000d41c <fma>
800055d8:	00058e13          	mv	t3,a1
800055dc:	e7c42583          	lw	a1,-388(s0)
800055e0:	f0042703          	lw	a4,-256(s0)
800055e4:	ef842783          	lw	a5,-264(s0)
800055e8:	00b484b3          	add	s1,s1,a1
800055ec:	0004aa03          	lw	s4,0(s1)
800055f0:	0044aa83          	lw	s5,4(s1)
800055f4:	00050f93          	mv	t6,a0
800055f8:	000c0613          	mv	a2,s8
800055fc:	000c8693          	mv	a3,s9
80005600:	000a0513          	mv	a0,s4
80005604:	000a8593          	mv	a1,s5
80005608:	f1f42423          	sw	t6,-248(s0)
8000560c:	f1c42823          	sw	t3,-240(s0)
80005610:	60d070ef          	jal	ra,8000d41c <fma>
80005614:	ef042703          	lw	a4,-272(s0)
80005618:	ee842783          	lw	a5,-280(s0)
8000561c:	00050f93          	mv	t6,a0
80005620:	00058e13          	mv	t3,a1
80005624:	000b0613          	mv	a2,s6
80005628:	000b8693          	mv	a3,s7
8000562c:	000a0513          	mv	a0,s4
80005630:	000a8593          	mv	a1,s5
80005634:	f1f42023          	sw	t6,-256(s0)
80005638:	efc42c23          	sw	t3,-264(s0)
8000563c:	5e1070ef          	jal	ra,8000d41c <fma>
80005640:	ee042703          	lw	a4,-288(s0)
80005644:	ed842783          	lw	a5,-296(s0)
80005648:	00050f93          	mv	t6,a0
8000564c:	00058e13          	mv	t3,a1
80005650:	000d0613          	mv	a2,s10
80005654:	000d8693          	mv	a3,s11
80005658:	000a0513          	mv	a0,s4
8000565c:	000a8593          	mv	a1,s5
80005660:	eff42823          	sw	t6,-272(s0)
80005664:	efc42423          	sw	t3,-280(s0)
80005668:	5b5070ef          	jal	ra,8000d41c <fma>
8000566c:	fb042803          	lw	a6,-80(s0)
80005670:	fb442883          	lw	a7,-76(s0)
80005674:	ed042703          	lw	a4,-304(s0)
80005678:	ec842783          	lw	a5,-312(s0)
8000567c:	00050f93          	mv	t6,a0
80005680:	00058e13          	mv	t3,a1
80005684:	00080613          	mv	a2,a6
80005688:	00088693          	mv	a3,a7
8000568c:	000a0513          	mv	a0,s4
80005690:	000a8593          	mv	a1,s5
80005694:	eff42023          	sw	t6,-288(s0)
80005698:	edc42c23          	sw	t3,-296(s0)
8000569c:	581070ef          	jal	ra,8000d41c <fma>
800056a0:	fb842303          	lw	t1,-72(s0)
800056a4:	fbc42383          	lw	t2,-68(s0)
800056a8:	ebc42783          	lw	a5,-324(s0)
800056ac:	ec042703          	lw	a4,-320(s0)
800056b0:	00050893          	mv	a7,a0
800056b4:	00058813          	mv	a6,a1
800056b8:	00030613          	mv	a2,t1
800056bc:	00038693          	mv	a3,t2
800056c0:	000a0513          	mv	a0,s4
800056c4:	000a8593          	mv	a1,s5
800056c8:	ed142823          	sw	a7,-304(s0)
800056cc:	ed042423          	sw	a6,-312(s0)
800056d0:	54d070ef          	jal	ra,8000d41c <fma>
800056d4:	e7442783          	lw	a5,-396(s0)
800056d8:	eca42023          	sw	a0,-320(s0)
800056dc:	eab42e23          	sw	a1,-324(s0)
800056e0:	00f90933          	add	s2,s2,a5
800056e4:	e8842783          	lw	a5,-376(s0)
800056e8:	00898993          	addi	s3,s3,8
800056ec:	fa842e83          	lw	t4,-88(s0)
800056f0:	fa042f03          	lw	t5,-96(s0)
800056f4:	bef9e0e3          	bltu	s3,a5,800052d4 <mm_cb+0x3f0c>
800056f8:	e5442283          	lw	t0,-428(s0)
800056fc:	f9842703          	lw	a4,-104(s0)
80005700:	f8842503          	lw	a0,-120(s0)
80005704:	f7042303          	lw	t1,-144(s0)
80005708:	f9442783          	lw	a5,-108(s0)
8000570c:	f9042583          	lw	a1,-112(s0)
80005710:	f7c42883          	lw	a7,-132(s0)
80005714:	f6842383          	lw	t2,-152(s0)
80005718:	f8042803          	lw	a6,-128(s0)
8000571c:	000f0613          	mv	a2,t5
80005720:	f7842e03          	lw	t3,-136(s0)
80005724:	f5c42f03          	lw	t5,-164(s0)
80005728:	f5842903          	lw	s2,-168(s0)
8000572c:	f4442a03          	lw	s4,-188(s0)
80005730:	f4042b03          	lw	s6,-192(s0)
80005734:	f5042f83          	lw	t6,-176(s0)
80005738:	f4842983          	lw	s3,-184(s0)
8000573c:	f3842a83          	lw	s5,-200(s0)
80005740:	f3442b83          	lw	s7,-204(s0)
80005744:	00c2a023          	sw	a2,0(t0)
80005748:	01d2a223          	sw	t4,4(t0)
8000574c:	f2842603          	lw	a2,-216(s0)
80005750:	f6042e83          	lw	t4,-160(s0)
80005754:	00e2a423          	sw	a4,8(t0)
80005758:	00f2a623          	sw	a5,12(t0)
8000575c:	f3042703          	lw	a4,-208(s0)
80005760:	00a2a823          	sw	a0,16(t0)
80005764:	00b2aa23          	sw	a1,20(t0)
80005768:	f2042503          	lw	a0,-224(s0)
8000576c:	0112ae23          	sw	a7,28(t0)
80005770:	0262a023          	sw	t1,32(t0)
80005774:	0272a223          	sw	t2,36(t0)
80005778:	0102ac23          	sw	a6,24(t0)
8000577c:	f1842803          	lw	a6,-232(s0)
80005780:	e7042083          	lw	ra,-400(s0)
80005784:	e7842483          	lw	s1,-392(s0)
80005788:	f2c42783          	lw	a5,-212(s0)
8000578c:	f2442683          	lw	a3,-220(s0)
80005790:	f1c42583          	lw	a1,-228(s0)
80005794:	f1442883          	lw	a7,-236(s0)
80005798:	f0842303          	lw	t1,-248(s0)
8000579c:	01c0a023          	sw	t3,0(ra)
800057a0:	01d0a223          	sw	t4,4(ra)
800057a4:	01e0a423          	sw	t5,8(ra)
800057a8:	01f0a623          	sw	t6,12(ra)
800057ac:	0120a823          	sw	s2,16(ra)
800057b0:	0130aa23          	sw	s3,20(ra)
800057b4:	0140ac23          	sw	s4,24(ra)
800057b8:	0150ae23          	sw	s5,28(ra)
800057bc:	0360a023          	sw	s6,32(ra)
800057c0:	0370a223          	sw	s7,36(ra)
800057c4:	00e4a023          	sw	a4,0(s1)
800057c8:	00f4a223          	sw	a5,4(s1)
800057cc:	00c4a423          	sw	a2,8(s1)
800057d0:	00d4a623          	sw	a3,12(s1)
800057d4:	00a4a823          	sw	a0,16(s1)
800057d8:	00b4aa23          	sw	a1,20(s1)
800057dc:	0104ac23          	sw	a6,24(s1)
800057e0:	0114ae23          	sw	a7,28(s1)
800057e4:	f1042383          	lw	t2,-240(s0)
800057e8:	f0042e03          	lw	t3,-256(s0)
800057ec:	ef042f03          	lw	t5,-272(s0)
800057f0:	ee042903          	lw	s2,-288(s0)
800057f4:	ed042a03          	lw	s4,-304(s0)
800057f8:	ec042b03          	lw	s6,-320(s0)
800057fc:	0264a023          	sw	t1,32(s1)
80005800:	e8042703          	lw	a4,-384(s0)
80005804:	02848793          	addi	a5,s1,40
80005808:	e6f42c23          	sw	a5,-392(s0)
8000580c:	02870793          	addi	a5,a4,40
80005810:	e8f42023          	sw	a5,-384(s0)
80005814:	e8442783          	lw	a5,-380(s0)
80005818:	e5042683          	lw	a3,-432(s0)
8000581c:	ef842e83          	lw	t4,-264(s0)
80005820:	02878793          	addi	a5,a5,40
80005824:	ee842f83          	lw	t6,-280(s0)
80005828:	ed842983          	lw	s3,-296(s0)
8000582c:	ec842a83          	lw	s5,-312(s0)
80005830:	ebc42b83          	lw	s7,-324(s0)
80005834:	02828613          	addi	a2,t0,40
80005838:	e8f42223          	sw	a5,-380(s0)
8000583c:	e0c42783          	lw	a5,-500(s0)
80005840:	0274a223          	sw	t2,36(s1)
80005844:	00568693          	addi	a3,a3,5
80005848:	e4c42a23          	sw	a2,-428(s0)
8000584c:	02808613          	addi	a2,ra,40
80005850:	01c72023          	sw	t3,0(a4)
80005854:	01d72223          	sw	t4,4(a4)
80005858:	01e72423          	sw	t5,8(a4)
8000585c:	01f72623          	sw	t6,12(a4)
80005860:	01272823          	sw	s2,16(a4)
80005864:	01372a23          	sw	s3,20(a4)
80005868:	01472c23          	sw	s4,24(a4)
8000586c:	01572e23          	sw	s5,28(a4)
80005870:	03672023          	sw	s6,32(a4)
80005874:	03772223          	sw	s7,36(a4)
80005878:	e4d42823          	sw	a3,-432(s0)
8000587c:	e6c42823          	sw	a2,-400(s0)
80005880:	00f6f463          	bgeu	a3,a5,80005888 <mm_cb+0x44c0>
80005884:	88cfe06f          	j	80003910 <mm_cb+0x2548>
80005888:	dc042783          	lw	a5,-576(s0)
8000588c:	dec42483          	lw	s1,-532(s0)
80005890:	e4c42983          	lw	s3,-436(s0)
80005894:	dc842303          	lw	t1,-568(s0)
80005898:	009788b3          	add	a7,a5,s1
8000589c:	00042783          	lw	a5,0(s0)
800058a0:	e3c42703          	lw	a4,-452(s0)
800058a4:	e4442803          	lw	a6,-444(s0)
800058a8:	00f12023          	sw	a5,0(sp)
800058ac:	e4842603          	lw	a2,-440(s0)
800058b0:	db842783          	lw	a5,-584(s0)
800058b4:	da442583          	lw	a1,-604(s0)
800058b8:	fff30913          	addi	s2,t1,-1
800058bc:	00098693          	mv	a3,s3
800058c0:	00400513          	li	a0,4
800058c4:	dd242423          	sw	s2,-568(s0)
800058c8:	f80fb0ef          	jal	ra,80001048 <mm_naive>
800058cc:	dcc42783          	lw	a5,-564(s0)
800058d0:	00f98733          	add	a4,s3,a5
800058d4:	e4e42623          	sw	a4,-436(s0)
800058d8:	e8c42703          	lw	a4,-372(s0)
800058dc:	00f70733          	add	a4,a4,a5
800058e0:	e8e42623          	sw	a4,-372(s0)
800058e4:	e8842703          	lw	a4,-376(s0)
800058e8:	00f707b3          	add	a5,a4,a5
800058ec:	e8f42423          	sw	a5,-376(s0)
800058f0:	d9842783          	lw	a5,-616(s0)
800058f4:	00f487b3          	add	a5,s1,a5
800058f8:	def42623          	sw	a5,-532(s0)
800058fc:	00090463          	beqz	s2,80005904 <mm_cb+0x453c>
80005900:	fd5fd06f          	j	800038d4 <mm_cb+0x250c>
80005904:	de042703          	lw	a4,-544(s0)
80005908:	df042483          	lw	s1,-528(s0)
8000590c:	e2c42983          	lw	s3,-468(s0)
80005910:	e2042303          	lw	t1,-480(s0)
80005914:	009706b3          	add	a3,a4,s1
80005918:	00042703          	lw	a4,0(s0)
8000591c:	e1042883          	lw	a7,-496(s0)
80005920:	e4442803          	lw	a6,-444(s0)
80005924:	00e12023          	sw	a4,0(sp)
80005928:	e4842603          	lw	a2,-440(s0)
8000592c:	e3c42703          	lw	a4,-452(s0)
80005930:	db042583          	lw	a1,-592(s0)
80005934:	00098793          	mv	a5,s3
80005938:	01830913          	addi	s2,t1,24
8000593c:	00000513          	li	a0,0
80005940:	e3242023          	sw	s2,-480(s0)
80005944:	f04fb0ef          	jal	ra,80001048 <mm_naive>
80005948:	0c048793          	addi	a5,s1,192
8000594c:	def42823          	sw	a5,-528(s0)
80005950:	d8c42783          	lw	a5,-628(s0)
80005954:	00f987b3          	add	a5,s3,a5
80005958:	e2f42623          	sw	a5,-468(s0)
8000595c:	e3442783          	lw	a5,-460(s0)
80005960:	00f97463          	bgeu	s2,a5,80005968 <mm_cb+0x45a0>
80005964:	ef1fd06f          	j	80003854 <mm_cb+0x248c>
80005968:	1240206f          	j	80007a8c <mm_cb+0x66c4>
8000596c:	e1042783          	lw	a5,-496(s0)
80005970:	01900713          	li	a4,25
80005974:	d9442683          	lw	a3,-620(s0)
80005978:	02e7d7b3          	divu	a5,a5,a4
8000597c:	e2c42703          	lw	a4,-468(s0)
80005980:	e4042823          	sw	zero,-432(s0)
80005984:	f3870713          	addi	a4,a4,-200
80005988:	e4e42a23          	sw	a4,-428(s0)
8000598c:	e2042703          	lw	a4,-480(s0)
80005990:	00e686b3          	add	a3,a3,a4
80005994:	e8d42623          	sw	a3,-372(s0)
80005998:	da842683          	lw	a3,-600(s0)
8000599c:	e6e42c23          	sw	a4,-392(s0)
800059a0:	00e686b3          	add	a3,a3,a4
800059a4:	df042703          	lw	a4,-528(s0)
800059a8:	e8d42423          	sw	a3,-376(s0)
800059ac:	00e787b3          	add	a5,a5,a4
800059b0:	00001737          	lui	a4,0x1
800059b4:	2c070713          	addi	a4,a4,704 # 12c0 <buflen.2941+0x1240>
800059b8:	02e787b3          	mul	a5,a5,a4
800059bc:	e1442703          	lw	a4,-492(s0)
800059c0:	00f707b3          	add	a5,a4,a5
800059c4:	e4f42623          	sw	a5,-436(s0)
800059c8:	0c878793          	addi	a5,a5,200
800059cc:	e6f42823          	sw	a5,-400(s0)
800059d0:	e7042783          	lw	a5,-400(s0)
800059d4:	f3878393          	addi	t2,a5,-200
800059d8:	e5442783          	lw	a5,-428(s0)
800059dc:	e8742023          	sw	t2,-384(s0)
800059e0:	e8f42223          	sw	a5,-380(s0)
800059e4:	e8042783          	lw	a5,-384(s0)
800059e8:	0087a703          	lw	a4,8(a5)
800059ec:	0007ae83          	lw	t4,0(a5)
800059f0:	0047a283          	lw	t0,4(a5)
800059f4:	f8e42c23          	sw	a4,-104(s0)
800059f8:	00c7a703          	lw	a4,12(a5)
800059fc:	f8e42a23          	sw	a4,-108(s0)
80005a00:	0107a703          	lw	a4,16(a5)
80005a04:	f8e42423          	sw	a4,-120(s0)
80005a08:	0147a703          	lw	a4,20(a5)
80005a0c:	f8e42823          	sw	a4,-112(s0)
80005a10:	0187a703          	lw	a4,24(a5)
80005a14:	f6e42c23          	sw	a4,-136(s0)
80005a18:	01c7a703          	lw	a4,28(a5)
80005a1c:	f6e42023          	sw	a4,-160(s0)
80005a20:	0207a703          	lw	a4,32(a5)
80005a24:	f4e42e23          	sw	a4,-164(s0)
80005a28:	0247a703          	lw	a4,36(a5)
80005a2c:	f4e42823          	sw	a4,-176(s0)
80005a30:	0c87a703          	lw	a4,200(a5)
80005a34:	f4e42c23          	sw	a4,-168(s0)
80005a38:	0cc7a703          	lw	a4,204(a5)
80005a3c:	f4e42423          	sw	a4,-184(s0)
80005a40:	0d07a703          	lw	a4,208(a5)
80005a44:	f4e42223          	sw	a4,-188(s0)
80005a48:	0d47a703          	lw	a4,212(a5)
80005a4c:	f2e42c23          	sw	a4,-200(s0)
80005a50:	0d87a703          	lw	a4,216(a5)
80005a54:	f8e42023          	sw	a4,-128(s0)
80005a58:	0dc7a703          	lw	a4,220(a5)
80005a5c:	f6e42e23          	sw	a4,-132(s0)
80005a60:	0e07a703          	lw	a4,224(a5)
80005a64:	f6e42823          	sw	a4,-144(s0)
80005a68:	0e47a703          	lw	a4,228(a5)
80005a6c:	e8442483          	lw	s1,-380(s0)
80005a70:	f6e42423          	sw	a4,-152(s0)
80005a74:	0e87a703          	lw	a4,232(a5)
80005a78:	f4e42023          	sw	a4,-192(s0)
80005a7c:	0ec7a703          	lw	a4,236(a5)
80005a80:	f2e42a23          	sw	a4,-204(s0)
80005a84:	1907a703          	lw	a4,400(a5)
80005a88:	f2e42823          	sw	a4,-208(s0)
80005a8c:	1947a703          	lw	a4,404(a5)
80005a90:	f2e42623          	sw	a4,-212(s0)
80005a94:	1987a703          	lw	a4,408(a5)
80005a98:	f2e42423          	sw	a4,-216(s0)
80005a9c:	19c7a703          	lw	a4,412(a5)
80005aa0:	f2e42223          	sw	a4,-220(s0)
80005aa4:	1a07a703          	lw	a4,416(a5)
80005aa8:	f2e42023          	sw	a4,-224(s0)
80005aac:	1a47a703          	lw	a4,420(a5)
80005ab0:	f0e42e23          	sw	a4,-228(s0)
80005ab4:	1a87a703          	lw	a4,424(a5)
80005ab8:	f0e42c23          	sw	a4,-232(s0)
80005abc:	1ac7a703          	lw	a4,428(a5)
80005ac0:	f0e42a23          	sw	a4,-236(s0)
80005ac4:	1b07a703          	lw	a4,432(a5)
80005ac8:	f0e42423          	sw	a4,-248(s0)
80005acc:	1b47a703          	lw	a4,436(a5)
80005ad0:	f0e42823          	sw	a4,-240(s0)
80005ad4:	2587a703          	lw	a4,600(a5)
80005ad8:	f0e42023          	sw	a4,-256(s0)
80005adc:	25c7a703          	lw	a4,604(a5)
80005ae0:	eee42c23          	sw	a4,-264(s0)
80005ae4:	2607a703          	lw	a4,608(a5)
80005ae8:	eee42823          	sw	a4,-272(s0)
80005aec:	2647a703          	lw	a4,612(a5)
80005af0:	eee42423          	sw	a4,-280(s0)
80005af4:	2687a703          	lw	a4,616(a5)
80005af8:	eee42023          	sw	a4,-288(s0)
80005afc:	26c7a703          	lw	a4,620(a5)
80005b00:	ece42c23          	sw	a4,-296(s0)
80005b04:	2707a703          	lw	a4,624(a5)
80005b08:	ece42823          	sw	a4,-304(s0)
80005b0c:	2747a703          	lw	a4,628(a5)
80005b10:	ece42423          	sw	a4,-312(s0)
80005b14:	2787a703          	lw	a4,632(a5)
80005b18:	27c7a783          	lw	a5,636(a5)
80005b1c:	ece42023          	sw	a4,-320(s0)
80005b20:	eaf42e23          	sw	a5,-324(s0)
80005b24:	e8c42703          	lw	a4,-372(s0)
80005b28:	e7842783          	lw	a5,-392(s0)
80005b2c:	00e7e463          	bltu	a5,a4,80005b34 <mm_cb+0x476c>
80005b30:	0550106f          	j	80007384 <mm_cb+0x5fbc>
80005b34:	e7c42703          	lw	a4,-388(s0)
80005b38:	faf42c23          	sw	a5,-72(s0)
80005b3c:	00f706b3          	add	a3,a4,a5
80005b40:	fad42023          	sw	a3,-96(s0)
80005b44:	00d706b3          	add	a3,a4,a3
80005b48:	00d70733          	add	a4,a4,a3
80005b4c:	fad42423          	sw	a3,-88(s0)
80005b50:	fae42823          	sw	a4,-80(s0)
80005b54:	fb842783          	lw	a5,-72(s0)
80005b58:	0004ad03          	lw	s10,0(s1)
80005b5c:	0044ad83          	lw	s11,4(s1)
80005b60:	0007a903          	lw	s2,0(a5)
80005b64:	0047a983          	lw	s3,4(a5)
80005b68:	000e8713          	mv	a4,t4
80005b6c:	00028793          	mv	a5,t0
80005b70:	000d0613          	mv	a2,s10
80005b74:	000d8693          	mv	a3,s11
80005b78:	00090513          	mv	a0,s2
80005b7c:	00098593          	mv	a1,s3
80005b80:	09d070ef          	jal	ra,8000d41c <fma>
80005b84:	0084ac03          	lw	s8,8(s1)
80005b88:	00c4ac83          	lw	s9,12(s1)
80005b8c:	f9842703          	lw	a4,-104(s0)
80005b90:	f9442783          	lw	a5,-108(s0)
80005b94:	00050313          	mv	t1,a0
80005b98:	00058e13          	mv	t3,a1
80005b9c:	000c0613          	mv	a2,s8
80005ba0:	000c8693          	mv	a3,s9
80005ba4:	00090513          	mv	a0,s2
80005ba8:	00098593          	mv	a1,s3
80005bac:	e8642c23          	sw	t1,-360(s0)
80005bb0:	e9c42e23          	sw	t3,-356(s0)
80005bb4:	069070ef          	jal	ra,8000d41c <fma>
80005bb8:	0104ab03          	lw	s6,16(s1)
80005bbc:	0144ab83          	lw	s7,20(s1)
80005bc0:	f8842703          	lw	a4,-120(s0)
80005bc4:	f9042783          	lw	a5,-112(s0)
80005bc8:	00050f93          	mv	t6,a0
80005bcc:	00058293          	mv	t0,a1
80005bd0:	000b0613          	mv	a2,s6
80005bd4:	000b8693          	mv	a3,s7
80005bd8:	00090513          	mv	a0,s2
80005bdc:	00098593          	mv	a1,s3
80005be0:	ebf42023          	sw	t6,-352(s0)
80005be4:	ea542423          	sw	t0,-344(s0)
80005be8:	035070ef          	jal	ra,8000d41c <fma>
80005bec:	0184aa03          	lw	s4,24(s1)
80005bf0:	01c4aa83          	lw	s5,28(s1)
80005bf4:	f7842703          	lw	a4,-136(s0)
80005bf8:	f6042783          	lw	a5,-160(s0)
80005bfc:	00050393          	mv	t2,a0
80005c00:	00058813          	mv	a6,a1
80005c04:	000a0613          	mv	a2,s4
80005c08:	000a8693          	mv	a3,s5
80005c0c:	00090513          	mv	a0,s2
80005c10:	00098593          	mv	a1,s3
80005c14:	ea742c23          	sw	t2,-328(s0)
80005c18:	f9042c23          	sw	a6,-104(s0)
80005c1c:	001070ef          	jal	ra,8000d41c <fma>
80005c20:	0204a803          	lw	a6,32(s1)
80005c24:	0244a883          	lw	a7,36(s1)
80005c28:	f5042783          	lw	a5,-176(s0)
80005c2c:	f5c42703          	lw	a4,-164(s0)
80005c30:	00080613          	mv	a2,a6
80005c34:	00088693          	mv	a3,a7
80005c38:	00050f13          	mv	t5,a0
80005c3c:	00058e93          	mv	t4,a1
80005c40:	00090513          	mv	a0,s2
80005c44:	00098593          	mv	a1,s3
80005c48:	f5042823          	sw	a6,-176(s0)
80005c4c:	f5142a23          	sw	a7,-172(s0)
80005c50:	f9e42a23          	sw	t5,-108(s0)
80005c54:	f9d42423          	sw	t4,-120(s0)
80005c58:	7c4070ef          	jal	ra,8000d41c <fma>
80005c5c:	fa042703          	lw	a4,-96(s0)
80005c60:	f4842783          	lw	a5,-184(s0)
80005c64:	00050f13          	mv	t5,a0
80005c68:	00072903          	lw	s2,0(a4)
80005c6c:	00472983          	lw	s3,4(a4)
80005c70:	f5842703          	lw	a4,-168(s0)
80005c74:	00058e93          	mv	t4,a1
80005c78:	000d0613          	mv	a2,s10
80005c7c:	000d8693          	mv	a3,s11
80005c80:	f9e42823          	sw	t5,-112(s0)
80005c84:	00090513          	mv	a0,s2
80005c88:	00098593          	mv	a1,s3
80005c8c:	f7d42c23          	sw	t4,-136(s0)
80005c90:	78c070ef          	jal	ra,8000d41c <fma>
80005c94:	f4442703          	lw	a4,-188(s0)
80005c98:	f3842783          	lw	a5,-200(s0)
80005c9c:	00050f13          	mv	t5,a0
80005ca0:	00058e93          	mv	t4,a1
80005ca4:	000c0613          	mv	a2,s8
80005ca8:	000c8693          	mv	a3,s9
80005cac:	00090513          	mv	a0,s2
80005cb0:	00098593          	mv	a1,s3
80005cb4:	f7e42023          	sw	t5,-160(s0)
80005cb8:	f5d42e23          	sw	t4,-164(s0)
80005cbc:	760070ef          	jal	ra,8000d41c <fma>
80005cc0:	f8042703          	lw	a4,-128(s0)
80005cc4:	f7c42783          	lw	a5,-132(s0)
80005cc8:	00050f13          	mv	t5,a0
80005ccc:	00058e93          	mv	t4,a1
80005cd0:	000b0613          	mv	a2,s6
80005cd4:	000b8693          	mv	a3,s7
80005cd8:	00090513          	mv	a0,s2
80005cdc:	00098593          	mv	a1,s3
80005ce0:	f9e42023          	sw	t5,-128(s0)
80005ce4:	f7d42e23          	sw	t4,-132(s0)
80005ce8:	734070ef          	jal	ra,8000d41c <fma>
80005cec:	f7042703          	lw	a4,-144(s0)
80005cf0:	f6842783          	lw	a5,-152(s0)
80005cf4:	00050f13          	mv	t5,a0
80005cf8:	00058e93          	mv	t4,a1
80005cfc:	000a0613          	mv	a2,s4
80005d00:	000a8693          	mv	a3,s5
80005d04:	00090513          	mv	a0,s2
80005d08:	00098593          	mv	a1,s3
80005d0c:	f7e42823          	sw	t5,-144(s0)
80005d10:	f7d42423          	sw	t4,-152(s0)
80005d14:	708070ef          	jal	ra,8000d41c <fma>
80005d18:	f5042803          	lw	a6,-176(s0)
80005d1c:	f5442883          	lw	a7,-172(s0)
80005d20:	f4042703          	lw	a4,-192(s0)
80005d24:	f3442783          	lw	a5,-204(s0)
80005d28:	00080613          	mv	a2,a6
80005d2c:	00088693          	mv	a3,a7
80005d30:	00050f13          	mv	t5,a0
80005d34:	00058e93          	mv	t4,a1
80005d38:	00090513          	mv	a0,s2
80005d3c:	00098593          	mv	a1,s3
80005d40:	eb042823          	sw	a6,-336(s0)
80005d44:	eb142a23          	sw	a7,-332(s0)
80005d48:	f5e42823          	sw	t5,-176(s0)
80005d4c:	f5d42c23          	sw	t4,-168(s0)
80005d50:	6cc070ef          	jal	ra,8000d41c <fma>
80005d54:	fa842683          	lw	a3,-88(s0)
80005d58:	f3042703          	lw	a4,-208(s0)
80005d5c:	f2c42783          	lw	a5,-212(s0)
80005d60:	0006a903          	lw	s2,0(a3)
80005d64:	0046a983          	lw	s3,4(a3)
80005d68:	00050f13          	mv	t5,a0
80005d6c:	00058e93          	mv	t4,a1
80005d70:	000d0613          	mv	a2,s10
80005d74:	000d8693          	mv	a3,s11
80005d78:	00090513          	mv	a0,s2
80005d7c:	00098593          	mv	a1,s3
80005d80:	f5e42423          	sw	t5,-184(s0)
80005d84:	f5d42223          	sw	t4,-188(s0)
80005d88:	694070ef          	jal	ra,8000d41c <fma>
80005d8c:	f2842703          	lw	a4,-216(s0)
80005d90:	f2442783          	lw	a5,-220(s0)
80005d94:	00050f13          	mv	t5,a0
80005d98:	00058e93          	mv	t4,a1
80005d9c:	000c0613          	mv	a2,s8
80005da0:	000c8693          	mv	a3,s9
80005da4:	00090513          	mv	a0,s2
80005da8:	00098593          	mv	a1,s3
80005dac:	f3e42c23          	sw	t5,-200(s0)
80005db0:	f5d42023          	sw	t4,-192(s0)
80005db4:	668070ef          	jal	ra,8000d41c <fma>
80005db8:	f2042703          	lw	a4,-224(s0)
80005dbc:	f1c42783          	lw	a5,-228(s0)
80005dc0:	00050f13          	mv	t5,a0
80005dc4:	00058e93          	mv	t4,a1
80005dc8:	000b0613          	mv	a2,s6
80005dcc:	000b8693          	mv	a3,s7
80005dd0:	00090513          	mv	a0,s2
80005dd4:	00098593          	mv	a1,s3
80005dd8:	f3e42a23          	sw	t5,-204(s0)
80005ddc:	f3d42823          	sw	t4,-208(s0)
80005de0:	63c070ef          	jal	ra,8000d41c <fma>
80005de4:	f1842703          	lw	a4,-232(s0)
80005de8:	f1442783          	lw	a5,-236(s0)
80005dec:	00050f13          	mv	t5,a0
80005df0:	00058e93          	mv	t4,a1
80005df4:	000a0613          	mv	a2,s4
80005df8:	000a8693          	mv	a3,s5
80005dfc:	00090513          	mv	a0,s2
80005e00:	00098593          	mv	a1,s3
80005e04:	f3e42623          	sw	t5,-212(s0)
80005e08:	f3d42423          	sw	t4,-216(s0)
80005e0c:	610070ef          	jal	ra,8000d41c <fma>
80005e10:	f0842703          	lw	a4,-248(s0)
80005e14:	f1042783          	lw	a5,-240(s0)
80005e18:	eb042803          	lw	a6,-336(s0)
80005e1c:	eb442883          	lw	a7,-332(s0)
80005e20:	00050f13          	mv	t5,a0
80005e24:	00080613          	mv	a2,a6
80005e28:	00088693          	mv	a3,a7
80005e2c:	00058e93          	mv	t4,a1
80005e30:	00090513          	mv	a0,s2
80005e34:	00098593          	mv	a1,s3
80005e38:	f3e42223          	sw	t5,-220(s0)
80005e3c:	f3d42023          	sw	t4,-224(s0)
80005e40:	5dc070ef          	jal	ra,8000d41c <fma>
80005e44:	fb042603          	lw	a2,-80(s0)
80005e48:	f0042703          	lw	a4,-256(s0)
80005e4c:	ef842783          	lw	a5,-264(s0)
80005e50:	00062903          	lw	s2,0(a2)
80005e54:	00462983          	lw	s3,4(a2)
80005e58:	00050f13          	mv	t5,a0
80005e5c:	00058e93          	mv	t4,a1
80005e60:	000d0613          	mv	a2,s10
80005e64:	000d8693          	mv	a3,s11
80005e68:	00090513          	mv	a0,s2
80005e6c:	00098593          	mv	a1,s3
80005e70:	f1e42e23          	sw	t5,-228(s0)
80005e74:	f1d42c23          	sw	t4,-232(s0)
80005e78:	5a4070ef          	jal	ra,8000d41c <fma>
80005e7c:	ef042703          	lw	a4,-272(s0)
80005e80:	ee842783          	lw	a5,-280(s0)
80005e84:	00050f13          	mv	t5,a0
80005e88:	00058e93          	mv	t4,a1
80005e8c:	000c0613          	mv	a2,s8
80005e90:	000c8693          	mv	a3,s9
80005e94:	00090513          	mv	a0,s2
80005e98:	00098593          	mv	a1,s3
80005e9c:	f1e42a23          	sw	t5,-236(s0)
80005ea0:	f1d42423          	sw	t4,-248(s0)
80005ea4:	578070ef          	jal	ra,8000d41c <fma>
80005ea8:	ee042703          	lw	a4,-288(s0)
80005eac:	ed842783          	lw	a5,-296(s0)
80005eb0:	00050f13          	mv	t5,a0
80005eb4:	00058e93          	mv	t4,a1
80005eb8:	000b0613          	mv	a2,s6
80005ebc:	000b8693          	mv	a3,s7
80005ec0:	00090513          	mv	a0,s2
80005ec4:	00098593          	mv	a1,s3
80005ec8:	f1e42823          	sw	t5,-240(s0)
80005ecc:	f1d42023          	sw	t4,-256(s0)
80005ed0:	54c070ef          	jal	ra,8000d41c <fma>
80005ed4:	ed042703          	lw	a4,-304(s0)
80005ed8:	ec842783          	lw	a5,-312(s0)
80005edc:	00050f13          	mv	t5,a0
80005ee0:	00058e93          	mv	t4,a1
80005ee4:	000a0613          	mv	a2,s4
80005ee8:	000a8693          	mv	a3,s5
80005eec:	00090513          	mv	a0,s2
80005ef0:	00098593          	mv	a1,s3
80005ef4:	efe42c23          	sw	t5,-264(s0)
80005ef8:	efd42823          	sw	t4,-272(s0)
80005efc:	520070ef          	jal	ra,8000d41c <fma>
80005f00:	eb042803          	lw	a6,-336(s0)
80005f04:	eb442883          	lw	a7,-332(s0)
80005f08:	00058e93          	mv	t4,a1
80005f0c:	e7442583          	lw	a1,-396(s0)
80005f10:	ec042703          	lw	a4,-320(s0)
80005f14:	ebc42783          	lw	a5,-324(s0)
80005f18:	00b48a33          	add	s4,s1,a1
80005f1c:	00050f13          	mv	t5,a0
80005f20:	00080613          	mv	a2,a6
80005f24:	00088693          	mv	a3,a7
80005f28:	00090513          	mv	a0,s2
80005f2c:	00098593          	mv	a1,s3
80005f30:	efe42423          	sw	t5,-280(s0)
80005f34:	efd42023          	sw	t4,-288(s0)
80005f38:	4e4070ef          	jal	ra,8000d41c <fma>
80005f3c:	fb842783          	lw	a5,-72(s0)
80005f40:	000a2803          	lw	a6,0(s4)
80005f44:	004a2883          	lw	a7,4(s4)
80005f48:	0087a903          	lw	s2,8(a5)
80005f4c:	00c7a983          	lw	s3,12(a5)
80005f50:	e9842303          	lw	t1,-360(s0)
80005f54:	e9c42e03          	lw	t3,-356(s0)
80005f58:	00050f13          	mv	t5,a0
80005f5c:	00058e93          	mv	t4,a1
80005f60:	00080613          	mv	a2,a6
80005f64:	00088693          	mv	a3,a7
80005f68:	ed042823          	sw	a6,-304(s0)
80005f6c:	00030713          	mv	a4,t1
80005f70:	000e0793          	mv	a5,t3
80005f74:	00090513          	mv	a0,s2
80005f78:	00098593          	mv	a1,s3
80005f7c:	ed142a23          	sw	a7,-300(s0)
80005f80:	ebe42823          	sw	t5,-336(s0)
80005f84:	ebd42e23          	sw	t4,-324(s0)
80005f88:	494070ef          	jal	ra,8000d41c <fma>
80005f8c:	ea042f83          	lw	t6,-352(s0)
80005f90:	ea842283          	lw	t0,-344(s0)
80005f94:	008a2d03          	lw	s10,8(s4)
80005f98:	00ca2d83          	lw	s11,12(s4)
80005f9c:	000f8713          	mv	a4,t6
80005fa0:	00028793          	mv	a5,t0
80005fa4:	00050e13          	mv	t3,a0
80005fa8:	00058313          	mv	t1,a1
80005fac:	000d0613          	mv	a2,s10
80005fb0:	000d8693          	mv	a3,s11
80005fb4:	00090513          	mv	a0,s2
80005fb8:	00098593          	mv	a1,s3
80005fbc:	edc42023          	sw	t3,-320(s0)
80005fc0:	ec642c23          	sw	t1,-296(s0)
80005fc4:	458070ef          	jal	ra,8000d41c <fma>
80005fc8:	eb842383          	lw	t2,-328(s0)
80005fcc:	010a2c03          	lw	s8,16(s4)
80005fd0:	014a2c83          	lw	s9,20(s4)
80005fd4:	f9842783          	lw	a5,-104(s0)
80005fd8:	00038713          	mv	a4,t2
80005fdc:	00050e13          	mv	t3,a0
80005fe0:	00058313          	mv	t1,a1
80005fe4:	000c0613          	mv	a2,s8
80005fe8:	000c8693          	mv	a3,s9
80005fec:	00090513          	mv	a0,s2
80005ff0:	00098593          	mv	a1,s3
80005ff4:	edc42423          	sw	t3,-312(s0)
80005ff8:	f8642c23          	sw	t1,-104(s0)
80005ffc:	420070ef          	jal	ra,8000d41c <fma>
80006000:	018a2b03          	lw	s6,24(s4)
80006004:	01ca2b83          	lw	s7,28(s4)
80006008:	f9442703          	lw	a4,-108(s0)
8000600c:	f8842783          	lw	a5,-120(s0)
80006010:	00050e13          	mv	t3,a0
80006014:	00058313          	mv	t1,a1
80006018:	000b0613          	mv	a2,s6
8000601c:	000b8693          	mv	a3,s7
80006020:	00090513          	mv	a0,s2
80006024:	00098593          	mv	a1,s3
80006028:	f9c42a23          	sw	t3,-108(s0)
8000602c:	f8642423          	sw	t1,-120(s0)
80006030:	3ec070ef          	jal	ra,8000d41c <fma>
80006034:	024a2a83          	lw	s5,36(s4)
80006038:	020a2a03          	lw	s4,32(s4)
8000603c:	f9042703          	lw	a4,-112(s0)
80006040:	f7842783          	lw	a5,-136(s0)
80006044:	00050e13          	mv	t3,a0
80006048:	00058313          	mv	t1,a1
8000604c:	000a0613          	mv	a2,s4
80006050:	000a8693          	mv	a3,s5
80006054:	00090513          	mv	a0,s2
80006058:	00098593          	mv	a1,s3
8000605c:	f9c42823          	sw	t3,-112(s0)
80006060:	f6642c23          	sw	t1,-136(s0)
80006064:	3b8070ef          	jal	ra,8000d41c <fma>
80006068:	fa042703          	lw	a4,-96(s0)
8000606c:	ed042803          	lw	a6,-304(s0)
80006070:	ed442883          	lw	a7,-300(s0)
80006074:	00872903          	lw	s2,8(a4)
80006078:	00c72983          	lw	s3,12(a4)
8000607c:	f5c42783          	lw	a5,-164(s0)
80006080:	f6042703          	lw	a4,-160(s0)
80006084:	00080613          	mv	a2,a6
80006088:	00088693          	mv	a3,a7
8000608c:	00050e13          	mv	t3,a0
80006090:	00058313          	mv	t1,a1
80006094:	00090513          	mv	a0,s2
80006098:	00098593          	mv	a1,s3
8000609c:	f7c42023          	sw	t3,-160(s0)
800060a0:	f4642e23          	sw	t1,-164(s0)
800060a4:	378070ef          	jal	ra,8000d41c <fma>
800060a8:	f8042703          	lw	a4,-128(s0)
800060ac:	f7c42783          	lw	a5,-132(s0)
800060b0:	00050e13          	mv	t3,a0
800060b4:	00058313          	mv	t1,a1
800060b8:	000d0613          	mv	a2,s10
800060bc:	000d8693          	mv	a3,s11
800060c0:	f9c42023          	sw	t3,-128(s0)
800060c4:	00090513          	mv	a0,s2
800060c8:	00098593          	mv	a1,s3
800060cc:	f6642e23          	sw	t1,-132(s0)
800060d0:	34c070ef          	jal	ra,8000d41c <fma>
800060d4:	f7042703          	lw	a4,-144(s0)
800060d8:	f6842783          	lw	a5,-152(s0)
800060dc:	00050e13          	mv	t3,a0
800060e0:	00058313          	mv	t1,a1
800060e4:	000c0613          	mv	a2,s8
800060e8:	000c8693          	mv	a3,s9
800060ec:	00090513          	mv	a0,s2
800060f0:	00098593          	mv	a1,s3
800060f4:	f7c42823          	sw	t3,-144(s0)
800060f8:	f6642423          	sw	t1,-152(s0)
800060fc:	320070ef          	jal	ra,8000d41c <fma>
80006100:	f5042703          	lw	a4,-176(s0)
80006104:	f5842783          	lw	a5,-168(s0)
80006108:	00050e13          	mv	t3,a0
8000610c:	00058313          	mv	t1,a1
80006110:	000b0613          	mv	a2,s6
80006114:	000b8693          	mv	a3,s7
80006118:	00090513          	mv	a0,s2
8000611c:	00098593          	mv	a1,s3
80006120:	f5c42823          	sw	t3,-176(s0)
80006124:	f4642c23          	sw	t1,-168(s0)
80006128:	2f4070ef          	jal	ra,8000d41c <fma>
8000612c:	f4842703          	lw	a4,-184(s0)
80006130:	f4442783          	lw	a5,-188(s0)
80006134:	00050e13          	mv	t3,a0
80006138:	00058313          	mv	t1,a1
8000613c:	000a0613          	mv	a2,s4
80006140:	000a8693          	mv	a3,s5
80006144:	00090513          	mv	a0,s2
80006148:	00098593          	mv	a1,s3
8000614c:	f5c42423          	sw	t3,-184(s0)
80006150:	f4642223          	sw	t1,-188(s0)
80006154:	2c8070ef          	jal	ra,8000d41c <fma>
80006158:	fa842683          	lw	a3,-88(s0)
8000615c:	ed042803          	lw	a6,-304(s0)
80006160:	ed442883          	lw	a7,-300(s0)
80006164:	0086a903          	lw	s2,8(a3)
80006168:	00c6a983          	lw	s3,12(a3)
8000616c:	f3842703          	lw	a4,-200(s0)
80006170:	f4042783          	lw	a5,-192(s0)
80006174:	00080613          	mv	a2,a6
80006178:	00088693          	mv	a3,a7
8000617c:	00050e13          	mv	t3,a0
80006180:	00058313          	mv	t1,a1
80006184:	00090513          	mv	a0,s2
80006188:	00098593          	mv	a1,s3
8000618c:	f3c42c23          	sw	t3,-200(s0)
80006190:	f4642023          	sw	t1,-192(s0)
80006194:	288070ef          	jal	ra,8000d41c <fma>
80006198:	f3442703          	lw	a4,-204(s0)
8000619c:	f3042783          	lw	a5,-208(s0)
800061a0:	00050e13          	mv	t3,a0
800061a4:	00058313          	mv	t1,a1
800061a8:	000d0613          	mv	a2,s10
800061ac:	000d8693          	mv	a3,s11
800061b0:	00090513          	mv	a0,s2
800061b4:	00098593          	mv	a1,s3
800061b8:	f3c42a23          	sw	t3,-204(s0)
800061bc:	f2642823          	sw	t1,-208(s0)
800061c0:	25c070ef          	jal	ra,8000d41c <fma>
800061c4:	f2c42703          	lw	a4,-212(s0)
800061c8:	f2842783          	lw	a5,-216(s0)
800061cc:	00050e13          	mv	t3,a0
800061d0:	00058313          	mv	t1,a1
800061d4:	000c0613          	mv	a2,s8
800061d8:	000c8693          	mv	a3,s9
800061dc:	00090513          	mv	a0,s2
800061e0:	00098593          	mv	a1,s3
800061e4:	f3c42623          	sw	t3,-212(s0)
800061e8:	f2642423          	sw	t1,-216(s0)
800061ec:	230070ef          	jal	ra,8000d41c <fma>
800061f0:	f2442703          	lw	a4,-220(s0)
800061f4:	f2042783          	lw	a5,-224(s0)
800061f8:	00050e13          	mv	t3,a0
800061fc:	00058313          	mv	t1,a1
80006200:	000b0613          	mv	a2,s6
80006204:	000b8693          	mv	a3,s7
80006208:	00090513          	mv	a0,s2
8000620c:	00098593          	mv	a1,s3
80006210:	f3c42223          	sw	t3,-220(s0)
80006214:	f2642023          	sw	t1,-224(s0)
80006218:	204070ef          	jal	ra,8000d41c <fma>
8000621c:	f1c42703          	lw	a4,-228(s0)
80006220:	f1842783          	lw	a5,-232(s0)
80006224:	00050e13          	mv	t3,a0
80006228:	00058313          	mv	t1,a1
8000622c:	000a0613          	mv	a2,s4
80006230:	000a8693          	mv	a3,s5
80006234:	00090513          	mv	a0,s2
80006238:	00098593          	mv	a1,s3
8000623c:	f1c42e23          	sw	t3,-228(s0)
80006240:	f0642c23          	sw	t1,-232(s0)
80006244:	1d8070ef          	jal	ra,8000d41c <fma>
80006248:	fb042603          	lw	a2,-80(s0)
8000624c:	00058313          	mv	t1,a1
80006250:	00050e13          	mv	t3,a0
80006254:	00862903          	lw	s2,8(a2)
80006258:	00c62983          	lw	s3,12(a2)
8000625c:	ed042803          	lw	a6,-304(s0)
80006260:	ed442883          	lw	a7,-300(s0)
80006264:	f1442703          	lw	a4,-236(s0)
80006268:	f0842783          	lw	a5,-248(s0)
8000626c:	00080613          	mv	a2,a6
80006270:	00088693          	mv	a3,a7
80006274:	00090513          	mv	a0,s2
80006278:	00098593          	mv	a1,s3
8000627c:	f0642423          	sw	t1,-248(s0)
80006280:	f1c42a23          	sw	t3,-236(s0)
80006284:	198070ef          	jal	ra,8000d41c <fma>
80006288:	f1042703          	lw	a4,-240(s0)
8000628c:	f0042783          	lw	a5,-256(s0)
80006290:	00050893          	mv	a7,a0
80006294:	00058813          	mv	a6,a1
80006298:	000d0613          	mv	a2,s10
8000629c:	000d8693          	mv	a3,s11
800062a0:	00090513          	mv	a0,s2
800062a4:	00098593          	mv	a1,s3
800062a8:	f1142823          	sw	a7,-240(s0)
800062ac:	f1042023          	sw	a6,-256(s0)
800062b0:	16c070ef          	jal	ra,8000d41c <fma>
800062b4:	ef842703          	lw	a4,-264(s0)
800062b8:	ef042783          	lw	a5,-272(s0)
800062bc:	00050893          	mv	a7,a0
800062c0:	00058813          	mv	a6,a1
800062c4:	000c0613          	mv	a2,s8
800062c8:	000c8693          	mv	a3,s9
800062cc:	00090513          	mv	a0,s2
800062d0:	00098593          	mv	a1,s3
800062d4:	ef142c23          	sw	a7,-264(s0)
800062d8:	ef042823          	sw	a6,-272(s0)
800062dc:	140070ef          	jal	ra,8000d41c <fma>
800062e0:	ee842703          	lw	a4,-280(s0)
800062e4:	ee042783          	lw	a5,-288(s0)
800062e8:	00050893          	mv	a7,a0
800062ec:	00058813          	mv	a6,a1
800062f0:	000b0613          	mv	a2,s6
800062f4:	000b8693          	mv	a3,s7
800062f8:	00090513          	mv	a0,s2
800062fc:	00098593          	mv	a1,s3
80006300:	ef142423          	sw	a7,-280(s0)
80006304:	ef042023          	sw	a6,-288(s0)
80006308:	114070ef          	jal	ra,8000d41c <fma>
8000630c:	eb042f03          	lw	t5,-336(s0)
80006310:	ebc42e83          	lw	t4,-324(s0)
80006314:	00058813          	mv	a6,a1
80006318:	e6442583          	lw	a1,-412(s0)
8000631c:	000f0713          	mv	a4,t5
80006320:	000e8793          	mv	a5,t4
80006324:	00958b33          	add	s6,a1,s1
80006328:	00050893          	mv	a7,a0
8000632c:	000a0613          	mv	a2,s4
80006330:	000a8693          	mv	a3,s5
80006334:	00090513          	mv	a0,s2
80006338:	00098593          	mv	a1,s3
8000633c:	eb142823          	sw	a7,-336(s0)
80006340:	ed042823          	sw	a6,-304(s0)
80006344:	0d8070ef          	jal	ra,8000d41c <fma>
80006348:	fb842783          	lw	a5,-72(s0)
8000634c:	ec042f83          	lw	t6,-320(s0)
80006350:	000b2803          	lw	a6,0(s6)
80006354:	004b2883          	lw	a7,4(s6)
80006358:	0107a903          	lw	s2,16(a5)
8000635c:	0147a983          	lw	s3,20(a5)
80006360:	ed842783          	lw	a5,-296(s0)
80006364:	00058293          	mv	t0,a1
80006368:	000f8713          	mv	a4,t6
8000636c:	00080613          	mv	a2,a6
80006370:	00088693          	mv	a3,a7
80006374:	00050e13          	mv	t3,a0
80006378:	00098593          	mv	a1,s3
8000637c:	00090513          	mv	a0,s2
80006380:	ea542e23          	sw	t0,-324(s0)
80006384:	ed042023          	sw	a6,-320(s0)
80006388:	ed142223          	sw	a7,-316(s0)
8000638c:	edc42c23          	sw	t3,-296(s0)
80006390:	08c070ef          	jal	ra,8000d41c <fma>
80006394:	ec842383          	lw	t2,-312(s0)
80006398:	008b2d03          	lw	s10,8(s6)
8000639c:	00cb2d83          	lw	s11,12(s6)
800063a0:	f9842783          	lw	a5,-104(s0)
800063a4:	00050e13          	mv	t3,a0
800063a8:	00038713          	mv	a4,t2
800063ac:	00058313          	mv	t1,a1
800063b0:	000d0613          	mv	a2,s10
800063b4:	000d8693          	mv	a3,s11
800063b8:	f9c42c23          	sw	t3,-104(s0)
800063bc:	00090513          	mv	a0,s2
800063c0:	00098593          	mv	a1,s3
800063c4:	ec642423          	sw	t1,-312(s0)
800063c8:	054070ef          	jal	ra,8000d41c <fma>
800063cc:	010b2c03          	lw	s8,16(s6)
800063d0:	014b2c83          	lw	s9,20(s6)
800063d4:	f9442703          	lw	a4,-108(s0)
800063d8:	f8842783          	lw	a5,-120(s0)
800063dc:	00050e13          	mv	t3,a0
800063e0:	00058313          	mv	t1,a1
800063e4:	000c0613          	mv	a2,s8
800063e8:	000c8693          	mv	a3,s9
800063ec:	00090513          	mv	a0,s2
800063f0:	00098593          	mv	a1,s3
800063f4:	f9c42a23          	sw	t3,-108(s0)
800063f8:	f8642423          	sw	t1,-120(s0)
800063fc:	020070ef          	jal	ra,8000d41c <fma>
80006400:	018b2a03          	lw	s4,24(s6)
80006404:	01cb2a83          	lw	s5,28(s6)
80006408:	f9042703          	lw	a4,-112(s0)
8000640c:	f7842783          	lw	a5,-136(s0)
80006410:	00050e13          	mv	t3,a0
80006414:	00058313          	mv	t1,a1
80006418:	000a0613          	mv	a2,s4
8000641c:	000a8693          	mv	a3,s5
80006420:	00090513          	mv	a0,s2
80006424:	00098593          	mv	a1,s3
80006428:	f9c42823          	sw	t3,-112(s0)
8000642c:	f6642c23          	sw	t1,-136(s0)
80006430:	7ed060ef          	jal	ra,8000d41c <fma>
80006434:	024b2b83          	lw	s7,36(s6)
80006438:	020b2b03          	lw	s6,32(s6)
8000643c:	f6042703          	lw	a4,-160(s0)
80006440:	f5c42783          	lw	a5,-164(s0)
80006444:	00050e13          	mv	t3,a0
80006448:	00058313          	mv	t1,a1
8000644c:	000b0613          	mv	a2,s6
80006450:	000b8693          	mv	a3,s7
80006454:	00090513          	mv	a0,s2
80006458:	00098593          	mv	a1,s3
8000645c:	f7c42023          	sw	t3,-160(s0)
80006460:	f4642e23          	sw	t1,-164(s0)
80006464:	7b9060ef          	jal	ra,8000d41c <fma>
80006468:	fa042703          	lw	a4,-96(s0)
8000646c:	ec042803          	lw	a6,-320(s0)
80006470:	ec442883          	lw	a7,-316(s0)
80006474:	01072903          	lw	s2,16(a4)
80006478:	01472983          	lw	s3,20(a4)
8000647c:	f7c42783          	lw	a5,-132(s0)
80006480:	f8042703          	lw	a4,-128(s0)
80006484:	00080613          	mv	a2,a6
80006488:	00088693          	mv	a3,a7
8000648c:	00050e13          	mv	t3,a0
80006490:	00058313          	mv	t1,a1
80006494:	00090513          	mv	a0,s2
80006498:	00098593          	mv	a1,s3
8000649c:	f9c42023          	sw	t3,-128(s0)
800064a0:	f6642e23          	sw	t1,-132(s0)
800064a4:	779060ef          	jal	ra,8000d41c <fma>
800064a8:	f7042703          	lw	a4,-144(s0)
800064ac:	f6842783          	lw	a5,-152(s0)
800064b0:	00050e13          	mv	t3,a0
800064b4:	00058313          	mv	t1,a1
800064b8:	000d0613          	mv	a2,s10
800064bc:	000d8693          	mv	a3,s11
800064c0:	00090513          	mv	a0,s2
800064c4:	00098593          	mv	a1,s3
800064c8:	f7c42823          	sw	t3,-144(s0)
800064cc:	f6642423          	sw	t1,-152(s0)
800064d0:	74d060ef          	jal	ra,8000d41c <fma>
800064d4:	f5042703          	lw	a4,-176(s0)
800064d8:	f5842783          	lw	a5,-168(s0)
800064dc:	00050e13          	mv	t3,a0
800064e0:	00058313          	mv	t1,a1
800064e4:	000c0613          	mv	a2,s8
800064e8:	000c8693          	mv	a3,s9
800064ec:	00090513          	mv	a0,s2
800064f0:	00098593          	mv	a1,s3
800064f4:	f5c42823          	sw	t3,-176(s0)
800064f8:	f4642c23          	sw	t1,-168(s0)
800064fc:	721060ef          	jal	ra,8000d41c <fma>
80006500:	f4842703          	lw	a4,-184(s0)
80006504:	f4442783          	lw	a5,-188(s0)
80006508:	00050e13          	mv	t3,a0
8000650c:	00058313          	mv	t1,a1
80006510:	000a0613          	mv	a2,s4
80006514:	000a8693          	mv	a3,s5
80006518:	00090513          	mv	a0,s2
8000651c:	00098593          	mv	a1,s3
80006520:	f5c42423          	sw	t3,-184(s0)
80006524:	f4642223          	sw	t1,-188(s0)
80006528:	6f5060ef          	jal	ra,8000d41c <fma>
8000652c:	f3842703          	lw	a4,-200(s0)
80006530:	f4042783          	lw	a5,-192(s0)
80006534:	00050e13          	mv	t3,a0
80006538:	00058313          	mv	t1,a1
8000653c:	000b0613          	mv	a2,s6
80006540:	000b8693          	mv	a3,s7
80006544:	00090513          	mv	a0,s2
80006548:	00098593          	mv	a1,s3
8000654c:	f3c42c23          	sw	t3,-200(s0)
80006550:	f4642023          	sw	t1,-192(s0)
80006554:	6c9060ef          	jal	ra,8000d41c <fma>
80006558:	fa842683          	lw	a3,-88(s0)
8000655c:	ec042803          	lw	a6,-320(s0)
80006560:	ec442883          	lw	a7,-316(s0)
80006564:	0106a903          	lw	s2,16(a3)
80006568:	0146a983          	lw	s3,20(a3)
8000656c:	f3442703          	lw	a4,-204(s0)
80006570:	f3042783          	lw	a5,-208(s0)
80006574:	00080613          	mv	a2,a6
80006578:	00088693          	mv	a3,a7
8000657c:	00050e13          	mv	t3,a0
80006580:	00058313          	mv	t1,a1
80006584:	00090513          	mv	a0,s2
80006588:	00098593          	mv	a1,s3
8000658c:	f3c42a23          	sw	t3,-204(s0)
80006590:	f2642823          	sw	t1,-208(s0)
80006594:	689060ef          	jal	ra,8000d41c <fma>
80006598:	f2c42703          	lw	a4,-212(s0)
8000659c:	f2842783          	lw	a5,-216(s0)
800065a0:	00050e13          	mv	t3,a0
800065a4:	00058313          	mv	t1,a1
800065a8:	000d0613          	mv	a2,s10
800065ac:	000d8693          	mv	a3,s11
800065b0:	00090513          	mv	a0,s2
800065b4:	00098593          	mv	a1,s3
800065b8:	f3c42623          	sw	t3,-212(s0)
800065bc:	f2642423          	sw	t1,-216(s0)
800065c0:	65d060ef          	jal	ra,8000d41c <fma>
800065c4:	f2442703          	lw	a4,-220(s0)
800065c8:	f2042783          	lw	a5,-224(s0)
800065cc:	00050e13          	mv	t3,a0
800065d0:	00058313          	mv	t1,a1
800065d4:	000c0613          	mv	a2,s8
800065d8:	000c8693          	mv	a3,s9
800065dc:	00090513          	mv	a0,s2
800065e0:	00098593          	mv	a1,s3
800065e4:	f3c42223          	sw	t3,-220(s0)
800065e8:	f2642023          	sw	t1,-224(s0)
800065ec:	631060ef          	jal	ra,8000d41c <fma>
800065f0:	f1c42703          	lw	a4,-228(s0)
800065f4:	f1842783          	lw	a5,-232(s0)
800065f8:	00050e13          	mv	t3,a0
800065fc:	00058313          	mv	t1,a1
80006600:	000a0613          	mv	a2,s4
80006604:	000a8693          	mv	a3,s5
80006608:	00090513          	mv	a0,s2
8000660c:	00098593          	mv	a1,s3
80006610:	f1c42e23          	sw	t3,-228(s0)
80006614:	f0642c23          	sw	t1,-232(s0)
80006618:	605060ef          	jal	ra,8000d41c <fma>
8000661c:	f1442703          	lw	a4,-236(s0)
80006620:	f0842783          	lw	a5,-248(s0)
80006624:	00050e13          	mv	t3,a0
80006628:	00058313          	mv	t1,a1
8000662c:	000b0613          	mv	a2,s6
80006630:	000b8693          	mv	a3,s7
80006634:	00090513          	mv	a0,s2
80006638:	00098593          	mv	a1,s3
8000663c:	f1c42a23          	sw	t3,-236(s0)
80006640:	f0642423          	sw	t1,-248(s0)
80006644:	5d9060ef          	jal	ra,8000d41c <fma>
80006648:	fb042603          	lw	a2,-80(s0)
8000664c:	ec042803          	lw	a6,-320(s0)
80006650:	ec442883          	lw	a7,-316(s0)
80006654:	01062903          	lw	s2,16(a2)
80006658:	01462983          	lw	s3,20(a2)
8000665c:	f1042703          	lw	a4,-240(s0)
80006660:	f0042783          	lw	a5,-256(s0)
80006664:	00050e13          	mv	t3,a0
80006668:	00058313          	mv	t1,a1
8000666c:	f1c42823          	sw	t3,-240(s0)
80006670:	00080613          	mv	a2,a6
80006674:	00088693          	mv	a3,a7
80006678:	00090513          	mv	a0,s2
8000667c:	00098593          	mv	a1,s3
80006680:	f0642023          	sw	t1,-256(s0)
80006684:	599060ef          	jal	ra,8000d41c <fma>
80006688:	ef842703          	lw	a4,-264(s0)
8000668c:	ef042783          	lw	a5,-272(s0)
80006690:	00050893          	mv	a7,a0
80006694:	00058813          	mv	a6,a1
80006698:	000d0613          	mv	a2,s10
8000669c:	000d8693          	mv	a3,s11
800066a0:	00090513          	mv	a0,s2
800066a4:	00098593          	mv	a1,s3
800066a8:	ef142c23          	sw	a7,-264(s0)
800066ac:	ef042823          	sw	a6,-272(s0)
800066b0:	56d060ef          	jal	ra,8000d41c <fma>
800066b4:	ee842703          	lw	a4,-280(s0)
800066b8:	ee042783          	lw	a5,-288(s0)
800066bc:	00058813          	mv	a6,a1
800066c0:	00050893          	mv	a7,a0
800066c4:	000c0613          	mv	a2,s8
800066c8:	000c8693          	mv	a3,s9
800066cc:	00090513          	mv	a0,s2
800066d0:	00098593          	mv	a1,s3
800066d4:	ef042023          	sw	a6,-288(s0)
800066d8:	ef142423          	sw	a7,-280(s0)
800066dc:	541060ef          	jal	ra,8000d41c <fma>
800066e0:	eb042e83          	lw	t4,-336(s0)
800066e4:	ed042783          	lw	a5,-304(s0)
800066e8:	00058f13          	mv	t5,a1
800066ec:	000e8713          	mv	a4,t4
800066f0:	00050893          	mv	a7,a0
800066f4:	000a0613          	mv	a2,s4
800066f8:	000a8693          	mv	a3,s5
800066fc:	00090513          	mv	a0,s2
80006700:	00098593          	mv	a1,s3
80006704:	ebe42823          	sw	t5,-336(s0)
80006708:	ed142823          	sw	a7,-304(s0)
8000670c:	511060ef          	jal	ra,8000d41c <fma>
80006710:	ebc42283          	lw	t0,-324(s0)
80006714:	00058813          	mv	a6,a1
80006718:	e5c42583          	lw	a1,-420(s0)
8000671c:	ed842703          	lw	a4,-296(s0)
80006720:	00050f93          	mv	t6,a0
80006724:	00028793          	mv	a5,t0
80006728:	00b48a33          	add	s4,s1,a1
8000672c:	000b0613          	mv	a2,s6
80006730:	000b8693          	mv	a3,s7
80006734:	00090513          	mv	a0,s2
80006738:	00098593          	mv	a1,s3
8000673c:	ebf42e23          	sw	t6,-324(s0)
80006740:	ed042c23          	sw	a6,-296(s0)
80006744:	4d9060ef          	jal	ra,8000d41c <fma>
80006748:	fb842783          	lw	a5,-72(s0)
8000674c:	000a2803          	lw	a6,0(s4)
80006750:	004a2883          	lw	a7,4(s4)
80006754:	0187a903          	lw	s2,24(a5)
80006758:	01c7a983          	lw	s3,28(a5)
8000675c:	f9842703          	lw	a4,-104(s0)
80006760:	ec842783          	lw	a5,-312(s0)
80006764:	00050393          	mv	t2,a0
80006768:	00080613          	mv	a2,a6
8000676c:	00088693          	mv	a3,a7
80006770:	00058313          	mv	t1,a1
80006774:	00090513          	mv	a0,s2
80006778:	00098593          	mv	a1,s3
8000677c:	ec742023          	sw	t2,-320(s0)
80006780:	ed042423          	sw	a6,-312(s0)
80006784:	ed142623          	sw	a7,-308(s0)
80006788:	f8642c23          	sw	t1,-104(s0)
8000678c:	491060ef          	jal	ra,8000d41c <fma>
80006790:	008a2d03          	lw	s10,8(s4)
80006794:	00ca2d83          	lw	s11,12(s4)
80006798:	f9442703          	lw	a4,-108(s0)
8000679c:	f8842783          	lw	a5,-120(s0)
800067a0:	00050e13          	mv	t3,a0
800067a4:	00058313          	mv	t1,a1
800067a8:	000d0613          	mv	a2,s10
800067ac:	000d8693          	mv	a3,s11
800067b0:	00090513          	mv	a0,s2
800067b4:	00098593          	mv	a1,s3
800067b8:	f9c42a23          	sw	t3,-108(s0)
800067bc:	f8642423          	sw	t1,-120(s0)
800067c0:	45d060ef          	jal	ra,8000d41c <fma>
800067c4:	010a2c03          	lw	s8,16(s4)
800067c8:	014a2c83          	lw	s9,20(s4)
800067cc:	f9042703          	lw	a4,-112(s0)
800067d0:	f7842783          	lw	a5,-136(s0)
800067d4:	00050e13          	mv	t3,a0
800067d8:	00058313          	mv	t1,a1
800067dc:	000c0613          	mv	a2,s8
800067e0:	000c8693          	mv	a3,s9
800067e4:	f9c42823          	sw	t3,-112(s0)
800067e8:	00090513          	mv	a0,s2
800067ec:	00098593          	mv	a1,s3
800067f0:	f6642c23          	sw	t1,-136(s0)
800067f4:	429060ef          	jal	ra,8000d41c <fma>
800067f8:	018a2b03          	lw	s6,24(s4)
800067fc:	01ca2b83          	lw	s7,28(s4)
80006800:	f6042703          	lw	a4,-160(s0)
80006804:	f5c42783          	lw	a5,-164(s0)
80006808:	00050e13          	mv	t3,a0
8000680c:	00058313          	mv	t1,a1
80006810:	000b0613          	mv	a2,s6
80006814:	000b8693          	mv	a3,s7
80006818:	00090513          	mv	a0,s2
8000681c:	00098593          	mv	a1,s3
80006820:	f7c42023          	sw	t3,-160(s0)
80006824:	f4642e23          	sw	t1,-164(s0)
80006828:	3f5060ef          	jal	ra,8000d41c <fma>
8000682c:	024a2a83          	lw	s5,36(s4)
80006830:	020a2a03          	lw	s4,32(s4)
80006834:	f8042703          	lw	a4,-128(s0)
80006838:	f7c42783          	lw	a5,-132(s0)
8000683c:	00050e13          	mv	t3,a0
80006840:	00058313          	mv	t1,a1
80006844:	000a0613          	mv	a2,s4
80006848:	000a8693          	mv	a3,s5
8000684c:	00090513          	mv	a0,s2
80006850:	00098593          	mv	a1,s3
80006854:	f9c42023          	sw	t3,-128(s0)
80006858:	f6642e23          	sw	t1,-132(s0)
8000685c:	3c1060ef          	jal	ra,8000d41c <fma>
80006860:	fa042703          	lw	a4,-96(s0)
80006864:	ec842803          	lw	a6,-312(s0)
80006868:	ecc42883          	lw	a7,-308(s0)
8000686c:	01872903          	lw	s2,24(a4)
80006870:	01c72983          	lw	s3,28(a4)
80006874:	f6842783          	lw	a5,-152(s0)
80006878:	f7042703          	lw	a4,-144(s0)
8000687c:	00080613          	mv	a2,a6
80006880:	00088693          	mv	a3,a7
80006884:	00050e13          	mv	t3,a0
80006888:	00058313          	mv	t1,a1
8000688c:	00090513          	mv	a0,s2
80006890:	00098593          	mv	a1,s3
80006894:	f7c42823          	sw	t3,-144(s0)
80006898:	f6642423          	sw	t1,-152(s0)
8000689c:	381060ef          	jal	ra,8000d41c <fma>
800068a0:	f5042703          	lw	a4,-176(s0)
800068a4:	f5842783          	lw	a5,-168(s0)
800068a8:	00050e13          	mv	t3,a0
800068ac:	00058313          	mv	t1,a1
800068b0:	000d0613          	mv	a2,s10
800068b4:	000d8693          	mv	a3,s11
800068b8:	00090513          	mv	a0,s2
800068bc:	00098593          	mv	a1,s3
800068c0:	f5c42823          	sw	t3,-176(s0)
800068c4:	f4642c23          	sw	t1,-168(s0)
800068c8:	355060ef          	jal	ra,8000d41c <fma>
800068cc:	f4842703          	lw	a4,-184(s0)
800068d0:	f4442783          	lw	a5,-188(s0)
800068d4:	00050e13          	mv	t3,a0
800068d8:	00058313          	mv	t1,a1
800068dc:	000c0613          	mv	a2,s8
800068e0:	000c8693          	mv	a3,s9
800068e4:	00090513          	mv	a0,s2
800068e8:	00098593          	mv	a1,s3
800068ec:	f5c42423          	sw	t3,-184(s0)
800068f0:	f4642223          	sw	t1,-188(s0)
800068f4:	329060ef          	jal	ra,8000d41c <fma>
800068f8:	f3842703          	lw	a4,-200(s0)
800068fc:	f4042783          	lw	a5,-192(s0)
80006900:	00050e13          	mv	t3,a0
80006904:	00058313          	mv	t1,a1
80006908:	000b0613          	mv	a2,s6
8000690c:	000b8693          	mv	a3,s7
80006910:	00090513          	mv	a0,s2
80006914:	00098593          	mv	a1,s3
80006918:	f3c42c23          	sw	t3,-200(s0)
8000691c:	f4642023          	sw	t1,-192(s0)
80006920:	2fd060ef          	jal	ra,8000d41c <fma>
80006924:	f3442703          	lw	a4,-204(s0)
80006928:	f3042783          	lw	a5,-208(s0)
8000692c:	00050e13          	mv	t3,a0
80006930:	00058313          	mv	t1,a1
80006934:	000a0613          	mv	a2,s4
80006938:	000a8693          	mv	a3,s5
8000693c:	00090513          	mv	a0,s2
80006940:	00098593          	mv	a1,s3
80006944:	f3c42a23          	sw	t3,-204(s0)
80006948:	f2642823          	sw	t1,-208(s0)
8000694c:	2d1060ef          	jal	ra,8000d41c <fma>
80006950:	fa842683          	lw	a3,-88(s0)
80006954:	ec842803          	lw	a6,-312(s0)
80006958:	ecc42883          	lw	a7,-308(s0)
8000695c:	0186a903          	lw	s2,24(a3)
80006960:	01c6a983          	lw	s3,28(a3)
80006964:	f2c42703          	lw	a4,-212(s0)
80006968:	f2842783          	lw	a5,-216(s0)
8000696c:	00080613          	mv	a2,a6
80006970:	00088693          	mv	a3,a7
80006974:	00050e13          	mv	t3,a0
80006978:	00058313          	mv	t1,a1
8000697c:	00090513          	mv	a0,s2
80006980:	00098593          	mv	a1,s3
80006984:	f3c42623          	sw	t3,-212(s0)
80006988:	f2642423          	sw	t1,-216(s0)
8000698c:	291060ef          	jal	ra,8000d41c <fma>
80006990:	f2442703          	lw	a4,-220(s0)
80006994:	f2042783          	lw	a5,-224(s0)
80006998:	00050e13          	mv	t3,a0
8000699c:	00058313          	mv	t1,a1
800069a0:	000d0613          	mv	a2,s10
800069a4:	000d8693          	mv	a3,s11
800069a8:	00090513          	mv	a0,s2
800069ac:	00098593          	mv	a1,s3
800069b0:	f3c42223          	sw	t3,-220(s0)
800069b4:	f2642023          	sw	t1,-224(s0)
800069b8:	265060ef          	jal	ra,8000d41c <fma>
800069bc:	f1c42703          	lw	a4,-228(s0)
800069c0:	f1842783          	lw	a5,-232(s0)
800069c4:	00050e13          	mv	t3,a0
800069c8:	00058313          	mv	t1,a1
800069cc:	000c0613          	mv	a2,s8
800069d0:	000c8693          	mv	a3,s9
800069d4:	00090513          	mv	a0,s2
800069d8:	00098593          	mv	a1,s3
800069dc:	f1c42e23          	sw	t3,-228(s0)
800069e0:	f0642c23          	sw	t1,-232(s0)
800069e4:	239060ef          	jal	ra,8000d41c <fma>
800069e8:	f1442703          	lw	a4,-236(s0)
800069ec:	f0842783          	lw	a5,-248(s0)
800069f0:	00050e13          	mv	t3,a0
800069f4:	00058313          	mv	t1,a1
800069f8:	000b0613          	mv	a2,s6
800069fc:	000b8693          	mv	a3,s7
80006a00:	00090513          	mv	a0,s2
80006a04:	00098593          	mv	a1,s3
80006a08:	f1c42a23          	sw	t3,-236(s0)
80006a0c:	f0642423          	sw	t1,-248(s0)
80006a10:	20d060ef          	jal	ra,8000d41c <fma>
80006a14:	f1042703          	lw	a4,-240(s0)
80006a18:	f0042783          	lw	a5,-256(s0)
80006a1c:	00050e13          	mv	t3,a0
80006a20:	00058313          	mv	t1,a1
80006a24:	000a0613          	mv	a2,s4
80006a28:	000a8693          	mv	a3,s5
80006a2c:	00090513          	mv	a0,s2
80006a30:	00098593          	mv	a1,s3
80006a34:	f1c42823          	sw	t3,-240(s0)
80006a38:	f0642023          	sw	t1,-256(s0)
80006a3c:	1e1060ef          	jal	ra,8000d41c <fma>
80006a40:	fb042603          	lw	a2,-80(s0)
80006a44:	ec842803          	lw	a6,-312(s0)
80006a48:	ecc42883          	lw	a7,-308(s0)
80006a4c:	01862903          	lw	s2,24(a2)
80006a50:	01c62983          	lw	s3,28(a2)
80006a54:	ef842703          	lw	a4,-264(s0)
80006a58:	ef042783          	lw	a5,-272(s0)
80006a5c:	00050e13          	mv	t3,a0
80006a60:	00058313          	mv	t1,a1
80006a64:	00080613          	mv	a2,a6
80006a68:	00088693          	mv	a3,a7
80006a6c:	00090513          	mv	a0,s2
80006a70:	00098593          	mv	a1,s3
80006a74:	efc42c23          	sw	t3,-264(s0)
80006a78:	ee642823          	sw	t1,-272(s0)
80006a7c:	1a1060ef          	jal	ra,8000d41c <fma>
80006a80:	ee842703          	lw	a4,-280(s0)
80006a84:	ee042783          	lw	a5,-288(s0)
80006a88:	00050893          	mv	a7,a0
80006a8c:	00058813          	mv	a6,a1
80006a90:	ef142423          	sw	a7,-280(s0)
80006a94:	000d0613          	mv	a2,s10
80006a98:	000d8693          	mv	a3,s11
80006a9c:	00090513          	mv	a0,s2
80006aa0:	00098593          	mv	a1,s3
80006aa4:	ef042023          	sw	a6,-288(s0)
80006aa8:	175060ef          	jal	ra,8000d41c <fma>
80006aac:	eb042f03          	lw	t5,-336(s0)
80006ab0:	ed042703          	lw	a4,-304(s0)
80006ab4:	00050e93          	mv	t4,a0
80006ab8:	000f0793          	mv	a5,t5
80006abc:	00058813          	mv	a6,a1
80006ac0:	000c0613          	mv	a2,s8
80006ac4:	000c8693          	mv	a3,s9
80006ac8:	00090513          	mv	a0,s2
80006acc:	00098593          	mv	a1,s3
80006ad0:	ebd42823          	sw	t4,-336(s0)
80006ad4:	ed042823          	sw	a6,-304(s0)
80006ad8:	145060ef          	jal	ra,8000d41c <fma>
80006adc:	ebc42f83          	lw	t6,-324(s0)
80006ae0:	ed842783          	lw	a5,-296(s0)
80006ae4:	00058293          	mv	t0,a1
80006ae8:	000f8713          	mv	a4,t6
80006aec:	00050893          	mv	a7,a0
80006af0:	000b0613          	mv	a2,s6
80006af4:	000b8693          	mv	a3,s7
80006af8:	00090513          	mv	a0,s2
80006afc:	00098593          	mv	a1,s3
80006b00:	ea542e23          	sw	t0,-324(s0)
80006b04:	ed142c23          	sw	a7,-296(s0)
80006b08:	115060ef          	jal	ra,8000d41c <fma>
80006b0c:	ec042383          	lw	t2,-320(s0)
80006b10:	00058813          	mv	a6,a1
80006b14:	e6042583          	lw	a1,-416(s0)
80006b18:	f9842783          	lw	a5,-104(s0)
80006b1c:	00038713          	mv	a4,t2
80006b20:	00958b33          	add	s6,a1,s1
80006b24:	00050893          	mv	a7,a0
80006b28:	000a0613          	mv	a2,s4
80006b2c:	000a8693          	mv	a3,s5
80006b30:	00090513          	mv	a0,s2
80006b34:	00098593          	mv	a1,s3
80006b38:	f9142c23          	sw	a7,-104(s0)
80006b3c:	ed042423          	sw	a6,-312(s0)
80006b40:	0dd060ef          	jal	ra,8000d41c <fma>
80006b44:	fb842783          	lw	a5,-72(s0)
80006b48:	000b2803          	lw	a6,0(s6)
80006b4c:	004b2883          	lw	a7,4(s6)
80006b50:	0207a903          	lw	s2,32(a5)
80006b54:	0247a983          	lw	s3,36(a5)
80006b58:	f9442703          	lw	a4,-108(s0)
80006b5c:	f8842783          	lw	a5,-120(s0)
80006b60:	00080613          	mv	a2,a6
80006b64:	00088693          	mv	a3,a7
80006b68:	00050e13          	mv	t3,a0
80006b6c:	00058313          	mv	t1,a1
80006b70:	00090513          	mv	a0,s2
80006b74:	00098593          	mv	a1,s3
80006b78:	ed042023          	sw	a6,-320(s0)
80006b7c:	ed142223          	sw	a7,-316(s0)
80006b80:	f9c42a23          	sw	t3,-108(s0)
80006b84:	f8642423          	sw	t1,-120(s0)
80006b88:	095060ef          	jal	ra,8000d41c <fma>
80006b8c:	008b2d03          	lw	s10,8(s6)
80006b90:	00cb2d83          	lw	s11,12(s6)
80006b94:	f9042703          	lw	a4,-112(s0)
80006b98:	f7842783          	lw	a5,-136(s0)
80006b9c:	00050e13          	mv	t3,a0
80006ba0:	00058313          	mv	t1,a1
80006ba4:	000d0613          	mv	a2,s10
80006ba8:	000d8693          	mv	a3,s11
80006bac:	00090513          	mv	a0,s2
80006bb0:	00098593          	mv	a1,s3
80006bb4:	f9c42823          	sw	t3,-112(s0)
80006bb8:	f6642c23          	sw	t1,-136(s0)
80006bbc:	061060ef          	jal	ra,8000d41c <fma>
80006bc0:	010b2c03          	lw	s8,16(s6)
80006bc4:	014b2c83          	lw	s9,20(s6)
80006bc8:	f6042703          	lw	a4,-160(s0)
80006bcc:	f5c42783          	lw	a5,-164(s0)
80006bd0:	00050e13          	mv	t3,a0
80006bd4:	00058313          	mv	t1,a1
80006bd8:	000c0613          	mv	a2,s8
80006bdc:	000c8693          	mv	a3,s9
80006be0:	00090513          	mv	a0,s2
80006be4:	00098593          	mv	a1,s3
80006be8:	f7c42023          	sw	t3,-160(s0)
80006bec:	f4642e23          	sw	t1,-164(s0)
80006bf0:	02d060ef          	jal	ra,8000d41c <fma>
80006bf4:	018b2a03          	lw	s4,24(s6)
80006bf8:	01cb2a83          	lw	s5,28(s6)
80006bfc:	f8042703          	lw	a4,-128(s0)
80006c00:	f7c42783          	lw	a5,-132(s0)
80006c04:	00050e13          	mv	t3,a0
80006c08:	00058313          	mv	t1,a1
80006c0c:	000a0613          	mv	a2,s4
80006c10:	000a8693          	mv	a3,s5
80006c14:	00090513          	mv	a0,s2
80006c18:	00098593          	mv	a1,s3
80006c1c:	f9c42023          	sw	t3,-128(s0)
80006c20:	f6642e23          	sw	t1,-132(s0)
80006c24:	7f8060ef          	jal	ra,8000d41c <fma>
80006c28:	024b2b83          	lw	s7,36(s6)
80006c2c:	020b2b03          	lw	s6,32(s6)
80006c30:	f7042703          	lw	a4,-144(s0)
80006c34:	f6842783          	lw	a5,-152(s0)
80006c38:	00050e13          	mv	t3,a0
80006c3c:	00058313          	mv	t1,a1
80006c40:	000b0613          	mv	a2,s6
80006c44:	000b8693          	mv	a3,s7
80006c48:	00090513          	mv	a0,s2
80006c4c:	00098593          	mv	a1,s3
80006c50:	f7c42823          	sw	t3,-144(s0)
80006c54:	f6642423          	sw	t1,-152(s0)
80006c58:	7c4060ef          	jal	ra,8000d41c <fma>
80006c5c:	fa042703          	lw	a4,-96(s0)
80006c60:	ec442883          	lw	a7,-316(s0)
80006c64:	ec042803          	lw	a6,-320(s0)
80006c68:	02072903          	lw	s2,32(a4)
80006c6c:	02472983          	lw	s3,36(a4)
80006c70:	f5842783          	lw	a5,-168(s0)
80006c74:	f5042703          	lw	a4,-176(s0)
80006c78:	00080613          	mv	a2,a6
80006c7c:	00088693          	mv	a3,a7
80006c80:	00050e13          	mv	t3,a0
80006c84:	00058313          	mv	t1,a1
80006c88:	00090513          	mv	a0,s2
80006c8c:	00098593          	mv	a1,s3
80006c90:	f5c42823          	sw	t3,-176(s0)
80006c94:	f4642c23          	sw	t1,-168(s0)
80006c98:	784060ef          	jal	ra,8000d41c <fma>
80006c9c:	f4842703          	lw	a4,-184(s0)
80006ca0:	f4442783          	lw	a5,-188(s0)
80006ca4:	00050e13          	mv	t3,a0
80006ca8:	00058313          	mv	t1,a1
80006cac:	000d0613          	mv	a2,s10
80006cb0:	000d8693          	mv	a3,s11
80006cb4:	00090513          	mv	a0,s2
80006cb8:	00098593          	mv	a1,s3
80006cbc:	f5c42423          	sw	t3,-184(s0)
80006cc0:	f4642223          	sw	t1,-188(s0)
80006cc4:	758060ef          	jal	ra,8000d41c <fma>
80006cc8:	f3842703          	lw	a4,-200(s0)
80006ccc:	f4042783          	lw	a5,-192(s0)
80006cd0:	00050e13          	mv	t3,a0
80006cd4:	00058313          	mv	t1,a1
80006cd8:	000c0613          	mv	a2,s8
80006cdc:	000c8693          	mv	a3,s9
80006ce0:	00090513          	mv	a0,s2
80006ce4:	00098593          	mv	a1,s3
80006ce8:	f3c42c23          	sw	t3,-200(s0)
80006cec:	f4642023          	sw	t1,-192(s0)
80006cf0:	72c060ef          	jal	ra,8000d41c <fma>
80006cf4:	f3442703          	lw	a4,-204(s0)
80006cf8:	f3042783          	lw	a5,-208(s0)
80006cfc:	00050e13          	mv	t3,a0
80006d00:	00058313          	mv	t1,a1
80006d04:	000a0613          	mv	a2,s4
80006d08:	000a8693          	mv	a3,s5
80006d0c:	00090513          	mv	a0,s2
80006d10:	00098593          	mv	a1,s3
80006d14:	f3c42a23          	sw	t3,-204(s0)
80006d18:	f2642823          	sw	t1,-208(s0)
80006d1c:	700060ef          	jal	ra,8000d41c <fma>
80006d20:	f2c42703          	lw	a4,-212(s0)
80006d24:	f2842783          	lw	a5,-216(s0)
80006d28:	00050e13          	mv	t3,a0
80006d2c:	00058313          	mv	t1,a1
80006d30:	000b0613          	mv	a2,s6
80006d34:	000b8693          	mv	a3,s7
80006d38:	00090513          	mv	a0,s2
80006d3c:	00098593          	mv	a1,s3
80006d40:	f3c42623          	sw	t3,-212(s0)
80006d44:	f2642423          	sw	t1,-216(s0)
80006d48:	6d4060ef          	jal	ra,8000d41c <fma>
80006d4c:	fa842683          	lw	a3,-88(s0)
80006d50:	f2442703          	lw	a4,-220(s0)
80006d54:	f2042783          	lw	a5,-224(s0)
80006d58:	0206a903          	lw	s2,32(a3)
80006d5c:	0246a983          	lw	s3,36(a3)
80006d60:	ec042803          	lw	a6,-320(s0)
80006d64:	ec442883          	lw	a7,-316(s0)
80006d68:	00050e13          	mv	t3,a0
80006d6c:	00080613          	mv	a2,a6
80006d70:	00088693          	mv	a3,a7
80006d74:	00058313          	mv	t1,a1
80006d78:	00090513          	mv	a0,s2
80006d7c:	00098593          	mv	a1,s3
80006d80:	f3c42223          	sw	t3,-220(s0)
80006d84:	f2642023          	sw	t1,-224(s0)
80006d88:	694060ef          	jal	ra,8000d41c <fma>
80006d8c:	f1c42703          	lw	a4,-228(s0)
80006d90:	f1842783          	lw	a5,-232(s0)
80006d94:	00050e13          	mv	t3,a0
80006d98:	00058313          	mv	t1,a1
80006d9c:	000d0613          	mv	a2,s10
80006da0:	000d8693          	mv	a3,s11
80006da4:	00090513          	mv	a0,s2
80006da8:	00098593          	mv	a1,s3
80006dac:	f1c42e23          	sw	t3,-228(s0)
80006db0:	f0642c23          	sw	t1,-232(s0)
80006db4:	668060ef          	jal	ra,8000d41c <fma>
80006db8:	f1442703          	lw	a4,-236(s0)
80006dbc:	f0842783          	lw	a5,-248(s0)
80006dc0:	00050e13          	mv	t3,a0
80006dc4:	00058313          	mv	t1,a1
80006dc8:	000c0613          	mv	a2,s8
80006dcc:	000c8693          	mv	a3,s9
80006dd0:	00090513          	mv	a0,s2
80006dd4:	00098593          	mv	a1,s3
80006dd8:	f1c42a23          	sw	t3,-236(s0)
80006ddc:	f0642423          	sw	t1,-248(s0)
80006de0:	63c060ef          	jal	ra,8000d41c <fma>
80006de4:	f1042703          	lw	a4,-240(s0)
80006de8:	f0042783          	lw	a5,-256(s0)
80006dec:	00050e13          	mv	t3,a0
80006df0:	00058313          	mv	t1,a1
80006df4:	000a0613          	mv	a2,s4
80006df8:	000a8693          	mv	a3,s5
80006dfc:	00090513          	mv	a0,s2
80006e00:	00098593          	mv	a1,s3
80006e04:	f1c42823          	sw	t3,-240(s0)
80006e08:	f0642023          	sw	t1,-256(s0)
80006e0c:	610060ef          	jal	ra,8000d41c <fma>
80006e10:	ef842703          	lw	a4,-264(s0)
80006e14:	ef042783          	lw	a5,-272(s0)
80006e18:	00050e13          	mv	t3,a0
80006e1c:	00058313          	mv	t1,a1
80006e20:	000b0613          	mv	a2,s6
80006e24:	000b8693          	mv	a3,s7
80006e28:	00090513          	mv	a0,s2
80006e2c:	00098593          	mv	a1,s3
80006e30:	efc42c23          	sw	t3,-264(s0)
80006e34:	ee642823          	sw	t1,-272(s0)
80006e38:	5e4060ef          	jal	ra,8000d41c <fma>
80006e3c:	fb042603          	lw	a2,-80(s0)
80006e40:	ec442883          	lw	a7,-316(s0)
80006e44:	ec042803          	lw	a6,-320(s0)
80006e48:	02062903          	lw	s2,32(a2)
80006e4c:	02462983          	lw	s3,36(a2)
80006e50:	ee842703          	lw	a4,-280(s0)
80006e54:	ee042783          	lw	a5,-288(s0)
80006e58:	00050e13          	mv	t3,a0
80006e5c:	00058313          	mv	t1,a1
80006e60:	00088693          	mv	a3,a7
80006e64:	00080613          	mv	a2,a6
80006e68:	00090513          	mv	a0,s2
80006e6c:	00098593          	mv	a1,s3
80006e70:	efc42423          	sw	t3,-280(s0)
80006e74:	ee642023          	sw	t1,-288(s0)
80006e78:	5a4060ef          	jal	ra,8000d41c <fma>
80006e7c:	eb042e83          	lw	t4,-336(s0)
80006e80:	ed042783          	lw	a5,-304(s0)
80006e84:	00050f13          	mv	t5,a0
80006e88:	000e8713          	mv	a4,t4
80006e8c:	00058813          	mv	a6,a1
80006e90:	000d0613          	mv	a2,s10
80006e94:	000d8693          	mv	a3,s11
80006e98:	00090513          	mv	a0,s2
80006e9c:	00098593          	mv	a1,s3
80006ea0:	e9e42823          	sw	t5,-368(s0)
80006ea4:	ed042823          	sw	a6,-304(s0)
80006ea8:	574060ef          	jal	ra,8000d41c <fma>
80006eac:	ebc42283          	lw	t0,-324(s0)
80006eb0:	ed842703          	lw	a4,-296(s0)
80006eb4:	00050f93          	mv	t6,a0
80006eb8:	00028793          	mv	a5,t0
80006ebc:	00058813          	mv	a6,a1
80006ec0:	000c0613          	mv	a2,s8
80006ec4:	000c8693          	mv	a3,s9
80006ec8:	00090513          	mv	a0,s2
80006ecc:	00098593          	mv	a1,s3
80006ed0:	e9f42a23          	sw	t6,-364(s0)
80006ed4:	ed042c23          	sw	a6,-296(s0)
80006ed8:	544060ef          	jal	ra,8000d41c <fma>
80006edc:	f9842703          	lw	a4,-104(s0)
80006ee0:	ec842783          	lw	a5,-312(s0)
80006ee4:	00050393          	mv	t2,a0
80006ee8:	e8742c23          	sw	t2,-360(s0)
80006eec:	00058813          	mv	a6,a1
80006ef0:	000a0613          	mv	a2,s4
80006ef4:	000a8693          	mv	a3,s5
80006ef8:	00090513          	mv	a0,s2
80006efc:	00098593          	mv	a1,s3
80006f00:	ed042423          	sw	a6,-312(s0)
80006f04:	518060ef          	jal	ra,8000d41c <fma>
80006f08:	00058813          	mv	a6,a1
80006f0c:	e5842583          	lw	a1,-424(s0)
80006f10:	f9442703          	lw	a4,-108(s0)
80006f14:	f8842783          	lw	a5,-120(s0)
80006f18:	00b48a33          	add	s4,s1,a1
80006f1c:	00050893          	mv	a7,a0
80006f20:	000b0613          	mv	a2,s6
80006f24:	000b8693          	mv	a3,s7
80006f28:	00090513          	mv	a0,s2
80006f2c:	00098593          	mv	a1,s3
80006f30:	ed142023          	sw	a7,-320(s0)
80006f34:	eb042e23          	sw	a6,-324(s0)
80006f38:	4e4060ef          	jal	ra,8000d41c <fma>
80006f3c:	fb842783          	lw	a5,-72(s0)
80006f40:	000a2803          	lw	a6,0(s4)
80006f44:	004a2883          	lw	a7,4(s4)
80006f48:	0287a903          	lw	s2,40(a5)
80006f4c:	02c7a983          	lw	s3,44(a5)
80006f50:	f9042703          	lw	a4,-112(s0)
80006f54:	f7842783          	lw	a5,-136(s0)
80006f58:	00080613          	mv	a2,a6
80006f5c:	00088693          	mv	a3,a7
80006f60:	00050e13          	mv	t3,a0
80006f64:	00058313          	mv	t1,a1
80006f68:	00090513          	mv	a0,s2
80006f6c:	00098593          	mv	a1,s3
80006f70:	eb042423          	sw	a6,-344(s0)
80006f74:	eb142623          	sw	a7,-340(s0)
80006f78:	ebc42823          	sw	t3,-336(s0)
80006f7c:	ea642c23          	sw	t1,-328(s0)
80006f80:	49c060ef          	jal	ra,8000d41c <fma>
80006f84:	008a2d03          	lw	s10,8(s4)
80006f88:	00ca2d83          	lw	s11,12(s4)
80006f8c:	f6042703          	lw	a4,-160(s0)
80006f90:	f5c42783          	lw	a5,-164(s0)
80006f94:	00050e93          	mv	t4,a0
80006f98:	00058293          	mv	t0,a1
80006f9c:	000d0613          	mv	a2,s10
80006fa0:	000d8693          	mv	a3,s11
80006fa4:	00090513          	mv	a0,s2
80006fa8:	00098593          	mv	a1,s3
80006fac:	e9d42e23          	sw	t4,-356(s0)
80006fb0:	ea542023          	sw	t0,-352(s0)
80006fb4:	468060ef          	jal	ra,8000d41c <fma>
80006fb8:	010a2c03          	lw	s8,16(s4)
80006fbc:	014a2c83          	lw	s9,20(s4)
80006fc0:	f8042703          	lw	a4,-128(s0)
80006fc4:	f7c42783          	lw	a5,-132(s0)
80006fc8:	00050e13          	mv	t3,a0
80006fcc:	00058313          	mv	t1,a1
80006fd0:	000c0613          	mv	a2,s8
80006fd4:	000c8693          	mv	a3,s9
80006fd8:	00090513          	mv	a0,s2
80006fdc:	00098593          	mv	a1,s3
80006fe0:	f9c42c23          	sw	t3,-104(s0)
80006fe4:	f8642a23          	sw	t1,-108(s0)
80006fe8:	434060ef          	jal	ra,8000d41c <fma>
80006fec:	018a2b03          	lw	s6,24(s4)
80006ff0:	01ca2b83          	lw	s7,28(s4)
80006ff4:	f7042703          	lw	a4,-144(s0)
80006ff8:	f6842783          	lw	a5,-152(s0)
80006ffc:	00050e13          	mv	t3,a0
80007000:	00058313          	mv	t1,a1
80007004:	000b0613          	mv	a2,s6
80007008:	000b8693          	mv	a3,s7
8000700c:	00090513          	mv	a0,s2
80007010:	00098593          	mv	a1,s3
80007014:	f9c42423          	sw	t3,-120(s0)
80007018:	f8642823          	sw	t1,-112(s0)
8000701c:	400060ef          	jal	ra,8000d41c <fma>
80007020:	024a2a83          	lw	s5,36(s4)
80007024:	020a2a03          	lw	s4,32(s4)
80007028:	f5042703          	lw	a4,-176(s0)
8000702c:	f5842783          	lw	a5,-168(s0)
80007030:	00050e13          	mv	t3,a0
80007034:	00058313          	mv	t1,a1
80007038:	000a0613          	mv	a2,s4
8000703c:	000a8693          	mv	a3,s5
80007040:	00090513          	mv	a0,s2
80007044:	00098593          	mv	a1,s3
80007048:	f7c42c23          	sw	t3,-136(s0)
8000704c:	f6642023          	sw	t1,-160(s0)
80007050:	3cc060ef          	jal	ra,8000d41c <fma>
80007054:	fa042703          	lw	a4,-96(s0)
80007058:	ea842803          	lw	a6,-344(s0)
8000705c:	eac42883          	lw	a7,-340(s0)
80007060:	02872903          	lw	s2,40(a4)
80007064:	02c72983          	lw	s3,44(a4)
80007068:	f4442783          	lw	a5,-188(s0)
8000706c:	f4842703          	lw	a4,-184(s0)
80007070:	00080613          	mv	a2,a6
80007074:	00088693          	mv	a3,a7
80007078:	00050e13          	mv	t3,a0
8000707c:	00058313          	mv	t1,a1
80007080:	00090513          	mv	a0,s2
80007084:	00098593          	mv	a1,s3
80007088:	f5c42e23          	sw	t3,-164(s0)
8000708c:	f4642823          	sw	t1,-176(s0)
80007090:	38c060ef          	jal	ra,8000d41c <fma>
80007094:	f3842703          	lw	a4,-200(s0)
80007098:	f4042783          	lw	a5,-192(s0)
8000709c:	00050e13          	mv	t3,a0
800070a0:	00058313          	mv	t1,a1
800070a4:	000d0613          	mv	a2,s10
800070a8:	000d8693          	mv	a3,s11
800070ac:	00090513          	mv	a0,s2
800070b0:	00098593          	mv	a1,s3
800070b4:	f5c42c23          	sw	t3,-168(s0)
800070b8:	f4642423          	sw	t1,-184(s0)
800070bc:	360060ef          	jal	ra,8000d41c <fma>
800070c0:	f3442703          	lw	a4,-204(s0)
800070c4:	f3042783          	lw	a5,-208(s0)
800070c8:	00050e13          	mv	t3,a0
800070cc:	00058313          	mv	t1,a1
800070d0:	000c0613          	mv	a2,s8
800070d4:	000c8693          	mv	a3,s9
800070d8:	00090513          	mv	a0,s2
800070dc:	00098593          	mv	a1,s3
800070e0:	f5c42223          	sw	t3,-188(s0)
800070e4:	f2642c23          	sw	t1,-200(s0)
800070e8:	334060ef          	jal	ra,8000d41c <fma>
800070ec:	f2c42703          	lw	a4,-212(s0)
800070f0:	f2842783          	lw	a5,-216(s0)
800070f4:	00050e13          	mv	t3,a0
800070f8:	00058313          	mv	t1,a1
800070fc:	000b0613          	mv	a2,s6
80007100:	000b8693          	mv	a3,s7
80007104:	00090513          	mv	a0,s2
80007108:	00098593          	mv	a1,s3
8000710c:	f9c42023          	sw	t3,-128(s0)
80007110:	f6642e23          	sw	t1,-132(s0)
80007114:	308060ef          	jal	ra,8000d41c <fma>
80007118:	f2442703          	lw	a4,-220(s0)
8000711c:	f2042783          	lw	a5,-224(s0)
80007120:	00050e13          	mv	t3,a0
80007124:	00058313          	mv	t1,a1
80007128:	000a0613          	mv	a2,s4
8000712c:	000a8693          	mv	a3,s5
80007130:	00090513          	mv	a0,s2
80007134:	00098593          	mv	a1,s3
80007138:	f7c42823          	sw	t3,-144(s0)
8000713c:	f6642423          	sw	t1,-152(s0)
80007140:	2dc060ef          	jal	ra,8000d41c <fma>
80007144:	fa842683          	lw	a3,-88(s0)
80007148:	ea842803          	lw	a6,-344(s0)
8000714c:	eac42883          	lw	a7,-340(s0)
80007150:	0286a903          	lw	s2,40(a3)
80007154:	02c6a983          	lw	s3,44(a3)
80007158:	f1c42703          	lw	a4,-228(s0)
8000715c:	f1842783          	lw	a5,-232(s0)
80007160:	00080613          	mv	a2,a6
80007164:	00088693          	mv	a3,a7
80007168:	00050e13          	mv	t3,a0
8000716c:	00058313          	mv	t1,a1
80007170:	00090513          	mv	a0,s2
80007174:	00098593          	mv	a1,s3
80007178:	f5c42023          	sw	t3,-192(s0)
8000717c:	f2642a23          	sw	t1,-204(s0)
80007180:	29c060ef          	jal	ra,8000d41c <fma>
80007184:	f1442703          	lw	a4,-236(s0)
80007188:	f0842783          	lw	a5,-248(s0)
8000718c:	00050e13          	mv	t3,a0
80007190:	00058313          	mv	t1,a1
80007194:	f3c42823          	sw	t3,-208(s0)
80007198:	000d0613          	mv	a2,s10
8000719c:	000d8693          	mv	a3,s11
800071a0:	00090513          	mv	a0,s2
800071a4:	00098593          	mv	a1,s3
800071a8:	f2642623          	sw	t1,-212(s0)
800071ac:	270060ef          	jal	ra,8000d41c <fma>
800071b0:	f1042703          	lw	a4,-240(s0)
800071b4:	f0042783          	lw	a5,-256(s0)
800071b8:	00050e13          	mv	t3,a0
800071bc:	00058313          	mv	t1,a1
800071c0:	000c0613          	mv	a2,s8
800071c4:	000c8693          	mv	a3,s9
800071c8:	00090513          	mv	a0,s2
800071cc:	00098593          	mv	a1,s3
800071d0:	f3c42423          	sw	t3,-216(s0)
800071d4:	f2642223          	sw	t1,-220(s0)
800071d8:	244060ef          	jal	ra,8000d41c <fma>
800071dc:	ef842703          	lw	a4,-264(s0)
800071e0:	ef042783          	lw	a5,-272(s0)
800071e4:	00050e13          	mv	t3,a0
800071e8:	00058313          	mv	t1,a1
800071ec:	000b0613          	mv	a2,s6
800071f0:	000b8693          	mv	a3,s7
800071f4:	00090513          	mv	a0,s2
800071f8:	00098593          	mv	a1,s3
800071fc:	f3c42023          	sw	t3,-224(s0)
80007200:	f0642e23          	sw	t1,-228(s0)
80007204:	218060ef          	jal	ra,8000d41c <fma>
80007208:	ee842703          	lw	a4,-280(s0)
8000720c:	ee042783          	lw	a5,-288(s0)
80007210:	00050e13          	mv	t3,a0
80007214:	00058313          	mv	t1,a1
80007218:	000a0613          	mv	a2,s4
8000721c:	000a8693          	mv	a3,s5
80007220:	00090513          	mv	a0,s2
80007224:	00098593          	mv	a1,s3
80007228:	f1c42c23          	sw	t3,-232(s0)
8000722c:	f0642a23          	sw	t1,-236(s0)
80007230:	1ec060ef          	jal	ra,8000d41c <fma>
80007234:	fb042603          	lw	a2,-80(s0)
80007238:	e9042f03          	lw	t5,-368(s0)
8000723c:	ea842803          	lw	a6,-344(s0)
80007240:	02862903          	lw	s2,40(a2)
80007244:	02c62983          	lw	s3,44(a2)
80007248:	eac42883          	lw	a7,-340(s0)
8000724c:	ed042783          	lw	a5,-304(s0)
80007250:	00050e13          	mv	t3,a0
80007254:	00058313          	mv	t1,a1
80007258:	000f0713          	mv	a4,t5
8000725c:	00080613          	mv	a2,a6
80007260:	00088693          	mv	a3,a7
80007264:	00090513          	mv	a0,s2
80007268:	00098593          	mv	a1,s3
8000726c:	f1c42423          	sw	t3,-248(s0)
80007270:	f0642823          	sw	t1,-240(s0)
80007274:	1a8060ef          	jal	ra,8000d41c <fma>
80007278:	e9442f83          	lw	t6,-364(s0)
8000727c:	ed842783          	lw	a5,-296(s0)
80007280:	00050893          	mv	a7,a0
80007284:	000f8713          	mv	a4,t6
80007288:	00058813          	mv	a6,a1
8000728c:	000d0613          	mv	a2,s10
80007290:	000d8693          	mv	a3,s11
80007294:	00090513          	mv	a0,s2
80007298:	00098593          	mv	a1,s3
8000729c:	f1142023          	sw	a7,-256(s0)
800072a0:	ef042c23          	sw	a6,-264(s0)
800072a4:	178060ef          	jal	ra,8000d41c <fma>
800072a8:	e9842383          	lw	t2,-360(s0)
800072ac:	ec842783          	lw	a5,-312(s0)
800072b0:	00050893          	mv	a7,a0
800072b4:	00058813          	mv	a6,a1
800072b8:	00038713          	mv	a4,t2
800072bc:	000c0613          	mv	a2,s8
800072c0:	000c8693          	mv	a3,s9
800072c4:	00090513          	mv	a0,s2
800072c8:	00098593          	mv	a1,s3
800072cc:	ef142823          	sw	a7,-272(s0)
800072d0:	ef042423          	sw	a6,-280(s0)
800072d4:	148060ef          	jal	ra,8000d41c <fma>
800072d8:	ec042703          	lw	a4,-320(s0)
800072dc:	ebc42783          	lw	a5,-324(s0)
800072e0:	00050893          	mv	a7,a0
800072e4:	00058813          	mv	a6,a1
800072e8:	000b0613          	mv	a2,s6
800072ec:	000b8693          	mv	a3,s7
800072f0:	00090513          	mv	a0,s2
800072f4:	00098593          	mv	a1,s3
800072f8:	ef142023          	sw	a7,-288(s0)
800072fc:	ed042c23          	sw	a6,-296(s0)
80007300:	11c060ef          	jal	ra,8000d41c <fma>
80007304:	00058813          	mv	a6,a1
80007308:	ed042423          	sw	a6,-312(s0)
8000730c:	fb842803          	lw	a6,-72(s0)
80007310:	eb042703          	lw	a4,-336(s0)
80007314:	eb842783          	lw	a5,-328(s0)
80007318:	00050893          	mv	a7,a0
8000731c:	000a0613          	mv	a2,s4
80007320:	000a8693          	mv	a3,s5
80007324:	00090513          	mv	a0,s2
80007328:	ed142823          	sw	a7,-304(s0)
8000732c:	03080913          	addi	s2,a6,48
80007330:	00098593          	mv	a1,s3
80007334:	fb242c23          	sw	s2,-72(s0)
80007338:	0e4060ef          	jal	ra,8000d41c <fma>
8000733c:	e6842783          	lw	a5,-408(s0)
80007340:	fa042703          	lw	a4,-96(s0)
80007344:	fa842683          	lw	a3,-88(s0)
80007348:	fb042603          	lw	a2,-80(s0)
8000734c:	00f484b3          	add	s1,s1,a5
80007350:	03070793          	addi	a5,a4,48
80007354:	faf42023          	sw	a5,-96(s0)
80007358:	03068793          	addi	a5,a3,48
8000735c:	faf42423          	sw	a5,-88(s0)
80007360:	03060793          	addi	a5,a2,48
80007364:	faf42823          	sw	a5,-80(s0)
80007368:	e8c42783          	lw	a5,-372(s0)
8000736c:	eca42023          	sw	a0,-320(s0)
80007370:	eab42e23          	sw	a1,-324(s0)
80007374:	ea042283          	lw	t0,-352(s0)
80007378:	e9c42e83          	lw	t4,-356(s0)
8000737c:	00f97463          	bgeu	s2,a5,80007384 <mm_cb+0x5fbc>
80007380:	fd4fe06f          	j	80005b54 <mm_cb+0x478c>
80007384:	df442783          	lw	a5,-524(s0)
80007388:	e8442703          	lw	a4,-380(s0)
8000738c:	00e78933          	add	s2,a5,a4
80007390:	e8c42783          	lw	a5,-372(s0)
80007394:	e8842703          	lw	a4,-376(s0)
80007398:	42e7f663          	bgeu	a5,a4,800077c4 <mm_cb+0x63fc>
8000739c:	00078993          	mv	s3,a5
800073a0:	0009aa03          	lw	s4,0(s3)
800073a4:	0049aa83          	lw	s5,4(s3)
800073a8:	00092c03          	lw	s8,0(s2)
800073ac:	00492c83          	lw	s9,4(s2)
800073b0:	000e8713          	mv	a4,t4
800073b4:	00028793          	mv	a5,t0
800073b8:	000c0613          	mv	a2,s8
800073bc:	000c8693          	mv	a3,s9
800073c0:	000a0513          	mv	a0,s4
800073c4:	000a8593          	mv	a1,s5
800073c8:	054060ef          	jal	ra,8000d41c <fma>
800073cc:	00892b03          	lw	s6,8(s2)
800073d0:	00c92b83          	lw	s7,12(s2)
800073d4:	f9842703          	lw	a4,-104(s0)
800073d8:	f9442783          	lw	a5,-108(s0)
800073dc:	00050e93          	mv	t4,a0
800073e0:	00058293          	mv	t0,a1
800073e4:	000b0613          	mv	a2,s6
800073e8:	000b8693          	mv	a3,s7
800073ec:	000a0513          	mv	a0,s4
800073f0:	000a8593          	mv	a1,s5
800073f4:	fbd42023          	sw	t4,-96(s0)
800073f8:	fa542423          	sw	t0,-88(s0)
800073fc:	020060ef          	jal	ra,8000d41c <fma>
80007400:	01092d03          	lw	s10,16(s2)
80007404:	01492d83          	lw	s11,20(s2)
80007408:	f8842703          	lw	a4,-120(s0)
8000740c:	f9042783          	lw	a5,-112(s0)
80007410:	00050893          	mv	a7,a0
80007414:	00058813          	mv	a6,a1
80007418:	000d0613          	mv	a2,s10
8000741c:	000d8693          	mv	a3,s11
80007420:	000a0513          	mv	a0,s4
80007424:	000a8593          	mv	a1,s5
80007428:	f9142c23          	sw	a7,-104(s0)
8000742c:	f9042a23          	sw	a6,-108(s0)
80007430:	7ed050ef          	jal	ra,8000d41c <fma>
80007434:	01892803          	lw	a6,24(s2)
80007438:	01c92883          	lw	a7,28(s2)
8000743c:	f7842703          	lw	a4,-136(s0)
80007440:	f6042783          	lw	a5,-160(s0)
80007444:	00080613          	mv	a2,a6
80007448:	00088693          	mv	a3,a7
8000744c:	00050e13          	mv	t3,a0
80007450:	00058313          	mv	t1,a1
80007454:	000a0513          	mv	a0,s4
80007458:	000a8593          	mv	a1,s5
8000745c:	fb042823          	sw	a6,-80(s0)
80007460:	fb142a23          	sw	a7,-76(s0)
80007464:	f9c42423          	sw	t3,-120(s0)
80007468:	f8642823          	sw	t1,-112(s0)
8000746c:	7b1050ef          	jal	ra,8000d41c <fma>
80007470:	02092303          	lw	t1,32(s2)
80007474:	02492383          	lw	t2,36(s2)
80007478:	e7c42683          	lw	a3,-388(s0)
8000747c:	f5c42703          	lw	a4,-164(s0)
80007480:	f5042783          	lw	a5,-176(s0)
80007484:	00030613          	mv	a2,t1
80007488:	00d984b3          	add	s1,s3,a3
8000748c:	00050f13          	mv	t5,a0
80007490:	00038693          	mv	a3,t2
80007494:	00058e13          	mv	t3,a1
80007498:	000a0513          	mv	a0,s4
8000749c:	000a8593          	mv	a1,s5
800074a0:	fa642c23          	sw	t1,-72(s0)
800074a4:	fa742e23          	sw	t2,-68(s0)
800074a8:	f7e42c23          	sw	t5,-136(s0)
800074ac:	f7c42023          	sw	t3,-160(s0)
800074b0:	76d050ef          	jal	ra,8000d41c <fma>
800074b4:	0004aa03          	lw	s4,0(s1)
800074b8:	0044aa83          	lw	s5,4(s1)
800074bc:	f5842703          	lw	a4,-168(s0)
800074c0:	f4842783          	lw	a5,-184(s0)
800074c4:	00050f13          	mv	t5,a0
800074c8:	00058e13          	mv	t3,a1
800074cc:	000c0613          	mv	a2,s8
800074d0:	000c8693          	mv	a3,s9
800074d4:	000a0513          	mv	a0,s4
800074d8:	000a8593          	mv	a1,s5
800074dc:	f5e42e23          	sw	t5,-164(s0)
800074e0:	f5c42823          	sw	t3,-176(s0)
800074e4:	739050ef          	jal	ra,8000d41c <fma>
800074e8:	f4442703          	lw	a4,-188(s0)
800074ec:	f3842783          	lw	a5,-200(s0)
800074f0:	00050f13          	mv	t5,a0
800074f4:	00058e13          	mv	t3,a1
800074f8:	000b0613          	mv	a2,s6
800074fc:	000b8693          	mv	a3,s7
80007500:	000a0513          	mv	a0,s4
80007504:	000a8593          	mv	a1,s5
80007508:	f5e42c23          	sw	t5,-168(s0)
8000750c:	f5c42423          	sw	t3,-184(s0)
80007510:	70d050ef          	jal	ra,8000d41c <fma>
80007514:	f8042703          	lw	a4,-128(s0)
80007518:	f7c42783          	lw	a5,-132(s0)
8000751c:	00050f13          	mv	t5,a0
80007520:	00058e13          	mv	t3,a1
80007524:	000d0613          	mv	a2,s10
80007528:	000d8693          	mv	a3,s11
8000752c:	000a0513          	mv	a0,s4
80007530:	000a8593          	mv	a1,s5
80007534:	f5e42223          	sw	t5,-188(s0)
80007538:	f3c42c23          	sw	t3,-200(s0)
8000753c:	6e1050ef          	jal	ra,8000d41c <fma>
80007540:	fb042803          	lw	a6,-80(s0)
80007544:	fb442883          	lw	a7,-76(s0)
80007548:	f7042703          	lw	a4,-144(s0)
8000754c:	f6842783          	lw	a5,-152(s0)
80007550:	00080613          	mv	a2,a6
80007554:	00088693          	mv	a3,a7
80007558:	00050f13          	mv	t5,a0
8000755c:	00058e13          	mv	t3,a1
80007560:	000a0513          	mv	a0,s4
80007564:	000a8593          	mv	a1,s5
80007568:	f9e42023          	sw	t5,-128(s0)
8000756c:	f7c42e23          	sw	t3,-132(s0)
80007570:	6ad050ef          	jal	ra,8000d41c <fma>
80007574:	fb842303          	lw	t1,-72(s0)
80007578:	fbc42383          	lw	t2,-68(s0)
8000757c:	00058e13          	mv	t3,a1
80007580:	e7c42583          	lw	a1,-388(s0)
80007584:	f4042703          	lw	a4,-192(s0)
80007588:	f3442783          	lw	a5,-204(s0)
8000758c:	00030613          	mv	a2,t1
80007590:	00038693          	mv	a3,t2
80007594:	00050f13          	mv	t5,a0
80007598:	00b484b3          	add	s1,s1,a1
8000759c:	000a0513          	mv	a0,s4
800075a0:	000a8593          	mv	a1,s5
800075a4:	f7e42823          	sw	t5,-144(s0)
800075a8:	f7c42423          	sw	t3,-152(s0)
800075ac:	671050ef          	jal	ra,8000d41c <fma>
800075b0:	0004aa03          	lw	s4,0(s1)
800075b4:	0044aa83          	lw	s5,4(s1)
800075b8:	f3042703          	lw	a4,-208(s0)
800075bc:	f2c42783          	lw	a5,-212(s0)
800075c0:	00050f13          	mv	t5,a0
800075c4:	00058e13          	mv	t3,a1
800075c8:	000c0613          	mv	a2,s8
800075cc:	000c8693          	mv	a3,s9
800075d0:	000a0513          	mv	a0,s4
800075d4:	000a8593          	mv	a1,s5
800075d8:	f5e42023          	sw	t5,-192(s0)
800075dc:	f3c42a23          	sw	t3,-204(s0)
800075e0:	63d050ef          	jal	ra,8000d41c <fma>
800075e4:	f2842703          	lw	a4,-216(s0)
800075e8:	f2442783          	lw	a5,-220(s0)
800075ec:	00050f13          	mv	t5,a0
800075f0:	00058e13          	mv	t3,a1
800075f4:	000b0613          	mv	a2,s6
800075f8:	000b8693          	mv	a3,s7
800075fc:	000a0513          	mv	a0,s4
80007600:	000a8593          	mv	a1,s5
80007604:	f3e42823          	sw	t5,-208(s0)
80007608:	f3c42623          	sw	t3,-212(s0)
8000760c:	611050ef          	jal	ra,8000d41c <fma>
80007610:	f2042703          	lw	a4,-224(s0)
80007614:	f1c42783          	lw	a5,-228(s0)
80007618:	00050f13          	mv	t5,a0
8000761c:	00058e13          	mv	t3,a1
80007620:	000d0613          	mv	a2,s10
80007624:	000d8693          	mv	a3,s11
80007628:	000a0513          	mv	a0,s4
8000762c:	000a8593          	mv	a1,s5
80007630:	f3e42423          	sw	t5,-216(s0)
80007634:	f3c42223          	sw	t3,-220(s0)
80007638:	5e5050ef          	jal	ra,8000d41c <fma>
8000763c:	fb042803          	lw	a6,-80(s0)
80007640:	f1842703          	lw	a4,-232(s0)
80007644:	f1442783          	lw	a5,-236(s0)
80007648:	fb442883          	lw	a7,-76(s0)
8000764c:	00080613          	mv	a2,a6
80007650:	00050f13          	mv	t5,a0
80007654:	00088693          	mv	a3,a7
80007658:	00058e13          	mv	t3,a1
8000765c:	000a0513          	mv	a0,s4
80007660:	000a8593          	mv	a1,s5
80007664:	f3e42023          	sw	t5,-224(s0)
80007668:	f1c42e23          	sw	t3,-228(s0)
8000766c:	5b1050ef          	jal	ra,8000d41c <fma>
80007670:	fb842303          	lw	t1,-72(s0)
80007674:	fbc42383          	lw	t2,-68(s0)
80007678:	f0842703          	lw	a4,-248(s0)
8000767c:	f1042783          	lw	a5,-240(s0)
80007680:	00030613          	mv	a2,t1
80007684:	00038693          	mv	a3,t2
80007688:	00050f13          	mv	t5,a0
8000768c:	00058e13          	mv	t3,a1
80007690:	000a0513          	mv	a0,s4
80007694:	000a8593          	mv	a1,s5
80007698:	f1e42c23          	sw	t5,-232(s0)
8000769c:	f1c42a23          	sw	t3,-236(s0)
800076a0:	57d050ef          	jal	ra,8000d41c <fma>
800076a4:	00058e13          	mv	t3,a1
800076a8:	e7c42583          	lw	a1,-388(s0)
800076ac:	f0042703          	lw	a4,-256(s0)
800076b0:	ef842783          	lw	a5,-264(s0)
800076b4:	00b484b3          	add	s1,s1,a1
800076b8:	0004aa03          	lw	s4,0(s1)
800076bc:	0044aa83          	lw	s5,4(s1)
800076c0:	00050f13          	mv	t5,a0
800076c4:	000c0613          	mv	a2,s8
800076c8:	000c8693          	mv	a3,s9
800076cc:	000a0513          	mv	a0,s4
800076d0:	000a8593          	mv	a1,s5
800076d4:	f1e42423          	sw	t5,-248(s0)
800076d8:	f1c42823          	sw	t3,-240(s0)
800076dc:	541050ef          	jal	ra,8000d41c <fma>
800076e0:	ef042703          	lw	a4,-272(s0)
800076e4:	ee842783          	lw	a5,-280(s0)
800076e8:	00050f13          	mv	t5,a0
800076ec:	00058e13          	mv	t3,a1
800076f0:	000b0613          	mv	a2,s6
800076f4:	000b8693          	mv	a3,s7
800076f8:	000a0513          	mv	a0,s4
800076fc:	000a8593          	mv	a1,s5
80007700:	f1e42023          	sw	t5,-256(s0)
80007704:	efc42c23          	sw	t3,-264(s0)
80007708:	515050ef          	jal	ra,8000d41c <fma>
8000770c:	ee042703          	lw	a4,-288(s0)
80007710:	ed842783          	lw	a5,-296(s0)
80007714:	00050f13          	mv	t5,a0
80007718:	00058e13          	mv	t3,a1
8000771c:	000d0613          	mv	a2,s10
80007720:	000d8693          	mv	a3,s11
80007724:	000a0513          	mv	a0,s4
80007728:	000a8593          	mv	a1,s5
8000772c:	efe42823          	sw	t5,-272(s0)
80007730:	efc42423          	sw	t3,-280(s0)
80007734:	4e9050ef          	jal	ra,8000d41c <fma>
80007738:	fb042803          	lw	a6,-80(s0)
8000773c:	fb442883          	lw	a7,-76(s0)
80007740:	ed042703          	lw	a4,-304(s0)
80007744:	ec842783          	lw	a5,-312(s0)
80007748:	00050f13          	mv	t5,a0
8000774c:	00058e13          	mv	t3,a1
80007750:	00080613          	mv	a2,a6
80007754:	00088693          	mv	a3,a7
80007758:	000a0513          	mv	a0,s4
8000775c:	000a8593          	mv	a1,s5
80007760:	efe42023          	sw	t5,-288(s0)
80007764:	edc42c23          	sw	t3,-296(s0)
80007768:	4b5050ef          	jal	ra,8000d41c <fma>
8000776c:	fb842303          	lw	t1,-72(s0)
80007770:	fbc42383          	lw	t2,-68(s0)
80007774:	ebc42783          	lw	a5,-324(s0)
80007778:	ec042703          	lw	a4,-320(s0)
8000777c:	00050893          	mv	a7,a0
80007780:	00058813          	mv	a6,a1
80007784:	00030613          	mv	a2,t1
80007788:	00038693          	mv	a3,t2
8000778c:	000a0513          	mv	a0,s4
80007790:	000a8593          	mv	a1,s5
80007794:	ed142823          	sw	a7,-304(s0)
80007798:	ed042423          	sw	a6,-312(s0)
8000779c:	481050ef          	jal	ra,8000d41c <fma>
800077a0:	e7442783          	lw	a5,-396(s0)
800077a4:	eca42023          	sw	a0,-320(s0)
800077a8:	eab42e23          	sw	a1,-324(s0)
800077ac:	00f90933          	add	s2,s2,a5
800077b0:	e8842783          	lw	a5,-376(s0)
800077b4:	00898993          	addi	s3,s3,8
800077b8:	fa842283          	lw	t0,-88(s0)
800077bc:	fa042e83          	lw	t4,-96(s0)
800077c0:	bef9e0e3          	bltu	s3,a5,800073a0 <mm_cb+0x5fd8>
800077c4:	f2042083          	lw	ra,-224(s0)
800077c8:	f9842703          	lw	a4,-104(s0)
800077cc:	f8842503          	lw	a0,-120(s0)
800077d0:	fa142c23          	sw	ra,-72(s0)
800077d4:	f1842083          	lw	ra,-232(s0)
800077d8:	f7842803          	lw	a6,-136(s0)
800077dc:	f5c42303          	lw	t1,-164(s0)
800077e0:	fa142823          	sw	ra,-80(s0)
800077e4:	f0842083          	lw	ra,-248(s0)
800077e8:	f5842e03          	lw	t3,-168(s0)
800077ec:	f4442f03          	lw	t5,-188(s0)
800077f0:	fa142423          	sw	ra,-88(s0)
800077f4:	f0042083          	lw	ra,-256(s0)
800077f8:	f8042903          	lw	s2,-128(s0)
800077fc:	f7042a03          	lw	s4,-144(s0)
80007800:	fa142023          	sw	ra,-96(s0)
80007804:	ef042083          	lw	ra,-272(s0)
80007808:	f4042b03          	lw	s6,-192(s0)
8000780c:	f3042c03          	lw	s8,-208(s0)
80007810:	f8142c23          	sw	ra,-104(s0)
80007814:	ee042083          	lw	ra,-288(s0)
80007818:	f2842d03          	lw	s10,-216(s0)
8000781c:	00028693          	mv	a3,t0
80007820:	f8142423          	sw	ra,-120(s0)
80007824:	ed042083          	lw	ra,-304(s0)
80007828:	000e8613          	mv	a2,t4
8000782c:	f8142023          	sw	ra,-128(s0)
80007830:	f1c42283          	lw	t0,-228(s0)
80007834:	ec042083          	lw	ra,-320(s0)
80007838:	f9442783          	lw	a5,-108(s0)
8000783c:	fa542e23          	sw	t0,-68(s0)
80007840:	f1442283          	lw	t0,-236(s0)
80007844:	f6142823          	sw	ra,-144(s0)
80007848:	f9042583          	lw	a1,-112(s0)
8000784c:	fa542a23          	sw	t0,-76(s0)
80007850:	f1042283          	lw	t0,-240(s0)
80007854:	f6042883          	lw	a7,-160(s0)
80007858:	f5042383          	lw	t2,-176(s0)
8000785c:	fa542623          	sw	t0,-84(s0)
80007860:	ef842283          	lw	t0,-264(s0)
80007864:	f4842e83          	lw	t4,-184(s0)
80007868:	f3842f83          	lw	t6,-200(s0)
8000786c:	fa542223          	sw	t0,-92(s0)
80007870:	ee842283          	lw	t0,-280(s0)
80007874:	f7c42983          	lw	s3,-132(s0)
80007878:	f6842a83          	lw	s5,-152(s0)
8000787c:	f8542e23          	sw	t0,-100(s0)
80007880:	ed842283          	lw	t0,-296(s0)
80007884:	f3442b83          	lw	s7,-204(s0)
80007888:	f2c42c83          	lw	s9,-212(s0)
8000788c:	f8542623          	sw	t0,-116(s0)
80007890:	ec842283          	lw	t0,-312(s0)
80007894:	f2442d83          	lw	s11,-220(s0)
80007898:	f8542223          	sw	t0,-124(s0)
8000789c:	ebc42283          	lw	t0,-324(s0)
800078a0:	f6542a23          	sw	t0,-140(s0)
800078a4:	e8042283          	lw	t0,-384(s0)
800078a8:	00c2a023          	sw	a2,0(t0)
800078ac:	00d2a223          	sw	a3,4(t0)
800078b0:	00e2a423          	sw	a4,8(t0)
800078b4:	00f2a623          	sw	a5,12(t0)
800078b8:	fb842783          	lw	a5,-72(s0)
800078bc:	0102ac23          	sw	a6,24(t0)
800078c0:	fbc42803          	lw	a6,-68(s0)
800078c4:	1af2a023          	sw	a5,416(t0)
800078c8:	fb042783          	lw	a5,-80(s0)
800078cc:	1b02a223          	sw	a6,420(t0)
800078d0:	fb442803          	lw	a6,-76(s0)
800078d4:	1af2a423          	sw	a5,424(t0)
800078d8:	fa842783          	lw	a5,-88(s0)
800078dc:	1b02a623          	sw	a6,428(t0)
800078e0:	fac42803          	lw	a6,-84(s0)
800078e4:	1af2a823          	sw	a5,432(t0)
800078e8:	00a2a823          	sw	a0,16(t0)
800078ec:	00b2aa23          	sw	a1,20(t0)
800078f0:	0112ae23          	sw	a7,28(t0)
800078f4:	0262a023          	sw	t1,32(t0)
800078f8:	0272a223          	sw	t2,36(t0)
800078fc:	0dc2a423          	sw	t3,200(t0)
80007900:	0dd2a623          	sw	t4,204(t0)
80007904:	0de2a823          	sw	t5,208(t0)
80007908:	0df2aa23          	sw	t6,212(t0)
8000790c:	0d22ac23          	sw	s2,216(t0)
80007910:	0d32ae23          	sw	s3,220(t0)
80007914:	0f42a023          	sw	s4,224(t0)
80007918:	0f52a223          	sw	s5,228(t0)
8000791c:	0f62a423          	sw	s6,232(t0)
80007920:	0f72a623          	sw	s7,236(t0)
80007924:	1982a823          	sw	s8,400(t0)
80007928:	1992aa23          	sw	s9,404(t0)
8000792c:	19a2ac23          	sw	s10,408(t0)
80007930:	19b2ae23          	sw	s11,412(t0)
80007934:	1b02aa23          	sw	a6,436(t0)
80007938:	fa042783          	lw	a5,-96(s0)
8000793c:	fa442803          	lw	a6,-92(s0)
80007940:	02828713          	addi	a4,t0,40
80007944:	24f2ac23          	sw	a5,600(t0)
80007948:	f9842783          	lw	a5,-104(s0)
8000794c:	2502ae23          	sw	a6,604(t0)
80007950:	f9c42803          	lw	a6,-100(s0)
80007954:	26f2a023          	sw	a5,608(t0)
80007958:	f8842783          	lw	a5,-120(s0)
8000795c:	2702a223          	sw	a6,612(t0)
80007960:	f8c42803          	lw	a6,-116(s0)
80007964:	26f2a423          	sw	a5,616(t0)
80007968:	f8042783          	lw	a5,-128(s0)
8000796c:	2702a623          	sw	a6,620(t0)
80007970:	f8442803          	lw	a6,-124(s0)
80007974:	26f2a823          	sw	a5,624(t0)
80007978:	f7042783          	lw	a5,-144(s0)
8000797c:	2702aa23          	sw	a6,628(t0)
80007980:	f7442803          	lw	a6,-140(s0)
80007984:	26f2ac23          	sw	a5,632(t0)
80007988:	e8442783          	lw	a5,-380(s0)
8000798c:	e8e42023          	sw	a4,-384(s0)
80007990:	e2c42703          	lw	a4,-468(s0)
80007994:	02878793          	addi	a5,a5,40
80007998:	2702ae23          	sw	a6,636(t0)
8000799c:	e8f42223          	sw	a5,-380(s0)
800079a0:	00f70463          	beq	a4,a5,800079a8 <mm_cb+0x65e0>
800079a4:	840fe06f          	j	800059e4 <mm_cb+0x461c>
800079a8:	e7042983          	lw	s3,-400(s0)
800079ac:	e7842903          	lw	s2,-392(s0)
800079b0:	e5042303          	lw	t1,-432(s0)
800079b4:	01900793          	li	a5,25
800079b8:	00f12023          	sw	a5,0(sp)
800079bc:	e4442803          	lw	a6,-444(s0)
800079c0:	00070793          	mv	a5,a4
800079c4:	dd042603          	lw	a2,-560(s0)
800079c8:	e3c42703          	lw	a4,-452(s0)
800079cc:	06430493          	addi	s1,t1,100
800079d0:	00098893          	mv	a7,s3
800079d4:	00090693          	mv	a3,s2
800079d8:	00000593          	li	a1,0
800079dc:	00400513          	li	a0,4
800079e0:	e4942823          	sw	s1,-432(s0)
800079e4:	e64f90ef          	jal	ra,80001048 <mm_naive>
800079e8:	dcc42783          	lw	a5,-564(s0)
800079ec:	00f90733          	add	a4,s2,a5
800079f0:	e6e42c23          	sw	a4,-392(s0)
800079f4:	32098713          	addi	a4,s3,800
800079f8:	e6e42823          	sw	a4,-400(s0)
800079fc:	e8c42703          	lw	a4,-372(s0)
80007a00:	00f70733          	add	a4,a4,a5
80007a04:	e8e42623          	sw	a4,-372(s0)
80007a08:	e8842703          	lw	a4,-376(s0)
80007a0c:	00f707b3          	add	a5,a4,a5
80007a10:	e8f42423          	sw	a5,-376(s0)
80007a14:	25800793          	li	a5,600
80007a18:	00f48463          	beq	s1,a5,80007a20 <mm_cb+0x6658>
80007a1c:	fb5fd06f          	j	800059d0 <mm_cb+0x4608>
80007a20:	01900793          	li	a5,25
80007a24:	00f12023          	sw	a5,0(sp)
80007a28:	e4c42783          	lw	a5,-436(s0)
80007a2c:	00001737          	lui	a4,0x1
80007a30:	2c070713          	addi	a4,a4,704 # 12c0 <buflen.2941+0x1240>
80007a34:	00e788b3          	add	a7,a5,a4
80007a38:	e4442803          	lw	a6,-444(s0)
80007a3c:	e5442783          	lw	a5,-428(s0)
80007a40:	e3c42703          	lw	a4,-452(s0)
80007a44:	ddc42683          	lw	a3,-548(s0)
80007a48:	dd042603          	lw	a2,-560(s0)
80007a4c:	01900593          	li	a1,25
80007a50:	00000513          	li	a0,0
80007a54:	df4f90ef          	jal	ra,80001048 <mm_naive>
80007a58:	d91fb06f          	j	800037e8 <mm_cb+0x2420>
80007a5c:	de042703          	lw	a4,-544(s0)
80007a60:	e2042783          	lw	a5,-480(s0)
80007a64:	00e787b3          	add	a5,a5,a4
80007a68:	dcf42e23          	sw	a5,-548(s0)
80007a6c:	e4042703          	lw	a4,-448(s0)
80007a70:	e1842783          	lw	a5,-488(s0)
80007a74:	00f77463          	bgeu	a4,a5,80007a7c <mm_cb+0x66b4>
80007a78:	da5fb06f          	j	8000381c <mm_cb+0x2454>
80007a7c:	e1c42783          	lw	a5,-484(s0)
80007a80:	e0442703          	lw	a4,-508(s0)
80007a84:	00e787b3          	add	a5,a5,a4
80007a88:	e0f42823          	sw	a5,-496(s0)
80007a8c:	e1042703          	lw	a4,-496(s0)
80007a90:	dfc42783          	lw	a5,-516(s0)
80007a94:	e0e42e23          	sw	a4,-484(s0)
80007a98:	ddc42703          	lw	a4,-548(s0)
80007a9c:	01878793          	addi	a5,a5,24
80007aa0:	def42e23          	sw	a5,-516(s0)
80007aa4:	e2e42023          	sw	a4,-480(s0)
80007aa8:	e3042703          	lw	a4,-464(s0)
80007aac:	00e7f463          	bgeu	a5,a4,80007ab4 <mm_cb+0x66ec>
80007ab0:	fddf906f          	j	80001a8c <mm_cb+0x6c4>
80007ab4:	de842783          	lw	a5,-536(s0)
80007ab8:	e3042703          	lw	a4,-464(s0)
80007abc:	1af76463          	bltu	a4,a5,80007c64 <mm_cb+0x689c>
80007ac0:	dbc42703          	lw	a4,-580(s0)
80007ac4:	00042683          	lw	a3,0(s0)
80007ac8:	000017b7          	lui	a5,0x1
80007acc:	e0842c03          	lw	s8,-504(s0)
80007ad0:	00d70d33          	add	s10,a4,a3
80007ad4:	38078793          	addi	a5,a5,896 # 1380 <buflen.2941+0x1300>
80007ad8:	006d1d13          	slli	s10,s10,0x6
80007adc:	00000a93          	li	s5,0
80007ae0:	faf42c23          	sw	a5,-72(s0)
80007ae4:	e4042783          	lw	a5,-448(s0)
80007ae8:	10078c63          	beqz	a5,80007c00 <mm_cb+0x6838>
80007aec:	01800793          	li	a5,24
80007af0:	02fada33          	divu	s4,s5,a5
80007af4:	e2842783          	lw	a5,-472(s0)
80007af8:	000c0c93          	mv	s9,s8
80007afc:	00000b13          	li	s6,0
80007b00:	02fa0a33          	mul	s4,s4,a5
80007b04:	01900793          	li	a5,25
80007b08:	000c8b93          	mv	s7,s9
80007b0c:	02fb54b3          	divu	s1,s6,a5
80007b10:	000017b7          	lui	a5,0x1
80007b14:	2c078793          	addi	a5,a5,704 # 12c0 <buflen.2941+0x1240>
80007b18:	014484b3          	add	s1,s1,s4
80007b1c:	02f484b3          	mul	s1,s1,a5
80007b20:	e1442783          	lw	a5,-492(s0)
80007b24:	009784b3          	add	s1,a5,s1
80007b28:	fb842783          	lw	a5,-72(s0)
80007b2c:	0c048293          	addi	t0,s1,192
80007b30:	00f484b3          	add	s1,s1,a5
80007b34:	f4028793          	addi	a5,t0,-192
80007b38:	000b8713          	mv	a4,s7
80007b3c:	fba42823          	sw	s10,-80(s0)
80007b40:	0087a903          	lw	s2,8(a5)
80007b44:	00c7a983          	lw	s3,12(a5)
80007b48:	0107af03          	lw	t5,16(a5)
80007b4c:	0147af83          	lw	t6,20(a5)
80007b50:	0187ae03          	lw	t3,24(a5)
80007b54:	01c7ae83          	lw	t4,28(a5)
80007b58:	0207a303          	lw	t1,32(a5)
80007b5c:	0247a383          	lw	t2,36(a5)
80007b60:	0287a803          	lw	a6,40(a5)
80007b64:	02c7a883          	lw	a7,44(a5)
80007b68:	0307a503          	lw	a0,48(a5)
80007b6c:	0347a583          	lw	a1,52(a5)
80007b70:	0387a603          	lw	a2,56(a5)
80007b74:	03c7a683          	lw	a3,60(a5)
80007b78:	0007ad03          	lw	s10,0(a5)
80007b7c:	0047ad83          	lw	s11,4(a5)
80007b80:	01272423          	sw	s2,8(a4)
80007b84:	01a72023          	sw	s10,0(a4)
80007b88:	01b72223          	sw	s11,4(a4)
80007b8c:	01372623          	sw	s3,12(a4)
80007b90:	01e72823          	sw	t5,16(a4)
80007b94:	01f72a23          	sw	t6,20(a4)
80007b98:	01c72c23          	sw	t3,24(a4)
80007b9c:	01d72e23          	sw	t4,28(a4)
80007ba0:	02672023          	sw	t1,32(a4)
80007ba4:	02772223          	sw	t2,36(a4)
80007ba8:	03072423          	sw	a6,40(a4)
80007bac:	03172623          	sw	a7,44(a4)
80007bb0:	02a72823          	sw	a0,48(a4)
80007bb4:	02b72a23          	sw	a1,52(a4)
80007bb8:	02c72c23          	sw	a2,56(a4)
80007bbc:	02d72e23          	sw	a3,60(a4)
80007bc0:	04078793          	addi	a5,a5,64
80007bc4:	04070713          	addi	a4,a4,64
80007bc8:	f6f29ce3          	bne	t0,a5,80007b40 <mm_cb+0x6778>
80007bcc:	0042a783          	lw	a5,4(t0)
80007bd0:	0002a703          	lw	a4,0(t0)
80007bd4:	0c828293          	addi	t0,t0,200
80007bd8:	0cfba223          	sw	a5,196(s7)
80007bdc:	e2442783          	lw	a5,-476(s0)
80007be0:	0ceba023          	sw	a4,192(s7)
80007be4:	fb042d03          	lw	s10,-80(s0)
80007be8:	00fb8bb3          	add	s7,s7,a5
80007bec:	f45494e3          	bne	s1,t0,80007b34 <mm_cb+0x676c>
80007bf0:	e4042783          	lw	a5,-448(s0)
80007bf4:	019b0b13          	addi	s6,s6,25
80007bf8:	0c8c8c93          	addi	s9,s9,200
80007bfc:	f0fb64e3          	bltu	s6,a5,80007b04 <mm_cb+0x673c>
80007c00:	e3042783          	lw	a5,-464(s0)
80007c04:	018a8a93          	addi	s5,s5,24
80007c08:	01ac0c33          	add	s8,s8,s10
80007c0c:	ecfaece3          	bltu	s5,a5,80007ae4 <mm_cb+0x671c>
80007c10:	d7040113          	addi	sp,s0,-656
80007c14:	28c12083          	lw	ra,652(sp)
80007c18:	28812403          	lw	s0,648(sp)
80007c1c:	28412483          	lw	s1,644(sp)
80007c20:	28012903          	lw	s2,640(sp)
80007c24:	27c12983          	lw	s3,636(sp)
80007c28:	27812a03          	lw	s4,632(sp)
80007c2c:	27412a83          	lw	s5,628(sp)
80007c30:	27012b03          	lw	s6,624(sp)
80007c34:	26c12b83          	lw	s7,620(sp)
80007c38:	26812c03          	lw	s8,616(sp)
80007c3c:	26412c83          	lw	s9,612(sp)
80007c40:	26012d03          	lw	s10,608(sp)
80007c44:	25c12d83          	lw	s11,604(sp)
80007c48:	29010113          	addi	sp,sp,656
80007c4c:	00008067          	ret
80007c50:	e3842783          	lw	a5,-456(s0)
80007c54:	00078463          	beqz	a5,80007c5c <mm_cb+0x6894>
80007c58:	a05f906f          	j	8000165c <mm_cb+0x294>
80007c5c:	de842783          	lw	a5,-536(s0)
80007c60:	fa0788e3          	beqz	a5,80007c10 <mm_cb+0x6848>
80007c64:	e1842783          	lw	a5,-488(s0)
80007c68:	00079463          	bnez	a5,80007c70 <mm_cb+0x68a8>
80007c6c:	29c0206f          	j	80009f08 <mm_cb+0x8b40>
80007c70:	de842783          	lw	a5,-536(s0)
80007c74:	01800693          	li	a3,24
80007c78:	e4442603          	lw	a2,-444(s0)
80007c7c:	02d7f6b3          	remu	a3,a5,a3
80007c80:	00042783          	lw	a5,0(s0)
80007c84:	00261713          	slli	a4,a2,0x2
80007c88:	00361893          	slli	a7,a2,0x3
80007c8c:	00379513          	slli	a0,a5,0x3
80007c90:	e3c42803          	lw	a6,-452(s0)
80007c94:	00161793          	slli	a5,a2,0x1
80007c98:	00c70733          	add	a4,a4,a2
80007c9c:	00c787b3          	add	a5,a5,a2
80007ca0:	00371713          	slli	a4,a4,0x3
80007ca4:	eb142c23          	sw	a7,-328(s0)
80007ca8:	00461893          	slli	a7,a2,0x4
80007cac:	e7142e23          	sw	a7,-388(s0)
80007cb0:	e6e42823          	sw	a4,-400(s0)
80007cb4:	00379893          	slli	a7,a5,0x3
80007cb8:	00479713          	slli	a4,a5,0x4
80007cbc:	00679793          	slli	a5,a5,0x6
80007cc0:	dcf42623          	sw	a5,-564(s0)
80007cc4:	00581793          	slli	a5,a6,0x5
80007cc8:	dcf42823          	sw	a5,-560(s0)
80007ccc:	00042783          	lw	a5,0(s0)
80007cd0:	e8e42023          	sw	a4,-384(s0)
80007cd4:	de442703          	lw	a4,-540(s0)
80007cd8:	00579793          	slli	a5,a5,0x5
80007cdc:	dcf42a23          	sw	a5,-556(s0)
80007ce0:	e3042783          	lw	a5,-464(s0)
80007ce4:	e0e42623          	sw	a4,-500(s0)
80007ce8:	00561613          	slli	a2,a2,0x5
80007cec:	e6c42c23          	sw	a2,-392(s0)
80007cf0:	00381593          	slli	a1,a6,0x3
80007cf4:	eab42823          	sw	a1,-336(s0)
80007cf8:	e2a42223          	sw	a0,-476(s0)
80007cfc:	e7142a23          	sw	a7,-396(s0)
80007d00:	e0042e23          	sw	zero,-484(s0)
80007d04:	02a78733          	mul	a4,a5,a0
80007d08:	ffc6f613          	andi	a2,a3,-4
80007d0c:	0036f693          	andi	a3,a3,3
80007d10:	ded42623          	sw	a3,-532(s0)
80007d14:	e0842683          	lw	a3,-504(s0)
80007d18:	dec42e23          	sw	a2,-516(s0)
80007d1c:	00e68733          	add	a4,a3,a4
80007d20:	e2e42c23          	sw	a4,-456(s0)
80007d24:	02b60733          	mul	a4,a2,a1
80007d28:	02b787b3          	mul	a5,a5,a1
80007d2c:	dee42423          	sw	a4,-536(s0)
80007d30:	dc442703          	lw	a4,-572(s0)
80007d34:	00f707b3          	add	a5,a4,a5
80007d38:	dcf42c23          	sw	a5,-552(s0)
80007d3c:	02a607b3          	mul	a5,a2,a0
80007d40:	def42223          	sw	a5,-540(s0)
80007d44:	e3442783          	lw	a5,-460(s0)
80007d48:	00079463          	bnez	a5,80007d50 <mm_cb+0x6988>
80007d4c:	18c0206f          	j	80009ed8 <mm_cb+0x8b10>
80007d50:	e1c42703          	lw	a4,-484(s0)
80007d54:	e1842783          	lw	a5,-488(s0)
80007d58:	40e787b3          	sub	a5,a5,a4
80007d5c:	e2f42023          	sw	a5,-480(s0)
80007d60:	01900713          	li	a4,25
80007d64:	00f77663          	bgeu	a4,a5,80007d70 <mm_cb+0x69a8>
80007d68:	01900793          	li	a5,25
80007d6c:	e2f42023          	sw	a5,-480(s0)
80007d70:	e2042703          	lw	a4,-480(s0)
80007d74:	00500693          	li	a3,5
80007d78:	de442603          	lw	a2,-540(s0)
80007d7c:	02d757b3          	divu	a5,a4,a3
80007d80:	e3842583          	lw	a1,-456(s0)
80007d84:	e0042823          	sw	zero,-496(s0)
80007d88:	00b60633          	add	a2,a2,a1
80007d8c:	dec42023          	sw	a2,-544(s0)
80007d90:	dd842603          	lw	a2,-552(s0)
80007d94:	e0c42223          	sw	a2,-508(s0)
80007d98:	e0c42603          	lw	a2,-500(s0)
80007d9c:	e2c42623          	sw	a2,-468(s0)
80007da0:	02d77733          	remu	a4,a4,a3
80007da4:	dee42823          	sw	a4,-528(s0)
80007da8:	00279713          	slli	a4,a5,0x2
80007dac:	00f707b3          	add	a5,a4,a5
80007db0:	e4f42823          	sw	a5,-432(s0)
80007db4:	00379793          	slli	a5,a5,0x3
80007db8:	def42a23          	sw	a5,-524(s0)
80007dbc:	e1042703          	lw	a4,-496(s0)
80007dc0:	e3442783          	lw	a5,-460(s0)
80007dc4:	40e787b3          	sub	a5,a5,a4
80007dc8:	e4f42423          	sw	a5,-440(s0)
80007dcc:	01800713          	li	a4,24
80007dd0:	00f77663          	bgeu	a4,a5,80007ddc <mm_cb+0x6a14>
80007dd4:	01800793          	li	a5,24
80007dd8:	e4f42423          	sw	a5,-440(s0)
80007ddc:	dfc42783          	lw	a5,-516(s0)
80007de0:	00079463          	bnez	a5,80007de8 <mm_cb+0x6a20>
80007de4:	0900206f          	j	80009e74 <mm_cb+0x8aac>
80007de8:	e2c42603          	lw	a2,-468(s0)
80007dec:	df442683          	lw	a3,-524(s0)
80007df0:	e4842703          	lw	a4,-440(s0)
80007df4:	de042c23          	sw	zero,-520(s0)
80007df8:	00c686b3          	add	a3,a3,a2
80007dfc:	dcd42e23          	sw	a3,-548(s0)
80007e00:	e0442683          	lw	a3,-508(s0)
80007e04:	00371793          	slli	a5,a4,0x3
80007e08:	e8042603          	lw	a2,-384(s0)
80007e0c:	00f687b3          	add	a5,a3,a5
80007e10:	e8f42223          	sw	a5,-380(s0)
80007e14:	e3842783          	lw	a5,-456(s0)
80007e18:	e4d42a23          	sw	a3,-428(s0)
80007e1c:	e0f42023          	sw	a5,-512(s0)
80007e20:	00600793          	li	a5,6
80007e24:	02f75733          	divu	a4,a4,a5
80007e28:	00171793          	slli	a5,a4,0x1
80007e2c:	00e787b3          	add	a5,a5,a4
80007e30:	02c70733          	mul	a4,a4,a2
80007e34:	00479793          	slli	a5,a5,0x4
80007e38:	00f687b3          	add	a5,a3,a5
80007e3c:	e8f42423          	sw	a5,-376(s0)
80007e40:	e4e42623          	sw	a4,-436(s0)
80007e44:	e5042783          	lw	a5,-432(s0)
80007e48:	00079463          	bnez	a5,80007e50 <mm_cb+0x6a88>
80007e4c:	7a90106f          	j	80009df4 <mm_cb+0x8a2c>
80007e50:	e2442783          	lw	a5,-476(s0)
80007e54:	e0042683          	lw	a3,-512(s0)
80007e58:	e4042c23          	sw	zero,-424(s0)
80007e5c:	00d78733          	add	a4,a5,a3
80007e60:	e6e42023          	sw	a4,-416(s0)
80007e64:	00e78733          	add	a4,a5,a4
80007e68:	00e787b3          	add	a5,a5,a4
80007e6c:	e6f42423          	sw	a5,-408(s0)
80007e70:	e2c42783          	lw	a5,-468(s0)
80007e74:	e6e42223          	sw	a4,-412(s0)
80007e78:	e4d42e23          	sw	a3,-420(s0)
80007e7c:	e6f42623          	sw	a5,-404(s0)
80007e80:	e5c42783          	lw	a5,-420(s0)
80007e84:	0087a703          	lw	a4,8(a5)
80007e88:	0007af03          	lw	t5,0(a5)
80007e8c:	0047ae83          	lw	t4,4(a5)
80007e90:	f8e42c23          	sw	a4,-104(s0)
80007e94:	00c7a703          	lw	a4,12(a5)
80007e98:	f8e42a23          	sw	a4,-108(s0)
80007e9c:	0107a703          	lw	a4,16(a5)
80007ea0:	f8e42423          	sw	a4,-120(s0)
80007ea4:	0147a703          	lw	a4,20(a5)
80007ea8:	f8e42823          	sw	a4,-112(s0)
80007eac:	0187a703          	lw	a4,24(a5)
80007eb0:	f8e42023          	sw	a4,-128(s0)
80007eb4:	01c7a703          	lw	a4,28(a5)
80007eb8:	f6e42e23          	sw	a4,-132(s0)
80007ebc:	0207a703          	lw	a4,32(a5)
80007ec0:	0247a783          	lw	a5,36(a5)
80007ec4:	f6e42823          	sw	a4,-144(s0)
80007ec8:	f6f42423          	sw	a5,-152(s0)
80007ecc:	e6042783          	lw	a5,-416(s0)
80007ed0:	0007a703          	lw	a4,0(a5)
80007ed4:	f6e42c23          	sw	a4,-136(s0)
80007ed8:	0047a703          	lw	a4,4(a5)
80007edc:	f6e42023          	sw	a4,-160(s0)
80007ee0:	0087a703          	lw	a4,8(a5)
80007ee4:	f4e42e23          	sw	a4,-164(s0)
80007ee8:	00c7a703          	lw	a4,12(a5)
80007eec:	f4e42823          	sw	a4,-176(s0)
80007ef0:	0107a703          	lw	a4,16(a5)
80007ef4:	f4e42c23          	sw	a4,-168(s0)
80007ef8:	0147a703          	lw	a4,20(a5)
80007efc:	f4e42423          	sw	a4,-184(s0)
80007f00:	0187a703          	lw	a4,24(a5)
80007f04:	f4e42223          	sw	a4,-188(s0)
80007f08:	01c7a703          	lw	a4,28(a5)
80007f0c:	f2e42c23          	sw	a4,-200(s0)
80007f10:	0207a703          	lw	a4,32(a5)
80007f14:	0247a783          	lw	a5,36(a5)
80007f18:	f4e42023          	sw	a4,-192(s0)
80007f1c:	f2f42a23          	sw	a5,-204(s0)
80007f20:	e6442783          	lw	a5,-412(s0)
80007f24:	0007a703          	lw	a4,0(a5)
80007f28:	f2e42823          	sw	a4,-208(s0)
80007f2c:	0047a703          	lw	a4,4(a5)
80007f30:	f2e42623          	sw	a4,-212(s0)
80007f34:	0087a703          	lw	a4,8(a5)
80007f38:	f2e42423          	sw	a4,-216(s0)
80007f3c:	00c7a703          	lw	a4,12(a5)
80007f40:	f2e42223          	sw	a4,-220(s0)
80007f44:	0107a703          	lw	a4,16(a5)
80007f48:	f2e42023          	sw	a4,-224(s0)
80007f4c:	0147a703          	lw	a4,20(a5)
80007f50:	f0e42e23          	sw	a4,-228(s0)
80007f54:	0187a703          	lw	a4,24(a5)
80007f58:	f0e42c23          	sw	a4,-232(s0)
80007f5c:	01c7a703          	lw	a4,28(a5)
80007f60:	f0e42a23          	sw	a4,-236(s0)
80007f64:	0207a703          	lw	a4,32(a5)
80007f68:	0247a783          	lw	a5,36(a5)
80007f6c:	f0e42423          	sw	a4,-248(s0)
80007f70:	f0f42823          	sw	a5,-240(s0)
80007f74:	e6842783          	lw	a5,-408(s0)
80007f78:	0007a703          	lw	a4,0(a5)
80007f7c:	f0e42023          	sw	a4,-256(s0)
80007f80:	0047a703          	lw	a4,4(a5)
80007f84:	e6c42483          	lw	s1,-404(s0)
80007f88:	eee42c23          	sw	a4,-264(s0)
80007f8c:	0087a703          	lw	a4,8(a5)
80007f90:	eee42823          	sw	a4,-272(s0)
80007f94:	00c7a703          	lw	a4,12(a5)
80007f98:	eee42423          	sw	a4,-280(s0)
80007f9c:	0107a703          	lw	a4,16(a5)
80007fa0:	eee42023          	sw	a4,-288(s0)
80007fa4:	0147a703          	lw	a4,20(a5)
80007fa8:	ece42c23          	sw	a4,-296(s0)
80007fac:	0187a703          	lw	a4,24(a5)
80007fb0:	ece42823          	sw	a4,-304(s0)
80007fb4:	01c7a703          	lw	a4,28(a5)
80007fb8:	ece42423          	sw	a4,-312(s0)
80007fbc:	0207a703          	lw	a4,32(a5)
80007fc0:	0247a783          	lw	a5,36(a5)
80007fc4:	ece42023          	sw	a4,-320(s0)
80007fc8:	eaf42e23          	sw	a5,-324(s0)
80007fcc:	e8842703          	lw	a4,-376(s0)
80007fd0:	e5442783          	lw	a5,-428(s0)
80007fd4:	00e7e463          	bltu	a5,a4,80007fdc <mm_cb+0x6c14>
80007fd8:	04d0106f          	j	80009824 <mm_cb+0x845c>
80007fdc:	eb042703          	lw	a4,-336(s0)
80007fe0:	faf42c23          	sw	a5,-72(s0)
80007fe4:	00f706b3          	add	a3,a4,a5
80007fe8:	fad42023          	sw	a3,-96(s0)
80007fec:	00d706b3          	add	a3,a4,a3
80007ff0:	00d70733          	add	a4,a4,a3
80007ff4:	fad42423          	sw	a3,-88(s0)
80007ff8:	fae42823          	sw	a4,-80(s0)
80007ffc:	fb842783          	lw	a5,-72(s0)
80008000:	0004ad03          	lw	s10,0(s1)
80008004:	0044ad83          	lw	s11,4(s1)
80008008:	0007a903          	lw	s2,0(a5)
8000800c:	0047a983          	lw	s3,4(a5)
80008010:	000f0713          	mv	a4,t5
80008014:	000e8793          	mv	a5,t4
80008018:	000d0613          	mv	a2,s10
8000801c:	000d8693          	mv	a3,s11
80008020:	00090513          	mv	a0,s2
80008024:	00098593          	mv	a1,s3
80008028:	3f4050ef          	jal	ra,8000d41c <fma>
8000802c:	0084ac03          	lw	s8,8(s1)
80008030:	00c4ac83          	lw	s9,12(s1)
80008034:	f9842703          	lw	a4,-104(s0)
80008038:	f9442783          	lw	a5,-108(s0)
8000803c:	00050313          	mv	t1,a0
80008040:	00058e13          	mv	t3,a1
80008044:	000c0613          	mv	a2,s8
80008048:	000c8693          	mv	a3,s9
8000804c:	00090513          	mv	a0,s2
80008050:	00098593          	mv	a1,s3
80008054:	e8642623          	sw	t1,-372(s0)
80008058:	e9c42823          	sw	t3,-368(s0)
8000805c:	3c0050ef          	jal	ra,8000d41c <fma>
80008060:	0104ab03          	lw	s6,16(s1)
80008064:	0144ab83          	lw	s7,20(s1)
80008068:	f8842703          	lw	a4,-120(s0)
8000806c:	f9042783          	lw	a5,-112(s0)
80008070:	00050e93          	mv	t4,a0
80008074:	00058f13          	mv	t5,a1
80008078:	000b0613          	mv	a2,s6
8000807c:	000b8693          	mv	a3,s7
80008080:	00090513          	mv	a0,s2
80008084:	00098593          	mv	a1,s3
80008088:	e9d42a23          	sw	t4,-364(s0)
8000808c:	e9e42c23          	sw	t5,-360(s0)
80008090:	38c050ef          	jal	ra,8000d41c <fma>
80008094:	0184aa03          	lw	s4,24(s1)
80008098:	01c4aa83          	lw	s5,28(s1)
8000809c:	f8042703          	lw	a4,-128(s0)
800080a0:	f7c42783          	lw	a5,-132(s0)
800080a4:	00050f93          	mv	t6,a0
800080a8:	00058293          	mv	t0,a1
800080ac:	000a0613          	mv	a2,s4
800080b0:	000a8693          	mv	a3,s5
800080b4:	00090513          	mv	a0,s2
800080b8:	00098593          	mv	a1,s3
800080bc:	e9f42e23          	sw	t6,-356(s0)
800080c0:	ea542023          	sw	t0,-352(s0)
800080c4:	358050ef          	jal	ra,8000d41c <fma>
800080c8:	0204a803          	lw	a6,32(s1)
800080cc:	0244a883          	lw	a7,36(s1)
800080d0:	f7042703          	lw	a4,-144(s0)
800080d4:	f6842783          	lw	a5,-152(s0)
800080d8:	00080613          	mv	a2,a6
800080dc:	00088693          	mv	a3,a7
800080e0:	00050093          	mv	ra,a0
800080e4:	00058393          	mv	t2,a1
800080e8:	00090513          	mv	a0,s2
800080ec:	00098593          	mv	a1,s3
800080f0:	eb042423          	sw	a6,-344(s0)
800080f4:	eb142623          	sw	a7,-340(s0)
800080f8:	f8142c23          	sw	ra,-104(s0)
800080fc:	f8742a23          	sw	t2,-108(s0)
80008100:	31c050ef          	jal	ra,8000d41c <fma>
80008104:	fa042703          	lw	a4,-96(s0)
80008108:	f6042783          	lw	a5,-160(s0)
8000810c:	00050093          	mv	ra,a0
80008110:	00072903          	lw	s2,0(a4)
80008114:	00472983          	lw	s3,4(a4)
80008118:	f7842703          	lw	a4,-136(s0)
8000811c:	00058393          	mv	t2,a1
80008120:	000d0613          	mv	a2,s10
80008124:	000d8693          	mv	a3,s11
80008128:	f8142423          	sw	ra,-120(s0)
8000812c:	00090513          	mv	a0,s2
80008130:	00098593          	mv	a1,s3
80008134:	f8742823          	sw	t2,-112(s0)
80008138:	2e4050ef          	jal	ra,8000d41c <fma>
8000813c:	f5c42703          	lw	a4,-164(s0)
80008140:	f5042783          	lw	a5,-176(s0)
80008144:	00050093          	mv	ra,a0
80008148:	00058393          	mv	t2,a1
8000814c:	000c0613          	mv	a2,s8
80008150:	000c8693          	mv	a3,s9
80008154:	00090513          	mv	a0,s2
80008158:	00098593          	mv	a1,s3
8000815c:	f8142023          	sw	ra,-128(s0)
80008160:	f6742e23          	sw	t2,-132(s0)
80008164:	2b8050ef          	jal	ra,8000d41c <fma>
80008168:	f5842703          	lw	a4,-168(s0)
8000816c:	f4842783          	lw	a5,-184(s0)
80008170:	00050093          	mv	ra,a0
80008174:	00058393          	mv	t2,a1
80008178:	000b0613          	mv	a2,s6
8000817c:	000b8693          	mv	a3,s7
80008180:	00090513          	mv	a0,s2
80008184:	00098593          	mv	a1,s3
80008188:	f6142823          	sw	ra,-144(s0)
8000818c:	f6742423          	sw	t2,-152(s0)
80008190:	28c050ef          	jal	ra,8000d41c <fma>
80008194:	f4442703          	lw	a4,-188(s0)
80008198:	f3842783          	lw	a5,-200(s0)
8000819c:	00050093          	mv	ra,a0
800081a0:	00058393          	mv	t2,a1
800081a4:	000a0613          	mv	a2,s4
800081a8:	000a8693          	mv	a3,s5
800081ac:	00090513          	mv	a0,s2
800081b0:	00098593          	mv	a1,s3
800081b4:	f6142c23          	sw	ra,-136(s0)
800081b8:	f6742023          	sw	t2,-160(s0)
800081bc:	260050ef          	jal	ra,8000d41c <fma>
800081c0:	eac42883          	lw	a7,-340(s0)
800081c4:	ea842803          	lw	a6,-344(s0)
800081c8:	f4042703          	lw	a4,-192(s0)
800081cc:	f3442783          	lw	a5,-204(s0)
800081d0:	00080613          	mv	a2,a6
800081d4:	00088693          	mv	a3,a7
800081d8:	00050093          	mv	ra,a0
800081dc:	00058393          	mv	t2,a1
800081e0:	00090513          	mv	a0,s2
800081e4:	00098593          	mv	a1,s3
800081e8:	f4142e23          	sw	ra,-164(s0)
800081ec:	f4742823          	sw	t2,-176(s0)
800081f0:	22c050ef          	jal	ra,8000d41c <fma>
800081f4:	fa842683          	lw	a3,-88(s0)
800081f8:	f3042703          	lw	a4,-208(s0)
800081fc:	f2c42783          	lw	a5,-212(s0)
80008200:	0006a903          	lw	s2,0(a3)
80008204:	0046a983          	lw	s3,4(a3)
80008208:	00050093          	mv	ra,a0
8000820c:	00058393          	mv	t2,a1
80008210:	000d0613          	mv	a2,s10
80008214:	000d8693          	mv	a3,s11
80008218:	00090513          	mv	a0,s2
8000821c:	00098593          	mv	a1,s3
80008220:	f4142c23          	sw	ra,-168(s0)
80008224:	f4742423          	sw	t2,-184(s0)
80008228:	1f4050ef          	jal	ra,8000d41c <fma>
8000822c:	f2842703          	lw	a4,-216(s0)
80008230:	f2442783          	lw	a5,-220(s0)
80008234:	00050093          	mv	ra,a0
80008238:	00058393          	mv	t2,a1
8000823c:	000c0613          	mv	a2,s8
80008240:	000c8693          	mv	a3,s9
80008244:	00090513          	mv	a0,s2
80008248:	00098593          	mv	a1,s3
8000824c:	f4142223          	sw	ra,-188(s0)
80008250:	f2742c23          	sw	t2,-200(s0)
80008254:	1c8050ef          	jal	ra,8000d41c <fma>
80008258:	f2042703          	lw	a4,-224(s0)
8000825c:	f1c42783          	lw	a5,-228(s0)
80008260:	00050093          	mv	ra,a0
80008264:	00058393          	mv	t2,a1
80008268:	000b0613          	mv	a2,s6
8000826c:	000b8693          	mv	a3,s7
80008270:	00090513          	mv	a0,s2
80008274:	00098593          	mv	a1,s3
80008278:	f4142023          	sw	ra,-192(s0)
8000827c:	f2742a23          	sw	t2,-204(s0)
80008280:	19c050ef          	jal	ra,8000d41c <fma>
80008284:	f1842703          	lw	a4,-232(s0)
80008288:	f1442783          	lw	a5,-236(s0)
8000828c:	00050093          	mv	ra,a0
80008290:	00058393          	mv	t2,a1
80008294:	000a0613          	mv	a2,s4
80008298:	000a8693          	mv	a3,s5
8000829c:	00090513          	mv	a0,s2
800082a0:	00098593          	mv	a1,s3
800082a4:	f2142823          	sw	ra,-208(s0)
800082a8:	f2742623          	sw	t2,-212(s0)
800082ac:	170050ef          	jal	ra,8000d41c <fma>
800082b0:	f0842703          	lw	a4,-248(s0)
800082b4:	f1042783          	lw	a5,-240(s0)
800082b8:	ea842803          	lw	a6,-344(s0)
800082bc:	eac42883          	lw	a7,-340(s0)
800082c0:	00050093          	mv	ra,a0
800082c4:	00080613          	mv	a2,a6
800082c8:	00088693          	mv	a3,a7
800082cc:	00058393          	mv	t2,a1
800082d0:	00090513          	mv	a0,s2
800082d4:	00098593          	mv	a1,s3
800082d8:	f2142423          	sw	ra,-216(s0)
800082dc:	f2742223          	sw	t2,-220(s0)
800082e0:	13c050ef          	jal	ra,8000d41c <fma>
800082e4:	fb042603          	lw	a2,-80(s0)
800082e8:	f0042703          	lw	a4,-256(s0)
800082ec:	ef842783          	lw	a5,-264(s0)
800082f0:	00062903          	lw	s2,0(a2)
800082f4:	00462983          	lw	s3,4(a2)
800082f8:	00050093          	mv	ra,a0
800082fc:	00058393          	mv	t2,a1
80008300:	000d0613          	mv	a2,s10
80008304:	000d8693          	mv	a3,s11
80008308:	00090513          	mv	a0,s2
8000830c:	00098593          	mv	a1,s3
80008310:	f2142023          	sw	ra,-224(s0)
80008314:	f0742e23          	sw	t2,-228(s0)
80008318:	104050ef          	jal	ra,8000d41c <fma>
8000831c:	ef042703          	lw	a4,-272(s0)
80008320:	ee842783          	lw	a5,-280(s0)
80008324:	00050093          	mv	ra,a0
80008328:	00058393          	mv	t2,a1
8000832c:	000c0613          	mv	a2,s8
80008330:	000c8693          	mv	a3,s9
80008334:	00090513          	mv	a0,s2
80008338:	00098593          	mv	a1,s3
8000833c:	f0142c23          	sw	ra,-232(s0)
80008340:	f0742a23          	sw	t2,-236(s0)
80008344:	0d8050ef          	jal	ra,8000d41c <fma>
80008348:	ee042703          	lw	a4,-288(s0)
8000834c:	ed842783          	lw	a5,-296(s0)
80008350:	00050093          	mv	ra,a0
80008354:	00058393          	mv	t2,a1
80008358:	000b0613          	mv	a2,s6
8000835c:	000b8693          	mv	a3,s7
80008360:	00090513          	mv	a0,s2
80008364:	00098593          	mv	a1,s3
80008368:	f0142423          	sw	ra,-248(s0)
8000836c:	f0742823          	sw	t2,-240(s0)
80008370:	0ac050ef          	jal	ra,8000d41c <fma>
80008374:	ec842783          	lw	a5,-312(s0)
80008378:	ed042703          	lw	a4,-304(s0)
8000837c:	00050093          	mv	ra,a0
80008380:	00058393          	mv	t2,a1
80008384:	000a0613          	mv	a2,s4
80008388:	000a8693          	mv	a3,s5
8000838c:	00090513          	mv	a0,s2
80008390:	00098593          	mv	a1,s3
80008394:	f0142023          	sw	ra,-256(s0)
80008398:	ee742c23          	sw	t2,-264(s0)
8000839c:	080050ef          	jal	ra,8000d41c <fma>
800083a0:	ea842803          	lw	a6,-344(s0)
800083a4:	eac42883          	lw	a7,-340(s0)
800083a8:	00058393          	mv	t2,a1
800083ac:	eb842583          	lw	a1,-328(s0)
800083b0:	ec042703          	lw	a4,-320(s0)
800083b4:	ebc42783          	lw	a5,-324(s0)
800083b8:	00958a33          	add	s4,a1,s1
800083bc:	00050093          	mv	ra,a0
800083c0:	00080613          	mv	a2,a6
800083c4:	00088693          	mv	a3,a7
800083c8:	00090513          	mv	a0,s2
800083cc:	00098593          	mv	a1,s3
800083d0:	ee142823          	sw	ra,-272(s0)
800083d4:	ee742423          	sw	t2,-280(s0)
800083d8:	044050ef          	jal	ra,8000d41c <fma>
800083dc:	fb842783          	lw	a5,-72(s0)
800083e0:	000a2803          	lw	a6,0(s4)
800083e4:	004a2883          	lw	a7,4(s4)
800083e8:	0087a903          	lw	s2,8(a5)
800083ec:	00c7a983          	lw	s3,12(a5)
800083f0:	e8c42303          	lw	t1,-372(s0)
800083f4:	e9042e03          	lw	t3,-368(s0)
800083f8:	00050093          	mv	ra,a0
800083fc:	00058393          	mv	t2,a1
80008400:	00080613          	mv	a2,a6
80008404:	00088693          	mv	a3,a7
80008408:	ed042423          	sw	a6,-312(s0)
8000840c:	00030713          	mv	a4,t1
80008410:	000e0793          	mv	a5,t3
80008414:	00090513          	mv	a0,s2
80008418:	00098593          	mv	a1,s3
8000841c:	ed142623          	sw	a7,-308(s0)
80008420:	ee142023          	sw	ra,-288(s0)
80008424:	ec742023          	sw	t2,-320(s0)
80008428:	7f5040ef          	jal	ra,8000d41c <fma>
8000842c:	e9442e83          	lw	t4,-364(s0)
80008430:	e9842f03          	lw	t5,-360(s0)
80008434:	008a2d03          	lw	s10,8(s4)
80008438:	00ca2d83          	lw	s11,12(s4)
8000843c:	000e8713          	mv	a4,t4
80008440:	000f0793          	mv	a5,t5
80008444:	00050e13          	mv	t3,a0
80008448:	00058313          	mv	t1,a1
8000844c:	000d0613          	mv	a2,s10
80008450:	000d8693          	mv	a3,s11
80008454:	00090513          	mv	a0,s2
80008458:	00098593          	mv	a1,s3
8000845c:	edc42c23          	sw	t3,-296(s0)
80008460:	ec642823          	sw	t1,-304(s0)
80008464:	7b9040ef          	jal	ra,8000d41c <fma>
80008468:	e9c42f83          	lw	t6,-356(s0)
8000846c:	ea042283          	lw	t0,-352(s0)
80008470:	010a2c03          	lw	s8,16(s4)
80008474:	014a2c83          	lw	s9,20(s4)
80008478:	000f8713          	mv	a4,t6
8000847c:	00028793          	mv	a5,t0
80008480:	00050e13          	mv	t3,a0
80008484:	00058313          	mv	t1,a1
80008488:	000c0613          	mv	a2,s8
8000848c:	000c8693          	mv	a3,s9
80008490:	00090513          	mv	a0,s2
80008494:	00098593          	mv	a1,s3
80008498:	e9c42e23          	sw	t3,-356(s0)
8000849c:	ea642e23          	sw	t1,-324(s0)
800084a0:	77d040ef          	jal	ra,8000d41c <fma>
800084a4:	018a2b03          	lw	s6,24(s4)
800084a8:	01ca2b83          	lw	s7,28(s4)
800084ac:	f9842703          	lw	a4,-104(s0)
800084b0:	f9442783          	lw	a5,-108(s0)
800084b4:	00050e13          	mv	t3,a0
800084b8:	00058313          	mv	t1,a1
800084bc:	000b0613          	mv	a2,s6
800084c0:	000b8693          	mv	a3,s7
800084c4:	00090513          	mv	a0,s2
800084c8:	00098593          	mv	a1,s3
800084cc:	f9c42c23          	sw	t3,-104(s0)
800084d0:	f8642a23          	sw	t1,-108(s0)
800084d4:	749040ef          	jal	ra,8000d41c <fma>
800084d8:	024a2a83          	lw	s5,36(s4)
800084dc:	020a2a03          	lw	s4,32(s4)
800084e0:	f8842703          	lw	a4,-120(s0)
800084e4:	f9042783          	lw	a5,-112(s0)
800084e8:	00050e13          	mv	t3,a0
800084ec:	00058313          	mv	t1,a1
800084f0:	000a0613          	mv	a2,s4
800084f4:	000a8693          	mv	a3,s5
800084f8:	00090513          	mv	a0,s2
800084fc:	00098593          	mv	a1,s3
80008500:	f9c42423          	sw	t3,-120(s0)
80008504:	f8642823          	sw	t1,-112(s0)
80008508:	715040ef          	jal	ra,8000d41c <fma>
8000850c:	fa042703          	lw	a4,-96(s0)
80008510:	ec842803          	lw	a6,-312(s0)
80008514:	ecc42883          	lw	a7,-308(s0)
80008518:	00872903          	lw	s2,8(a4)
8000851c:	00c72983          	lw	s3,12(a4)
80008520:	f7c42783          	lw	a5,-132(s0)
80008524:	f8042703          	lw	a4,-128(s0)
80008528:	00080613          	mv	a2,a6
8000852c:	00088693          	mv	a3,a7
80008530:	00050e13          	mv	t3,a0
80008534:	00058313          	mv	t1,a1
80008538:	00090513          	mv	a0,s2
8000853c:	00098593          	mv	a1,s3
80008540:	f9c42023          	sw	t3,-128(s0)
80008544:	f6642e23          	sw	t1,-132(s0)
80008548:	6d5040ef          	jal	ra,8000d41c <fma>
8000854c:	f7042703          	lw	a4,-144(s0)
80008550:	f6842783          	lw	a5,-152(s0)
80008554:	00050e13          	mv	t3,a0
80008558:	00058313          	mv	t1,a1
8000855c:	000d0613          	mv	a2,s10
80008560:	000d8693          	mv	a3,s11
80008564:	f7c42823          	sw	t3,-144(s0)
80008568:	00090513          	mv	a0,s2
8000856c:	00098593          	mv	a1,s3
80008570:	f6642423          	sw	t1,-152(s0)
80008574:	6a9040ef          	jal	ra,8000d41c <fma>
80008578:	f7842703          	lw	a4,-136(s0)
8000857c:	f6042783          	lw	a5,-160(s0)
80008580:	00050e13          	mv	t3,a0
80008584:	00058313          	mv	t1,a1
80008588:	000c0613          	mv	a2,s8
8000858c:	000c8693          	mv	a3,s9
80008590:	00090513          	mv	a0,s2
80008594:	00098593          	mv	a1,s3
80008598:	f7c42c23          	sw	t3,-136(s0)
8000859c:	f6642023          	sw	t1,-160(s0)
800085a0:	67d040ef          	jal	ra,8000d41c <fma>
800085a4:	f5c42703          	lw	a4,-164(s0)
800085a8:	f5042783          	lw	a5,-176(s0)
800085ac:	00050e13          	mv	t3,a0
800085b0:	00058313          	mv	t1,a1
800085b4:	000b0613          	mv	a2,s6
800085b8:	000b8693          	mv	a3,s7
800085bc:	00090513          	mv	a0,s2
800085c0:	00098593          	mv	a1,s3
800085c4:	f5c42e23          	sw	t3,-164(s0)
800085c8:	f4642823          	sw	t1,-176(s0)
800085cc:	651040ef          	jal	ra,8000d41c <fma>
800085d0:	f5842703          	lw	a4,-168(s0)
800085d4:	f4842783          	lw	a5,-184(s0)
800085d8:	00050e13          	mv	t3,a0
800085dc:	00058313          	mv	t1,a1
800085e0:	000a0613          	mv	a2,s4
800085e4:	000a8693          	mv	a3,s5
800085e8:	00090513          	mv	a0,s2
800085ec:	00098593          	mv	a1,s3
800085f0:	f5c42c23          	sw	t3,-168(s0)
800085f4:	f4642423          	sw	t1,-184(s0)
800085f8:	625040ef          	jal	ra,8000d41c <fma>
800085fc:	fa842683          	lw	a3,-88(s0)
80008600:	ec842803          	lw	a6,-312(s0)
80008604:	ecc42883          	lw	a7,-308(s0)
80008608:	0086a903          	lw	s2,8(a3)
8000860c:	00c6a983          	lw	s3,12(a3)
80008610:	f4442703          	lw	a4,-188(s0)
80008614:	f3842783          	lw	a5,-200(s0)
80008618:	00080613          	mv	a2,a6
8000861c:	00088693          	mv	a3,a7
80008620:	00050e13          	mv	t3,a0
80008624:	00058313          	mv	t1,a1
80008628:	00090513          	mv	a0,s2
8000862c:	00098593          	mv	a1,s3
80008630:	f5c42223          	sw	t3,-188(s0)
80008634:	f2642c23          	sw	t1,-200(s0)
80008638:	5e5040ef          	jal	ra,8000d41c <fma>
8000863c:	f4042703          	lw	a4,-192(s0)
80008640:	f3442783          	lw	a5,-204(s0)
80008644:	00050e13          	mv	t3,a0
80008648:	00058313          	mv	t1,a1
8000864c:	000d0613          	mv	a2,s10
80008650:	000d8693          	mv	a3,s11
80008654:	00090513          	mv	a0,s2
80008658:	00098593          	mv	a1,s3
8000865c:	f5c42023          	sw	t3,-192(s0)
80008660:	f2642a23          	sw	t1,-204(s0)
80008664:	5b9040ef          	jal	ra,8000d41c <fma>
80008668:	f3042703          	lw	a4,-208(s0)
8000866c:	f2c42783          	lw	a5,-212(s0)
80008670:	00050e13          	mv	t3,a0
80008674:	00058313          	mv	t1,a1
80008678:	000c0613          	mv	a2,s8
8000867c:	000c8693          	mv	a3,s9
80008680:	00090513          	mv	a0,s2
80008684:	00098593          	mv	a1,s3
80008688:	f3c42823          	sw	t3,-208(s0)
8000868c:	f2642623          	sw	t1,-212(s0)
80008690:	58d040ef          	jal	ra,8000d41c <fma>
80008694:	f2842703          	lw	a4,-216(s0)
80008698:	f2442783          	lw	a5,-220(s0)
8000869c:	00050e13          	mv	t3,a0
800086a0:	00058313          	mv	t1,a1
800086a4:	000b0613          	mv	a2,s6
800086a8:	000b8693          	mv	a3,s7
800086ac:	00090513          	mv	a0,s2
800086b0:	00098593          	mv	a1,s3
800086b4:	f3c42423          	sw	t3,-216(s0)
800086b8:	f2642223          	sw	t1,-220(s0)
800086bc:	561040ef          	jal	ra,8000d41c <fma>
800086c0:	f2042703          	lw	a4,-224(s0)
800086c4:	f1c42783          	lw	a5,-228(s0)
800086c8:	00050e13          	mv	t3,a0
800086cc:	00058313          	mv	t1,a1
800086d0:	000a0613          	mv	a2,s4
800086d4:	000a8693          	mv	a3,s5
800086d8:	00090513          	mv	a0,s2
800086dc:	00098593          	mv	a1,s3
800086e0:	f3c42023          	sw	t3,-224(s0)
800086e4:	f0642e23          	sw	t1,-228(s0)
800086e8:	535040ef          	jal	ra,8000d41c <fma>
800086ec:	fb042603          	lw	a2,-80(s0)
800086f0:	00050e13          	mv	t3,a0
800086f4:	00058313          	mv	t1,a1
800086f8:	00862903          	lw	s2,8(a2)
800086fc:	00c62983          	lw	s3,12(a2)
80008700:	ec842803          	lw	a6,-312(s0)
80008704:	ecc42883          	lw	a7,-308(s0)
80008708:	f1842703          	lw	a4,-232(s0)
8000870c:	f1442783          	lw	a5,-236(s0)
80008710:	00080613          	mv	a2,a6
80008714:	00088693          	mv	a3,a7
80008718:	00090513          	mv	a0,s2
8000871c:	00098593          	mv	a1,s3
80008720:	f1c42c23          	sw	t3,-232(s0)
80008724:	f0642a23          	sw	t1,-236(s0)
80008728:	4f5040ef          	jal	ra,8000d41c <fma>
8000872c:	f0842703          	lw	a4,-248(s0)
80008730:	f1042783          	lw	a5,-240(s0)
80008734:	00050893          	mv	a7,a0
80008738:	00058813          	mv	a6,a1
8000873c:	000d0613          	mv	a2,s10
80008740:	000d8693          	mv	a3,s11
80008744:	00090513          	mv	a0,s2
80008748:	00098593          	mv	a1,s3
8000874c:	f1142423          	sw	a7,-248(s0)
80008750:	f1042823          	sw	a6,-240(s0)
80008754:	4c9040ef          	jal	ra,8000d41c <fma>
80008758:	f0042703          	lw	a4,-256(s0)
8000875c:	ef842783          	lw	a5,-264(s0)
80008760:	00050893          	mv	a7,a0
80008764:	00058813          	mv	a6,a1
80008768:	000c0613          	mv	a2,s8
8000876c:	000c8693          	mv	a3,s9
80008770:	00090513          	mv	a0,s2
80008774:	00098593          	mv	a1,s3
80008778:	f1142023          	sw	a7,-256(s0)
8000877c:	ef042c23          	sw	a6,-264(s0)
80008780:	49d040ef          	jal	ra,8000d41c <fma>
80008784:	ef042703          	lw	a4,-272(s0)
80008788:	ee842783          	lw	a5,-280(s0)
8000878c:	00050893          	mv	a7,a0
80008790:	00058813          	mv	a6,a1
80008794:	000b0613          	mv	a2,s6
80008798:	000b8693          	mv	a3,s7
8000879c:	00090513          	mv	a0,s2
800087a0:	00098593          	mv	a1,s3
800087a4:	ef142823          	sw	a7,-272(s0)
800087a8:	ef042423          	sw	a6,-280(s0)
800087ac:	471040ef          	jal	ra,8000d41c <fma>
800087b0:	ec042383          	lw	t2,-320(s0)
800087b4:	00058813          	mv	a6,a1
800087b8:	e7c42583          	lw	a1,-388(s0)
800087bc:	ee042703          	lw	a4,-288(s0)
800087c0:	00038793          	mv	a5,t2
800087c4:	00958b33          	add	s6,a1,s1
800087c8:	00050893          	mv	a7,a0
800087cc:	000a0613          	mv	a2,s4
800087d0:	000a8693          	mv	a3,s5
800087d4:	00090513          	mv	a0,s2
800087d8:	00098593          	mv	a1,s3
800087dc:	ef142023          	sw	a7,-288(s0)
800087e0:	ed042423          	sw	a6,-312(s0)
800087e4:	439040ef          	jal	ra,8000d41c <fma>
800087e8:	fb842783          	lw	a5,-72(s0)
800087ec:	000b2803          	lw	a6,0(s6)
800087f0:	004b2883          	lw	a7,4(s6)
800087f4:	0107a903          	lw	s2,16(a5)
800087f8:	0147a983          	lw	s3,20(a5)
800087fc:	ed842703          	lw	a4,-296(s0)
80008800:	ed042783          	lw	a5,-304(s0)
80008804:	00050e93          	mv	t4,a0
80008808:	00058f13          	mv	t5,a1
8000880c:	00080613          	mv	a2,a6
80008810:	00088693          	mv	a3,a7
80008814:	00090513          	mv	a0,s2
80008818:	00098593          	mv	a1,s3
8000881c:	ebd42023          	sw	t4,-352(s0)
80008820:	ebe42423          	sw	t5,-344(s0)
80008824:	ed042023          	sw	a6,-320(s0)
80008828:	ed142223          	sw	a7,-316(s0)
8000882c:	3f1040ef          	jal	ra,8000d41c <fma>
80008830:	e9c42f83          	lw	t6,-356(s0)
80008834:	ebc42283          	lw	t0,-324(s0)
80008838:	008b2d03          	lw	s10,8(s6)
8000883c:	00cb2d83          	lw	s11,12(s6)
80008840:	00050e13          	mv	t3,a0
80008844:	000f8713          	mv	a4,t6
80008848:	00028793          	mv	a5,t0
8000884c:	00058313          	mv	t1,a1
80008850:	000d0613          	mv	a2,s10
80008854:	000d8693          	mv	a3,s11
80008858:	edc42c23          	sw	t3,-296(s0)
8000885c:	00090513          	mv	a0,s2
80008860:	00098593          	mv	a1,s3
80008864:	ec642823          	sw	t1,-304(s0)
80008868:	3b5040ef          	jal	ra,8000d41c <fma>
8000886c:	010b2c03          	lw	s8,16(s6)
80008870:	014b2c83          	lw	s9,20(s6)
80008874:	f9842703          	lw	a4,-104(s0)
80008878:	f9442783          	lw	a5,-108(s0)
8000887c:	00050e13          	mv	t3,a0
80008880:	00058313          	mv	t1,a1
80008884:	000c0613          	mv	a2,s8
80008888:	000c8693          	mv	a3,s9
8000888c:	00090513          	mv	a0,s2
80008890:	00098593          	mv	a1,s3
80008894:	f9c42c23          	sw	t3,-104(s0)
80008898:	f8642a23          	sw	t1,-108(s0)
8000889c:	381040ef          	jal	ra,8000d41c <fma>
800088a0:	018b2a03          	lw	s4,24(s6)
800088a4:	01cb2a83          	lw	s5,28(s6)
800088a8:	f8842703          	lw	a4,-120(s0)
800088ac:	f9042783          	lw	a5,-112(s0)
800088b0:	00050e13          	mv	t3,a0
800088b4:	00058313          	mv	t1,a1
800088b8:	000a0613          	mv	a2,s4
800088bc:	000a8693          	mv	a3,s5
800088c0:	00090513          	mv	a0,s2
800088c4:	00098593          	mv	a1,s3
800088c8:	f9c42423          	sw	t3,-120(s0)
800088cc:	f8642823          	sw	t1,-112(s0)
800088d0:	34d040ef          	jal	ra,8000d41c <fma>
800088d4:	024b2b83          	lw	s7,36(s6)
800088d8:	020b2b03          	lw	s6,32(s6)
800088dc:	f8042703          	lw	a4,-128(s0)
800088e0:	f7c42783          	lw	a5,-132(s0)
800088e4:	00050e13          	mv	t3,a0
800088e8:	00058313          	mv	t1,a1
800088ec:	000b0613          	mv	a2,s6
800088f0:	000b8693          	mv	a3,s7
800088f4:	00090513          	mv	a0,s2
800088f8:	00098593          	mv	a1,s3
800088fc:	f9c42023          	sw	t3,-128(s0)
80008900:	f6642e23          	sw	t1,-132(s0)
80008904:	319040ef          	jal	ra,8000d41c <fma>
80008908:	fa042703          	lw	a4,-96(s0)
8000890c:	ec042803          	lw	a6,-320(s0)
80008910:	ec442883          	lw	a7,-316(s0)
80008914:	01072903          	lw	s2,16(a4)
80008918:	01472983          	lw	s3,20(a4)
8000891c:	f6842783          	lw	a5,-152(s0)
80008920:	f7042703          	lw	a4,-144(s0)
80008924:	00080613          	mv	a2,a6
80008928:	00088693          	mv	a3,a7
8000892c:	00050e13          	mv	t3,a0
80008930:	00058313          	mv	t1,a1
80008934:	00090513          	mv	a0,s2
80008938:	00098593          	mv	a1,s3
8000893c:	f7c42823          	sw	t3,-144(s0)
80008940:	f6642423          	sw	t1,-152(s0)
80008944:	2d9040ef          	jal	ra,8000d41c <fma>
80008948:	f7842703          	lw	a4,-136(s0)
8000894c:	f6042783          	lw	a5,-160(s0)
80008950:	00050e13          	mv	t3,a0
80008954:	00058313          	mv	t1,a1
80008958:	000d0613          	mv	a2,s10
8000895c:	000d8693          	mv	a3,s11
80008960:	00090513          	mv	a0,s2
80008964:	00098593          	mv	a1,s3
80008968:	f7c42c23          	sw	t3,-136(s0)
8000896c:	f6642023          	sw	t1,-160(s0)
80008970:	2ad040ef          	jal	ra,8000d41c <fma>
80008974:	f5c42703          	lw	a4,-164(s0)
80008978:	f5042783          	lw	a5,-176(s0)
8000897c:	00050e13          	mv	t3,a0
80008980:	00058313          	mv	t1,a1
80008984:	000c0613          	mv	a2,s8
80008988:	000c8693          	mv	a3,s9
8000898c:	00090513          	mv	a0,s2
80008990:	00098593          	mv	a1,s3
80008994:	f5c42e23          	sw	t3,-164(s0)
80008998:	f4642823          	sw	t1,-176(s0)
8000899c:	281040ef          	jal	ra,8000d41c <fma>
800089a0:	f5842703          	lw	a4,-168(s0)
800089a4:	f4842783          	lw	a5,-184(s0)
800089a8:	00050e13          	mv	t3,a0
800089ac:	00058313          	mv	t1,a1
800089b0:	000a0613          	mv	a2,s4
800089b4:	000a8693          	mv	a3,s5
800089b8:	00090513          	mv	a0,s2
800089bc:	00098593          	mv	a1,s3
800089c0:	f5c42c23          	sw	t3,-168(s0)
800089c4:	f4642423          	sw	t1,-184(s0)
800089c8:	255040ef          	jal	ra,8000d41c <fma>
800089cc:	f4442703          	lw	a4,-188(s0)
800089d0:	f3842783          	lw	a5,-200(s0)
800089d4:	00050e13          	mv	t3,a0
800089d8:	00058313          	mv	t1,a1
800089dc:	000b0613          	mv	a2,s6
800089e0:	000b8693          	mv	a3,s7
800089e4:	00090513          	mv	a0,s2
800089e8:	00098593          	mv	a1,s3
800089ec:	f5c42223          	sw	t3,-188(s0)
800089f0:	f2642c23          	sw	t1,-200(s0)
800089f4:	229040ef          	jal	ra,8000d41c <fma>
800089f8:	fa842683          	lw	a3,-88(s0)
800089fc:	ec042803          	lw	a6,-320(s0)
80008a00:	ec442883          	lw	a7,-316(s0)
80008a04:	0106a903          	lw	s2,16(a3)
80008a08:	0146a983          	lw	s3,20(a3)
80008a0c:	f4042703          	lw	a4,-192(s0)
80008a10:	f3442783          	lw	a5,-204(s0)
80008a14:	00080613          	mv	a2,a6
80008a18:	00088693          	mv	a3,a7
80008a1c:	00050e13          	mv	t3,a0
80008a20:	00058313          	mv	t1,a1
80008a24:	00090513          	mv	a0,s2
80008a28:	00098593          	mv	a1,s3
80008a2c:	f5c42023          	sw	t3,-192(s0)
80008a30:	f2642a23          	sw	t1,-204(s0)
80008a34:	1e9040ef          	jal	ra,8000d41c <fma>
80008a38:	f3042703          	lw	a4,-208(s0)
80008a3c:	f2c42783          	lw	a5,-212(s0)
80008a40:	00050e13          	mv	t3,a0
80008a44:	00058313          	mv	t1,a1
80008a48:	000d0613          	mv	a2,s10
80008a4c:	000d8693          	mv	a3,s11
80008a50:	00090513          	mv	a0,s2
80008a54:	00098593          	mv	a1,s3
80008a58:	f3c42823          	sw	t3,-208(s0)
80008a5c:	f2642623          	sw	t1,-212(s0)
80008a60:	1bd040ef          	jal	ra,8000d41c <fma>
80008a64:	f2842703          	lw	a4,-216(s0)
80008a68:	f2442783          	lw	a5,-220(s0)
80008a6c:	00050e13          	mv	t3,a0
80008a70:	00058313          	mv	t1,a1
80008a74:	000c0613          	mv	a2,s8
80008a78:	000c8693          	mv	a3,s9
80008a7c:	00090513          	mv	a0,s2
80008a80:	00098593          	mv	a1,s3
80008a84:	f3c42423          	sw	t3,-216(s0)
80008a88:	f2642223          	sw	t1,-220(s0)
80008a8c:	191040ef          	jal	ra,8000d41c <fma>
80008a90:	f2042703          	lw	a4,-224(s0)
80008a94:	f1c42783          	lw	a5,-228(s0)
80008a98:	00050e13          	mv	t3,a0
80008a9c:	00058313          	mv	t1,a1
80008aa0:	000a0613          	mv	a2,s4
80008aa4:	000a8693          	mv	a3,s5
80008aa8:	00090513          	mv	a0,s2
80008aac:	00098593          	mv	a1,s3
80008ab0:	f3c42023          	sw	t3,-224(s0)
80008ab4:	f0642e23          	sw	t1,-228(s0)
80008ab8:	165040ef          	jal	ra,8000d41c <fma>
80008abc:	f1842703          	lw	a4,-232(s0)
80008ac0:	f1442783          	lw	a5,-236(s0)
80008ac4:	00050e13          	mv	t3,a0
80008ac8:	00058313          	mv	t1,a1
80008acc:	000b0613          	mv	a2,s6
80008ad0:	000b8693          	mv	a3,s7
80008ad4:	00090513          	mv	a0,s2
80008ad8:	00098593          	mv	a1,s3
80008adc:	f1c42c23          	sw	t3,-232(s0)
80008ae0:	f0642a23          	sw	t1,-236(s0)
80008ae4:	139040ef          	jal	ra,8000d41c <fma>
80008ae8:	fb042603          	lw	a2,-80(s0)
80008aec:	ec042803          	lw	a6,-320(s0)
80008af0:	ec442883          	lw	a7,-316(s0)
80008af4:	01062903          	lw	s2,16(a2)
80008af8:	01462983          	lw	s3,20(a2)
80008afc:	f0842703          	lw	a4,-248(s0)
80008b00:	f1042783          	lw	a5,-240(s0)
80008b04:	00050e13          	mv	t3,a0
80008b08:	00058313          	mv	t1,a1
80008b0c:	f1c42423          	sw	t3,-248(s0)
80008b10:	00080613          	mv	a2,a6
80008b14:	00088693          	mv	a3,a7
80008b18:	00090513          	mv	a0,s2
80008b1c:	00098593          	mv	a1,s3
80008b20:	f0642823          	sw	t1,-240(s0)
80008b24:	0f9040ef          	jal	ra,8000d41c <fma>
80008b28:	f0042703          	lw	a4,-256(s0)
80008b2c:	ef842783          	lw	a5,-264(s0)
80008b30:	00050893          	mv	a7,a0
80008b34:	00058813          	mv	a6,a1
80008b38:	000d0613          	mv	a2,s10
80008b3c:	000d8693          	mv	a3,s11
80008b40:	00090513          	mv	a0,s2
80008b44:	00098593          	mv	a1,s3
80008b48:	f1142023          	sw	a7,-256(s0)
80008b4c:	ef042c23          	sw	a6,-264(s0)
80008b50:	0cd040ef          	jal	ra,8000d41c <fma>
80008b54:	ef042703          	lw	a4,-272(s0)
80008b58:	ee842783          	lw	a5,-280(s0)
80008b5c:	00050893          	mv	a7,a0
80008b60:	00058813          	mv	a6,a1
80008b64:	000c0613          	mv	a2,s8
80008b68:	000c8693          	mv	a3,s9
80008b6c:	00090513          	mv	a0,s2
80008b70:	00098593          	mv	a1,s3
80008b74:	ef142823          	sw	a7,-272(s0)
80008b78:	ef042423          	sw	a6,-280(s0)
80008b7c:	0a1040ef          	jal	ra,8000d41c <fma>
80008b80:	ee042703          	lw	a4,-288(s0)
80008b84:	ec842783          	lw	a5,-312(s0)
80008b88:	00050393          	mv	t2,a0
80008b8c:	00058813          	mv	a6,a1
80008b90:	000a0613          	mv	a2,s4
80008b94:	000a8693          	mv	a3,s5
80008b98:	00090513          	mv	a0,s2
80008b9c:	00098593          	mv	a1,s3
80008ba0:	ea742e23          	sw	t2,-324(s0)
80008ba4:	ef042023          	sw	a6,-288(s0)
80008ba8:	075040ef          	jal	ra,8000d41c <fma>
80008bac:	ea042e83          	lw	t4,-352(s0)
80008bb0:	ea842f03          	lw	t5,-344(s0)
80008bb4:	00058813          	mv	a6,a1
80008bb8:	e7442583          	lw	a1,-396(s0)
80008bbc:	000e8713          	mv	a4,t4
80008bc0:	000f0793          	mv	a5,t5
80008bc4:	00b48a33          	add	s4,s1,a1
80008bc8:	00050893          	mv	a7,a0
80008bcc:	000b0613          	mv	a2,s6
80008bd0:	000b8693          	mv	a3,s7
80008bd4:	00090513          	mv	a0,s2
80008bd8:	00098593          	mv	a1,s3
80008bdc:	ed142423          	sw	a7,-312(s0)
80008be0:	ed042023          	sw	a6,-320(s0)
80008be4:	039040ef          	jal	ra,8000d41c <fma>
80008be8:	fb842783          	lw	a5,-72(s0)
80008bec:	000a2803          	lw	a6,0(s4)
80008bf0:	004a2883          	lw	a7,4(s4)
80008bf4:	0187a903          	lw	s2,24(a5)
80008bf8:	01c7a983          	lw	s3,28(a5)
80008bfc:	ed842703          	lw	a4,-296(s0)
80008c00:	ed042783          	lw	a5,-304(s0)
80008c04:	00050f93          	mv	t6,a0
80008c08:	00058293          	mv	t0,a1
80008c0c:	00080613          	mv	a2,a6
80008c10:	00088693          	mv	a3,a7
80008c14:	00090513          	mv	a0,s2
80008c18:	00098593          	mv	a1,s3
80008c1c:	ebf42023          	sw	t6,-352(s0)
80008c20:	ec542823          	sw	t0,-304(s0)
80008c24:	ed042c23          	sw	a6,-296(s0)
80008c28:	ed142e23          	sw	a7,-292(s0)
80008c2c:	7f0040ef          	jal	ra,8000d41c <fma>
80008c30:	008a2d03          	lw	s10,8(s4)
80008c34:	00ca2d83          	lw	s11,12(s4)
80008c38:	f9842703          	lw	a4,-104(s0)
80008c3c:	f9442783          	lw	a5,-108(s0)
80008c40:	00050e13          	mv	t3,a0
80008c44:	00058313          	mv	t1,a1
80008c48:	000d0613          	mv	a2,s10
80008c4c:	000d8693          	mv	a3,s11
80008c50:	00090513          	mv	a0,s2
80008c54:	00098593          	mv	a1,s3
80008c58:	f9c42c23          	sw	t3,-104(s0)
80008c5c:	f8642a23          	sw	t1,-108(s0)
80008c60:	7bc040ef          	jal	ra,8000d41c <fma>
80008c64:	010a2c03          	lw	s8,16(s4)
80008c68:	014a2c83          	lw	s9,20(s4)
80008c6c:	f8842703          	lw	a4,-120(s0)
80008c70:	f9042783          	lw	a5,-112(s0)
80008c74:	00050e13          	mv	t3,a0
80008c78:	00058313          	mv	t1,a1
80008c7c:	000c0613          	mv	a2,s8
80008c80:	000c8693          	mv	a3,s9
80008c84:	f9c42423          	sw	t3,-120(s0)
80008c88:	00090513          	mv	a0,s2
80008c8c:	00098593          	mv	a1,s3
80008c90:	f8642823          	sw	t1,-112(s0)
80008c94:	788040ef          	jal	ra,8000d41c <fma>
80008c98:	018a2b03          	lw	s6,24(s4)
80008c9c:	01ca2b83          	lw	s7,28(s4)
80008ca0:	f8042703          	lw	a4,-128(s0)
80008ca4:	f7c42783          	lw	a5,-132(s0)
80008ca8:	00050e13          	mv	t3,a0
80008cac:	00058313          	mv	t1,a1
80008cb0:	000b0613          	mv	a2,s6
80008cb4:	000b8693          	mv	a3,s7
80008cb8:	00090513          	mv	a0,s2
80008cbc:	00098593          	mv	a1,s3
80008cc0:	f9c42023          	sw	t3,-128(s0)
80008cc4:	f6642e23          	sw	t1,-132(s0)
80008cc8:	754040ef          	jal	ra,8000d41c <fma>
80008ccc:	024a2a83          	lw	s5,36(s4)
80008cd0:	020a2a03          	lw	s4,32(s4)
80008cd4:	f7042703          	lw	a4,-144(s0)
80008cd8:	f6842783          	lw	a5,-152(s0)
80008cdc:	00050e13          	mv	t3,a0
80008ce0:	00058313          	mv	t1,a1
80008ce4:	000a0613          	mv	a2,s4
80008ce8:	000a8693          	mv	a3,s5
80008cec:	00090513          	mv	a0,s2
80008cf0:	00098593          	mv	a1,s3
80008cf4:	f7c42823          	sw	t3,-144(s0)
80008cf8:	f6642423          	sw	t1,-152(s0)
80008cfc:	720040ef          	jal	ra,8000d41c <fma>
80008d00:	fa042703          	lw	a4,-96(s0)
80008d04:	ed842803          	lw	a6,-296(s0)
80008d08:	edc42883          	lw	a7,-292(s0)
80008d0c:	01872903          	lw	s2,24(a4)
80008d10:	01c72983          	lw	s3,28(a4)
80008d14:	f6042783          	lw	a5,-160(s0)
80008d18:	f7842703          	lw	a4,-136(s0)
80008d1c:	00080613          	mv	a2,a6
80008d20:	00088693          	mv	a3,a7
80008d24:	00050e13          	mv	t3,a0
80008d28:	00058313          	mv	t1,a1
80008d2c:	00090513          	mv	a0,s2
80008d30:	00098593          	mv	a1,s3
80008d34:	f7c42c23          	sw	t3,-136(s0)
80008d38:	f6642023          	sw	t1,-160(s0)
80008d3c:	6e0040ef          	jal	ra,8000d41c <fma>
80008d40:	f5c42703          	lw	a4,-164(s0)
80008d44:	f5042783          	lw	a5,-176(s0)
80008d48:	00050e13          	mv	t3,a0
80008d4c:	00058313          	mv	t1,a1
80008d50:	000d0613          	mv	a2,s10
80008d54:	000d8693          	mv	a3,s11
80008d58:	00090513          	mv	a0,s2
80008d5c:	00098593          	mv	a1,s3
80008d60:	f5c42e23          	sw	t3,-164(s0)
80008d64:	f4642823          	sw	t1,-176(s0)
80008d68:	6b4040ef          	jal	ra,8000d41c <fma>
80008d6c:	f5842703          	lw	a4,-168(s0)
80008d70:	f4842783          	lw	a5,-184(s0)
80008d74:	00050e13          	mv	t3,a0
80008d78:	00058313          	mv	t1,a1
80008d7c:	000c0613          	mv	a2,s8
80008d80:	000c8693          	mv	a3,s9
80008d84:	00090513          	mv	a0,s2
80008d88:	00098593          	mv	a1,s3
80008d8c:	f5c42c23          	sw	t3,-168(s0)
80008d90:	f4642423          	sw	t1,-184(s0)
80008d94:	688040ef          	jal	ra,8000d41c <fma>
80008d98:	f4442703          	lw	a4,-188(s0)
80008d9c:	f3842783          	lw	a5,-200(s0)
80008da0:	00050e13          	mv	t3,a0
80008da4:	00058313          	mv	t1,a1
80008da8:	000b0613          	mv	a2,s6
80008dac:	000b8693          	mv	a3,s7
80008db0:	00090513          	mv	a0,s2
80008db4:	00098593          	mv	a1,s3
80008db8:	f5c42223          	sw	t3,-188(s0)
80008dbc:	f2642c23          	sw	t1,-200(s0)
80008dc0:	65c040ef          	jal	ra,8000d41c <fma>
80008dc4:	f4042703          	lw	a4,-192(s0)
80008dc8:	f3442783          	lw	a5,-204(s0)
80008dcc:	00050e13          	mv	t3,a0
80008dd0:	00058313          	mv	t1,a1
80008dd4:	000a0613          	mv	a2,s4
80008dd8:	000a8693          	mv	a3,s5
80008ddc:	00090513          	mv	a0,s2
80008de0:	00098593          	mv	a1,s3
80008de4:	f5c42023          	sw	t3,-192(s0)
80008de8:	f2642a23          	sw	t1,-204(s0)
80008dec:	630040ef          	jal	ra,8000d41c <fma>
80008df0:	fa842683          	lw	a3,-88(s0)
80008df4:	ed842803          	lw	a6,-296(s0)
80008df8:	edc42883          	lw	a7,-292(s0)
80008dfc:	0186a903          	lw	s2,24(a3)
80008e00:	01c6a983          	lw	s3,28(a3)
80008e04:	f3042703          	lw	a4,-208(s0)
80008e08:	f2c42783          	lw	a5,-212(s0)
80008e0c:	00080613          	mv	a2,a6
80008e10:	00088693          	mv	a3,a7
80008e14:	00050e13          	mv	t3,a0
80008e18:	00058313          	mv	t1,a1
80008e1c:	00090513          	mv	a0,s2
80008e20:	00098593          	mv	a1,s3
80008e24:	f3c42823          	sw	t3,-208(s0)
80008e28:	f2642623          	sw	t1,-212(s0)
80008e2c:	5f0040ef          	jal	ra,8000d41c <fma>
80008e30:	f2842703          	lw	a4,-216(s0)
80008e34:	f2442783          	lw	a5,-220(s0)
80008e38:	00050e13          	mv	t3,a0
80008e3c:	00058313          	mv	t1,a1
80008e40:	000d0613          	mv	a2,s10
80008e44:	000d8693          	mv	a3,s11
80008e48:	00090513          	mv	a0,s2
80008e4c:	00098593          	mv	a1,s3
80008e50:	f3c42423          	sw	t3,-216(s0)
80008e54:	f2642223          	sw	t1,-220(s0)
80008e58:	5c4040ef          	jal	ra,8000d41c <fma>
80008e5c:	f2042703          	lw	a4,-224(s0)
80008e60:	f1c42783          	lw	a5,-228(s0)
80008e64:	00050e13          	mv	t3,a0
80008e68:	00058313          	mv	t1,a1
80008e6c:	000c0613          	mv	a2,s8
80008e70:	000c8693          	mv	a3,s9
80008e74:	00090513          	mv	a0,s2
80008e78:	00098593          	mv	a1,s3
80008e7c:	f3c42023          	sw	t3,-224(s0)
80008e80:	f0642e23          	sw	t1,-228(s0)
80008e84:	598040ef          	jal	ra,8000d41c <fma>
80008e88:	f1842703          	lw	a4,-232(s0)
80008e8c:	f1442783          	lw	a5,-236(s0)
80008e90:	00050e13          	mv	t3,a0
80008e94:	00058313          	mv	t1,a1
80008e98:	000b0613          	mv	a2,s6
80008e9c:	000b8693          	mv	a3,s7
80008ea0:	00090513          	mv	a0,s2
80008ea4:	00098593          	mv	a1,s3
80008ea8:	f1c42c23          	sw	t3,-232(s0)
80008eac:	f0642a23          	sw	t1,-236(s0)
80008eb0:	56c040ef          	jal	ra,8000d41c <fma>
80008eb4:	f0842703          	lw	a4,-248(s0)
80008eb8:	f1042783          	lw	a5,-240(s0)
80008ebc:	00050e13          	mv	t3,a0
80008ec0:	00058313          	mv	t1,a1
80008ec4:	000a0613          	mv	a2,s4
80008ec8:	000a8693          	mv	a3,s5
80008ecc:	00090513          	mv	a0,s2
80008ed0:	00098593          	mv	a1,s3
80008ed4:	f1c42423          	sw	t3,-248(s0)
80008ed8:	f0642823          	sw	t1,-240(s0)
80008edc:	540040ef          	jal	ra,8000d41c <fma>
80008ee0:	fb042603          	lw	a2,-80(s0)
80008ee4:	ed842803          	lw	a6,-296(s0)
80008ee8:	edc42883          	lw	a7,-292(s0)
80008eec:	01862903          	lw	s2,24(a2)
80008ef0:	01c62983          	lw	s3,28(a2)
80008ef4:	f0042703          	lw	a4,-256(s0)
80008ef8:	ef842783          	lw	a5,-264(s0)
80008efc:	00050e13          	mv	t3,a0
80008f00:	00058313          	mv	t1,a1
80008f04:	00080613          	mv	a2,a6
80008f08:	00088693          	mv	a3,a7
80008f0c:	00090513          	mv	a0,s2
80008f10:	00098593          	mv	a1,s3
80008f14:	f1c42023          	sw	t3,-256(s0)
80008f18:	ee642c23          	sw	t1,-264(s0)
80008f1c:	500040ef          	jal	ra,8000d41c <fma>
80008f20:	ef042703          	lw	a4,-272(s0)
80008f24:	ee842783          	lw	a5,-280(s0)
80008f28:	00050893          	mv	a7,a0
80008f2c:	00058813          	mv	a6,a1
80008f30:	000d0613          	mv	a2,s10
80008f34:	000d8693          	mv	a3,s11
80008f38:	ef142823          	sw	a7,-272(s0)
80008f3c:	00090513          	mv	a0,s2
80008f40:	00098593          	mv	a1,s3
80008f44:	ef042423          	sw	a6,-280(s0)
80008f48:	4d4040ef          	jal	ra,8000d41c <fma>
80008f4c:	ebc42383          	lw	t2,-324(s0)
80008f50:	ee042783          	lw	a5,-288(s0)
80008f54:	00050893          	mv	a7,a0
80008f58:	00038713          	mv	a4,t2
80008f5c:	00058813          	mv	a6,a1
80008f60:	000c0613          	mv	a2,s8
80008f64:	000c8693          	mv	a3,s9
80008f68:	00090513          	mv	a0,s2
80008f6c:	00098593          	mv	a1,s3
80008f70:	ef142023          	sw	a7,-288(s0)
80008f74:	ed042c23          	sw	a6,-296(s0)
80008f78:	4a4040ef          	jal	ra,8000d41c <fma>
80008f7c:	ec842703          	lw	a4,-312(s0)
80008f80:	ec042783          	lw	a5,-320(s0)
80008f84:	00050e93          	mv	t4,a0
80008f88:	00058f13          	mv	t5,a1
80008f8c:	000b0613          	mv	a2,s6
80008f90:	000b8693          	mv	a3,s7
80008f94:	00090513          	mv	a0,s2
80008f98:	00098593          	mv	a1,s3
80008f9c:	ebd42423          	sw	t4,-344(s0)
80008fa0:	ebe42e23          	sw	t5,-324(s0)
80008fa4:	478040ef          	jal	ra,8000d41c <fma>
80008fa8:	ed042283          	lw	t0,-304(s0)
80008fac:	ea042f83          	lw	t6,-352(s0)
80008fb0:	00058813          	mv	a6,a1
80008fb4:	e7842583          	lw	a1,-392(s0)
80008fb8:	000f8713          	mv	a4,t6
80008fbc:	00028793          	mv	a5,t0
80008fc0:	00958b33          	add	s6,a1,s1
80008fc4:	00050893          	mv	a7,a0
80008fc8:	000a0613          	mv	a2,s4
80008fcc:	000a8693          	mv	a3,s5
80008fd0:	00090513          	mv	a0,s2
80008fd4:	00098593          	mv	a1,s3
80008fd8:	ed142823          	sw	a7,-304(s0)
80008fdc:	ed042423          	sw	a6,-312(s0)
80008fe0:	43c040ef          	jal	ra,8000d41c <fma>
80008fe4:	fb842783          	lw	a5,-72(s0)
80008fe8:	000b2803          	lw	a6,0(s6)
80008fec:	004b2883          	lw	a7,4(s6)
80008ff0:	0207a903          	lw	s2,32(a5)
80008ff4:	0247a983          	lw	s3,36(a5)
80008ff8:	f9842703          	lw	a4,-104(s0)
80008ffc:	f9442783          	lw	a5,-108(s0)
80009000:	00080613          	mv	a2,a6
80009004:	00088693          	mv	a3,a7
80009008:	00050e13          	mv	t3,a0
8000900c:	00058313          	mv	t1,a1
80009010:	00090513          	mv	a0,s2
80009014:	00098593          	mv	a1,s3
80009018:	ed042023          	sw	a6,-320(s0)
8000901c:	ed142223          	sw	a7,-316(s0)
80009020:	f9c42c23          	sw	t3,-104(s0)
80009024:	f8642a23          	sw	t1,-108(s0)
80009028:	3f4040ef          	jal	ra,8000d41c <fma>
8000902c:	008b2d03          	lw	s10,8(s6)
80009030:	00cb2d83          	lw	s11,12(s6)
80009034:	f8842703          	lw	a4,-120(s0)
80009038:	f9042783          	lw	a5,-112(s0)
8000903c:	00050e13          	mv	t3,a0
80009040:	00058313          	mv	t1,a1
80009044:	000d0613          	mv	a2,s10
80009048:	000d8693          	mv	a3,s11
8000904c:	00090513          	mv	a0,s2
80009050:	00098593          	mv	a1,s3
80009054:	f9c42423          	sw	t3,-120(s0)
80009058:	f8642823          	sw	t1,-112(s0)
8000905c:	3c0040ef          	jal	ra,8000d41c <fma>
80009060:	010b2c03          	lw	s8,16(s6)
80009064:	014b2c83          	lw	s9,20(s6)
80009068:	f8042703          	lw	a4,-128(s0)
8000906c:	f7c42783          	lw	a5,-132(s0)
80009070:	00050e13          	mv	t3,a0
80009074:	00058313          	mv	t1,a1
80009078:	000c0613          	mv	a2,s8
8000907c:	000c8693          	mv	a3,s9
80009080:	00090513          	mv	a0,s2
80009084:	00098593          	mv	a1,s3
80009088:	f9c42023          	sw	t3,-128(s0)
8000908c:	f6642e23          	sw	t1,-132(s0)
80009090:	38c040ef          	jal	ra,8000d41c <fma>
80009094:	018b2a03          	lw	s4,24(s6)
80009098:	01cb2a83          	lw	s5,28(s6)
8000909c:	f7042703          	lw	a4,-144(s0)
800090a0:	f6842783          	lw	a5,-152(s0)
800090a4:	00050e13          	mv	t3,a0
800090a8:	00058313          	mv	t1,a1
800090ac:	000a0613          	mv	a2,s4
800090b0:	000a8693          	mv	a3,s5
800090b4:	00090513          	mv	a0,s2
800090b8:	00098593          	mv	a1,s3
800090bc:	f7c42823          	sw	t3,-144(s0)
800090c0:	f6642423          	sw	t1,-152(s0)
800090c4:	358040ef          	jal	ra,8000d41c <fma>
800090c8:	024b2b83          	lw	s7,36(s6)
800090cc:	020b2b03          	lw	s6,32(s6)
800090d0:	f7842703          	lw	a4,-136(s0)
800090d4:	f6042783          	lw	a5,-160(s0)
800090d8:	00050e13          	mv	t3,a0
800090dc:	00058313          	mv	t1,a1
800090e0:	000b0613          	mv	a2,s6
800090e4:	000b8693          	mv	a3,s7
800090e8:	00090513          	mv	a0,s2
800090ec:	00098593          	mv	a1,s3
800090f0:	f7c42c23          	sw	t3,-136(s0)
800090f4:	f6642023          	sw	t1,-160(s0)
800090f8:	324040ef          	jal	ra,8000d41c <fma>
800090fc:	fa042703          	lw	a4,-96(s0)
80009100:	ec442883          	lw	a7,-316(s0)
80009104:	ec042803          	lw	a6,-320(s0)
80009108:	02072903          	lw	s2,32(a4)
8000910c:	02472983          	lw	s3,36(a4)
80009110:	f5042783          	lw	a5,-176(s0)
80009114:	f5c42703          	lw	a4,-164(s0)
80009118:	00080613          	mv	a2,a6
8000911c:	00088693          	mv	a3,a7
80009120:	00050e13          	mv	t3,a0
80009124:	00058313          	mv	t1,a1
80009128:	00090513          	mv	a0,s2
8000912c:	00098593          	mv	a1,s3
80009130:	f5c42e23          	sw	t3,-164(s0)
80009134:	f4642823          	sw	t1,-176(s0)
80009138:	2e4040ef          	jal	ra,8000d41c <fma>
8000913c:	f5842703          	lw	a4,-168(s0)
80009140:	f4842783          	lw	a5,-184(s0)
80009144:	00050e13          	mv	t3,a0
80009148:	00058313          	mv	t1,a1
8000914c:	000d0613          	mv	a2,s10
80009150:	000d8693          	mv	a3,s11
80009154:	00090513          	mv	a0,s2
80009158:	00098593          	mv	a1,s3
8000915c:	f5c42c23          	sw	t3,-168(s0)
80009160:	f4642423          	sw	t1,-184(s0)
80009164:	2b8040ef          	jal	ra,8000d41c <fma>
80009168:	f4442703          	lw	a4,-188(s0)
8000916c:	f3842783          	lw	a5,-200(s0)
80009170:	00050e13          	mv	t3,a0
80009174:	00058313          	mv	t1,a1
80009178:	000c0613          	mv	a2,s8
8000917c:	000c8693          	mv	a3,s9
80009180:	00090513          	mv	a0,s2
80009184:	00098593          	mv	a1,s3
80009188:	f5c42223          	sw	t3,-188(s0)
8000918c:	f2642c23          	sw	t1,-200(s0)
80009190:	28c040ef          	jal	ra,8000d41c <fma>
80009194:	f4042703          	lw	a4,-192(s0)
80009198:	f3442783          	lw	a5,-204(s0)
8000919c:	00050e13          	mv	t3,a0
800091a0:	00058313          	mv	t1,a1
800091a4:	000a0613          	mv	a2,s4
800091a8:	000a8693          	mv	a3,s5
800091ac:	00090513          	mv	a0,s2
800091b0:	00098593          	mv	a1,s3
800091b4:	f5c42023          	sw	t3,-192(s0)
800091b8:	f2642a23          	sw	t1,-204(s0)
800091bc:	260040ef          	jal	ra,8000d41c <fma>
800091c0:	f3042703          	lw	a4,-208(s0)
800091c4:	f2c42783          	lw	a5,-212(s0)
800091c8:	00050e13          	mv	t3,a0
800091cc:	00058313          	mv	t1,a1
800091d0:	000b0613          	mv	a2,s6
800091d4:	000b8693          	mv	a3,s7
800091d8:	00090513          	mv	a0,s2
800091dc:	00098593          	mv	a1,s3
800091e0:	f3c42823          	sw	t3,-208(s0)
800091e4:	f2642623          	sw	t1,-212(s0)
800091e8:	234040ef          	jal	ra,8000d41c <fma>
800091ec:	fa842683          	lw	a3,-88(s0)
800091f0:	f2842703          	lw	a4,-216(s0)
800091f4:	f2442783          	lw	a5,-220(s0)
800091f8:	0206a903          	lw	s2,32(a3)
800091fc:	0246a983          	lw	s3,36(a3)
80009200:	ec042803          	lw	a6,-320(s0)
80009204:	ec442883          	lw	a7,-316(s0)
80009208:	00050e13          	mv	t3,a0
8000920c:	00080613          	mv	a2,a6
80009210:	00088693          	mv	a3,a7
80009214:	00058313          	mv	t1,a1
80009218:	00090513          	mv	a0,s2
8000921c:	00098593          	mv	a1,s3
80009220:	f3c42423          	sw	t3,-216(s0)
80009224:	f2642223          	sw	t1,-220(s0)
80009228:	1f4040ef          	jal	ra,8000d41c <fma>
8000922c:	f2042703          	lw	a4,-224(s0)
80009230:	f1c42783          	lw	a5,-228(s0)
80009234:	00050e13          	mv	t3,a0
80009238:	00058313          	mv	t1,a1
8000923c:	000d0613          	mv	a2,s10
80009240:	000d8693          	mv	a3,s11
80009244:	00090513          	mv	a0,s2
80009248:	00098593          	mv	a1,s3
8000924c:	f3c42023          	sw	t3,-224(s0)
80009250:	f0642e23          	sw	t1,-228(s0)
80009254:	1c8040ef          	jal	ra,8000d41c <fma>
80009258:	f1842703          	lw	a4,-232(s0)
8000925c:	f1442783          	lw	a5,-236(s0)
80009260:	00050e13          	mv	t3,a0
80009264:	00058313          	mv	t1,a1
80009268:	000c0613          	mv	a2,s8
8000926c:	000c8693          	mv	a3,s9
80009270:	00090513          	mv	a0,s2
80009274:	00098593          	mv	a1,s3
80009278:	f1c42c23          	sw	t3,-232(s0)
8000927c:	f0642a23          	sw	t1,-236(s0)
80009280:	19c040ef          	jal	ra,8000d41c <fma>
80009284:	f0842703          	lw	a4,-248(s0)
80009288:	f1042783          	lw	a5,-240(s0)
8000928c:	00050e13          	mv	t3,a0
80009290:	00058313          	mv	t1,a1
80009294:	000a0613          	mv	a2,s4
80009298:	000a8693          	mv	a3,s5
8000929c:	00090513          	mv	a0,s2
800092a0:	00098593          	mv	a1,s3
800092a4:	f1c42423          	sw	t3,-248(s0)
800092a8:	f0642823          	sw	t1,-240(s0)
800092ac:	170040ef          	jal	ra,8000d41c <fma>
800092b0:	f0042703          	lw	a4,-256(s0)
800092b4:	ef842783          	lw	a5,-264(s0)
800092b8:	00050e13          	mv	t3,a0
800092bc:	00058313          	mv	t1,a1
800092c0:	000b0613          	mv	a2,s6
800092c4:	000b8693          	mv	a3,s7
800092c8:	00090513          	mv	a0,s2
800092cc:	00098593          	mv	a1,s3
800092d0:	f1c42023          	sw	t3,-256(s0)
800092d4:	ee642c23          	sw	t1,-264(s0)
800092d8:	144040ef          	jal	ra,8000d41c <fma>
800092dc:	fb042603          	lw	a2,-80(s0)
800092e0:	ec042803          	lw	a6,-320(s0)
800092e4:	ec442883          	lw	a7,-316(s0)
800092e8:	02062903          	lw	s2,32(a2)
800092ec:	02462983          	lw	s3,36(a2)
800092f0:	ef042703          	lw	a4,-272(s0)
800092f4:	ee842783          	lw	a5,-280(s0)
800092f8:	00050e13          	mv	t3,a0
800092fc:	00058313          	mv	t1,a1
80009300:	00088693          	mv	a3,a7
80009304:	00080613          	mv	a2,a6
80009308:	00090513          	mv	a0,s2
8000930c:	00098593          	mv	a1,s3
80009310:	efc42823          	sw	t3,-272(s0)
80009314:	ee642423          	sw	t1,-280(s0)
80009318:	104040ef          	jal	ra,8000d41c <fma>
8000931c:	ee042703          	lw	a4,-288(s0)
80009320:	ed842783          	lw	a5,-296(s0)
80009324:	00050393          	mv	t2,a0
80009328:	00058813          	mv	a6,a1
8000932c:	000d0613          	mv	a2,s10
80009330:	000d8693          	mv	a3,s11
80009334:	00090513          	mv	a0,s2
80009338:	00098593          	mv	a1,s3
8000933c:	e8742623          	sw	t2,-372(s0)
80009340:	ef042023          	sw	a6,-288(s0)
80009344:	0d8040ef          	jal	ra,8000d41c <fma>
80009348:	ea842e83          	lw	t4,-344(s0)
8000934c:	ebc42f03          	lw	t5,-324(s0)
80009350:	00050893          	mv	a7,a0
80009354:	000e8713          	mv	a4,t4
80009358:	000f0793          	mv	a5,t5
8000935c:	00058813          	mv	a6,a1
80009360:	000c0613          	mv	a2,s8
80009364:	000c8693          	mv	a3,s9
80009368:	00090513          	mv	a0,s2
8000936c:	00098593          	mv	a1,s3
80009370:	ed142c23          	sw	a7,-296(s0)
80009374:	ed042023          	sw	a6,-320(s0)
80009378:	0a4040ef          	jal	ra,8000d41c <fma>
8000937c:	ed042703          	lw	a4,-304(s0)
80009380:	ec842783          	lw	a5,-312(s0)
80009384:	00050f93          	mv	t6,a0
80009388:	00058293          	mv	t0,a1
8000938c:	e9f42823          	sw	t6,-368(s0)
80009390:	000a0613          	mv	a2,s4
80009394:	000a8693          	mv	a3,s5
80009398:	00090513          	mv	a0,s2
8000939c:	00098593          	mv	a1,s3
800093a0:	e8542a23          	sw	t0,-364(s0)
800093a4:	078040ef          	jal	ra,8000d41c <fma>
800093a8:	00058813          	mv	a6,a1
800093ac:	e7042583          	lw	a1,-400(s0)
800093b0:	f9842703          	lw	a4,-104(s0)
800093b4:	f9442783          	lw	a5,-108(s0)
800093b8:	00b48a33          	add	s4,s1,a1
800093bc:	00050893          	mv	a7,a0
800093c0:	000b0613          	mv	a2,s6
800093c4:	000b8693          	mv	a3,s7
800093c8:	00090513          	mv	a0,s2
800093cc:	00098593          	mv	a1,s3
800093d0:	ed142823          	sw	a7,-304(s0)
800093d4:	ed042423          	sw	a6,-312(s0)
800093d8:	044040ef          	jal	ra,8000d41c <fma>
800093dc:	fb842783          	lw	a5,-72(s0)
800093e0:	000a2803          	lw	a6,0(s4)
800093e4:	004a2883          	lw	a7,4(s4)
800093e8:	0287a903          	lw	s2,40(a5)
800093ec:	02c7a983          	lw	s3,44(a5)
800093f0:	f8842703          	lw	a4,-120(s0)
800093f4:	f9042783          	lw	a5,-112(s0)
800093f8:	00080613          	mv	a2,a6
800093fc:	00088693          	mv	a3,a7
80009400:	00050e13          	mv	t3,a0
80009404:	00058313          	mv	t1,a1
80009408:	00090513          	mv	a0,s2
8000940c:	00098593          	mv	a1,s3
80009410:	eb042023          	sw	a6,-352(s0)
80009414:	eb142223          	sw	a7,-348(s0)
80009418:	ebc42e23          	sw	t3,-324(s0)
8000941c:	ea642423          	sw	t1,-344(s0)
80009420:	7fd030ef          	jal	ra,8000d41c <fma>
80009424:	008a2d03          	lw	s10,8(s4)
80009428:	00ca2d83          	lw	s11,12(s4)
8000942c:	f8042703          	lw	a4,-128(s0)
80009430:	f7c42783          	lw	a5,-132(s0)
80009434:	00050f13          	mv	t5,a0
80009438:	00058e93          	mv	t4,a1
8000943c:	000d0613          	mv	a2,s10
80009440:	000d8693          	mv	a3,s11
80009444:	00090513          	mv	a0,s2
80009448:	00098593          	mv	a1,s3
8000944c:	e9e42c23          	sw	t5,-360(s0)
80009450:	e9d42e23          	sw	t4,-356(s0)
80009454:	7c9030ef          	jal	ra,8000d41c <fma>
80009458:	010a2c03          	lw	s8,16(s4)
8000945c:	014a2c83          	lw	s9,20(s4)
80009460:	f7042703          	lw	a4,-144(s0)
80009464:	f6842783          	lw	a5,-152(s0)
80009468:	00050e13          	mv	t3,a0
8000946c:	00058313          	mv	t1,a1
80009470:	000c0613          	mv	a2,s8
80009474:	000c8693          	mv	a3,s9
80009478:	00090513          	mv	a0,s2
8000947c:	00098593          	mv	a1,s3
80009480:	f9c42c23          	sw	t3,-104(s0)
80009484:	f8642a23          	sw	t1,-108(s0)
80009488:	795030ef          	jal	ra,8000d41c <fma>
8000948c:	018a2b03          	lw	s6,24(s4)
80009490:	01ca2b83          	lw	s7,28(s4)
80009494:	f7842703          	lw	a4,-136(s0)
80009498:	f6042783          	lw	a5,-160(s0)
8000949c:	00050e13          	mv	t3,a0
800094a0:	00058313          	mv	t1,a1
800094a4:	000b0613          	mv	a2,s6
800094a8:	000b8693          	mv	a3,s7
800094ac:	00090513          	mv	a0,s2
800094b0:	00098593          	mv	a1,s3
800094b4:	f9c42423          	sw	t3,-120(s0)
800094b8:	f8642823          	sw	t1,-112(s0)
800094bc:	761030ef          	jal	ra,8000d41c <fma>
800094c0:	024a2a83          	lw	s5,36(s4)
800094c4:	020a2a03          	lw	s4,32(s4)
800094c8:	f5c42703          	lw	a4,-164(s0)
800094cc:	f5042783          	lw	a5,-176(s0)
800094d0:	00050e13          	mv	t3,a0
800094d4:	00058313          	mv	t1,a1
800094d8:	000a0613          	mv	a2,s4
800094dc:	000a8693          	mv	a3,s5
800094e0:	00090513          	mv	a0,s2
800094e4:	00098593          	mv	a1,s3
800094e8:	f9c42023          	sw	t3,-128(s0)
800094ec:	f6642e23          	sw	t1,-132(s0)
800094f0:	72d030ef          	jal	ra,8000d41c <fma>
800094f4:	fa042703          	lw	a4,-96(s0)
800094f8:	ea042803          	lw	a6,-352(s0)
800094fc:	ea442883          	lw	a7,-348(s0)
80009500:	02872903          	lw	s2,40(a4)
80009504:	02c72983          	lw	s3,44(a4)
80009508:	f4842783          	lw	a5,-184(s0)
8000950c:	f5842703          	lw	a4,-168(s0)
80009510:	00080613          	mv	a2,a6
80009514:	00088693          	mv	a3,a7
80009518:	00050e13          	mv	t3,a0
8000951c:	00058313          	mv	t1,a1
80009520:	00090513          	mv	a0,s2
80009524:	00098593          	mv	a1,s3
80009528:	f7c42823          	sw	t3,-144(s0)
8000952c:	f6642423          	sw	t1,-152(s0)
80009530:	6ed030ef          	jal	ra,8000d41c <fma>
80009534:	f4442703          	lw	a4,-188(s0)
80009538:	f3842783          	lw	a5,-200(s0)
8000953c:	00050e13          	mv	t3,a0
80009540:	00058313          	mv	t1,a1
80009544:	000d0613          	mv	a2,s10
80009548:	000d8693          	mv	a3,s11
8000954c:	00090513          	mv	a0,s2
80009550:	00098593          	mv	a1,s3
80009554:	f7c42c23          	sw	t3,-136(s0)
80009558:	f6642023          	sw	t1,-160(s0)
8000955c:	6c1030ef          	jal	ra,8000d41c <fma>
80009560:	f4042703          	lw	a4,-192(s0)
80009564:	f3442783          	lw	a5,-204(s0)
80009568:	00050e13          	mv	t3,a0
8000956c:	00058313          	mv	t1,a1
80009570:	000c0613          	mv	a2,s8
80009574:	000c8693          	mv	a3,s9
80009578:	00090513          	mv	a0,s2
8000957c:	00098593          	mv	a1,s3
80009580:	f5c42e23          	sw	t3,-164(s0)
80009584:	f4642823          	sw	t1,-176(s0)
80009588:	695030ef          	jal	ra,8000d41c <fma>
8000958c:	f3042703          	lw	a4,-208(s0)
80009590:	f2c42783          	lw	a5,-212(s0)
80009594:	00050e13          	mv	t3,a0
80009598:	00058313          	mv	t1,a1
8000959c:	000b0613          	mv	a2,s6
800095a0:	000b8693          	mv	a3,s7
800095a4:	00090513          	mv	a0,s2
800095a8:	00098593          	mv	a1,s3
800095ac:	f5c42c23          	sw	t3,-168(s0)
800095b0:	f4642423          	sw	t1,-184(s0)
800095b4:	669030ef          	jal	ra,8000d41c <fma>
800095b8:	f2842703          	lw	a4,-216(s0)
800095bc:	f2442783          	lw	a5,-220(s0)
800095c0:	00050e13          	mv	t3,a0
800095c4:	00058313          	mv	t1,a1
800095c8:	000a0613          	mv	a2,s4
800095cc:	000a8693          	mv	a3,s5
800095d0:	00090513          	mv	a0,s2
800095d4:	00098593          	mv	a1,s3
800095d8:	f5c42223          	sw	t3,-188(s0)
800095dc:	f2642c23          	sw	t1,-200(s0)
800095e0:	63d030ef          	jal	ra,8000d41c <fma>
800095e4:	fa842683          	lw	a3,-88(s0)
800095e8:	ea042803          	lw	a6,-352(s0)
800095ec:	ea442883          	lw	a7,-348(s0)
800095f0:	0286a903          	lw	s2,40(a3)
800095f4:	02c6a983          	lw	s3,44(a3)
800095f8:	f2042703          	lw	a4,-224(s0)
800095fc:	f1c42783          	lw	a5,-228(s0)
80009600:	00080613          	mv	a2,a6
80009604:	00088693          	mv	a3,a7
80009608:	00050e13          	mv	t3,a0
8000960c:	00058313          	mv	t1,a1
80009610:	00090513          	mv	a0,s2
80009614:	00098593          	mv	a1,s3
80009618:	f5c42023          	sw	t3,-192(s0)
8000961c:	f2642a23          	sw	t1,-204(s0)
80009620:	5fd030ef          	jal	ra,8000d41c <fma>
80009624:	f1842703          	lw	a4,-232(s0)
80009628:	f1442783          	lw	a5,-236(s0)
8000962c:	00050e13          	mv	t3,a0
80009630:	00058313          	mv	t1,a1
80009634:	f3c42823          	sw	t3,-208(s0)
80009638:	000d0613          	mv	a2,s10
8000963c:	000d8693          	mv	a3,s11
80009640:	00090513          	mv	a0,s2
80009644:	00098593          	mv	a1,s3
80009648:	f2642623          	sw	t1,-212(s0)
8000964c:	5d1030ef          	jal	ra,8000d41c <fma>
80009650:	f0842703          	lw	a4,-248(s0)
80009654:	f1042783          	lw	a5,-240(s0)
80009658:	00050e13          	mv	t3,a0
8000965c:	00058313          	mv	t1,a1
80009660:	000c0613          	mv	a2,s8
80009664:	000c8693          	mv	a3,s9
80009668:	00090513          	mv	a0,s2
8000966c:	00098593          	mv	a1,s3
80009670:	f3c42423          	sw	t3,-216(s0)
80009674:	f2642223          	sw	t1,-220(s0)
80009678:	5a5030ef          	jal	ra,8000d41c <fma>
8000967c:	f0042703          	lw	a4,-256(s0)
80009680:	ef842783          	lw	a5,-264(s0)
80009684:	00050e13          	mv	t3,a0
80009688:	00058313          	mv	t1,a1
8000968c:	000b0613          	mv	a2,s6
80009690:	000b8693          	mv	a3,s7
80009694:	00090513          	mv	a0,s2
80009698:	00098593          	mv	a1,s3
8000969c:	f3c42023          	sw	t3,-224(s0)
800096a0:	f0642e23          	sw	t1,-228(s0)
800096a4:	579030ef          	jal	ra,8000d41c <fma>
800096a8:	ef042703          	lw	a4,-272(s0)
800096ac:	ee842783          	lw	a5,-280(s0)
800096b0:	00050e13          	mv	t3,a0
800096b4:	00058313          	mv	t1,a1
800096b8:	000a0613          	mv	a2,s4
800096bc:	000a8693          	mv	a3,s5
800096c0:	00090513          	mv	a0,s2
800096c4:	00098593          	mv	a1,s3
800096c8:	f1c42c23          	sw	t3,-232(s0)
800096cc:	f0642a23          	sw	t1,-236(s0)
800096d0:	54d030ef          	jal	ra,8000d41c <fma>
800096d4:	fb042603          	lw	a2,-80(s0)
800096d8:	e8c42383          	lw	t2,-372(s0)
800096dc:	ea042803          	lw	a6,-352(s0)
800096e0:	02862903          	lw	s2,40(a2)
800096e4:	02c62983          	lw	s3,44(a2)
800096e8:	ea442883          	lw	a7,-348(s0)
800096ec:	ee042783          	lw	a5,-288(s0)
800096f0:	00050e13          	mv	t3,a0
800096f4:	00058313          	mv	t1,a1
800096f8:	00038713          	mv	a4,t2
800096fc:	00080613          	mv	a2,a6
80009700:	00088693          	mv	a3,a7
80009704:	00090513          	mv	a0,s2
80009708:	00098593          	mv	a1,s3
8000970c:	f1c42423          	sw	t3,-248(s0)
80009710:	f0642823          	sw	t1,-240(s0)
80009714:	509030ef          	jal	ra,8000d41c <fma>
80009718:	ed842703          	lw	a4,-296(s0)
8000971c:	ec042783          	lw	a5,-320(s0)
80009720:	00050893          	mv	a7,a0
80009724:	00058813          	mv	a6,a1
80009728:	000d0613          	mv	a2,s10
8000972c:	000d8693          	mv	a3,s11
80009730:	00090513          	mv	a0,s2
80009734:	00098593          	mv	a1,s3
80009738:	f1142023          	sw	a7,-256(s0)
8000973c:	ef042c23          	sw	a6,-264(s0)
80009740:	4dd030ef          	jal	ra,8000d41c <fma>
80009744:	e9042f83          	lw	t6,-368(s0)
80009748:	e9442283          	lw	t0,-364(s0)
8000974c:	00050893          	mv	a7,a0
80009750:	00058813          	mv	a6,a1
80009754:	000f8713          	mv	a4,t6
80009758:	00028793          	mv	a5,t0
8000975c:	000c0613          	mv	a2,s8
80009760:	000c8693          	mv	a3,s9
80009764:	00090513          	mv	a0,s2
80009768:	00098593          	mv	a1,s3
8000976c:	ef142823          	sw	a7,-272(s0)
80009770:	ef042423          	sw	a6,-280(s0)
80009774:	4a9030ef          	jal	ra,8000d41c <fma>
80009778:	ed042703          	lw	a4,-304(s0)
8000977c:	ec842783          	lw	a5,-312(s0)
80009780:	00050893          	mv	a7,a0
80009784:	00058813          	mv	a6,a1
80009788:	000b0613          	mv	a2,s6
8000978c:	000b8693          	mv	a3,s7
80009790:	00090513          	mv	a0,s2
80009794:	00098593          	mv	a1,s3
80009798:	ef142023          	sw	a7,-288(s0)
8000979c:	ed042c23          	sw	a6,-296(s0)
800097a0:	47d030ef          	jal	ra,8000d41c <fma>
800097a4:	00058813          	mv	a6,a1
800097a8:	ed042423          	sw	a6,-312(s0)
800097ac:	fb842803          	lw	a6,-72(s0)
800097b0:	ebc42703          	lw	a4,-324(s0)
800097b4:	ea842783          	lw	a5,-344(s0)
800097b8:	00050893          	mv	a7,a0
800097bc:	000a0613          	mv	a2,s4
800097c0:	000a8693          	mv	a3,s5
800097c4:	00090513          	mv	a0,s2
800097c8:	ed142823          	sw	a7,-304(s0)
800097cc:	03080913          	addi	s2,a6,48
800097d0:	00098593          	mv	a1,s3
800097d4:	fb242c23          	sw	s2,-72(s0)
800097d8:	445030ef          	jal	ra,8000d41c <fma>
800097dc:	e8042783          	lw	a5,-384(s0)
800097e0:	fa042703          	lw	a4,-96(s0)
800097e4:	fa842683          	lw	a3,-88(s0)
800097e8:	fb042603          	lw	a2,-80(s0)
800097ec:	00f484b3          	add	s1,s1,a5
800097f0:	03070793          	addi	a5,a4,48
800097f4:	faf42023          	sw	a5,-96(s0)
800097f8:	03068793          	addi	a5,a3,48
800097fc:	faf42423          	sw	a5,-88(s0)
80009800:	03060793          	addi	a5,a2,48
80009804:	faf42823          	sw	a5,-80(s0)
80009808:	e8842783          	lw	a5,-376(s0)
8000980c:	eca42023          	sw	a0,-320(s0)
80009810:	eab42e23          	sw	a1,-324(s0)
80009814:	e9c42e83          	lw	t4,-356(s0)
80009818:	e9842f03          	lw	t5,-360(s0)
8000981c:	00f97463          	bgeu	s2,a5,80009824 <mm_cb+0x845c>
80009820:	fdcfe06f          	j	80007ffc <mm_cb+0x6c34>
80009824:	e4c42783          	lw	a5,-436(s0)
80009828:	e6c42703          	lw	a4,-404(s0)
8000982c:	00e78933          	add	s2,a5,a4
80009830:	e8842783          	lw	a5,-376(s0)
80009834:	e8442703          	lw	a4,-380(s0)
80009838:	42e7f663          	bgeu	a5,a4,80009c64 <mm_cb+0x889c>
8000983c:	00078993          	mv	s3,a5
80009840:	0009aa03          	lw	s4,0(s3)
80009844:	0049aa83          	lw	s5,4(s3)
80009848:	00092c03          	lw	s8,0(s2)
8000984c:	00492c83          	lw	s9,4(s2)
80009850:	000f0713          	mv	a4,t5
80009854:	000e8793          	mv	a5,t4
80009858:	000c0613          	mv	a2,s8
8000985c:	000c8693          	mv	a3,s9
80009860:	000a0513          	mv	a0,s4
80009864:	000a8593          	mv	a1,s5
80009868:	3b5030ef          	jal	ra,8000d41c <fma>
8000986c:	00892b03          	lw	s6,8(s2)
80009870:	00c92b83          	lw	s7,12(s2)
80009874:	f9842703          	lw	a4,-104(s0)
80009878:	f9442783          	lw	a5,-108(s0)
8000987c:	00050f13          	mv	t5,a0
80009880:	00058e93          	mv	t4,a1
80009884:	000b0613          	mv	a2,s6
80009888:	000b8693          	mv	a3,s7
8000988c:	000a0513          	mv	a0,s4
80009890:	000a8593          	mv	a1,s5
80009894:	fbe42023          	sw	t5,-96(s0)
80009898:	fbd42423          	sw	t4,-88(s0)
8000989c:	381030ef          	jal	ra,8000d41c <fma>
800098a0:	01092d03          	lw	s10,16(s2)
800098a4:	01492d83          	lw	s11,20(s2)
800098a8:	f8842703          	lw	a4,-120(s0)
800098ac:	f9042783          	lw	a5,-112(s0)
800098b0:	00050893          	mv	a7,a0
800098b4:	00058813          	mv	a6,a1
800098b8:	000d0613          	mv	a2,s10
800098bc:	000d8693          	mv	a3,s11
800098c0:	000a0513          	mv	a0,s4
800098c4:	000a8593          	mv	a1,s5
800098c8:	f9142c23          	sw	a7,-104(s0)
800098cc:	f9042a23          	sw	a6,-108(s0)
800098d0:	34d030ef          	jal	ra,8000d41c <fma>
800098d4:	01892803          	lw	a6,24(s2)
800098d8:	01c92883          	lw	a7,28(s2)
800098dc:	f8042703          	lw	a4,-128(s0)
800098e0:	f7c42783          	lw	a5,-132(s0)
800098e4:	00080613          	mv	a2,a6
800098e8:	00088693          	mv	a3,a7
800098ec:	00050e13          	mv	t3,a0
800098f0:	00058313          	mv	t1,a1
800098f4:	000a0513          	mv	a0,s4
800098f8:	000a8593          	mv	a1,s5
800098fc:	fb042823          	sw	a6,-80(s0)
80009900:	fb142a23          	sw	a7,-76(s0)
80009904:	f9c42423          	sw	t3,-120(s0)
80009908:	f8642823          	sw	t1,-112(s0)
8000990c:	311030ef          	jal	ra,8000d41c <fma>
80009910:	02092303          	lw	t1,32(s2)
80009914:	02492383          	lw	t2,36(s2)
80009918:	eb042683          	lw	a3,-336(s0)
8000991c:	f7042703          	lw	a4,-144(s0)
80009920:	f6842783          	lw	a5,-152(s0)
80009924:	00030613          	mv	a2,t1
80009928:	00d984b3          	add	s1,s3,a3
8000992c:	00050f93          	mv	t6,a0
80009930:	00038693          	mv	a3,t2
80009934:	00058e13          	mv	t3,a1
80009938:	000a0513          	mv	a0,s4
8000993c:	000a8593          	mv	a1,s5
80009940:	fa642c23          	sw	t1,-72(s0)
80009944:	fa742e23          	sw	t2,-68(s0)
80009948:	f9f42023          	sw	t6,-128(s0)
8000994c:	f7c42e23          	sw	t3,-132(s0)
80009950:	2cd030ef          	jal	ra,8000d41c <fma>
80009954:	0004aa03          	lw	s4,0(s1)
80009958:	0044aa83          	lw	s5,4(s1)
8000995c:	f7842703          	lw	a4,-136(s0)
80009960:	f6042783          	lw	a5,-160(s0)
80009964:	00050f93          	mv	t6,a0
80009968:	00058e13          	mv	t3,a1
8000996c:	000c0613          	mv	a2,s8
80009970:	000c8693          	mv	a3,s9
80009974:	000a0513          	mv	a0,s4
80009978:	000a8593          	mv	a1,s5
8000997c:	f7f42823          	sw	t6,-144(s0)
80009980:	f7c42423          	sw	t3,-152(s0)
80009984:	299030ef          	jal	ra,8000d41c <fma>
80009988:	f5c42703          	lw	a4,-164(s0)
8000998c:	f5042783          	lw	a5,-176(s0)
80009990:	00050f93          	mv	t6,a0
80009994:	00058e13          	mv	t3,a1
80009998:	000b0613          	mv	a2,s6
8000999c:	000b8693          	mv	a3,s7
800099a0:	000a0513          	mv	a0,s4
800099a4:	000a8593          	mv	a1,s5
800099a8:	f7f42c23          	sw	t6,-136(s0)
800099ac:	f7c42023          	sw	t3,-160(s0)
800099b0:	26d030ef          	jal	ra,8000d41c <fma>
800099b4:	f5842703          	lw	a4,-168(s0)
800099b8:	f4842783          	lw	a5,-184(s0)
800099bc:	00050f93          	mv	t6,a0
800099c0:	00058e13          	mv	t3,a1
800099c4:	000d0613          	mv	a2,s10
800099c8:	000d8693          	mv	a3,s11
800099cc:	000a0513          	mv	a0,s4
800099d0:	000a8593          	mv	a1,s5
800099d4:	f5f42e23          	sw	t6,-164(s0)
800099d8:	f5c42823          	sw	t3,-176(s0)
800099dc:	241030ef          	jal	ra,8000d41c <fma>
800099e0:	fb042803          	lw	a6,-80(s0)
800099e4:	fb442883          	lw	a7,-76(s0)
800099e8:	f4442703          	lw	a4,-188(s0)
800099ec:	f3842783          	lw	a5,-200(s0)
800099f0:	00080613          	mv	a2,a6
800099f4:	00088693          	mv	a3,a7
800099f8:	00050f93          	mv	t6,a0
800099fc:	00058e13          	mv	t3,a1
80009a00:	000a0513          	mv	a0,s4
80009a04:	000a8593          	mv	a1,s5
80009a08:	f5f42c23          	sw	t6,-168(s0)
80009a0c:	f5c42423          	sw	t3,-184(s0)
80009a10:	20d030ef          	jal	ra,8000d41c <fma>
80009a14:	fb842303          	lw	t1,-72(s0)
80009a18:	fbc42383          	lw	t2,-68(s0)
80009a1c:	00058e13          	mv	t3,a1
80009a20:	eb042583          	lw	a1,-336(s0)
80009a24:	f4042703          	lw	a4,-192(s0)
80009a28:	f3442783          	lw	a5,-204(s0)
80009a2c:	00030613          	mv	a2,t1
80009a30:	00038693          	mv	a3,t2
80009a34:	00050f93          	mv	t6,a0
80009a38:	00b484b3          	add	s1,s1,a1
80009a3c:	000a0513          	mv	a0,s4
80009a40:	000a8593          	mv	a1,s5
80009a44:	f5f42223          	sw	t6,-188(s0)
80009a48:	f3c42c23          	sw	t3,-200(s0)
80009a4c:	1d1030ef          	jal	ra,8000d41c <fma>
80009a50:	0004aa03          	lw	s4,0(s1)
80009a54:	0044aa83          	lw	s5,4(s1)
80009a58:	f3042703          	lw	a4,-208(s0)
80009a5c:	f2c42783          	lw	a5,-212(s0)
80009a60:	00050f93          	mv	t6,a0
80009a64:	00058e13          	mv	t3,a1
80009a68:	000c0613          	mv	a2,s8
80009a6c:	000c8693          	mv	a3,s9
80009a70:	000a0513          	mv	a0,s4
80009a74:	000a8593          	mv	a1,s5
80009a78:	f5f42023          	sw	t6,-192(s0)
80009a7c:	f3c42a23          	sw	t3,-204(s0)
80009a80:	19d030ef          	jal	ra,8000d41c <fma>
80009a84:	f2842703          	lw	a4,-216(s0)
80009a88:	f2442783          	lw	a5,-220(s0)
80009a8c:	00050f93          	mv	t6,a0
80009a90:	00058e13          	mv	t3,a1
80009a94:	000b0613          	mv	a2,s6
80009a98:	000b8693          	mv	a3,s7
80009a9c:	000a0513          	mv	a0,s4
80009aa0:	000a8593          	mv	a1,s5
80009aa4:	f3f42823          	sw	t6,-208(s0)
80009aa8:	f3c42623          	sw	t3,-212(s0)
80009aac:	171030ef          	jal	ra,8000d41c <fma>
80009ab0:	f2042703          	lw	a4,-224(s0)
80009ab4:	f1c42783          	lw	a5,-228(s0)
80009ab8:	00050f93          	mv	t6,a0
80009abc:	00058e13          	mv	t3,a1
80009ac0:	000d0613          	mv	a2,s10
80009ac4:	000d8693          	mv	a3,s11
80009ac8:	000a0513          	mv	a0,s4
80009acc:	000a8593          	mv	a1,s5
80009ad0:	f3f42423          	sw	t6,-216(s0)
80009ad4:	f3c42223          	sw	t3,-220(s0)
80009ad8:	145030ef          	jal	ra,8000d41c <fma>
80009adc:	fb042803          	lw	a6,-80(s0)
80009ae0:	f1842703          	lw	a4,-232(s0)
80009ae4:	f1442783          	lw	a5,-236(s0)
80009ae8:	fb442883          	lw	a7,-76(s0)
80009aec:	00080613          	mv	a2,a6
80009af0:	00050f93          	mv	t6,a0
80009af4:	00088693          	mv	a3,a7
80009af8:	00058e13          	mv	t3,a1
80009afc:	000a0513          	mv	a0,s4
80009b00:	000a8593          	mv	a1,s5
80009b04:	f3f42023          	sw	t6,-224(s0)
80009b08:	f1c42e23          	sw	t3,-228(s0)
80009b0c:	111030ef          	jal	ra,8000d41c <fma>
80009b10:	fb842303          	lw	t1,-72(s0)
80009b14:	fbc42383          	lw	t2,-68(s0)
80009b18:	f0842703          	lw	a4,-248(s0)
80009b1c:	f1042783          	lw	a5,-240(s0)
80009b20:	00030613          	mv	a2,t1
80009b24:	00038693          	mv	a3,t2
80009b28:	00050f93          	mv	t6,a0
80009b2c:	00058e13          	mv	t3,a1
80009b30:	000a0513          	mv	a0,s4
80009b34:	000a8593          	mv	a1,s5
80009b38:	f1f42c23          	sw	t6,-232(s0)
80009b3c:	f1c42a23          	sw	t3,-236(s0)
80009b40:	0dd030ef          	jal	ra,8000d41c <fma>
80009b44:	00058e13          	mv	t3,a1
80009b48:	eb042583          	lw	a1,-336(s0)
80009b4c:	f0042703          	lw	a4,-256(s0)
80009b50:	ef842783          	lw	a5,-264(s0)
80009b54:	00b484b3          	add	s1,s1,a1
80009b58:	0004aa03          	lw	s4,0(s1)
80009b5c:	0044aa83          	lw	s5,4(s1)
80009b60:	00050f93          	mv	t6,a0
80009b64:	000c0613          	mv	a2,s8
80009b68:	000c8693          	mv	a3,s9
80009b6c:	000a0513          	mv	a0,s4
80009b70:	000a8593          	mv	a1,s5
80009b74:	f1f42423          	sw	t6,-248(s0)
80009b78:	f1c42823          	sw	t3,-240(s0)
80009b7c:	0a1030ef          	jal	ra,8000d41c <fma>
80009b80:	ef042703          	lw	a4,-272(s0)
80009b84:	ee842783          	lw	a5,-280(s0)
80009b88:	00050f93          	mv	t6,a0
80009b8c:	00058e13          	mv	t3,a1
80009b90:	000b0613          	mv	a2,s6
80009b94:	000b8693          	mv	a3,s7
80009b98:	000a0513          	mv	a0,s4
80009b9c:	000a8593          	mv	a1,s5
80009ba0:	f1f42023          	sw	t6,-256(s0)
80009ba4:	efc42c23          	sw	t3,-264(s0)
80009ba8:	075030ef          	jal	ra,8000d41c <fma>
80009bac:	ee042703          	lw	a4,-288(s0)
80009bb0:	ed842783          	lw	a5,-296(s0)
80009bb4:	00050f93          	mv	t6,a0
80009bb8:	00058e13          	mv	t3,a1
80009bbc:	000d0613          	mv	a2,s10
80009bc0:	000d8693          	mv	a3,s11
80009bc4:	000a0513          	mv	a0,s4
80009bc8:	000a8593          	mv	a1,s5
80009bcc:	eff42823          	sw	t6,-272(s0)
80009bd0:	efc42423          	sw	t3,-280(s0)
80009bd4:	049030ef          	jal	ra,8000d41c <fma>
80009bd8:	fb042803          	lw	a6,-80(s0)
80009bdc:	fb442883          	lw	a7,-76(s0)
80009be0:	ed042703          	lw	a4,-304(s0)
80009be4:	ec842783          	lw	a5,-312(s0)
80009be8:	00050f93          	mv	t6,a0
80009bec:	00058e13          	mv	t3,a1
80009bf0:	00080613          	mv	a2,a6
80009bf4:	00088693          	mv	a3,a7
80009bf8:	000a0513          	mv	a0,s4
80009bfc:	000a8593          	mv	a1,s5
80009c00:	eff42023          	sw	t6,-288(s0)
80009c04:	edc42c23          	sw	t3,-296(s0)
80009c08:	015030ef          	jal	ra,8000d41c <fma>
80009c0c:	fb842303          	lw	t1,-72(s0)
80009c10:	fbc42383          	lw	t2,-68(s0)
80009c14:	ebc42783          	lw	a5,-324(s0)
80009c18:	ec042703          	lw	a4,-320(s0)
80009c1c:	00050893          	mv	a7,a0
80009c20:	00058813          	mv	a6,a1
80009c24:	00030613          	mv	a2,t1
80009c28:	00038693          	mv	a3,t2
80009c2c:	000a0513          	mv	a0,s4
80009c30:	000a8593          	mv	a1,s5
80009c34:	ed142823          	sw	a7,-304(s0)
80009c38:	ed042423          	sw	a6,-312(s0)
80009c3c:	7e0030ef          	jal	ra,8000d41c <fma>
80009c40:	eb842783          	lw	a5,-328(s0)
80009c44:	eca42023          	sw	a0,-320(s0)
80009c48:	eab42e23          	sw	a1,-324(s0)
80009c4c:	00f90933          	add	s2,s2,a5
80009c50:	e8442783          	lw	a5,-380(s0)
80009c54:	00898993          	addi	s3,s3,8
80009c58:	fa842e83          	lw	t4,-88(s0)
80009c5c:	fa042f03          	lw	t5,-96(s0)
80009c60:	bef9e0e3          	bltu	s3,a5,80009840 <mm_cb+0x8478>
80009c64:	e5c42283          	lw	t0,-420(s0)
80009c68:	f9842703          	lw	a4,-104(s0)
80009c6c:	f8842503          	lw	a0,-120(s0)
80009c70:	f7042303          	lw	t1,-144(s0)
80009c74:	f9442783          	lw	a5,-108(s0)
80009c78:	f9042583          	lw	a1,-112(s0)
80009c7c:	f7c42883          	lw	a7,-132(s0)
80009c80:	f6842383          	lw	t2,-152(s0)
80009c84:	f8042803          	lw	a6,-128(s0)
80009c88:	000f0613          	mv	a2,t5
80009c8c:	f7842e03          	lw	t3,-136(s0)
80009c90:	f5c42f03          	lw	t5,-164(s0)
80009c94:	f5842903          	lw	s2,-168(s0)
80009c98:	f4442a03          	lw	s4,-188(s0)
80009c9c:	f4042b03          	lw	s6,-192(s0)
80009ca0:	f5042f83          	lw	t6,-176(s0)
80009ca4:	f4842983          	lw	s3,-184(s0)
80009ca8:	f3842a83          	lw	s5,-200(s0)
80009cac:	f3442b83          	lw	s7,-204(s0)
80009cb0:	00c2a023          	sw	a2,0(t0)
80009cb4:	01d2a223          	sw	t4,4(t0)
80009cb8:	f2842603          	lw	a2,-216(s0)
80009cbc:	f6042e83          	lw	t4,-160(s0)
80009cc0:	00e2a423          	sw	a4,8(t0)
80009cc4:	00f2a623          	sw	a5,12(t0)
80009cc8:	f3042703          	lw	a4,-208(s0)
80009ccc:	00a2a823          	sw	a0,16(t0)
80009cd0:	00b2aa23          	sw	a1,20(t0)
80009cd4:	f2042503          	lw	a0,-224(s0)
80009cd8:	0112ae23          	sw	a7,28(t0)
80009cdc:	0262a023          	sw	t1,32(t0)
80009ce0:	0272a223          	sw	t2,36(t0)
80009ce4:	0102ac23          	sw	a6,24(t0)
80009ce8:	f1842803          	lw	a6,-232(s0)
80009cec:	e6042083          	lw	ra,-416(s0)
80009cf0:	e6442483          	lw	s1,-412(s0)
80009cf4:	f2c42783          	lw	a5,-212(s0)
80009cf8:	f2442683          	lw	a3,-220(s0)
80009cfc:	f1c42583          	lw	a1,-228(s0)
80009d00:	f1442883          	lw	a7,-236(s0)
80009d04:	f0842303          	lw	t1,-248(s0)
80009d08:	01c0a023          	sw	t3,0(ra)
80009d0c:	01d0a223          	sw	t4,4(ra)
80009d10:	01e0a423          	sw	t5,8(ra)
80009d14:	01f0a623          	sw	t6,12(ra)
80009d18:	0120a823          	sw	s2,16(ra)
80009d1c:	0130aa23          	sw	s3,20(ra)
80009d20:	0140ac23          	sw	s4,24(ra)
80009d24:	0150ae23          	sw	s5,28(ra)
80009d28:	0360a023          	sw	s6,32(ra)
80009d2c:	0370a223          	sw	s7,36(ra)
80009d30:	00e4a023          	sw	a4,0(s1)
80009d34:	00f4a223          	sw	a5,4(s1)
80009d38:	00c4a423          	sw	a2,8(s1)
80009d3c:	00d4a623          	sw	a3,12(s1)
80009d40:	00a4a823          	sw	a0,16(s1)
80009d44:	00b4aa23          	sw	a1,20(s1)
80009d48:	0104ac23          	sw	a6,24(s1)
80009d4c:	0114ae23          	sw	a7,28(s1)
80009d50:	f1042383          	lw	t2,-240(s0)
80009d54:	f0042e03          	lw	t3,-256(s0)
80009d58:	ef042f03          	lw	t5,-272(s0)
80009d5c:	ee042903          	lw	s2,-288(s0)
80009d60:	ed042a03          	lw	s4,-304(s0)
80009d64:	ec042b03          	lw	s6,-320(s0)
80009d68:	0264a023          	sw	t1,32(s1)
80009d6c:	e6842703          	lw	a4,-408(s0)
80009d70:	02848793          	addi	a5,s1,40
80009d74:	e6f42223          	sw	a5,-412(s0)
80009d78:	02870793          	addi	a5,a4,40
80009d7c:	e6f42423          	sw	a5,-408(s0)
80009d80:	e6c42783          	lw	a5,-404(s0)
80009d84:	e5842683          	lw	a3,-424(s0)
80009d88:	ef842e83          	lw	t4,-264(s0)
80009d8c:	02878793          	addi	a5,a5,40
80009d90:	ee842f83          	lw	t6,-280(s0)
80009d94:	ed842983          	lw	s3,-296(s0)
80009d98:	ec842a83          	lw	s5,-312(s0)
80009d9c:	ebc42b83          	lw	s7,-324(s0)
80009da0:	02828613          	addi	a2,t0,40
80009da4:	e6f42623          	sw	a5,-404(s0)
80009da8:	e5042783          	lw	a5,-432(s0)
80009dac:	0274a223          	sw	t2,36(s1)
80009db0:	00568693          	addi	a3,a3,5
80009db4:	e4c42e23          	sw	a2,-420(s0)
80009db8:	02808613          	addi	a2,ra,40
80009dbc:	01c72023          	sw	t3,0(a4)
80009dc0:	01d72223          	sw	t4,4(a4)
80009dc4:	01e72423          	sw	t5,8(a4)
80009dc8:	01f72623          	sw	t6,12(a4)
80009dcc:	01272823          	sw	s2,16(a4)
80009dd0:	01372a23          	sw	s3,20(a4)
80009dd4:	01472c23          	sw	s4,24(a4)
80009dd8:	01572e23          	sw	s5,28(a4)
80009ddc:	03672023          	sw	s6,32(a4)
80009de0:	03772223          	sw	s7,36(a4)
80009de4:	e4d42c23          	sw	a3,-424(s0)
80009de8:	e6c42023          	sw	a2,-416(s0)
80009dec:	00f6f463          	bgeu	a3,a5,80009df4 <mm_cb+0x8a2c>
80009df0:	890fe06f          	j	80007e80 <mm_cb+0x6ab8>
80009df4:	df442783          	lw	a5,-524(s0)
80009df8:	e0042483          	lw	s1,-512(s0)
80009dfc:	e5442983          	lw	s3,-428(s0)
80009e00:	df842303          	lw	t1,-520(s0)
80009e04:	009788b3          	add	a7,a5,s1
80009e08:	00042783          	lw	a5,0(s0)
80009e0c:	e3c42703          	lw	a4,-452(s0)
80009e10:	e4442803          	lw	a6,-444(s0)
80009e14:	00f12023          	sw	a5,0(sp)
80009e18:	e4842603          	lw	a2,-440(s0)
80009e1c:	ddc42783          	lw	a5,-548(s0)
80009e20:	df042583          	lw	a1,-528(s0)
80009e24:	00430913          	addi	s2,t1,4
80009e28:	00098693          	mv	a3,s3
80009e2c:	00400513          	li	a0,4
80009e30:	df242c23          	sw	s2,-520(s0)
80009e34:	a14f70ef          	jal	ra,80001048 <mm_naive>
80009e38:	dd042783          	lw	a5,-560(s0)
80009e3c:	00f98733          	add	a4,s3,a5
80009e40:	e4e42a23          	sw	a4,-428(s0)
80009e44:	e8842703          	lw	a4,-376(s0)
80009e48:	00f70733          	add	a4,a4,a5
80009e4c:	e8e42423          	sw	a4,-376(s0)
80009e50:	e8442703          	lw	a4,-380(s0)
80009e54:	00f707b3          	add	a5,a4,a5
80009e58:	e8f42223          	sw	a5,-380(s0)
80009e5c:	dd442783          	lw	a5,-556(s0)
80009e60:	00f487b3          	add	a5,s1,a5
80009e64:	e0f42023          	sw	a5,-512(s0)
80009e68:	dfc42783          	lw	a5,-516(s0)
80009e6c:	00f97463          	bgeu	s2,a5,80009e74 <mm_cb+0x8aac>
80009e70:	fd5fd06f          	j	80007e44 <mm_cb+0x6a7c>
80009e74:	de842703          	lw	a4,-536(s0)
80009e78:	e0442483          	lw	s1,-508(s0)
80009e7c:	e2c42983          	lw	s3,-468(s0)
80009e80:	e1042303          	lw	t1,-496(s0)
80009e84:	009706b3          	add	a3,a4,s1
80009e88:	00042703          	lw	a4,0(s0)
80009e8c:	de042883          	lw	a7,-544(s0)
80009e90:	e4442803          	lw	a6,-444(s0)
80009e94:	00e12023          	sw	a4,0(sp)
80009e98:	e4842603          	lw	a2,-440(s0)
80009e9c:	e3c42703          	lw	a4,-452(s0)
80009ea0:	e2042583          	lw	a1,-480(s0)
80009ea4:	dec42503          	lw	a0,-532(s0)
80009ea8:	00098793          	mv	a5,s3
80009eac:	01830913          	addi	s2,t1,24
80009eb0:	e1242823          	sw	s2,-496(s0)
80009eb4:	994f70ef          	jal	ra,80001048 <mm_naive>
80009eb8:	dcc42783          	lw	a5,-564(s0)
80009ebc:	00f987b3          	add	a5,s3,a5
80009ec0:	e2f42623          	sw	a5,-468(s0)
80009ec4:	0c048793          	addi	a5,s1,192
80009ec8:	e0f42223          	sw	a5,-508(s0)
80009ecc:	e3442783          	lw	a5,-460(s0)
80009ed0:	00f97463          	bgeu	s2,a5,80009ed8 <mm_cb+0x8b10>
80009ed4:	ee9fd06f          	j	80007dbc <mm_cb+0x69f4>
80009ed8:	e3842703          	lw	a4,-456(s0)
80009edc:	e1c42783          	lw	a5,-484(s0)
80009ee0:	0c870713          	addi	a4,a4,200
80009ee4:	e2e42c23          	sw	a4,-456(s0)
80009ee8:	e0c42703          	lw	a4,-500(s0)
80009eec:	01978793          	addi	a5,a5,25
80009ef0:	e0f42e23          	sw	a5,-484(s0)
80009ef4:	0c870713          	addi	a4,a4,200
80009ef8:	e0e42623          	sw	a4,-500(s0)
80009efc:	e1842703          	lw	a4,-488(s0)
80009f00:	00e7f463          	bgeu	a5,a4,80009f08 <mm_cb+0x8b40>
80009f04:	e41fd06f          	j	80007d44 <mm_cb+0x697c>
80009f08:	00042783          	lw	a5,0(s0)
80009f0c:	00179793          	slli	a5,a5,0x1
80009f10:	daf42e23          	sw	a5,-580(s0)
80009f14:	00042783          	lw	a5,0(s0)
80009f18:	00379793          	slli	a5,a5,0x3
80009f1c:	e2f42223          	sw	a5,-476(s0)
80009f20:	e3042783          	lw	a5,-464(s0)
80009f24:	00078463          	beqz	a5,80009f2c <mm_cb+0x8b64>
80009f28:	b99fd06f          	j	80007ac0 <mm_cb+0x66f8>
80009f2c:	ce5fd06f          	j	80007c10 <mm_cb+0x6848>
80009f30:	e4442783          	lw	a5,-444(s0)
80009f34:	00179d93          	slli	s11,a5,0x1
80009f38:	00379793          	slli	a5,a5,0x3
80009f3c:	e6f42a23          	sw	a5,-396(s0)
80009f40:	895f706f          	j	800017d4 <mm_cb+0x40c>

80009f44 <mm>:
80009f44:	e4010113          	addi	sp,sp,-448
80009f48:	1c012e83          	lw	t4,448(sp)
80009f4c:	00050313          	mv	t1,a0
80009f50:	16a12823          	sw	a0,368(sp)
80009f54:	1a112e23          	sw	ra,444(sp)
80009f58:	1a812c23          	sw	s0,440(sp)
80009f5c:	1a912a23          	sw	s1,436(sp)
80009f60:	1b212823          	sw	s2,432(sp)
80009f64:	1b312623          	sw	s3,428(sp)
80009f68:	1b412423          	sw	s4,424(sp)
80009f6c:	1b512223          	sw	s5,420(sp)
80009f70:	1b612023          	sw	s6,416(sp)
80009f74:	19712e23          	sw	s7,412(sp)
80009f78:	19812c23          	sw	s8,408(sp)
80009f7c:	19912a23          	sw	s9,404(sp)
80009f80:	19a12823          	sw	s10,400(sp)
80009f84:	19b12623          	sw	s11,396(sp)
80009f88:	03000513          	li	a0,48
80009f8c:	15d12623          	sw	t4,332(sp)
80009f90:	16b12a23          	sw	a1,372(sp)
80009f94:	14c12023          	sw	a2,320(sp)
80009f98:	16d12c23          	sw	a3,376(sp)
80009f9c:	14e12223          	sw	a4,324(sp)
80009fa0:	14f12823          	sw	a5,336(sp)
80009fa4:	15012423          	sw	a6,328(sp)
80009fa8:	17112e23          	sw	a7,380(sp)
80009fac:	00657463          	bgeu	a0,t1,80009fb4 <mm+0x70>
80009fb0:	17c0206f          	j	8000c12c <mm+0x21e8>
80009fb4:	00078f13          	mv	t5,a5
80009fb8:	03200793          	li	a5,50
80009fbc:	00b7f463          	bgeu	a5,a1,80009fc4 <mm+0x80>
80009fc0:	16c0206f          	j	8000c12c <mm+0x21e8>
80009fc4:	00c57463          	bgeu	a0,a2,80009fcc <mm+0x88>
80009fc8:	1640206f          	j	8000c12c <mm+0x21e8>
80009fcc:	00068e13          	mv	t3,a3
80009fd0:	00500693          	li	a3,5
80009fd4:	02d5d7b3          	divu	a5,a1,a3
80009fd8:	00058513          	mv	a0,a1
80009fdc:	ffc37593          	andi	a1,t1,-4
80009fe0:	000e8313          	mv	t1,t4
80009fe4:	003e9e93          	slli	t4,t4,0x3
80009fe8:	17d12423          	sw	t4,360(sp)
80009fec:	00070e93          	mv	t4,a4
80009ff0:	00371713          	slli	a4,a4,0x3
80009ff4:	12e12423          	sw	a4,296(sp)
80009ff8:	14b12a23          	sw	a1,340(sp)
80009ffc:	00279713          	slli	a4,a5,0x2
8000a000:	00f70fb3          	add	t6,a4,a5
8000a004:	13f12823          	sw	t6,304(sp)
8000a008:	00059463          	bnez	a1,8000a010 <mm+0xcc>
8000a00c:	09c0206f          	j	8000c0a8 <mm+0x2164>
8000a010:	00600793          	li	a5,6
8000a014:	02f657b3          	divu	a5,a2,a5
8000a018:	00181713          	slli	a4,a6,0x1
8000a01c:	01070733          	add	a4,a4,a6
8000a020:	00471293          	slli	t0,a4,0x4
8000a024:	00281593          	slli	a1,a6,0x2
8000a028:	00371713          	slli	a4,a4,0x3
8000a02c:	010585b3          	add	a1,a1,a6
8000a030:	10e12223          	sw	a4,260(sp)
8000a034:	00581713          	slli	a4,a6,0x5
8000a038:	003f9f93          	slli	t6,t6,0x3
8000a03c:	10e12023          	sw	a4,256(sp)
8000a040:	00359713          	slli	a4,a1,0x3
8000a044:	10e12423          	sw	a4,264(sp)
8000a048:	01ff0733          	add	a4,t5,t6
8000a04c:	00361613          	slli	a2,a2,0x3
8000a050:	14e12e23          	sw	a4,348(sp)
8000a054:	005e9713          	slli	a4,t4,0x5
8000a058:	16e12223          	sw	a4,356(sp)
8000a05c:	00ce0733          	add	a4,t3,a2
8000a060:	0ee12c23          	sw	a4,248(sp)
8000a064:	00531713          	slli	a4,t1,0x5
8000a068:	16e12023          	sw	a4,352(sp)
8000a06c:	00381393          	slli	t2,a6,0x3
8000a070:	0c712823          	sw	t2,208(sp)
8000a074:	00481393          	slli	t2,a6,0x4
8000a078:	10512623          	sw	t0,268(sp)
8000a07c:	17f12623          	sw	t6,364(sp)
8000a080:	0e712e23          	sw	t2,252(sp)
8000a084:	13c12623          	sw	t3,300(sp)
8000a088:	13112c23          	sw	a7,312(sp)
8000a08c:	12012e23          	sw	zero,316(sp)
8000a090:	02d576b3          	remu	a3,a0,a3
8000a094:	00179713          	slli	a4,a5,0x1
8000a098:	00f70733          	add	a4,a4,a5
8000a09c:	00471713          	slli	a4,a4,0x4
8000a0a0:	00ee0733          	add	a4,t3,a4
8000a0a4:	0ee12a23          	sw	a4,244(sp)
8000a0a8:	02f287b3          	mul	a5,t0,a5
8000a0ac:	14d12c23          	sw	a3,344(sp)
8000a0b0:	12f12a23          	sw	a5,308(sp)
8000a0b4:	13012783          	lw	a5,304(sp)
8000a0b8:	00079463          	bnez	a5,8000a0c0 <mm+0x17c>
8000a0bc:	76d0106f          	j	8000c028 <mm+0x20e4>
8000a0c0:	16812783          	lw	a5,360(sp)
8000a0c4:	13812683          	lw	a3,312(sp)
8000a0c8:	12012223          	sw	zero,292(sp)
8000a0cc:	00f68733          	add	a4,a3,a5
8000a0d0:	10e12e23          	sw	a4,284(sp)
8000a0d4:	00f70733          	add	a4,a4,a5
8000a0d8:	00f707b3          	add	a5,a4,a5
8000a0dc:	10f12a23          	sw	a5,276(sp)
8000a0e0:	15012783          	lw	a5,336(sp)
8000a0e4:	10e12c23          	sw	a4,280(sp)
8000a0e8:	12d12023          	sw	a3,288(sp)
8000a0ec:	10f12823          	sw	a5,272(sp)
8000a0f0:	12012783          	lw	a5,288(sp)
8000a0f4:	0087a703          	lw	a4,8(a5)
8000a0f8:	0007ae83          	lw	t4,0(a5)
8000a0fc:	0047ae03          	lw	t3,4(a5)
8000a100:	02e12c23          	sw	a4,56(sp)
8000a104:	00c7a703          	lw	a4,12(a5)
8000a108:	02e12e23          	sw	a4,60(sp)
8000a10c:	0107a703          	lw	a4,16(a5)
8000a110:	04e12023          	sw	a4,64(sp)
8000a114:	0147a703          	lw	a4,20(a5)
8000a118:	04e12223          	sw	a4,68(sp)
8000a11c:	0187a703          	lw	a4,24(a5)
8000a120:	04e12423          	sw	a4,72(sp)
8000a124:	01c7a703          	lw	a4,28(a5)
8000a128:	04e12623          	sw	a4,76(sp)
8000a12c:	0207a703          	lw	a4,32(a5)
8000a130:	0247a783          	lw	a5,36(a5)
8000a134:	04e12823          	sw	a4,80(sp)
8000a138:	04f12a23          	sw	a5,84(sp)
8000a13c:	11c12783          	lw	a5,284(sp)
8000a140:	0007a703          	lw	a4,0(a5)
8000a144:	04e12c23          	sw	a4,88(sp)
8000a148:	0047a703          	lw	a4,4(a5)
8000a14c:	04e12e23          	sw	a4,92(sp)
8000a150:	0087a703          	lw	a4,8(a5)
8000a154:	06e12023          	sw	a4,96(sp)
8000a158:	00c7a703          	lw	a4,12(a5)
8000a15c:	06e12223          	sw	a4,100(sp)
8000a160:	0107a703          	lw	a4,16(a5)
8000a164:	06e12423          	sw	a4,104(sp)
8000a168:	0147a703          	lw	a4,20(a5)
8000a16c:	06e12623          	sw	a4,108(sp)
8000a170:	0187a703          	lw	a4,24(a5)
8000a174:	06e12823          	sw	a4,112(sp)
8000a178:	01c7a703          	lw	a4,28(a5)
8000a17c:	06e12a23          	sw	a4,116(sp)
8000a180:	0207a703          	lw	a4,32(a5)
8000a184:	0247a783          	lw	a5,36(a5)
8000a188:	06e12c23          	sw	a4,120(sp)
8000a18c:	06f12e23          	sw	a5,124(sp)
8000a190:	11812783          	lw	a5,280(sp)
8000a194:	0007a703          	lw	a4,0(a5)
8000a198:	08e12023          	sw	a4,128(sp)
8000a19c:	0047a703          	lw	a4,4(a5)
8000a1a0:	08e12223          	sw	a4,132(sp)
8000a1a4:	0087a703          	lw	a4,8(a5)
8000a1a8:	08e12423          	sw	a4,136(sp)
8000a1ac:	00c7a703          	lw	a4,12(a5)
8000a1b0:	08e12623          	sw	a4,140(sp)
8000a1b4:	0107a703          	lw	a4,16(a5)
8000a1b8:	08e12823          	sw	a4,144(sp)
8000a1bc:	0147a703          	lw	a4,20(a5)
8000a1c0:	08e12a23          	sw	a4,148(sp)
8000a1c4:	0187a703          	lw	a4,24(a5)
8000a1c8:	08e12c23          	sw	a4,152(sp)
8000a1cc:	01c7a703          	lw	a4,28(a5)
8000a1d0:	08e12e23          	sw	a4,156(sp)
8000a1d4:	0207a703          	lw	a4,32(a5)
8000a1d8:	0247a783          	lw	a5,36(a5)
8000a1dc:	0ae12023          	sw	a4,160(sp)
8000a1e0:	0af12223          	sw	a5,164(sp)
8000a1e4:	11412783          	lw	a5,276(sp)
8000a1e8:	0007a703          	lw	a4,0(a5)
8000a1ec:	0ae12423          	sw	a4,168(sp)
8000a1f0:	0047a703          	lw	a4,4(a5)
8000a1f4:	0ae12623          	sw	a4,172(sp)
8000a1f8:	11012703          	lw	a4,272(sp)
8000a1fc:	00e12c23          	sw	a4,24(sp)
8000a200:	0087a703          	lw	a4,8(a5)
8000a204:	0ae12823          	sw	a4,176(sp)
8000a208:	00c7a703          	lw	a4,12(a5)
8000a20c:	0ae12a23          	sw	a4,180(sp)
8000a210:	0107a703          	lw	a4,16(a5)
8000a214:	0ae12c23          	sw	a4,184(sp)
8000a218:	0147a703          	lw	a4,20(a5)
8000a21c:	0ae12e23          	sw	a4,188(sp)
8000a220:	0187a703          	lw	a4,24(a5)
8000a224:	0ce12023          	sw	a4,192(sp)
8000a228:	01c7a703          	lw	a4,28(a5)
8000a22c:	0ce12223          	sw	a4,196(sp)
8000a230:	0207a703          	lw	a4,32(a5)
8000a234:	0247a783          	lw	a5,36(a5)
8000a238:	0ce12423          	sw	a4,200(sp)
8000a23c:	0cf12623          	sw	a5,204(sp)
8000a240:	0f412703          	lw	a4,244(sp)
8000a244:	12c12783          	lw	a5,300(sp)
8000a248:	00e7e463          	bltu	a5,a4,8000a250 <mm+0x30c>
8000a24c:	7ec0106f          	j	8000ba38 <mm+0x1af4>
8000a250:	12812703          	lw	a4,296(sp)
8000a254:	02f12023          	sw	a5,32(sp)
8000a258:	00e786b3          	add	a3,a5,a4
8000a25c:	02d12a23          	sw	a3,52(sp)
8000a260:	00e686b3          	add	a3,a3,a4
8000a264:	00e68733          	add	a4,a3,a4
8000a268:	02d12823          	sw	a3,48(sp)
8000a26c:	02e12623          	sw	a4,44(sp)
8000a270:	01812903          	lw	s2,24(sp)
8000a274:	02012783          	lw	a5,32(sp)
8000a278:	000e8713          	mv	a4,t4
8000a27c:	00092c03          	lw	s8,0(s2)
8000a280:	0007a403          	lw	s0,0(a5)
8000a284:	0047a483          	lw	s1,4(a5)
8000a288:	00492c83          	lw	s9,4(s2)
8000a28c:	000e0793          	mv	a5,t3
8000a290:	000c0613          	mv	a2,s8
8000a294:	000c8693          	mv	a3,s9
8000a298:	00040513          	mv	a0,s0
8000a29c:	00048593          	mv	a1,s1
8000a2a0:	17c030ef          	jal	ra,8000d41c <fma>
8000a2a4:	00892b03          	lw	s6,8(s2)
8000a2a8:	00c92b83          	lw	s7,12(s2)
8000a2ac:	03812703          	lw	a4,56(sp)
8000a2b0:	03c12783          	lw	a5,60(sp)
8000a2b4:	00050813          	mv	a6,a0
8000a2b8:	00058893          	mv	a7,a1
8000a2bc:	000b0613          	mv	a2,s6
8000a2c0:	000b8693          	mv	a3,s7
8000a2c4:	00040513          	mv	a0,s0
8000a2c8:	00048593          	mv	a1,s1
8000a2cc:	0f012823          	sw	a6,240(sp)
8000a2d0:	0f112623          	sw	a7,236(sp)
8000a2d4:	148030ef          	jal	ra,8000d41c <fma>
8000a2d8:	01092d03          	lw	s10,16(s2)
8000a2dc:	01492d83          	lw	s11,20(s2)
8000a2e0:	04012703          	lw	a4,64(sp)
8000a2e4:	04412783          	lw	a5,68(sp)
8000a2e8:	00050313          	mv	t1,a0
8000a2ec:	00058e13          	mv	t3,a1
8000a2f0:	000d0613          	mv	a2,s10
8000a2f4:	000d8693          	mv	a3,s11
8000a2f8:	00040513          	mv	a0,s0
8000a2fc:	00048593          	mv	a1,s1
8000a300:	0e612423          	sw	t1,232(sp)
8000a304:	0fc12223          	sw	t3,228(sp)
8000a308:	114030ef          	jal	ra,8000d41c <fma>
8000a30c:	01892a03          	lw	s4,24(s2)
8000a310:	01c92a83          	lw	s5,28(s2)
8000a314:	04812703          	lw	a4,72(sp)
8000a318:	04c12783          	lw	a5,76(sp)
8000a31c:	00050e93          	mv	t4,a0
8000a320:	00058f13          	mv	t5,a1
8000a324:	000a0613          	mv	a2,s4
8000a328:	000a8693          	mv	a3,s5
8000a32c:	00040513          	mv	a0,s0
8000a330:	00048593          	mv	a1,s1
8000a334:	0fd12023          	sw	t4,224(sp)
8000a338:	0de12e23          	sw	t5,220(sp)
8000a33c:	0e0030ef          	jal	ra,8000d41c <fma>
8000a340:	02492983          	lw	s3,36(s2)
8000a344:	01212c23          	sw	s2,24(sp)
8000a348:	02092903          	lw	s2,32(s2)
8000a34c:	05012703          	lw	a4,80(sp)
8000a350:	05412783          	lw	a5,84(sp)
8000a354:	00050f93          	mv	t6,a0
8000a358:	00058293          	mv	t0,a1
8000a35c:	00090613          	mv	a2,s2
8000a360:	00098693          	mv	a3,s3
8000a364:	00040513          	mv	a0,s0
8000a368:	00048593          	mv	a1,s1
8000a36c:	0df12c23          	sw	t6,216(sp)
8000a370:	0c512a23          	sw	t0,212(sp)
8000a374:	0a8030ef          	jal	ra,8000d41c <fma>
8000a378:	03412703          	lw	a4,52(sp)
8000a37c:	05c12783          	lw	a5,92(sp)
8000a380:	00050093          	mv	ra,a0
8000a384:	00072403          	lw	s0,0(a4)
8000a388:	00472483          	lw	s1,4(a4)
8000a38c:	05812703          	lw	a4,88(sp)
8000a390:	00058393          	mv	t2,a1
8000a394:	000c0613          	mv	a2,s8
8000a398:	000c8693          	mv	a3,s9
8000a39c:	00040513          	mv	a0,s0
8000a3a0:	00048593          	mv	a1,s1
8000a3a4:	02112c23          	sw	ra,56(sp)
8000a3a8:	02712e23          	sw	t2,60(sp)
8000a3ac:	070030ef          	jal	ra,8000d41c <fma>
8000a3b0:	06012703          	lw	a4,96(sp)
8000a3b4:	06412783          	lw	a5,100(sp)
8000a3b8:	00050093          	mv	ra,a0
8000a3bc:	00058393          	mv	t2,a1
8000a3c0:	000b0613          	mv	a2,s6
8000a3c4:	000b8693          	mv	a3,s7
8000a3c8:	00040513          	mv	a0,s0
8000a3cc:	00048593          	mv	a1,s1
8000a3d0:	04112023          	sw	ra,64(sp)
8000a3d4:	04712223          	sw	t2,68(sp)
8000a3d8:	044030ef          	jal	ra,8000d41c <fma>
8000a3dc:	06812703          	lw	a4,104(sp)
8000a3e0:	06c12783          	lw	a5,108(sp)
8000a3e4:	00050093          	mv	ra,a0
8000a3e8:	00058393          	mv	t2,a1
8000a3ec:	000d0613          	mv	a2,s10
8000a3f0:	000d8693          	mv	a3,s11
8000a3f4:	00040513          	mv	a0,s0
8000a3f8:	00048593          	mv	a1,s1
8000a3fc:	04112423          	sw	ra,72(sp)
8000a400:	04712623          	sw	t2,76(sp)
8000a404:	018030ef          	jal	ra,8000d41c <fma>
8000a408:	07012703          	lw	a4,112(sp)
8000a40c:	07412783          	lw	a5,116(sp)
8000a410:	00050093          	mv	ra,a0
8000a414:	00058393          	mv	t2,a1
8000a418:	000a0613          	mv	a2,s4
8000a41c:	000a8693          	mv	a3,s5
8000a420:	00040513          	mv	a0,s0
8000a424:	00048593          	mv	a1,s1
8000a428:	04112823          	sw	ra,80(sp)
8000a42c:	04712a23          	sw	t2,84(sp)
8000a430:	7ed020ef          	jal	ra,8000d41c <fma>
8000a434:	07812703          	lw	a4,120(sp)
8000a438:	07c12783          	lw	a5,124(sp)
8000a43c:	00050093          	mv	ra,a0
8000a440:	00058393          	mv	t2,a1
8000a444:	00090613          	mv	a2,s2
8000a448:	00098693          	mv	a3,s3
8000a44c:	00040513          	mv	a0,s0
8000a450:	00048593          	mv	a1,s1
8000a454:	04112c23          	sw	ra,88(sp)
8000a458:	04712e23          	sw	t2,92(sp)
8000a45c:	7c1020ef          	jal	ra,8000d41c <fma>
8000a460:	03012603          	lw	a2,48(sp)
8000a464:	08012703          	lw	a4,128(sp)
8000a468:	08412783          	lw	a5,132(sp)
8000a46c:	00062403          	lw	s0,0(a2)
8000a470:	00462483          	lw	s1,4(a2)
8000a474:	00050093          	mv	ra,a0
8000a478:	00058393          	mv	t2,a1
8000a47c:	000c0613          	mv	a2,s8
8000a480:	000c8693          	mv	a3,s9
8000a484:	00040513          	mv	a0,s0
8000a488:	00048593          	mv	a1,s1
8000a48c:	06112023          	sw	ra,96(sp)
8000a490:	06712223          	sw	t2,100(sp)
8000a494:	789020ef          	jal	ra,8000d41c <fma>
8000a498:	08812703          	lw	a4,136(sp)
8000a49c:	08c12783          	lw	a5,140(sp)
8000a4a0:	00050093          	mv	ra,a0
8000a4a4:	00058393          	mv	t2,a1
8000a4a8:	000b0613          	mv	a2,s6
8000a4ac:	000b8693          	mv	a3,s7
8000a4b0:	00040513          	mv	a0,s0
8000a4b4:	00048593          	mv	a1,s1
8000a4b8:	06112423          	sw	ra,104(sp)
8000a4bc:	06712623          	sw	t2,108(sp)
8000a4c0:	75d020ef          	jal	ra,8000d41c <fma>
8000a4c4:	09012703          	lw	a4,144(sp)
8000a4c8:	09412783          	lw	a5,148(sp)
8000a4cc:	00050093          	mv	ra,a0
8000a4d0:	00058393          	mv	t2,a1
8000a4d4:	000d0613          	mv	a2,s10
8000a4d8:	000d8693          	mv	a3,s11
8000a4dc:	00040513          	mv	a0,s0
8000a4e0:	00048593          	mv	a1,s1
8000a4e4:	06112823          	sw	ra,112(sp)
8000a4e8:	06712a23          	sw	t2,116(sp)
8000a4ec:	731020ef          	jal	ra,8000d41c <fma>
8000a4f0:	09812703          	lw	a4,152(sp)
8000a4f4:	09c12783          	lw	a5,156(sp)
8000a4f8:	00050093          	mv	ra,a0
8000a4fc:	00058393          	mv	t2,a1
8000a500:	000a0613          	mv	a2,s4
8000a504:	000a8693          	mv	a3,s5
8000a508:	00040513          	mv	a0,s0
8000a50c:	00048593          	mv	a1,s1
8000a510:	06112c23          	sw	ra,120(sp)
8000a514:	06712e23          	sw	t2,124(sp)
8000a518:	705020ef          	jal	ra,8000d41c <fma>
8000a51c:	0a012703          	lw	a4,160(sp)
8000a520:	0a412783          	lw	a5,164(sp)
8000a524:	00050093          	mv	ra,a0
8000a528:	00058393          	mv	t2,a1
8000a52c:	00090613          	mv	a2,s2
8000a530:	00098693          	mv	a3,s3
8000a534:	00040513          	mv	a0,s0
8000a538:	00048593          	mv	a1,s1
8000a53c:	08112023          	sw	ra,128(sp)
8000a540:	08712223          	sw	t2,132(sp)
8000a544:	6d9020ef          	jal	ra,8000d41c <fma>
8000a548:	00058393          	mv	t2,a1
8000a54c:	02c12583          	lw	a1,44(sp)
8000a550:	0a812703          	lw	a4,168(sp)
8000a554:	0ac12783          	lw	a5,172(sp)
8000a558:	0005a403          	lw	s0,0(a1) # ffffe000 <__global_pointer$+0x7ffede60>
8000a55c:	0045a483          	lw	s1,4(a1)
8000a560:	00050093          	mv	ra,a0
8000a564:	000c0613          	mv	a2,s8
8000a568:	000c8693          	mv	a3,s9
8000a56c:	00040513          	mv	a0,s0
8000a570:	00048593          	mv	a1,s1
8000a574:	08112423          	sw	ra,136(sp)
8000a578:	08712623          	sw	t2,140(sp)
8000a57c:	6a1020ef          	jal	ra,8000d41c <fma>
8000a580:	0b012703          	lw	a4,176(sp)
8000a584:	0b412783          	lw	a5,180(sp)
8000a588:	00050093          	mv	ra,a0
8000a58c:	00058393          	mv	t2,a1
8000a590:	000b0613          	mv	a2,s6
8000a594:	000b8693          	mv	a3,s7
8000a598:	00040513          	mv	a0,s0
8000a59c:	00048593          	mv	a1,s1
8000a5a0:	08112823          	sw	ra,144(sp)
8000a5a4:	08712a23          	sw	t2,148(sp)
8000a5a8:	675020ef          	jal	ra,8000d41c <fma>
8000a5ac:	0b812703          	lw	a4,184(sp)
8000a5b0:	0bc12783          	lw	a5,188(sp)
8000a5b4:	00050093          	mv	ra,a0
8000a5b8:	00058393          	mv	t2,a1
8000a5bc:	000d0613          	mv	a2,s10
8000a5c0:	000d8693          	mv	a3,s11
8000a5c4:	00040513          	mv	a0,s0
8000a5c8:	00048593          	mv	a1,s1
8000a5cc:	08112c23          	sw	ra,152(sp)
8000a5d0:	08712e23          	sw	t2,156(sp)
8000a5d4:	649020ef          	jal	ra,8000d41c <fma>
8000a5d8:	0c412783          	lw	a5,196(sp)
8000a5dc:	0c012703          	lw	a4,192(sp)
8000a5e0:	00050093          	mv	ra,a0
8000a5e4:	00058393          	mv	t2,a1
8000a5e8:	000a0613          	mv	a2,s4
8000a5ec:	000a8693          	mv	a3,s5
8000a5f0:	00040513          	mv	a0,s0
8000a5f4:	00048593          	mv	a1,s1
8000a5f8:	0a112023          	sw	ra,160(sp)
8000a5fc:	0a712223          	sw	t2,164(sp)
8000a600:	61d020ef          	jal	ra,8000d41c <fma>
8000a604:	00050093          	mv	ra,a0
8000a608:	01812683          	lw	a3,24(sp)
8000a60c:	0d012503          	lw	a0,208(sp)
8000a610:	0c812703          	lw	a4,200(sp)
8000a614:	0cc12783          	lw	a5,204(sp)
8000a618:	00d50a33          	add	s4,a0,a3
8000a61c:	00058393          	mv	t2,a1
8000a620:	00090613          	mv	a2,s2
8000a624:	00098693          	mv	a3,s3
8000a628:	00040513          	mv	a0,s0
8000a62c:	00048593          	mv	a1,s1
8000a630:	0a112423          	sw	ra,168(sp)
8000a634:	0a712623          	sw	t2,172(sp)
8000a638:	5e5020ef          	jal	ra,8000d41c <fma>
8000a63c:	02012783          	lw	a5,32(sp)
8000a640:	0f012803          	lw	a6,240(sp)
8000a644:	0ec12883          	lw	a7,236(sp)
8000a648:	0087a403          	lw	s0,8(a5)
8000a64c:	00c7a483          	lw	s1,12(a5)
8000a650:	000a2c03          	lw	s8,0(s4)
8000a654:	004a2c83          	lw	s9,4(s4)
8000a658:	00080713          	mv	a4,a6
8000a65c:	00088793          	mv	a5,a7
8000a660:	00050093          	mv	ra,a0
8000a664:	00058393          	mv	t2,a1
8000a668:	000c0613          	mv	a2,s8
8000a66c:	000c8693          	mv	a3,s9
8000a670:	00040513          	mv	a0,s0
8000a674:	00048593          	mv	a1,s1
8000a678:	0c112423          	sw	ra,200(sp)
8000a67c:	0c712223          	sw	t2,196(sp)
8000a680:	59d020ef          	jal	ra,8000d41c <fma>
8000a684:	0e812303          	lw	t1,232(sp)
8000a688:	008a2b03          	lw	s6,8(s4)
8000a68c:	00ca2b83          	lw	s7,12(s4)
8000a690:	0e412e03          	lw	t3,228(sp)
8000a694:	00050093          	mv	ra,a0
8000a698:	00058393          	mv	t2,a1
8000a69c:	00030713          	mv	a4,t1
8000a6a0:	000e0793          	mv	a5,t3
8000a6a4:	000b0613          	mv	a2,s6
8000a6a8:	000b8693          	mv	a3,s7
8000a6ac:	00040513          	mv	a0,s0
8000a6b0:	00048593          	mv	a1,s1
8000a6b4:	0a112823          	sw	ra,176(sp)
8000a6b8:	0c712623          	sw	t2,204(sp)
8000a6bc:	561020ef          	jal	ra,8000d41c <fma>
8000a6c0:	0e012e83          	lw	t4,224(sp)
8000a6c4:	0dc12f03          	lw	t5,220(sp)
8000a6c8:	010a2d03          	lw	s10,16(s4)
8000a6cc:	014a2d83          	lw	s11,20(s4)
8000a6d0:	000e8713          	mv	a4,t4
8000a6d4:	000f0793          	mv	a5,t5
8000a6d8:	00050e13          	mv	t3,a0
8000a6dc:	00058313          	mv	t1,a1
8000a6e0:	000d0613          	mv	a2,s10
8000a6e4:	000d8693          	mv	a3,s11
8000a6e8:	00040513          	mv	a0,s0
8000a6ec:	00048593          	mv	a1,s1
8000a6f0:	0bc12a23          	sw	t3,180(sp)
8000a6f4:	0a612c23          	sw	t1,184(sp)
8000a6f8:	525020ef          	jal	ra,8000d41c <fma>
8000a6fc:	0d812f83          	lw	t6,216(sp)
8000a700:	0d412283          	lw	t0,212(sp)
8000a704:	018a2903          	lw	s2,24(s4)
8000a708:	01ca2983          	lw	s3,28(s4)
8000a70c:	000f8713          	mv	a4,t6
8000a710:	00028793          	mv	a5,t0
8000a714:	00050e13          	mv	t3,a0
8000a718:	00058313          	mv	t1,a1
8000a71c:	00090613          	mv	a2,s2
8000a720:	00098693          	mv	a3,s3
8000a724:	00040513          	mv	a0,s0
8000a728:	00048593          	mv	a1,s1
8000a72c:	0bc12e23          	sw	t3,188(sp)
8000a730:	0c612023          	sw	t1,192(sp)
8000a734:	4e9020ef          	jal	ra,8000d41c <fma>
8000a738:	024a2a83          	lw	s5,36(s4)
8000a73c:	020a2a03          	lw	s4,32(s4)
8000a740:	03812703          	lw	a4,56(sp)
8000a744:	03c12783          	lw	a5,60(sp)
8000a748:	00050e13          	mv	t3,a0
8000a74c:	00058313          	mv	t1,a1
8000a750:	000a0613          	mv	a2,s4
8000a754:	000a8693          	mv	a3,s5
8000a758:	00040513          	mv	a0,s0
8000a75c:	00048593          	mv	a1,s1
8000a760:	03c12c23          	sw	t3,56(sp)
8000a764:	02612e23          	sw	t1,60(sp)
8000a768:	4b5020ef          	jal	ra,8000d41c <fma>
8000a76c:	03412703          	lw	a4,52(sp)
8000a770:	04412783          	lw	a5,68(sp)
8000a774:	00050e13          	mv	t3,a0
8000a778:	00872403          	lw	s0,8(a4)
8000a77c:	00c72483          	lw	s1,12(a4)
8000a780:	04012703          	lw	a4,64(sp)
8000a784:	00058313          	mv	t1,a1
8000a788:	000c0613          	mv	a2,s8
8000a78c:	000c8693          	mv	a3,s9
8000a790:	00040513          	mv	a0,s0
8000a794:	00048593          	mv	a1,s1
8000a798:	05c12023          	sw	t3,64(sp)
8000a79c:	04612223          	sw	t1,68(sp)
8000a7a0:	47d020ef          	jal	ra,8000d41c <fma>
8000a7a4:	04812703          	lw	a4,72(sp)
8000a7a8:	04c12783          	lw	a5,76(sp)
8000a7ac:	00050e13          	mv	t3,a0
8000a7b0:	00058313          	mv	t1,a1
8000a7b4:	000b0613          	mv	a2,s6
8000a7b8:	000b8693          	mv	a3,s7
8000a7bc:	00040513          	mv	a0,s0
8000a7c0:	00048593          	mv	a1,s1
8000a7c4:	05c12423          	sw	t3,72(sp)
8000a7c8:	04612623          	sw	t1,76(sp)
8000a7cc:	451020ef          	jal	ra,8000d41c <fma>
8000a7d0:	05012703          	lw	a4,80(sp)
8000a7d4:	05412783          	lw	a5,84(sp)
8000a7d8:	00050e13          	mv	t3,a0
8000a7dc:	00058313          	mv	t1,a1
8000a7e0:	000d0613          	mv	a2,s10
8000a7e4:	000d8693          	mv	a3,s11
8000a7e8:	00040513          	mv	a0,s0
8000a7ec:	00048593          	mv	a1,s1
8000a7f0:	05c12823          	sw	t3,80(sp)
8000a7f4:	04612a23          	sw	t1,84(sp)
8000a7f8:	425020ef          	jal	ra,8000d41c <fma>
8000a7fc:	05812703          	lw	a4,88(sp)
8000a800:	05c12783          	lw	a5,92(sp)
8000a804:	00050e13          	mv	t3,a0
8000a808:	00058313          	mv	t1,a1
8000a80c:	00090613          	mv	a2,s2
8000a810:	00098693          	mv	a3,s3
8000a814:	05c12c23          	sw	t3,88(sp)
8000a818:	00040513          	mv	a0,s0
8000a81c:	00048593          	mv	a1,s1
8000a820:	04612e23          	sw	t1,92(sp)
8000a824:	3f9020ef          	jal	ra,8000d41c <fma>
8000a828:	06012703          	lw	a4,96(sp)
8000a82c:	06412783          	lw	a5,100(sp)
8000a830:	00050e13          	mv	t3,a0
8000a834:	00058313          	mv	t1,a1
8000a838:	000a0613          	mv	a2,s4
8000a83c:	000a8693          	mv	a3,s5
8000a840:	00040513          	mv	a0,s0
8000a844:	00048593          	mv	a1,s1
8000a848:	07c12023          	sw	t3,96(sp)
8000a84c:	06612223          	sw	t1,100(sp)
8000a850:	3cd020ef          	jal	ra,8000d41c <fma>
8000a854:	03012603          	lw	a2,48(sp)
8000a858:	06812703          	lw	a4,104(sp)
8000a85c:	06c12783          	lw	a5,108(sp)
8000a860:	00862403          	lw	s0,8(a2)
8000a864:	00c62483          	lw	s1,12(a2)
8000a868:	00050e13          	mv	t3,a0
8000a86c:	00058313          	mv	t1,a1
8000a870:	000c0613          	mv	a2,s8
8000a874:	000c8693          	mv	a3,s9
8000a878:	00040513          	mv	a0,s0
8000a87c:	00048593          	mv	a1,s1
8000a880:	07c12423          	sw	t3,104(sp)
8000a884:	06612623          	sw	t1,108(sp)
8000a888:	395020ef          	jal	ra,8000d41c <fma>
8000a88c:	07012703          	lw	a4,112(sp)
8000a890:	07412783          	lw	a5,116(sp)
8000a894:	00050e13          	mv	t3,a0
8000a898:	00058313          	mv	t1,a1
8000a89c:	000b0613          	mv	a2,s6
8000a8a0:	000b8693          	mv	a3,s7
8000a8a4:	00040513          	mv	a0,s0
8000a8a8:	00048593          	mv	a1,s1
8000a8ac:	07c12823          	sw	t3,112(sp)
8000a8b0:	06612a23          	sw	t1,116(sp)
8000a8b4:	369020ef          	jal	ra,8000d41c <fma>
8000a8b8:	07812703          	lw	a4,120(sp)
8000a8bc:	07c12783          	lw	a5,124(sp)
8000a8c0:	00050e13          	mv	t3,a0
8000a8c4:	00058313          	mv	t1,a1
8000a8c8:	000d0613          	mv	a2,s10
8000a8cc:	000d8693          	mv	a3,s11
8000a8d0:	00040513          	mv	a0,s0
8000a8d4:	00048593          	mv	a1,s1
8000a8d8:	07c12c23          	sw	t3,120(sp)
8000a8dc:	06612e23          	sw	t1,124(sp)
8000a8e0:	33d020ef          	jal	ra,8000d41c <fma>
8000a8e4:	08012703          	lw	a4,128(sp)
8000a8e8:	08412783          	lw	a5,132(sp)
8000a8ec:	00050e13          	mv	t3,a0
8000a8f0:	00058313          	mv	t1,a1
8000a8f4:	00090613          	mv	a2,s2
8000a8f8:	00098693          	mv	a3,s3
8000a8fc:	00040513          	mv	a0,s0
8000a900:	00048593          	mv	a1,s1
8000a904:	09c12023          	sw	t3,128(sp)
8000a908:	08612223          	sw	t1,132(sp)
8000a90c:	311020ef          	jal	ra,8000d41c <fma>
8000a910:	08812703          	lw	a4,136(sp)
8000a914:	08c12783          	lw	a5,140(sp)
8000a918:	00050e13          	mv	t3,a0
8000a91c:	00058313          	mv	t1,a1
8000a920:	000a0613          	mv	a2,s4
8000a924:	000a8693          	mv	a3,s5
8000a928:	00040513          	mv	a0,s0
8000a92c:	00048593          	mv	a1,s1
8000a930:	09c12423          	sw	t3,136(sp)
8000a934:	08612623          	sw	t1,140(sp)
8000a938:	2e5020ef          	jal	ra,8000d41c <fma>
8000a93c:	00058313          	mv	t1,a1
8000a940:	02c12583          	lw	a1,44(sp)
8000a944:	09012703          	lw	a4,144(sp)
8000a948:	09412783          	lw	a5,148(sp)
8000a94c:	0085a403          	lw	s0,8(a1)
8000a950:	00c5a483          	lw	s1,12(a1)
8000a954:	00050e13          	mv	t3,a0
8000a958:	000c0613          	mv	a2,s8
8000a95c:	000c8693          	mv	a3,s9
8000a960:	00040513          	mv	a0,s0
8000a964:	00048593          	mv	a1,s1
8000a968:	09c12823          	sw	t3,144(sp)
8000a96c:	08612a23          	sw	t1,148(sp)
8000a970:	2ad020ef          	jal	ra,8000d41c <fma>
8000a974:	09812703          	lw	a4,152(sp)
8000a978:	09c12783          	lw	a5,156(sp)
8000a97c:	00050e13          	mv	t3,a0
8000a980:	00058313          	mv	t1,a1
8000a984:	000b0613          	mv	a2,s6
8000a988:	000b8693          	mv	a3,s7
8000a98c:	00040513          	mv	a0,s0
8000a990:	00048593          	mv	a1,s1
8000a994:	09c12c23          	sw	t3,152(sp)
8000a998:	08612e23          	sw	t1,156(sp)
8000a99c:	281020ef          	jal	ra,8000d41c <fma>
8000a9a0:	0a012703          	lw	a4,160(sp)
8000a9a4:	0a412783          	lw	a5,164(sp)
8000a9a8:	00050e13          	mv	t3,a0
8000a9ac:	00058313          	mv	t1,a1
8000a9b0:	000d0613          	mv	a2,s10
8000a9b4:	000d8693          	mv	a3,s11
8000a9b8:	00040513          	mv	a0,s0
8000a9bc:	00048593          	mv	a1,s1
8000a9c0:	0bc12023          	sw	t3,160(sp)
8000a9c4:	0a612223          	sw	t1,164(sp)
8000a9c8:	255020ef          	jal	ra,8000d41c <fma>
8000a9cc:	0a812703          	lw	a4,168(sp)
8000a9d0:	0ac12783          	lw	a5,172(sp)
8000a9d4:	00050e13          	mv	t3,a0
8000a9d8:	00058313          	mv	t1,a1
8000a9dc:	00090613          	mv	a2,s2
8000a9e0:	00098693          	mv	a3,s3
8000a9e4:	00040513          	mv	a0,s0
8000a9e8:	00048593          	mv	a1,s1
8000a9ec:	0bc12423          	sw	t3,168(sp)
8000a9f0:	0a612623          	sw	t1,172(sp)
8000a9f4:	229020ef          	jal	ra,8000d41c <fma>
8000a9f8:	00050e13          	mv	t3,a0
8000a9fc:	0c812883          	lw	a7,200(sp)
8000aa00:	0c412803          	lw	a6,196(sp)
8000aa04:	0fc12503          	lw	a0,252(sp)
8000aa08:	01812683          	lw	a3,24(sp)
8000aa0c:	00058313          	mv	t1,a1
8000aa10:	00088713          	mv	a4,a7
8000aa14:	00d50933          	add	s2,a0,a3
8000aa18:	00080793          	mv	a5,a6
8000aa1c:	000a0613          	mv	a2,s4
8000aa20:	000a8693          	mv	a3,s5
8000aa24:	00040513          	mv	a0,s0
8000aa28:	00048593          	mv	a1,s1
8000aa2c:	0dc12223          	sw	t3,196(sp)
8000aa30:	0c612423          	sw	t1,200(sp)
8000aa34:	1e9020ef          	jal	ra,8000d41c <fma>
8000aa38:	02012783          	lw	a5,32(sp)
8000aa3c:	00092c03          	lw	s8,0(s2)
8000aa40:	00492c83          	lw	s9,4(s2)
8000aa44:	0107a403          	lw	s0,16(a5)
8000aa48:	0147a483          	lw	s1,20(a5)
8000aa4c:	0cc12383          	lw	t2,204(sp)
8000aa50:	0b012703          	lw	a4,176(sp)
8000aa54:	00050893          	mv	a7,a0
8000aa58:	00058813          	mv	a6,a1
8000aa5c:	00038793          	mv	a5,t2
8000aa60:	000c0613          	mv	a2,s8
8000aa64:	000c8693          	mv	a3,s9
8000aa68:	00040513          	mv	a0,s0
8000aa6c:	00048593          	mv	a1,s1
8000aa70:	0f112023          	sw	a7,224(sp)
8000aa74:	0d012e23          	sw	a6,220(sp)
8000aa78:	1a5020ef          	jal	ra,8000d41c <fma>
8000aa7c:	00892b03          	lw	s6,8(s2)
8000aa80:	00c92b83          	lw	s7,12(s2)
8000aa84:	0b412703          	lw	a4,180(sp)
8000aa88:	0b812783          	lw	a5,184(sp)
8000aa8c:	00050e93          	mv	t4,a0
8000aa90:	00058f13          	mv	t5,a1
8000aa94:	000b0613          	mv	a2,s6
8000aa98:	000b8693          	mv	a3,s7
8000aa9c:	00040513          	mv	a0,s0
8000aaa0:	00048593          	mv	a1,s1
8000aaa4:	0dd12c23          	sw	t4,216(sp)
8000aaa8:	0de12a23          	sw	t5,212(sp)
8000aaac:	171020ef          	jal	ra,8000d41c <fma>
8000aab0:	01092d03          	lw	s10,16(s2)
8000aab4:	01492d83          	lw	s11,20(s2)
8000aab8:	0bc12703          	lw	a4,188(sp)
8000aabc:	0c012783          	lw	a5,192(sp)
8000aac0:	00050f93          	mv	t6,a0
8000aac4:	00058293          	mv	t0,a1
8000aac8:	000d0613          	mv	a2,s10
8000aacc:	000d8693          	mv	a3,s11
8000aad0:	00040513          	mv	a0,s0
8000aad4:	00048593          	mv	a1,s1
8000aad8:	0df12623          	sw	t6,204(sp)
8000aadc:	0a512e23          	sw	t0,188(sp)
8000aae0:	13d020ef          	jal	ra,8000d41c <fma>
8000aae4:	01892a03          	lw	s4,24(s2)
8000aae8:	01c92a83          	lw	s5,28(s2)
8000aaec:	03812703          	lw	a4,56(sp)
8000aaf0:	03c12783          	lw	a5,60(sp)
8000aaf4:	00050393          	mv	t2,a0
8000aaf8:	00058313          	mv	t1,a1
8000aafc:	000a0613          	mv	a2,s4
8000ab00:	000a8693          	mv	a3,s5
8000ab04:	00040513          	mv	a0,s0
8000ab08:	00048593          	mv	a1,s1
8000ab0c:	0c712023          	sw	t2,192(sp)
8000ab10:	02612c23          	sw	t1,56(sp)
8000ab14:	109020ef          	jal	ra,8000d41c <fma>
8000ab18:	02492983          	lw	s3,36(s2)
8000ab1c:	02092903          	lw	s2,32(s2)
8000ab20:	04012703          	lw	a4,64(sp)
8000ab24:	04412783          	lw	a5,68(sp)
8000ab28:	00050e13          	mv	t3,a0
8000ab2c:	00058313          	mv	t1,a1
8000ab30:	00090613          	mv	a2,s2
8000ab34:	00098693          	mv	a3,s3
8000ab38:	00040513          	mv	a0,s0
8000ab3c:	00048593          	mv	a1,s1
8000ab40:	03c12e23          	sw	t3,60(sp)
8000ab44:	04612023          	sw	t1,64(sp)
8000ab48:	0d5020ef          	jal	ra,8000d41c <fma>
8000ab4c:	03412703          	lw	a4,52(sp)
8000ab50:	04c12783          	lw	a5,76(sp)
8000ab54:	00050e13          	mv	t3,a0
8000ab58:	01072403          	lw	s0,16(a4)
8000ab5c:	01472483          	lw	s1,20(a4)
8000ab60:	04812703          	lw	a4,72(sp)
8000ab64:	00058313          	mv	t1,a1
8000ab68:	000c0613          	mv	a2,s8
8000ab6c:	000c8693          	mv	a3,s9
8000ab70:	00040513          	mv	a0,s0
8000ab74:	00048593          	mv	a1,s1
8000ab78:	05c12223          	sw	t3,68(sp)
8000ab7c:	04612423          	sw	t1,72(sp)
8000ab80:	09d020ef          	jal	ra,8000d41c <fma>
8000ab84:	05012703          	lw	a4,80(sp)
8000ab88:	05412783          	lw	a5,84(sp)
8000ab8c:	00050e13          	mv	t3,a0
8000ab90:	00058313          	mv	t1,a1
8000ab94:	000b0613          	mv	a2,s6
8000ab98:	000b8693          	mv	a3,s7
8000ab9c:	00040513          	mv	a0,s0
8000aba0:	00048593          	mv	a1,s1
8000aba4:	05c12623          	sw	t3,76(sp)
8000aba8:	04612823          	sw	t1,80(sp)
8000abac:	071020ef          	jal	ra,8000d41c <fma>
8000abb0:	05812703          	lw	a4,88(sp)
8000abb4:	05c12783          	lw	a5,92(sp)
8000abb8:	00050e13          	mv	t3,a0
8000abbc:	00058313          	mv	t1,a1
8000abc0:	000d0613          	mv	a2,s10
8000abc4:	000d8693          	mv	a3,s11
8000abc8:	00040513          	mv	a0,s0
8000abcc:	00048593          	mv	a1,s1
8000abd0:	05c12a23          	sw	t3,84(sp)
8000abd4:	04612c23          	sw	t1,88(sp)
8000abd8:	045020ef          	jal	ra,8000d41c <fma>
8000abdc:	06012703          	lw	a4,96(sp)
8000abe0:	06412783          	lw	a5,100(sp)
8000abe4:	00050e13          	mv	t3,a0
8000abe8:	00058313          	mv	t1,a1
8000abec:	000a0613          	mv	a2,s4
8000abf0:	000a8693          	mv	a3,s5
8000abf4:	00040513          	mv	a0,s0
8000abf8:	00048593          	mv	a1,s1
8000abfc:	05c12e23          	sw	t3,92(sp)
8000ac00:	06612023          	sw	t1,96(sp)
8000ac04:	019020ef          	jal	ra,8000d41c <fma>
8000ac08:	06812703          	lw	a4,104(sp)
8000ac0c:	06c12783          	lw	a5,108(sp)
8000ac10:	00050e13          	mv	t3,a0
8000ac14:	00058313          	mv	t1,a1
8000ac18:	00090613          	mv	a2,s2
8000ac1c:	00098693          	mv	a3,s3
8000ac20:	00040513          	mv	a0,s0
8000ac24:	00048593          	mv	a1,s1
8000ac28:	07c12223          	sw	t3,100(sp)
8000ac2c:	06612423          	sw	t1,104(sp)
8000ac30:	7ec020ef          	jal	ra,8000d41c <fma>
8000ac34:	03012603          	lw	a2,48(sp)
8000ac38:	07012703          	lw	a4,112(sp)
8000ac3c:	07412783          	lw	a5,116(sp)
8000ac40:	01062403          	lw	s0,16(a2)
8000ac44:	01462483          	lw	s1,20(a2)
8000ac48:	00050e13          	mv	t3,a0
8000ac4c:	00058313          	mv	t1,a1
8000ac50:	000c0613          	mv	a2,s8
8000ac54:	000c8693          	mv	a3,s9
8000ac58:	07c12623          	sw	t3,108(sp)
8000ac5c:	00040513          	mv	a0,s0
8000ac60:	00048593          	mv	a1,s1
8000ac64:	06612823          	sw	t1,112(sp)
8000ac68:	7b4020ef          	jal	ra,8000d41c <fma>
8000ac6c:	07812703          	lw	a4,120(sp)
8000ac70:	07c12783          	lw	a5,124(sp)
8000ac74:	00050e13          	mv	t3,a0
8000ac78:	00058313          	mv	t1,a1
8000ac7c:	000b0613          	mv	a2,s6
8000ac80:	000b8693          	mv	a3,s7
8000ac84:	00040513          	mv	a0,s0
8000ac88:	00048593          	mv	a1,s1
8000ac8c:	07c12a23          	sw	t3,116(sp)
8000ac90:	06612c23          	sw	t1,120(sp)
8000ac94:	788020ef          	jal	ra,8000d41c <fma>
8000ac98:	08012703          	lw	a4,128(sp)
8000ac9c:	08412783          	lw	a5,132(sp)
8000aca0:	00050e13          	mv	t3,a0
8000aca4:	00058313          	mv	t1,a1
8000aca8:	000d0613          	mv	a2,s10
8000acac:	000d8693          	mv	a3,s11
8000acb0:	00040513          	mv	a0,s0
8000acb4:	00048593          	mv	a1,s1
8000acb8:	07c12e23          	sw	t3,124(sp)
8000acbc:	08612023          	sw	t1,128(sp)
8000acc0:	75c020ef          	jal	ra,8000d41c <fma>
8000acc4:	08812703          	lw	a4,136(sp)
8000acc8:	08c12783          	lw	a5,140(sp)
8000accc:	00050e13          	mv	t3,a0
8000acd0:	00058313          	mv	t1,a1
8000acd4:	000a0613          	mv	a2,s4
8000acd8:	000a8693          	mv	a3,s5
8000acdc:	00040513          	mv	a0,s0
8000ace0:	00048593          	mv	a1,s1
8000ace4:	09c12223          	sw	t3,132(sp)
8000ace8:	08612423          	sw	t1,136(sp)
8000acec:	730020ef          	jal	ra,8000d41c <fma>
8000acf0:	09012703          	lw	a4,144(sp)
8000acf4:	09412783          	lw	a5,148(sp)
8000acf8:	00050e13          	mv	t3,a0
8000acfc:	00058313          	mv	t1,a1
8000ad00:	00090613          	mv	a2,s2
8000ad04:	00098693          	mv	a3,s3
8000ad08:	00040513          	mv	a0,s0
8000ad0c:	00048593          	mv	a1,s1
8000ad10:	09c12623          	sw	t3,140(sp)
8000ad14:	08612823          	sw	t1,144(sp)
8000ad18:	704020ef          	jal	ra,8000d41c <fma>
8000ad1c:	00058313          	mv	t1,a1
8000ad20:	02c12583          	lw	a1,44(sp)
8000ad24:	09812703          	lw	a4,152(sp)
8000ad28:	09c12783          	lw	a5,156(sp)
8000ad2c:	0105a403          	lw	s0,16(a1)
8000ad30:	0145a483          	lw	s1,20(a1)
8000ad34:	00050e13          	mv	t3,a0
8000ad38:	000c0613          	mv	a2,s8
8000ad3c:	000c8693          	mv	a3,s9
8000ad40:	00040513          	mv	a0,s0
8000ad44:	00048593          	mv	a1,s1
8000ad48:	09c12a23          	sw	t3,148(sp)
8000ad4c:	08612c23          	sw	t1,152(sp)
8000ad50:	6cc020ef          	jal	ra,8000d41c <fma>
8000ad54:	0a012703          	lw	a4,160(sp)
8000ad58:	0a412783          	lw	a5,164(sp)
8000ad5c:	00050e13          	mv	t3,a0
8000ad60:	00058313          	mv	t1,a1
8000ad64:	000b0613          	mv	a2,s6
8000ad68:	000b8693          	mv	a3,s7
8000ad6c:	00040513          	mv	a0,s0
8000ad70:	00048593          	mv	a1,s1
8000ad74:	09c12e23          	sw	t3,156(sp)
8000ad78:	0a612023          	sw	t1,160(sp)
8000ad7c:	6a0020ef          	jal	ra,8000d41c <fma>
8000ad80:	0a812703          	lw	a4,168(sp)
8000ad84:	0ac12783          	lw	a5,172(sp)
8000ad88:	00050e13          	mv	t3,a0
8000ad8c:	00058313          	mv	t1,a1
8000ad90:	000d0613          	mv	a2,s10
8000ad94:	000d8693          	mv	a3,s11
8000ad98:	00040513          	mv	a0,s0
8000ad9c:	00048593          	mv	a1,s1
8000ada0:	0bc12223          	sw	t3,164(sp)
8000ada4:	0a612423          	sw	t1,168(sp)
8000ada8:	674020ef          	jal	ra,8000d41c <fma>
8000adac:	0c412703          	lw	a4,196(sp)
8000adb0:	0c812783          	lw	a5,200(sp)
8000adb4:	00050e13          	mv	t3,a0
8000adb8:	00058313          	mv	t1,a1
8000adbc:	000a0613          	mv	a2,s4
8000adc0:	000a8693          	mv	a3,s5
8000adc4:	00040513          	mv	a0,s0
8000adc8:	00048593          	mv	a1,s1
8000adcc:	0bc12623          	sw	t3,172(sp)
8000add0:	0a612823          	sw	t1,176(sp)
8000add4:	648020ef          	jal	ra,8000d41c <fma>
8000add8:	00050e13          	mv	t3,a0
8000addc:	0e012883          	lw	a7,224(sp)
8000ade0:	0dc12803          	lw	a6,220(sp)
8000ade4:	01812683          	lw	a3,24(sp)
8000ade8:	10412503          	lw	a0,260(sp)
8000adec:	00058313          	mv	t1,a1
8000adf0:	00088713          	mv	a4,a7
8000adf4:	00a68a33          	add	s4,a3,a0
8000adf8:	00080793          	mv	a5,a6
8000adfc:	00090613          	mv	a2,s2
8000ae00:	00098693          	mv	a3,s3
8000ae04:	00040513          	mv	a0,s0
8000ae08:	00048593          	mv	a1,s1
8000ae0c:	0bc12a23          	sw	t3,180(sp)
8000ae10:	0a612c23          	sw	t1,184(sp)
8000ae14:	608020ef          	jal	ra,8000d41c <fma>
8000ae18:	02012783          	lw	a5,32(sp)
8000ae1c:	000a2c03          	lw	s8,0(s4)
8000ae20:	004a2c83          	lw	s9,4(s4)
8000ae24:	0187a403          	lw	s0,24(a5)
8000ae28:	01c7a483          	lw	s1,28(a5)
8000ae2c:	0d812e83          	lw	t4,216(sp)
8000ae30:	0d412f03          	lw	t5,212(sp)
8000ae34:	00050893          	mv	a7,a0
8000ae38:	00058813          	mv	a6,a1
8000ae3c:	000e8713          	mv	a4,t4
8000ae40:	000f0793          	mv	a5,t5
8000ae44:	000c0613          	mv	a2,s8
8000ae48:	000c8693          	mv	a3,s9
8000ae4c:	00040513          	mv	a0,s0
8000ae50:	00048593          	mv	a1,s1
8000ae54:	0d112c23          	sw	a7,216(sp)
8000ae58:	0d012a23          	sw	a6,212(sp)
8000ae5c:	5c0020ef          	jal	ra,8000d41c <fma>
8000ae60:	0cc12f83          	lw	t6,204(sp)
8000ae64:	008a2b03          	lw	s6,8(s4)
8000ae68:	00ca2b83          	lw	s7,12(s4)
8000ae6c:	0bc12283          	lw	t0,188(sp)
8000ae70:	00050e93          	mv	t4,a0
8000ae74:	00058f13          	mv	t5,a1
8000ae78:	000f8713          	mv	a4,t6
8000ae7c:	00028793          	mv	a5,t0
8000ae80:	000b0613          	mv	a2,s6
8000ae84:	000b8693          	mv	a3,s7
8000ae88:	00040513          	mv	a0,s0
8000ae8c:	00048593          	mv	a1,s1
8000ae90:	0dd12623          	sw	t4,204(sp)
8000ae94:	0be12e23          	sw	t5,188(sp)
8000ae98:	584020ef          	jal	ra,8000d41c <fma>
8000ae9c:	0c012383          	lw	t2,192(sp)
8000aea0:	010a2d03          	lw	s10,16(s4)
8000aea4:	014a2d83          	lw	s11,20(s4)
8000aea8:	03812783          	lw	a5,56(sp)
8000aeac:	00050f93          	mv	t6,a0
8000aeb0:	00058293          	mv	t0,a1
8000aeb4:	00038713          	mv	a4,t2
8000aeb8:	000d0613          	mv	a2,s10
8000aebc:	000d8693          	mv	a3,s11
8000aec0:	00040513          	mv	a0,s0
8000aec4:	00048593          	mv	a1,s1
8000aec8:	0df12223          	sw	t6,196(sp)
8000aecc:	0c512023          	sw	t0,192(sp)
8000aed0:	54c020ef          	jal	ra,8000d41c <fma>
8000aed4:	018a2903          	lw	s2,24(s4)
8000aed8:	01ca2983          	lw	s3,28(s4)
8000aedc:	03c12703          	lw	a4,60(sp)
8000aee0:	04012783          	lw	a5,64(sp)
8000aee4:	00050393          	mv	t2,a0
8000aee8:	00058313          	mv	t1,a1
8000aeec:	00090613          	mv	a2,s2
8000aef0:	00098693          	mv	a3,s3
8000aef4:	00040513          	mv	a0,s0
8000aef8:	00048593          	mv	a1,s1
8000aefc:	0c712423          	sw	t2,200(sp)
8000af00:	02612c23          	sw	t1,56(sp)
8000af04:	518020ef          	jal	ra,8000d41c <fma>
8000af08:	024a2a83          	lw	s5,36(s4)
8000af0c:	020a2a03          	lw	s4,32(s4)
8000af10:	04412703          	lw	a4,68(sp)
8000af14:	04812783          	lw	a5,72(sp)
8000af18:	00050e13          	mv	t3,a0
8000af1c:	00058313          	mv	t1,a1
8000af20:	000a0613          	mv	a2,s4
8000af24:	000a8693          	mv	a3,s5
8000af28:	00040513          	mv	a0,s0
8000af2c:	00048593          	mv	a1,s1
8000af30:	03c12e23          	sw	t3,60(sp)
8000af34:	04612023          	sw	t1,64(sp)
8000af38:	4e4020ef          	jal	ra,8000d41c <fma>
8000af3c:	03412703          	lw	a4,52(sp)
8000af40:	00050e13          	mv	t3,a0
8000af44:	00058313          	mv	t1,a1
8000af48:	01872403          	lw	s0,24(a4)
8000af4c:	01c72483          	lw	s1,28(a4)
8000af50:	04c12703          	lw	a4,76(sp)
8000af54:	05012783          	lw	a5,80(sp)
8000af58:	000c0613          	mv	a2,s8
8000af5c:	000c8693          	mv	a3,s9
8000af60:	00040513          	mv	a0,s0
8000af64:	00048593          	mv	a1,s1
8000af68:	05c12223          	sw	t3,68(sp)
8000af6c:	04612423          	sw	t1,72(sp)
8000af70:	4ac020ef          	jal	ra,8000d41c <fma>
8000af74:	05412703          	lw	a4,84(sp)
8000af78:	05812783          	lw	a5,88(sp)
8000af7c:	00050e13          	mv	t3,a0
8000af80:	00058313          	mv	t1,a1
8000af84:	000b0613          	mv	a2,s6
8000af88:	000b8693          	mv	a3,s7
8000af8c:	00040513          	mv	a0,s0
8000af90:	00048593          	mv	a1,s1
8000af94:	05c12623          	sw	t3,76(sp)
8000af98:	04612823          	sw	t1,80(sp)
8000af9c:	480020ef          	jal	ra,8000d41c <fma>
8000afa0:	05c12703          	lw	a4,92(sp)
8000afa4:	06012783          	lw	a5,96(sp)
8000afa8:	00050e13          	mv	t3,a0
8000afac:	00058313          	mv	t1,a1
8000afb0:	000d0613          	mv	a2,s10
8000afb4:	000d8693          	mv	a3,s11
8000afb8:	00040513          	mv	a0,s0
8000afbc:	00048593          	mv	a1,s1
8000afc0:	05c12a23          	sw	t3,84(sp)
8000afc4:	04612c23          	sw	t1,88(sp)
8000afc8:	454020ef          	jal	ra,8000d41c <fma>
8000afcc:	06412703          	lw	a4,100(sp)
8000afd0:	06812783          	lw	a5,104(sp)
8000afd4:	00050e13          	mv	t3,a0
8000afd8:	00058313          	mv	t1,a1
8000afdc:	00090613          	mv	a2,s2
8000afe0:	00098693          	mv	a3,s3
8000afe4:	00040513          	mv	a0,s0
8000afe8:	00048593          	mv	a1,s1
8000afec:	05c12e23          	sw	t3,92(sp)
8000aff0:	06612023          	sw	t1,96(sp)
8000aff4:	428020ef          	jal	ra,8000d41c <fma>
8000aff8:	06c12703          	lw	a4,108(sp)
8000affc:	07012783          	lw	a5,112(sp)
8000b000:	00050e13          	mv	t3,a0
8000b004:	00058313          	mv	t1,a1
8000b008:	000a0613          	mv	a2,s4
8000b00c:	000a8693          	mv	a3,s5
8000b010:	00040513          	mv	a0,s0
8000b014:	00048593          	mv	a1,s1
8000b018:	07c12223          	sw	t3,100(sp)
8000b01c:	06612423          	sw	t1,104(sp)
8000b020:	3fc020ef          	jal	ra,8000d41c <fma>
8000b024:	03012603          	lw	a2,48(sp)
8000b028:	07412703          	lw	a4,116(sp)
8000b02c:	07812783          	lw	a5,120(sp)
8000b030:	01862403          	lw	s0,24(a2)
8000b034:	01c62483          	lw	s1,28(a2)
8000b038:	00050e13          	mv	t3,a0
8000b03c:	00058313          	mv	t1,a1
8000b040:	000c0613          	mv	a2,s8
8000b044:	000c8693          	mv	a3,s9
8000b048:	00040513          	mv	a0,s0
8000b04c:	00048593          	mv	a1,s1
8000b050:	07c12623          	sw	t3,108(sp)
8000b054:	06612823          	sw	t1,112(sp)
8000b058:	3c4020ef          	jal	ra,8000d41c <fma>
8000b05c:	07c12703          	lw	a4,124(sp)
8000b060:	08012783          	lw	a5,128(sp)
8000b064:	00050e13          	mv	t3,a0
8000b068:	00058313          	mv	t1,a1
8000b06c:	000b0613          	mv	a2,s6
8000b070:	000b8693          	mv	a3,s7
8000b074:	00040513          	mv	a0,s0
8000b078:	00048593          	mv	a1,s1
8000b07c:	07c12a23          	sw	t3,116(sp)
8000b080:	06612c23          	sw	t1,120(sp)
8000b084:	398020ef          	jal	ra,8000d41c <fma>
8000b088:	08412703          	lw	a4,132(sp)
8000b08c:	08812783          	lw	a5,136(sp)
8000b090:	00050e13          	mv	t3,a0
8000b094:	00058313          	mv	t1,a1
8000b098:	000d0613          	mv	a2,s10
8000b09c:	000d8693          	mv	a3,s11
8000b0a0:	00040513          	mv	a0,s0
8000b0a4:	00048593          	mv	a1,s1
8000b0a8:	07c12e23          	sw	t3,124(sp)
8000b0ac:	08612023          	sw	t1,128(sp)
8000b0b0:	36c020ef          	jal	ra,8000d41c <fma>
8000b0b4:	08c12703          	lw	a4,140(sp)
8000b0b8:	09012783          	lw	a5,144(sp)
8000b0bc:	00050e13          	mv	t3,a0
8000b0c0:	00058313          	mv	t1,a1
8000b0c4:	00090613          	mv	a2,s2
8000b0c8:	00098693          	mv	a3,s3
8000b0cc:	00040513          	mv	a0,s0
8000b0d0:	00048593          	mv	a1,s1
8000b0d4:	09c12223          	sw	t3,132(sp)
8000b0d8:	08612423          	sw	t1,136(sp)
8000b0dc:	340020ef          	jal	ra,8000d41c <fma>
8000b0e0:	09412703          	lw	a4,148(sp)
8000b0e4:	09812783          	lw	a5,152(sp)
8000b0e8:	00050e13          	mv	t3,a0
8000b0ec:	00058313          	mv	t1,a1
8000b0f0:	000a0613          	mv	a2,s4
8000b0f4:	000a8693          	mv	a3,s5
8000b0f8:	00040513          	mv	a0,s0
8000b0fc:	00048593          	mv	a1,s1
8000b100:	09c12623          	sw	t3,140(sp)
8000b104:	08612823          	sw	t1,144(sp)
8000b108:	314020ef          	jal	ra,8000d41c <fma>
8000b10c:	00058313          	mv	t1,a1
8000b110:	02c12583          	lw	a1,44(sp)
8000b114:	09c12703          	lw	a4,156(sp)
8000b118:	0a012783          	lw	a5,160(sp)
8000b11c:	0185a403          	lw	s0,24(a1)
8000b120:	01c5a483          	lw	s1,28(a1)
8000b124:	00050e13          	mv	t3,a0
8000b128:	000c0613          	mv	a2,s8
8000b12c:	000c8693          	mv	a3,s9
8000b130:	00040513          	mv	a0,s0
8000b134:	00048593          	mv	a1,s1
8000b138:	09c12a23          	sw	t3,148(sp)
8000b13c:	08612c23          	sw	t1,152(sp)
8000b140:	2dc020ef          	jal	ra,8000d41c <fma>
8000b144:	0a412703          	lw	a4,164(sp)
8000b148:	0a812783          	lw	a5,168(sp)
8000b14c:	00050e13          	mv	t3,a0
8000b150:	00058313          	mv	t1,a1
8000b154:	000b0613          	mv	a2,s6
8000b158:	000b8693          	mv	a3,s7
8000b15c:	00040513          	mv	a0,s0
8000b160:	00048593          	mv	a1,s1
8000b164:	09c12e23          	sw	t3,156(sp)
8000b168:	0a612023          	sw	t1,160(sp)
8000b16c:	2b0020ef          	jal	ra,8000d41c <fma>
8000b170:	0ac12703          	lw	a4,172(sp)
8000b174:	0b012783          	lw	a5,176(sp)
8000b178:	00050e13          	mv	t3,a0
8000b17c:	00058313          	mv	t1,a1
8000b180:	000d0613          	mv	a2,s10
8000b184:	000d8693          	mv	a3,s11
8000b188:	00040513          	mv	a0,s0
8000b18c:	00048593          	mv	a1,s1
8000b190:	0bc12223          	sw	t3,164(sp)
8000b194:	0a612423          	sw	t1,168(sp)
8000b198:	284020ef          	jal	ra,8000d41c <fma>
8000b19c:	0b412703          	lw	a4,180(sp)
8000b1a0:	0b812783          	lw	a5,184(sp)
8000b1a4:	00050e13          	mv	t3,a0
8000b1a8:	00058313          	mv	t1,a1
8000b1ac:	00090613          	mv	a2,s2
8000b1b0:	00098693          	mv	a3,s3
8000b1b4:	00040513          	mv	a0,s0
8000b1b8:	00048593          	mv	a1,s1
8000b1bc:	0bc12623          	sw	t3,172(sp)
8000b1c0:	0a612823          	sw	t1,176(sp)
8000b1c4:	258020ef          	jal	ra,8000d41c <fma>
8000b1c8:	00050e13          	mv	t3,a0
8000b1cc:	0d412803          	lw	a6,212(sp)
8000b1d0:	0d812883          	lw	a7,216(sp)
8000b1d4:	10012503          	lw	a0,256(sp)
8000b1d8:	01812683          	lw	a3,24(sp)
8000b1dc:	00058313          	mv	t1,a1
8000b1e0:	00088713          	mv	a4,a7
8000b1e4:	00d50933          	add	s2,a0,a3
8000b1e8:	00080793          	mv	a5,a6
8000b1ec:	000a0613          	mv	a2,s4
8000b1f0:	000a8693          	mv	a3,s5
8000b1f4:	00040513          	mv	a0,s0
8000b1f8:	00048593          	mv	a1,s1
8000b1fc:	0bc12a23          	sw	t3,180(sp)
8000b200:	0a612c23          	sw	t1,184(sp)
8000b204:	218020ef          	jal	ra,8000d41c <fma>
8000b208:	02012783          	lw	a5,32(sp)
8000b20c:	00092c03          	lw	s8,0(s2)
8000b210:	00492c83          	lw	s9,4(s2)
8000b214:	0207a403          	lw	s0,32(a5)
8000b218:	0247a483          	lw	s1,36(a5)
8000b21c:	0bc12f03          	lw	t5,188(sp)
8000b220:	0cc12e83          	lw	t4,204(sp)
8000b224:	00050893          	mv	a7,a0
8000b228:	00058813          	mv	a6,a1
8000b22c:	000e8713          	mv	a4,t4
8000b230:	000f0793          	mv	a5,t5
8000b234:	000c0613          	mv	a2,s8
8000b238:	000c8693          	mv	a3,s9
8000b23c:	00040513          	mv	a0,s0
8000b240:	00048593          	mv	a1,s1
8000b244:	0d112a23          	sw	a7,212(sp)
8000b248:	0b012e23          	sw	a6,188(sp)
8000b24c:	1d0020ef          	jal	ra,8000d41c <fma>
8000b250:	0c412f83          	lw	t6,196(sp)
8000b254:	00892b03          	lw	s6,8(s2)
8000b258:	00c92b83          	lw	s7,12(s2)
8000b25c:	0c012283          	lw	t0,192(sp)
8000b260:	00050e93          	mv	t4,a0
8000b264:	00058f13          	mv	t5,a1
8000b268:	000f8713          	mv	a4,t6
8000b26c:	00028793          	mv	a5,t0
8000b270:	000b0613          	mv	a2,s6
8000b274:	000b8693          	mv	a3,s7
8000b278:	00040513          	mv	a0,s0
8000b27c:	00048593          	mv	a1,s1
8000b280:	0dd12223          	sw	t4,196(sp)
8000b284:	0de12023          	sw	t5,192(sp)
8000b288:	194020ef          	jal	ra,8000d41c <fma>
8000b28c:	0c812383          	lw	t2,200(sp)
8000b290:	01092d03          	lw	s10,16(s2)
8000b294:	01492d83          	lw	s11,20(s2)
8000b298:	03812783          	lw	a5,56(sp)
8000b29c:	00050f93          	mv	t6,a0
8000b2a0:	00058293          	mv	t0,a1
8000b2a4:	00038713          	mv	a4,t2
8000b2a8:	000d0613          	mv	a2,s10
8000b2ac:	000d8693          	mv	a3,s11
8000b2b0:	00040513          	mv	a0,s0
8000b2b4:	00048593          	mv	a1,s1
8000b2b8:	0df12623          	sw	t6,204(sp)
8000b2bc:	0c512423          	sw	t0,200(sp)
8000b2c0:	15c020ef          	jal	ra,8000d41c <fma>
8000b2c4:	01892a03          	lw	s4,24(s2)
8000b2c8:	01c92a83          	lw	s5,28(s2)
8000b2cc:	03c12703          	lw	a4,60(sp)
8000b2d0:	04012783          	lw	a5,64(sp)
8000b2d4:	00050393          	mv	t2,a0
8000b2d8:	00058313          	mv	t1,a1
8000b2dc:	000a0613          	mv	a2,s4
8000b2e0:	000a8693          	mv	a3,s5
8000b2e4:	00040513          	mv	a0,s0
8000b2e8:	00048593          	mv	a1,s1
8000b2ec:	02712e23          	sw	t2,60(sp)
8000b2f0:	02612c23          	sw	t1,56(sp)
8000b2f4:	128020ef          	jal	ra,8000d41c <fma>
8000b2f8:	02492983          	lw	s3,36(s2)
8000b2fc:	02092903          	lw	s2,32(s2)
8000b300:	04412703          	lw	a4,68(sp)
8000b304:	04812783          	lw	a5,72(sp)
8000b308:	00050e13          	mv	t3,a0
8000b30c:	00058313          	mv	t1,a1
8000b310:	00090613          	mv	a2,s2
8000b314:	00098693          	mv	a3,s3
8000b318:	00040513          	mv	a0,s0
8000b31c:	00048593          	mv	a1,s1
8000b320:	05c12023          	sw	t3,64(sp)
8000b324:	04612223          	sw	t1,68(sp)
8000b328:	0f4020ef          	jal	ra,8000d41c <fma>
8000b32c:	03412703          	lw	a4,52(sp)
8000b330:	05012783          	lw	a5,80(sp)
8000b334:	00050e13          	mv	t3,a0
8000b338:	02072403          	lw	s0,32(a4)
8000b33c:	02472483          	lw	s1,36(a4)
8000b340:	04c12703          	lw	a4,76(sp)
8000b344:	00058313          	mv	t1,a1
8000b348:	000c0613          	mv	a2,s8
8000b34c:	000c8693          	mv	a3,s9
8000b350:	00040513          	mv	a0,s0
8000b354:	00048593          	mv	a1,s1
8000b358:	05c12423          	sw	t3,72(sp)
8000b35c:	04612623          	sw	t1,76(sp)
8000b360:	0bc020ef          	jal	ra,8000d41c <fma>
8000b364:	05412703          	lw	a4,84(sp)
8000b368:	05812783          	lw	a5,88(sp)
8000b36c:	00050e13          	mv	t3,a0
8000b370:	00058313          	mv	t1,a1
8000b374:	000b0613          	mv	a2,s6
8000b378:	000b8693          	mv	a3,s7
8000b37c:	00040513          	mv	a0,s0
8000b380:	00048593          	mv	a1,s1
8000b384:	05c12823          	sw	t3,80(sp)
8000b388:	04612a23          	sw	t1,84(sp)
8000b38c:	090020ef          	jal	ra,8000d41c <fma>
8000b390:	05c12703          	lw	a4,92(sp)
8000b394:	06012783          	lw	a5,96(sp)
8000b398:	00050e13          	mv	t3,a0
8000b39c:	00058313          	mv	t1,a1
8000b3a0:	000d0613          	mv	a2,s10
8000b3a4:	000d8693          	mv	a3,s11
8000b3a8:	00040513          	mv	a0,s0
8000b3ac:	00048593          	mv	a1,s1
8000b3b0:	05c12c23          	sw	t3,88(sp)
8000b3b4:	04612e23          	sw	t1,92(sp)
8000b3b8:	064020ef          	jal	ra,8000d41c <fma>
8000b3bc:	06412703          	lw	a4,100(sp)
8000b3c0:	06812783          	lw	a5,104(sp)
8000b3c4:	00050e13          	mv	t3,a0
8000b3c8:	00058313          	mv	t1,a1
8000b3cc:	000a0613          	mv	a2,s4
8000b3d0:	000a8693          	mv	a3,s5
8000b3d4:	07c12023          	sw	t3,96(sp)
8000b3d8:	00040513          	mv	a0,s0
8000b3dc:	00048593          	mv	a1,s1
8000b3e0:	06612223          	sw	t1,100(sp)
8000b3e4:	038020ef          	jal	ra,8000d41c <fma>
8000b3e8:	06c12703          	lw	a4,108(sp)
8000b3ec:	07012783          	lw	a5,112(sp)
8000b3f0:	00050e13          	mv	t3,a0
8000b3f4:	00058313          	mv	t1,a1
8000b3f8:	00090613          	mv	a2,s2
8000b3fc:	00098693          	mv	a3,s3
8000b400:	00040513          	mv	a0,s0
8000b404:	00048593          	mv	a1,s1
8000b408:	07c12423          	sw	t3,104(sp)
8000b40c:	06612623          	sw	t1,108(sp)
8000b410:	00c020ef          	jal	ra,8000d41c <fma>
8000b414:	03012603          	lw	a2,48(sp)
8000b418:	07412703          	lw	a4,116(sp)
8000b41c:	07812783          	lw	a5,120(sp)
8000b420:	02062403          	lw	s0,32(a2)
8000b424:	02462483          	lw	s1,36(a2)
8000b428:	00050e13          	mv	t3,a0
8000b42c:	00058313          	mv	t1,a1
8000b430:	000c0613          	mv	a2,s8
8000b434:	000c8693          	mv	a3,s9
8000b438:	00040513          	mv	a0,s0
8000b43c:	00048593          	mv	a1,s1
8000b440:	07c12823          	sw	t3,112(sp)
8000b444:	06612a23          	sw	t1,116(sp)
8000b448:	7d5010ef          	jal	ra,8000d41c <fma>
8000b44c:	07c12703          	lw	a4,124(sp)
8000b450:	08012783          	lw	a5,128(sp)
8000b454:	00050e13          	mv	t3,a0
8000b458:	00058313          	mv	t1,a1
8000b45c:	000b0613          	mv	a2,s6
8000b460:	000b8693          	mv	a3,s7
8000b464:	00040513          	mv	a0,s0
8000b468:	00048593          	mv	a1,s1
8000b46c:	07c12c23          	sw	t3,120(sp)
8000b470:	06612e23          	sw	t1,124(sp)
8000b474:	7a9010ef          	jal	ra,8000d41c <fma>
8000b478:	08412703          	lw	a4,132(sp)
8000b47c:	08812783          	lw	a5,136(sp)
8000b480:	00050e13          	mv	t3,a0
8000b484:	00058313          	mv	t1,a1
8000b488:	000d0613          	mv	a2,s10
8000b48c:	000d8693          	mv	a3,s11
8000b490:	00040513          	mv	a0,s0
8000b494:	00048593          	mv	a1,s1
8000b498:	09c12023          	sw	t3,128(sp)
8000b49c:	08612223          	sw	t1,132(sp)
8000b4a0:	77d010ef          	jal	ra,8000d41c <fma>
8000b4a4:	08c12703          	lw	a4,140(sp)
8000b4a8:	09012783          	lw	a5,144(sp)
8000b4ac:	00050e13          	mv	t3,a0
8000b4b0:	00058313          	mv	t1,a1
8000b4b4:	000a0613          	mv	a2,s4
8000b4b8:	000a8693          	mv	a3,s5
8000b4bc:	00040513          	mv	a0,s0
8000b4c0:	00048593          	mv	a1,s1
8000b4c4:	09c12423          	sw	t3,136(sp)
8000b4c8:	08612623          	sw	t1,140(sp)
8000b4cc:	751010ef          	jal	ra,8000d41c <fma>
8000b4d0:	09412703          	lw	a4,148(sp)
8000b4d4:	09812783          	lw	a5,152(sp)
8000b4d8:	00050e13          	mv	t3,a0
8000b4dc:	00058313          	mv	t1,a1
8000b4e0:	00090613          	mv	a2,s2
8000b4e4:	00098693          	mv	a3,s3
8000b4e8:	00040513          	mv	a0,s0
8000b4ec:	00048593          	mv	a1,s1
8000b4f0:	09c12823          	sw	t3,144(sp)
8000b4f4:	08612a23          	sw	t1,148(sp)
8000b4f8:	725010ef          	jal	ra,8000d41c <fma>
8000b4fc:	00058313          	mv	t1,a1
8000b500:	02c12583          	lw	a1,44(sp)
8000b504:	09c12703          	lw	a4,156(sp)
8000b508:	0a012783          	lw	a5,160(sp)
8000b50c:	0205a403          	lw	s0,32(a1)
8000b510:	0245a483          	lw	s1,36(a1)
8000b514:	00050e13          	mv	t3,a0
8000b518:	000c0613          	mv	a2,s8
8000b51c:	000c8693          	mv	a3,s9
8000b520:	00040513          	mv	a0,s0
8000b524:	00048593          	mv	a1,s1
8000b528:	09c12c23          	sw	t3,152(sp)
8000b52c:	08612e23          	sw	t1,156(sp)
8000b530:	6ed010ef          	jal	ra,8000d41c <fma>
8000b534:	0a412703          	lw	a4,164(sp)
8000b538:	0a812783          	lw	a5,168(sp)
8000b53c:	00050e13          	mv	t3,a0
8000b540:	00058313          	mv	t1,a1
8000b544:	000b0613          	mv	a2,s6
8000b548:	000b8693          	mv	a3,s7
8000b54c:	00040513          	mv	a0,s0
8000b550:	00048593          	mv	a1,s1
8000b554:	0bc12023          	sw	t3,160(sp)
8000b558:	0a612223          	sw	t1,164(sp)
8000b55c:	6c1010ef          	jal	ra,8000d41c <fma>
8000b560:	0ac12703          	lw	a4,172(sp)
8000b564:	0b012783          	lw	a5,176(sp)
8000b568:	00050e13          	mv	t3,a0
8000b56c:	00058313          	mv	t1,a1
8000b570:	000d0613          	mv	a2,s10
8000b574:	000d8693          	mv	a3,s11
8000b578:	00040513          	mv	a0,s0
8000b57c:	00048593          	mv	a1,s1
8000b580:	0bc12423          	sw	t3,168(sp)
8000b584:	0a612623          	sw	t1,172(sp)
8000b588:	695010ef          	jal	ra,8000d41c <fma>
8000b58c:	0b412703          	lw	a4,180(sp)
8000b590:	0b812783          	lw	a5,184(sp)
8000b594:	00050e13          	mv	t3,a0
8000b598:	00058313          	mv	t1,a1
8000b59c:	000a0613          	mv	a2,s4
8000b5a0:	000a8693          	mv	a3,s5
8000b5a4:	00040513          	mv	a0,s0
8000b5a8:	00048593          	mv	a1,s1
8000b5ac:	0bc12823          	sw	t3,176(sp)
8000b5b0:	0a612a23          	sw	t1,180(sp)
8000b5b4:	669010ef          	jal	ra,8000d41c <fma>
8000b5b8:	0d412883          	lw	a7,212(sp)
8000b5bc:	0bc12803          	lw	a6,188(sp)
8000b5c0:	00050e13          	mv	t3,a0
8000b5c4:	01812683          	lw	a3,24(sp)
8000b5c8:	10812503          	lw	a0,264(sp)
8000b5cc:	00058313          	mv	t1,a1
8000b5d0:	00088713          	mv	a4,a7
8000b5d4:	00a68a33          	add	s4,a3,a0
8000b5d8:	00080793          	mv	a5,a6
8000b5dc:	00090613          	mv	a2,s2
8000b5e0:	00098693          	mv	a3,s3
8000b5e4:	00040513          	mv	a0,s0
8000b5e8:	00048593          	mv	a1,s1
8000b5ec:	0a612e23          	sw	t1,188(sp)
8000b5f0:	0bc12c23          	sw	t3,184(sp)
8000b5f4:	629010ef          	jal	ra,8000d41c <fma>
8000b5f8:	02012783          	lw	a5,32(sp)
8000b5fc:	000a2c03          	lw	s8,0(s4)
8000b600:	004a2c83          	lw	s9,4(s4)
8000b604:	0287a403          	lw	s0,40(a5)
8000b608:	02c7a483          	lw	s1,44(a5)
8000b60c:	0c012f03          	lw	t5,192(sp)
8000b610:	0c412e83          	lw	t4,196(sp)
8000b614:	00050813          	mv	a6,a0
8000b618:	00058893          	mv	a7,a1
8000b61c:	000f0793          	mv	a5,t5
8000b620:	000e8713          	mv	a4,t4
8000b624:	000c0613          	mv	a2,s8
8000b628:	000c8693          	mv	a3,s9
8000b62c:	00040513          	mv	a0,s0
8000b630:	00048593          	mv	a1,s1
8000b634:	0d012223          	sw	a6,196(sp)
8000b638:	0d112023          	sw	a7,192(sp)
8000b63c:	5e1010ef          	jal	ra,8000d41c <fma>
8000b640:	0cc12f83          	lw	t6,204(sp)
8000b644:	0c812283          	lw	t0,200(sp)
8000b648:	008a2b03          	lw	s6,8(s4)
8000b64c:	00ca2b83          	lw	s7,12(s4)
8000b650:	00050e93          	mv	t4,a0
8000b654:	00058e13          	mv	t3,a1
8000b658:	000f8713          	mv	a4,t6
8000b65c:	00028793          	mv	a5,t0
8000b660:	000b0613          	mv	a2,s6
8000b664:	000b8693          	mv	a3,s7
8000b668:	00040513          	mv	a0,s0
8000b66c:	00048593          	mv	a1,s1
8000b670:	0dd12c23          	sw	t4,216(sp)
8000b674:	0dc12a23          	sw	t3,212(sp)
8000b678:	5a5010ef          	jal	ra,8000d41c <fma>
8000b67c:	03c12383          	lw	t2,60(sp)
8000b680:	010a2d03          	lw	s10,16(s4)
8000b684:	014a2d83          	lw	s11,20(s4)
8000b688:	03812783          	lw	a5,56(sp)
8000b68c:	00038713          	mv	a4,t2
8000b690:	00050f13          	mv	t5,a0
8000b694:	00058313          	mv	t1,a1
8000b698:	000d0613          	mv	a2,s10
8000b69c:	000d8693          	mv	a3,s11
8000b6a0:	00040513          	mv	a0,s0
8000b6a4:	00048593          	mv	a1,s1
8000b6a8:	03e12c23          	sw	t5,56(sp)
8000b6ac:	02612e23          	sw	t1,60(sp)
8000b6b0:	56d010ef          	jal	ra,8000d41c <fma>
8000b6b4:	018a2903          	lw	s2,24(s4)
8000b6b8:	01ca2983          	lw	s3,28(s4)
8000b6bc:	04012703          	lw	a4,64(sp)
8000b6c0:	04412783          	lw	a5,68(sp)
8000b6c4:	00050f13          	mv	t5,a0
8000b6c8:	00058313          	mv	t1,a1
8000b6cc:	00090613          	mv	a2,s2
8000b6d0:	00098693          	mv	a3,s3
8000b6d4:	00040513          	mv	a0,s0
8000b6d8:	00048593          	mv	a1,s1
8000b6dc:	05e12023          	sw	t5,64(sp)
8000b6e0:	04612223          	sw	t1,68(sp)
8000b6e4:	539010ef          	jal	ra,8000d41c <fma>
8000b6e8:	024a2a83          	lw	s5,36(s4)
8000b6ec:	020a2a03          	lw	s4,32(s4)
8000b6f0:	04812703          	lw	a4,72(sp)
8000b6f4:	04c12783          	lw	a5,76(sp)
8000b6f8:	00050f13          	mv	t5,a0
8000b6fc:	00058313          	mv	t1,a1
8000b700:	000a0613          	mv	a2,s4
8000b704:	000a8693          	mv	a3,s5
8000b708:	00040513          	mv	a0,s0
8000b70c:	00048593          	mv	a1,s1
8000b710:	05e12423          	sw	t5,72(sp)
8000b714:	04612623          	sw	t1,76(sp)
8000b718:	505010ef          	jal	ra,8000d41c <fma>
8000b71c:	03412703          	lw	a4,52(sp)
8000b720:	05412783          	lw	a5,84(sp)
8000b724:	00050f13          	mv	t5,a0
8000b728:	02872403          	lw	s0,40(a4)
8000b72c:	02c72483          	lw	s1,44(a4)
8000b730:	05012703          	lw	a4,80(sp)
8000b734:	00058313          	mv	t1,a1
8000b738:	000c0613          	mv	a2,s8
8000b73c:	000c8693          	mv	a3,s9
8000b740:	00040513          	mv	a0,s0
8000b744:	00048593          	mv	a1,s1
8000b748:	05e12823          	sw	t5,80(sp)
8000b74c:	04612a23          	sw	t1,84(sp)
8000b750:	4cd010ef          	jal	ra,8000d41c <fma>
8000b754:	05812703          	lw	a4,88(sp)
8000b758:	05c12783          	lw	a5,92(sp)
8000b75c:	00050f13          	mv	t5,a0
8000b760:	00058313          	mv	t1,a1
8000b764:	000b0613          	mv	a2,s6
8000b768:	000b8693          	mv	a3,s7
8000b76c:	00040513          	mv	a0,s0
8000b770:	00048593          	mv	a1,s1
8000b774:	05e12c23          	sw	t5,88(sp)
8000b778:	04612e23          	sw	t1,92(sp)
8000b77c:	4a1010ef          	jal	ra,8000d41c <fma>
8000b780:	06012703          	lw	a4,96(sp)
8000b784:	06412783          	lw	a5,100(sp)
8000b788:	00050f13          	mv	t5,a0
8000b78c:	00058313          	mv	t1,a1
8000b790:	000d0613          	mv	a2,s10
8000b794:	000d8693          	mv	a3,s11
8000b798:	00040513          	mv	a0,s0
8000b79c:	00048593          	mv	a1,s1
8000b7a0:	07e12023          	sw	t5,96(sp)
8000b7a4:	06612223          	sw	t1,100(sp)
8000b7a8:	475010ef          	jal	ra,8000d41c <fma>
8000b7ac:	06812703          	lw	a4,104(sp)
8000b7b0:	06c12783          	lw	a5,108(sp)
8000b7b4:	00050f13          	mv	t5,a0
8000b7b8:	00058313          	mv	t1,a1
8000b7bc:	00090613          	mv	a2,s2
8000b7c0:	00098693          	mv	a3,s3
8000b7c4:	00040513          	mv	a0,s0
8000b7c8:	00048593          	mv	a1,s1
8000b7cc:	07e12423          	sw	t5,104(sp)
8000b7d0:	06612623          	sw	t1,108(sp)
8000b7d4:	449010ef          	jal	ra,8000d41c <fma>
8000b7d8:	07012703          	lw	a4,112(sp)
8000b7dc:	07412783          	lw	a5,116(sp)
8000b7e0:	00050f13          	mv	t5,a0
8000b7e4:	00058313          	mv	t1,a1
8000b7e8:	000a0613          	mv	a2,s4
8000b7ec:	000a8693          	mv	a3,s5
8000b7f0:	00040513          	mv	a0,s0
8000b7f4:	00048593          	mv	a1,s1
8000b7f8:	07e12823          	sw	t5,112(sp)
8000b7fc:	06612a23          	sw	t1,116(sp)
8000b800:	41d010ef          	jal	ra,8000d41c <fma>
8000b804:	03012603          	lw	a2,48(sp)
8000b808:	07812703          	lw	a4,120(sp)
8000b80c:	07c12783          	lw	a5,124(sp)
8000b810:	02862403          	lw	s0,40(a2)
8000b814:	02c62483          	lw	s1,44(a2)
8000b818:	00050f13          	mv	t5,a0
8000b81c:	00058313          	mv	t1,a1
8000b820:	07e12c23          	sw	t5,120(sp)
8000b824:	000c0613          	mv	a2,s8
8000b828:	000c8693          	mv	a3,s9
8000b82c:	00040513          	mv	a0,s0
8000b830:	00048593          	mv	a1,s1
8000b834:	06612e23          	sw	t1,124(sp)
8000b838:	3e5010ef          	jal	ra,8000d41c <fma>
8000b83c:	08012703          	lw	a4,128(sp)
8000b840:	08412783          	lw	a5,132(sp)
8000b844:	00050f13          	mv	t5,a0
8000b848:	00058313          	mv	t1,a1
8000b84c:	000b0613          	mv	a2,s6
8000b850:	000b8693          	mv	a3,s7
8000b854:	00040513          	mv	a0,s0
8000b858:	00048593          	mv	a1,s1
8000b85c:	09e12023          	sw	t5,128(sp)
8000b860:	08612223          	sw	t1,132(sp)
8000b864:	3b9010ef          	jal	ra,8000d41c <fma>
8000b868:	08812703          	lw	a4,136(sp)
8000b86c:	08c12783          	lw	a5,140(sp)
8000b870:	00050f13          	mv	t5,a0
8000b874:	00058313          	mv	t1,a1
8000b878:	000d0613          	mv	a2,s10
8000b87c:	000d8693          	mv	a3,s11
8000b880:	00040513          	mv	a0,s0
8000b884:	00048593          	mv	a1,s1
8000b888:	09e12423          	sw	t5,136(sp)
8000b88c:	08612623          	sw	t1,140(sp)
8000b890:	38d010ef          	jal	ra,8000d41c <fma>
8000b894:	09012703          	lw	a4,144(sp)
8000b898:	09412783          	lw	a5,148(sp)
8000b89c:	00050f13          	mv	t5,a0
8000b8a0:	00058313          	mv	t1,a1
8000b8a4:	00090613          	mv	a2,s2
8000b8a8:	00098693          	mv	a3,s3
8000b8ac:	00040513          	mv	a0,s0
8000b8b0:	00048593          	mv	a1,s1
8000b8b4:	09e12823          	sw	t5,144(sp)
8000b8b8:	08612a23          	sw	t1,148(sp)
8000b8bc:	361010ef          	jal	ra,8000d41c <fma>
8000b8c0:	09812703          	lw	a4,152(sp)
8000b8c4:	09c12783          	lw	a5,156(sp)
8000b8c8:	00050f13          	mv	t5,a0
8000b8cc:	00058313          	mv	t1,a1
8000b8d0:	000a0613          	mv	a2,s4
8000b8d4:	000a8693          	mv	a3,s5
8000b8d8:	00040513          	mv	a0,s0
8000b8dc:	00048593          	mv	a1,s1
8000b8e0:	09e12c23          	sw	t5,152(sp)
8000b8e4:	08612e23          	sw	t1,156(sp)
8000b8e8:	335010ef          	jal	ra,8000d41c <fma>
8000b8ec:	00058313          	mv	t1,a1
8000b8f0:	02c12583          	lw	a1,44(sp)
8000b8f4:	0a012703          	lw	a4,160(sp)
8000b8f8:	0a412783          	lw	a5,164(sp)
8000b8fc:	0285a403          	lw	s0,40(a1)
8000b900:	02c5a483          	lw	s1,44(a1)
8000b904:	00050f13          	mv	t5,a0
8000b908:	000c0613          	mv	a2,s8
8000b90c:	000c8693          	mv	a3,s9
8000b910:	00040513          	mv	a0,s0
8000b914:	00048593          	mv	a1,s1
8000b918:	0be12023          	sw	t5,160(sp)
8000b91c:	0a612223          	sw	t1,164(sp)
8000b920:	2fd010ef          	jal	ra,8000d41c <fma>
8000b924:	0a812703          	lw	a4,168(sp)
8000b928:	0ac12783          	lw	a5,172(sp)
8000b92c:	00050f13          	mv	t5,a0
8000b930:	00058313          	mv	t1,a1
8000b934:	000b0613          	mv	a2,s6
8000b938:	000b8693          	mv	a3,s7
8000b93c:	00040513          	mv	a0,s0
8000b940:	00048593          	mv	a1,s1
8000b944:	0be12423          	sw	t5,168(sp)
8000b948:	0a612623          	sw	t1,172(sp)
8000b94c:	2d1010ef          	jal	ra,8000d41c <fma>
8000b950:	0b012703          	lw	a4,176(sp)
8000b954:	0b412783          	lw	a5,180(sp)
8000b958:	00050f13          	mv	t5,a0
8000b95c:	00058313          	mv	t1,a1
8000b960:	000d0613          	mv	a2,s10
8000b964:	000d8693          	mv	a3,s11
8000b968:	00040513          	mv	a0,s0
8000b96c:	00048593          	mv	a1,s1
8000b970:	0be12823          	sw	t5,176(sp)
8000b974:	0a612a23          	sw	t1,180(sp)
8000b978:	2a5010ef          	jal	ra,8000d41c <fma>
8000b97c:	0b812703          	lw	a4,184(sp)
8000b980:	0bc12783          	lw	a5,188(sp)
8000b984:	00050f13          	mv	t5,a0
8000b988:	00058313          	mv	t1,a1
8000b98c:	00090613          	mv	a2,s2
8000b990:	00098693          	mv	a3,s3
8000b994:	00040513          	mv	a0,s0
8000b998:	00048593          	mv	a1,s1
8000b99c:	0be12c23          	sw	t5,184(sp)
8000b9a0:	0a612e23          	sw	t1,188(sp)
8000b9a4:	279010ef          	jal	ra,8000d41c <fma>
8000b9a8:	0c412803          	lw	a6,196(sp)
8000b9ac:	00050f13          	mv	t5,a0
8000b9b0:	00058313          	mv	t1,a1
8000b9b4:	0c012883          	lw	a7,192(sp)
8000b9b8:	00080713          	mv	a4,a6
8000b9bc:	0de12023          	sw	t5,192(sp)
8000b9c0:	0c612223          	sw	t1,196(sp)
8000b9c4:	02012803          	lw	a6,32(sp)
8000b9c8:	00088793          	mv	a5,a7
8000b9cc:	000a0613          	mv	a2,s4
8000b9d0:	000a8693          	mv	a3,s5
8000b9d4:	00040513          	mv	a0,s0
8000b9d8:	00048593          	mv	a1,s1
8000b9dc:	03080413          	addi	s0,a6,48
8000b9e0:	02812023          	sw	s0,32(sp)
8000b9e4:	239010ef          	jal	ra,8000d41c <fma>
8000b9e8:	01812683          	lw	a3,24(sp)
8000b9ec:	10c12783          	lw	a5,268(sp)
8000b9f0:	03412703          	lw	a4,52(sp)
8000b9f4:	03012603          	lw	a2,48(sp)
8000b9f8:	00f687b3          	add	a5,a3,a5
8000b9fc:	0cb12623          	sw	a1,204(sp)
8000ba00:	02c12583          	lw	a1,44(sp)
8000ba04:	00f12c23          	sw	a5,24(sp)
8000ba08:	03070793          	addi	a5,a4,48
8000ba0c:	02f12a23          	sw	a5,52(sp)
8000ba10:	03060793          	addi	a5,a2,48
8000ba14:	02f12823          	sw	a5,48(sp)
8000ba18:	03058793          	addi	a5,a1,48
8000ba1c:	02f12623          	sw	a5,44(sp)
8000ba20:	0f412783          	lw	a5,244(sp)
8000ba24:	0ca12423          	sw	a0,200(sp)
8000ba28:	0d412e03          	lw	t3,212(sp)
8000ba2c:	0d812e83          	lw	t4,216(sp)
8000ba30:	00f47463          	bgeu	s0,a5,8000ba38 <mm+0x1af4>
8000ba34:	83dfe06f          	j	8000a270 <mm+0x32c>
8000ba38:	13412783          	lw	a5,308(sp)
8000ba3c:	11012703          	lw	a4,272(sp)
8000ba40:	00e784b3          	add	s1,a5,a4
8000ba44:	0f412783          	lw	a5,244(sp)
8000ba48:	0f812703          	lw	a4,248(sp)
8000ba4c:	42e7f263          	bgeu	a5,a4,8000be70 <mm+0x1f2c>
8000ba50:	12812a83          	lw	s5,296(sp)
8000ba54:	00078a13          	mv	s4,a5
8000ba58:	000a2903          	lw	s2,0(s4)
8000ba5c:	004a2983          	lw	s3,4(s4)
8000ba60:	0004ac03          	lw	s8,0(s1)
8000ba64:	0044ac83          	lw	s9,4(s1)
8000ba68:	000e8713          	mv	a4,t4
8000ba6c:	000e0793          	mv	a5,t3
8000ba70:	000c0613          	mv	a2,s8
8000ba74:	000c8693          	mv	a3,s9
8000ba78:	00090513          	mv	a0,s2
8000ba7c:	00098593          	mv	a1,s3
8000ba80:	19d010ef          	jal	ra,8000d41c <fma>
8000ba84:	0084ab03          	lw	s6,8(s1)
8000ba88:	00c4ab83          	lw	s7,12(s1)
8000ba8c:	03812703          	lw	a4,56(sp)
8000ba90:	03c12783          	lw	a5,60(sp)
8000ba94:	00050e93          	mv	t4,a0
8000ba98:	00058e13          	mv	t3,a1
8000ba9c:	000b0613          	mv	a2,s6
8000baa0:	000b8693          	mv	a3,s7
8000baa4:	00090513          	mv	a0,s2
8000baa8:	00098593          	mv	a1,s3
8000baac:	03d12823          	sw	t4,48(sp)
8000bab0:	03c12623          	sw	t3,44(sp)
8000bab4:	169010ef          	jal	ra,8000d41c <fma>
8000bab8:	0104ad03          	lw	s10,16(s1)
8000babc:	0144ad83          	lw	s11,20(s1)
8000bac0:	04012703          	lw	a4,64(sp)
8000bac4:	04412783          	lw	a5,68(sp)
8000bac8:	00050893          	mv	a7,a0
8000bacc:	00058813          	mv	a6,a1
8000bad0:	000d0613          	mv	a2,s10
8000bad4:	000d8693          	mv	a3,s11
8000bad8:	00090513          	mv	a0,s2
8000badc:	00098593          	mv	a1,s3
8000bae0:	03112c23          	sw	a7,56(sp)
8000bae4:	03012e23          	sw	a6,60(sp)
8000bae8:	135010ef          	jal	ra,8000d41c <fma>
8000baec:	0184a803          	lw	a6,24(s1)
8000baf0:	01c4a883          	lw	a7,28(s1)
8000baf4:	04812703          	lw	a4,72(sp)
8000baf8:	04c12783          	lw	a5,76(sp)
8000bafc:	00080613          	mv	a2,a6
8000bb00:	00088693          	mv	a3,a7
8000bb04:	00050f13          	mv	t5,a0
8000bb08:	00058313          	mv	t1,a1
8000bb0c:	00090513          	mv	a0,s2
8000bb10:	00098593          	mv	a1,s3
8000bb14:	03012023          	sw	a6,32(sp)
8000bb18:	03112223          	sw	a7,36(sp)
8000bb1c:	05e12023          	sw	t5,64(sp)
8000bb20:	04612223          	sw	t1,68(sp)
8000bb24:	0f9010ef          	jal	ra,8000d41c <fma>
8000bb28:	0204a303          	lw	t1,32(s1)
8000bb2c:	0244a383          	lw	t2,36(s1)
8000bb30:	05012703          	lw	a4,80(sp)
8000bb34:	05412783          	lw	a5,84(sp)
8000bb38:	00030613          	mv	a2,t1
8000bb3c:	00038693          	mv	a3,t2
8000bb40:	00050f93          	mv	t6,a0
8000bb44:	00058f13          	mv	t5,a1
8000bb48:	015a0433          	add	s0,s4,s5
8000bb4c:	00090513          	mv	a0,s2
8000bb50:	00098593          	mv	a1,s3
8000bb54:	00612c23          	sw	t1,24(sp)
8000bb58:	00712e23          	sw	t2,28(sp)
8000bb5c:	05f12423          	sw	t6,72(sp)
8000bb60:	05e12623          	sw	t5,76(sp)
8000bb64:	0b9010ef          	jal	ra,8000d41c <fma>
8000bb68:	00042903          	lw	s2,0(s0)
8000bb6c:	00442983          	lw	s3,4(s0)
8000bb70:	05812703          	lw	a4,88(sp)
8000bb74:	05c12783          	lw	a5,92(sp)
8000bb78:	00050f93          	mv	t6,a0
8000bb7c:	00058f13          	mv	t5,a1
8000bb80:	000c0613          	mv	a2,s8
8000bb84:	000c8693          	mv	a3,s9
8000bb88:	00090513          	mv	a0,s2
8000bb8c:	00098593          	mv	a1,s3
8000bb90:	05f12823          	sw	t6,80(sp)
8000bb94:	05e12a23          	sw	t5,84(sp)
8000bb98:	085010ef          	jal	ra,8000d41c <fma>
8000bb9c:	06012703          	lw	a4,96(sp)
8000bba0:	06412783          	lw	a5,100(sp)
8000bba4:	00050f93          	mv	t6,a0
8000bba8:	00058f13          	mv	t5,a1
8000bbac:	000b0613          	mv	a2,s6
8000bbb0:	000b8693          	mv	a3,s7
8000bbb4:	00090513          	mv	a0,s2
8000bbb8:	00098593          	mv	a1,s3
8000bbbc:	05f12c23          	sw	t6,88(sp)
8000bbc0:	05e12e23          	sw	t5,92(sp)
8000bbc4:	059010ef          	jal	ra,8000d41c <fma>
8000bbc8:	06812703          	lw	a4,104(sp)
8000bbcc:	06c12783          	lw	a5,108(sp)
8000bbd0:	00050f93          	mv	t6,a0
8000bbd4:	00058f13          	mv	t5,a1
8000bbd8:	000d0613          	mv	a2,s10
8000bbdc:	000d8693          	mv	a3,s11
8000bbe0:	00090513          	mv	a0,s2
8000bbe4:	00098593          	mv	a1,s3
8000bbe8:	07f12023          	sw	t6,96(sp)
8000bbec:	07e12223          	sw	t5,100(sp)
8000bbf0:	02d010ef          	jal	ra,8000d41c <fma>
8000bbf4:	02012803          	lw	a6,32(sp)
8000bbf8:	02412883          	lw	a7,36(sp)
8000bbfc:	07012703          	lw	a4,112(sp)
8000bc00:	07412783          	lw	a5,116(sp)
8000bc04:	00080613          	mv	a2,a6
8000bc08:	00088693          	mv	a3,a7
8000bc0c:	00050f93          	mv	t6,a0
8000bc10:	00058f13          	mv	t5,a1
8000bc14:	00090513          	mv	a0,s2
8000bc18:	00098593          	mv	a1,s3
8000bc1c:	07f12423          	sw	t6,104(sp)
8000bc20:	07e12623          	sw	t5,108(sp)
8000bc24:	7f8010ef          	jal	ra,8000d41c <fma>
8000bc28:	01c12383          	lw	t2,28(sp)
8000bc2c:	01812303          	lw	t1,24(sp)
8000bc30:	07812703          	lw	a4,120(sp)
8000bc34:	07c12783          	lw	a5,124(sp)
8000bc38:	00030613          	mv	a2,t1
8000bc3c:	00038693          	mv	a3,t2
8000bc40:	00050f93          	mv	t6,a0
8000bc44:	00058f13          	mv	t5,a1
8000bc48:	01540433          	add	s0,s0,s5
8000bc4c:	00090513          	mv	a0,s2
8000bc50:	00098593          	mv	a1,s3
8000bc54:	07f12823          	sw	t6,112(sp)
8000bc58:	07e12a23          	sw	t5,116(sp)
8000bc5c:	7c0010ef          	jal	ra,8000d41c <fma>
8000bc60:	00042903          	lw	s2,0(s0)
8000bc64:	00442983          	lw	s3,4(s0)
8000bc68:	08012703          	lw	a4,128(sp)
8000bc6c:	08412783          	lw	a5,132(sp)
8000bc70:	00050f93          	mv	t6,a0
8000bc74:	00058f13          	mv	t5,a1
8000bc78:	000c0613          	mv	a2,s8
8000bc7c:	000c8693          	mv	a3,s9
8000bc80:	00090513          	mv	a0,s2
8000bc84:	00098593          	mv	a1,s3
8000bc88:	07f12c23          	sw	t6,120(sp)
8000bc8c:	07e12e23          	sw	t5,124(sp)
8000bc90:	78c010ef          	jal	ra,8000d41c <fma>
8000bc94:	08812703          	lw	a4,136(sp)
8000bc98:	08c12783          	lw	a5,140(sp)
8000bc9c:	00050f93          	mv	t6,a0
8000bca0:	00058f13          	mv	t5,a1
8000bca4:	000b0613          	mv	a2,s6
8000bca8:	000b8693          	mv	a3,s7
8000bcac:	00090513          	mv	a0,s2
8000bcb0:	00098593          	mv	a1,s3
8000bcb4:	09f12023          	sw	t6,128(sp)
8000bcb8:	09e12223          	sw	t5,132(sp)
8000bcbc:	760010ef          	jal	ra,8000d41c <fma>
8000bcc0:	09012703          	lw	a4,144(sp)
8000bcc4:	09412783          	lw	a5,148(sp)
8000bcc8:	00050f93          	mv	t6,a0
8000bccc:	00058f13          	mv	t5,a1
8000bcd0:	000d0613          	mv	a2,s10
8000bcd4:	000d8693          	mv	a3,s11
8000bcd8:	00090513          	mv	a0,s2
8000bcdc:	00098593          	mv	a1,s3
8000bce0:	09f12423          	sw	t6,136(sp)
8000bce4:	09e12623          	sw	t5,140(sp)
8000bce8:	734010ef          	jal	ra,8000d41c <fma>
8000bcec:	02012803          	lw	a6,32(sp)
8000bcf0:	02412883          	lw	a7,36(sp)
8000bcf4:	09812703          	lw	a4,152(sp)
8000bcf8:	09c12783          	lw	a5,156(sp)
8000bcfc:	00080613          	mv	a2,a6
8000bd00:	00088693          	mv	a3,a7
8000bd04:	00050f93          	mv	t6,a0
8000bd08:	00058f13          	mv	t5,a1
8000bd0c:	00090513          	mv	a0,s2
8000bd10:	00098593          	mv	a1,s3
8000bd14:	09f12823          	sw	t6,144(sp)
8000bd18:	09e12a23          	sw	t5,148(sp)
8000bd1c:	700010ef          	jal	ra,8000d41c <fma>
8000bd20:	0a012703          	lw	a4,160(sp)
8000bd24:	0a412783          	lw	a5,164(sp)
8000bd28:	01812303          	lw	t1,24(sp)
8000bd2c:	01c12383          	lw	t2,28(sp)
8000bd30:	00050f93          	mv	t6,a0
8000bd34:	00030613          	mv	a2,t1
8000bd38:	00038693          	mv	a3,t2
8000bd3c:	00058f13          	mv	t5,a1
8000bd40:	00090513          	mv	a0,s2
8000bd44:	00098593          	mv	a1,s3
8000bd48:	01540433          	add	s0,s0,s5
8000bd4c:	09f12c23          	sw	t6,152(sp)
8000bd50:	09e12e23          	sw	t5,156(sp)
8000bd54:	6c8010ef          	jal	ra,8000d41c <fma>
8000bd58:	00042903          	lw	s2,0(s0)
8000bd5c:	00442983          	lw	s3,4(s0)
8000bd60:	0a812703          	lw	a4,168(sp)
8000bd64:	0ac12783          	lw	a5,172(sp)
8000bd68:	00050f93          	mv	t6,a0
8000bd6c:	00058f13          	mv	t5,a1
8000bd70:	000c0613          	mv	a2,s8
8000bd74:	000c8693          	mv	a3,s9
8000bd78:	00090513          	mv	a0,s2
8000bd7c:	00098593          	mv	a1,s3
8000bd80:	0bf12023          	sw	t6,160(sp)
8000bd84:	0be12223          	sw	t5,164(sp)
8000bd88:	694010ef          	jal	ra,8000d41c <fma>
8000bd8c:	0b012703          	lw	a4,176(sp)
8000bd90:	0b412783          	lw	a5,180(sp)
8000bd94:	00050f93          	mv	t6,a0
8000bd98:	00058f13          	mv	t5,a1
8000bd9c:	000b0613          	mv	a2,s6
8000bda0:	000b8693          	mv	a3,s7
8000bda4:	00090513          	mv	a0,s2
8000bda8:	00098593          	mv	a1,s3
8000bdac:	0bf12423          	sw	t6,168(sp)
8000bdb0:	0be12623          	sw	t5,172(sp)
8000bdb4:	668010ef          	jal	ra,8000d41c <fma>
8000bdb8:	0b812703          	lw	a4,184(sp)
8000bdbc:	0bc12783          	lw	a5,188(sp)
8000bdc0:	00050f93          	mv	t6,a0
8000bdc4:	00058f13          	mv	t5,a1
8000bdc8:	000d0613          	mv	a2,s10
8000bdcc:	000d8693          	mv	a3,s11
8000bdd0:	00090513          	mv	a0,s2
8000bdd4:	00098593          	mv	a1,s3
8000bdd8:	0bf12823          	sw	t6,176(sp)
8000bddc:	0be12a23          	sw	t5,180(sp)
8000bde0:	63c010ef          	jal	ra,8000d41c <fma>
8000bde4:	02012803          	lw	a6,32(sp)
8000bde8:	02412883          	lw	a7,36(sp)
8000bdec:	0c012703          	lw	a4,192(sp)
8000bdf0:	0c412783          	lw	a5,196(sp)
8000bdf4:	00050f93          	mv	t6,a0
8000bdf8:	00058f13          	mv	t5,a1
8000bdfc:	00080613          	mv	a2,a6
8000be00:	00088693          	mv	a3,a7
8000be04:	00090513          	mv	a0,s2
8000be08:	00098593          	mv	a1,s3
8000be0c:	0bf12c23          	sw	t6,184(sp)
8000be10:	0be12e23          	sw	t5,188(sp)
8000be14:	608010ef          	jal	ra,8000d41c <fma>
8000be18:	01812303          	lw	t1,24(sp)
8000be1c:	01c12383          	lw	t2,28(sp)
8000be20:	0cc12783          	lw	a5,204(sp)
8000be24:	0c812703          	lw	a4,200(sp)
8000be28:	00050893          	mv	a7,a0
8000be2c:	00058813          	mv	a6,a1
8000be30:	00030613          	mv	a2,t1
8000be34:	00038693          	mv	a3,t2
8000be38:	00090513          	mv	a0,s2
8000be3c:	00098593          	mv	a1,s3
8000be40:	0d112023          	sw	a7,192(sp)
8000be44:	0d012223          	sw	a6,196(sp)
8000be48:	5d4010ef          	jal	ra,8000d41c <fma>
8000be4c:	0d012783          	lw	a5,208(sp)
8000be50:	008a0a13          	addi	s4,s4,8
8000be54:	0ca12423          	sw	a0,200(sp)
8000be58:	00f484b3          	add	s1,s1,a5
8000be5c:	0f812783          	lw	a5,248(sp)
8000be60:	0cb12623          	sw	a1,204(sp)
8000be64:	02c12e03          	lw	t3,44(sp)
8000be68:	03012e83          	lw	t4,48(sp)
8000be6c:	befa66e3          	bltu	s4,a5,8000ba58 <mm+0x1b14>
8000be70:	12012283          	lw	t0,288(sp)
8000be74:	04c12783          	lw	a5,76(sp)
8000be78:	03812303          	lw	t1,56(sp)
8000be7c:	04012603          	lw	a2,64(sp)
8000be80:	04812703          	lw	a4,72(sp)
8000be84:	05012503          	lw	a0,80(sp)
8000be88:	03c12383          	lw	t2,60(sp)
8000be8c:	04412683          	lw	a3,68(sp)
8000be90:	05412583          	lw	a1,84(sp)
8000be94:	00f2ae23          	sw	a5,28(t0)
8000be98:	08012783          	lw	a5,128(sp)
8000be9c:	000e8813          	mv	a6,t4
8000bea0:	000e0893          	mv	a7,t3
8000bea4:	0102a023          	sw	a6,0(t0)
8000bea8:	0112a223          	sw	a7,4(t0)
8000beac:	0062a423          	sw	t1,8(t0)
8000beb0:	0072a623          	sw	t2,12(t0)
8000beb4:	00c2a823          	sw	a2,16(t0)
8000beb8:	00d2aa23          	sw	a3,20(t0)
8000bebc:	00e2ac23          	sw	a4,24(t0)
8000bec0:	02a2a023          	sw	a0,32(t0)
8000bec4:	02b2a223          	sw	a1,36(t0)
8000bec8:	06812e03          	lw	t3,104(sp)
8000becc:	07012f03          	lw	t5,112(sp)
8000bed0:	06c12e83          	lw	t4,108(sp)
8000bed4:	07412f83          	lw	t6,116(sp)
8000bed8:	05812c03          	lw	s8,88(sp)
8000bedc:	06012d03          	lw	s10,96(sp)
8000bee0:	07812403          	lw	s0,120(sp)
8000bee4:	05c12c83          	lw	s9,92(sp)
8000bee8:	06412d83          	lw	s11,100(sp)
8000beec:	07c12483          	lw	s1,124(sp)
8000bef0:	00f12c23          	sw	a5,24(sp)
8000bef4:	08812783          	lw	a5,136(sp)
8000bef8:	0b012703          	lw	a4,176(sp)
8000befc:	09012903          	lw	s2,144(sp)
8000bf00:	02f12023          	sw	a5,32(sp)
8000bf04:	11c12783          	lw	a5,284(sp)
8000bf08:	09812a03          	lw	s4,152(sp)
8000bf0c:	0a012b03          	lw	s6,160(sp)
8000bf10:	01c7a823          	sw	t3,16(a5)
8000bf14:	01d7aa23          	sw	t4,20(a5)
8000bf18:	01e7ac23          	sw	t5,24(a5)
8000bf1c:	01f7ae23          	sw	t6,28(a5)
8000bf20:	0187a023          	sw	s8,0(a5)
8000bf24:	0197a223          	sw	s9,4(a5)
8000bf28:	01a7a423          	sw	s10,8(a5)
8000bf2c:	01b7a623          	sw	s11,12(a5)
8000bf30:	0287a023          	sw	s0,32(a5)
8000bf34:	0297a223          	sw	s1,36(a5)
8000bf38:	00078f13          	mv	t5,a5
8000bf3c:	08412783          	lw	a5,132(sp)
8000bf40:	11812f83          	lw	t6,280(sp)
8000bf44:	01812e03          	lw	t3,24(sp)
8000bf48:	00f12e23          	sw	a5,28(sp)
8000bf4c:	08c12783          	lw	a5,140(sp)
8000bf50:	01c12e83          	lw	t4,28(sp)
8000bf54:	01cfa023          	sw	t3,0(t6)
8000bf58:	02f12223          	sw	a5,36(sp)
8000bf5c:	09412983          	lw	s3,148(sp)
8000bf60:	09c12a83          	lw	s5,156(sp)
8000bf64:	0a412b83          	lw	s7,164(sp)
8000bf68:	0a812603          	lw	a2,168(sp)
8000bf6c:	0b812803          	lw	a6,184(sp)
8000bf70:	0c012503          	lw	a0,192(sp)
8000bf74:	0c812303          	lw	t1,200(sp)
8000bf78:	01dfa223          	sw	t4,4(t6)
8000bf7c:	02412e83          	lw	t4,36(sp)
8000bf80:	02012e03          	lw	t3,32(sp)
8000bf84:	0ac12683          	lw	a3,172(sp)
8000bf88:	01dfa623          	sw	t4,12(t6)
8000bf8c:	11412e83          	lw	t4,276(sp)
8000bf90:	01cfa423          	sw	t3,8(t6)
8000bf94:	012fa823          	sw	s2,16(t6)
8000bf98:	013faa23          	sw	s3,20(t6)
8000bf9c:	014fac23          	sw	s4,24(t6)
8000bfa0:	015fae23          	sw	s5,28(t6)
8000bfa4:	036fa023          	sw	s6,32(t6)
8000bfa8:	037fa223          	sw	s7,36(t6)
8000bfac:	0b412783          	lw	a5,180(sp)
8000bfb0:	00eea423          	sw	a4,8(t4)
8000bfb4:	12412703          	lw	a4,292(sp)
8000bfb8:	0bc12883          	lw	a7,188(sp)
8000bfbc:	0c412583          	lw	a1,196(sp)
8000bfc0:	0cc12383          	lw	t2,204(sp)
8000bfc4:	00dea223          	sw	a3,4(t4)
8000bfc8:	02828693          	addi	a3,t0,40
8000bfcc:	12d12023          	sw	a3,288(sp)
8000bfd0:	028f0693          	addi	a3,t5,40
8000bfd4:	00fea623          	sw	a5,12(t4)
8000bfd8:	10d12e23          	sw	a3,284(sp)
8000bfdc:	028e8793          	addi	a5,t4,40
8000bfe0:	00570713          	addi	a4,a4,5
8000bfe4:	028f8693          	addi	a3,t6,40
8000bfe8:	00cea023          	sw	a2,0(t4)
8000bfec:	010ea823          	sw	a6,16(t4)
8000bff0:	011eaa23          	sw	a7,20(t4)
8000bff4:	00aeac23          	sw	a0,24(t4)
8000bff8:	00beae23          	sw	a1,28(t4)
8000bffc:	026ea023          	sw	t1,32(t4)
8000c000:	027ea223          	sw	t2,36(t4)
8000c004:	12e12223          	sw	a4,292(sp)
8000c008:	10d12c23          	sw	a3,280(sp)
8000c00c:	10f12a23          	sw	a5,276(sp)
8000c010:	11012783          	lw	a5,272(sp)
8000c014:	02878793          	addi	a5,a5,40
8000c018:	10f12823          	sw	a5,272(sp)
8000c01c:	13012783          	lw	a5,304(sp)
8000c020:	00f77463          	bgeu	a4,a5,8000c028 <mm+0x20e4>
8000c024:	8ccfe06f          	j	8000a0f0 <mm+0x1ac>
8000c028:	16c12783          	lw	a5,364(sp)
8000c02c:	13812403          	lw	s0,312(sp)
8000c030:	12c12903          	lw	s2,300(sp)
8000c034:	13c12303          	lw	t1,316(sp)
8000c038:	008788b3          	add	a7,a5,s0
8000c03c:	14c12783          	lw	a5,332(sp)
8000c040:	14412703          	lw	a4,324(sp)
8000c044:	14812803          	lw	a6,328(sp)
8000c048:	00f12023          	sw	a5,0(sp)
8000c04c:	14012603          	lw	a2,320(sp)
8000c050:	15c12783          	lw	a5,348(sp)
8000c054:	15812583          	lw	a1,344(sp)
8000c058:	00430493          	addi	s1,t1,4
8000c05c:	00090693          	mv	a3,s2
8000c060:	00400513          	li	a0,4
8000c064:	12912e23          	sw	s1,316(sp)
8000c068:	fe1f40ef          	jal	ra,80001048 <mm_naive>
8000c06c:	16412783          	lw	a5,356(sp)
8000c070:	00f90733          	add	a4,s2,a5
8000c074:	12e12623          	sw	a4,300(sp)
8000c078:	0f412703          	lw	a4,244(sp)
8000c07c:	00f70733          	add	a4,a4,a5
8000c080:	0ee12a23          	sw	a4,244(sp)
8000c084:	0f812703          	lw	a4,248(sp)
8000c088:	00f707b3          	add	a5,a4,a5
8000c08c:	0ef12c23          	sw	a5,248(sp)
8000c090:	16012783          	lw	a5,352(sp)
8000c094:	00f407b3          	add	a5,s0,a5
8000c098:	12f12c23          	sw	a5,312(sp)
8000c09c:	15412783          	lw	a5,340(sp)
8000c0a0:	00f4f463          	bgeu	s1,a5,8000c0a8 <mm+0x2164>
8000c0a4:	810fe06f          	j	8000a0b4 <mm+0x170>
8000c0a8:	15412683          	lw	a3,340(sp)
8000c0ac:	16812783          	lw	a5,360(sp)
8000c0b0:	12812303          	lw	t1,296(sp)
8000c0b4:	17012503          	lw	a0,368(sp)
8000c0b8:	02f688b3          	mul	a7,a3,a5
8000c0bc:	14c12783          	lw	a5,332(sp)
8000c0c0:	40d50533          	sub	a0,a0,a3
8000c0c4:	1b812403          	lw	s0,440(sp)
8000c0c8:	1cf12023          	sw	a5,448(sp)
8000c0cc:	14812803          	lw	a6,328(sp)
8000c0d0:	15012783          	lw	a5,336(sp)
8000c0d4:	14412703          	lw	a4,324(sp)
8000c0d8:	14012603          	lw	a2,320(sp)
8000c0dc:	17412583          	lw	a1,372(sp)
8000c0e0:	026686b3          	mul	a3,a3,t1
8000c0e4:	17c12303          	lw	t1,380(sp)
8000c0e8:	1bc12083          	lw	ra,444(sp)
8000c0ec:	1b412483          	lw	s1,436(sp)
8000c0f0:	011308b3          	add	a7,t1,a7
8000c0f4:	17812303          	lw	t1,376(sp)
8000c0f8:	1b012903          	lw	s2,432(sp)
8000c0fc:	1ac12983          	lw	s3,428(sp)
8000c100:	1a812a03          	lw	s4,424(sp)
8000c104:	1a412a83          	lw	s5,420(sp)
8000c108:	1a012b03          	lw	s6,416(sp)
8000c10c:	19c12b83          	lw	s7,412(sp)
8000c110:	19812c03          	lw	s8,408(sp)
8000c114:	19412c83          	lw	s9,404(sp)
8000c118:	19012d03          	lw	s10,400(sp)
8000c11c:	18c12d83          	lw	s11,396(sp)
8000c120:	00d306b3          	add	a3,t1,a3
8000c124:	1c010113          	addi	sp,sp,448
8000c128:	f21f406f          	j	80001048 <mm_naive>
8000c12c:	14c12783          	lw	a5,332(sp)
8000c130:	1b812403          	lw	s0,440(sp)
8000c134:	17c12883          	lw	a7,380(sp)
8000c138:	1cf12023          	sw	a5,448(sp)
8000c13c:	14812803          	lw	a6,328(sp)
8000c140:	15012783          	lw	a5,336(sp)
8000c144:	14412703          	lw	a4,324(sp)
8000c148:	17812683          	lw	a3,376(sp)
8000c14c:	14012603          	lw	a2,320(sp)
8000c150:	17412583          	lw	a1,372(sp)
8000c154:	17012503          	lw	a0,368(sp)
8000c158:	1bc12083          	lw	ra,444(sp)
8000c15c:	1b412483          	lw	s1,436(sp)
8000c160:	1b012903          	lw	s2,432(sp)
8000c164:	1ac12983          	lw	s3,428(sp)
8000c168:	1a812a03          	lw	s4,424(sp)
8000c16c:	1a412a83          	lw	s5,420(sp)
8000c170:	1a012b03          	lw	s6,416(sp)
8000c174:	19c12b83          	lw	s7,412(sp)
8000c178:	19812c03          	lw	s8,408(sp)
8000c17c:	19412c83          	lw	s9,404(sp)
8000c180:	19012d03          	lw	s10,400(sp)
8000c184:	18c12d83          	lw	s11,396(sp)
8000c188:	1c010113          	addi	sp,sp,448
8000c18c:	a3cf506f          	j	800013c8 <mm_cb>

8000c190 <barrier>:
8000c190:	0ff0000f          	fence
8000c194:	00022683          	lw	a3,0(tp) # 0 <threadsense.3598>
8000c198:	bd418713          	addi	a4,gp,-1068 # 8000fd74 <count.3597>
8000c19c:	00100613          	li	a2,1
8000c1a0:	0016b693          	seqz	a3,a3
8000c1a4:	00d22023          	sw	a3,0(tp) # 0 <threadsense.3598>
8000c1a8:	0f50000f          	fence	iorw,ow
8000c1ac:	04c726af          	amoadd.w.aq	a3,a2,(a4)
8000c1b0:	fff50513          	addi	a0,a0,-1
8000c1b4:	00a68e63          	beq	a3,a0,8000c1d0 <barrier+0x40>
8000c1b8:	00022683          	lw	a3,0(tp) # 0 <threadsense.3598>
8000c1bc:	bd018713          	addi	a4,gp,-1072 # 8000fd70 <sense.3596>
8000c1c0:	00072783          	lw	a5,0(a4)
8000c1c4:	fed79ee3          	bne	a5,a3,8000c1c0 <barrier+0x30>
8000c1c8:	0ff0000f          	fence
8000c1cc:	00008067          	ret
8000c1d0:	00022783          	lw	a5,0(tp) # 0 <threadsense.3598>
8000c1d4:	bc01aa23          	sw	zero,-1068(gp) # 8000fd74 <count.3597>
8000c1d8:	bcf1a823          	sw	a5,-1072(gp) # 8000fd70 <sense.3596>
8000c1dc:	fedff06f          	j	8000c1c8 <barrier+0x38>

8000c1e0 <thread_entry>:
8000c1e0:	f8010113          	addi	sp,sp,-128
8000c1e4:	fffff7b7          	lui	a5,0xfffff
8000c1e8:	06812c23          	sw	s0,120(sp)
8000c1ec:	06912a23          	sw	s1,116(sp)
8000c1f0:	08010413          	addi	s0,sp,128
8000c1f4:	07212823          	sw	s2,112(sp)
8000c1f8:	07412423          	sw	s4,104(sp)
8000c1fc:	07512223          	sw	s5,100(sp)
8000c200:	07612023          	sw	s6,96(sp)
8000c204:	05712e23          	sw	s7,92(sp)
8000c208:	05812c23          	sw	s8,88(sp)
8000c20c:	05912a23          	sw	s9,84(sp)
8000c210:	e0078713          	addi	a4,a5,-512 # ffffee00 <__global_pointer$+0x7ffeec60>
8000c214:	06112e23          	sw	ra,124(sp)
8000c218:	07312623          	sw	s3,108(sp)
8000c21c:	05a12823          	sw	s10,80(sp)
8000c220:	05b12623          	sw	s11,76(sp)
8000c224:	d4078793          	addi	a5,a5,-704
8000c228:	00e10133          	add	sp,sp,a4
8000c22c:	00810b13          	addi	s6,sp,8
8000c230:	00001ab7          	lui	s5,0x1
8000c234:	00f10133          	add	sp,sp,a5
8000c238:	00810713          	addi	a4,sp,8
8000c23c:	2c0a8a93          	addi	s5,s5,704 # 12c0 <buflen.2941+0x1240>
8000c240:	00f10133          	add	sp,sp,a5
8000c244:	deadccb7          	lui	s9,0xdeadc
8000c248:	fae42823          	sw	a4,-80(s0)
8000c24c:	faa42223          	sw	a0,-92(s0)
8000c250:	f8b42e23          	sw	a1,-100(s0)
8000c254:	00810c13          	addi	s8,sp,8
8000c258:	000b0b93          	mv	s7,s6
8000c25c:	0c0b0a13          	addi	s4,s6,192
8000c260:	015b0ab3          	add	s5,s6,s5
8000c264:	eefc8c93          	addi	s9,s9,-273 # deadbeef <__global_pointer$+0x5eacbd4f>
8000c268:	00000493          	li	s1,0
8000c26c:	40000937          	lui	s2,0x40000
8000c270:	f40a0d13          	addi	s10,s4,-192
8000c274:	01f49793          	slli	a5,s1,0x1f
8000c278:	001cd713          	srli	a4,s9,0x1
8000c27c:	00e7e733          	or	a4,a5,a4
8000c280:	019747b3          	xor	a5,a4,s9
8000c284:	01e79793          	slli	a5,a5,0x1e
8000c288:	00f977b3          	and	a5,s2,a5
8000c28c:	0014d493          	srli	s1,s1,0x1
8000c290:	0097e4b3          	or	s1,a5,s1
8000c294:	00070513          	mv	a0,a4
8000c298:	00048593          	mv	a1,s1
8000c29c:	00070c93          	mv	s9,a4
8000c2a0:	45c030ef          	jal	ra,8000f6fc <__floatundidf>
8000c2a4:	01f49793          	slli	a5,s1,0x1f
8000c2a8:	001cd713          	srli	a4,s9,0x1
8000c2ac:	00e7e733          	or	a4,a5,a4
8000c2b0:	019747b3          	xor	a5,a4,s9
8000c2b4:	01e79793          	slli	a5,a5,0x1e
8000c2b8:	00f977b3          	and	a5,s2,a5
8000c2bc:	0014d493          	srli	s1,s1,0x1
8000c2c0:	0097e4b3          	or	s1,a5,s1
8000c2c4:	00ad2023          	sw	a0,0(s10)
8000c2c8:	00bd2223          	sw	a1,4(s10)
8000c2cc:	00070513          	mv	a0,a4
8000c2d0:	00048593          	mv	a1,s1
8000c2d4:	00070c93          	mv	s9,a4
8000c2d8:	424030ef          	jal	ra,8000f6fc <__floatundidf>
8000c2dc:	01f49793          	slli	a5,s1,0x1f
8000c2e0:	001cd713          	srli	a4,s9,0x1
8000c2e4:	00e7e733          	or	a4,a5,a4
8000c2e8:	019747b3          	xor	a5,a4,s9
8000c2ec:	01e79793          	slli	a5,a5,0x1e
8000c2f0:	00f977b3          	and	a5,s2,a5
8000c2f4:	0014d493          	srli	s1,s1,0x1
8000c2f8:	0097e4b3          	or	s1,a5,s1
8000c2fc:	00ad2423          	sw	a0,8(s10)
8000c300:	00bd2623          	sw	a1,12(s10)
8000c304:	00070513          	mv	a0,a4
8000c308:	00048593          	mv	a1,s1
8000c30c:	00070c93          	mv	s9,a4
8000c310:	3ec030ef          	jal	ra,8000f6fc <__floatundidf>
8000c314:	01f49793          	slli	a5,s1,0x1f
8000c318:	001cd713          	srli	a4,s9,0x1
8000c31c:	00e7e733          	or	a4,a5,a4
8000c320:	019747b3          	xor	a5,a4,s9
8000c324:	01e79793          	slli	a5,a5,0x1e
8000c328:	00f977b3          	and	a5,s2,a5
8000c32c:	0014d493          	srli	s1,s1,0x1
8000c330:	00050613          	mv	a2,a0
8000c334:	00058693          	mv	a3,a1
8000c338:	0097e4b3          	or	s1,a5,s1
8000c33c:	00cd2823          	sw	a2,16(s10)
8000c340:	00dd2a23          	sw	a3,20(s10)
8000c344:	00070513          	mv	a0,a4
8000c348:	00048593          	mv	a1,s1
8000c34c:	00070c93          	mv	s9,a4
8000c350:	3ac030ef          	jal	ra,8000f6fc <__floatundidf>
8000c354:	01f49793          	slli	a5,s1,0x1f
8000c358:	001cd713          	srli	a4,s9,0x1
8000c35c:	00e7e733          	or	a4,a5,a4
8000c360:	019747b3          	xor	a5,a4,s9
8000c364:	01e79793          	slli	a5,a5,0x1e
8000c368:	00f977b3          	and	a5,s2,a5
8000c36c:	0014d493          	srli	s1,s1,0x1
8000c370:	00050613          	mv	a2,a0
8000c374:	00058693          	mv	a3,a1
8000c378:	0097e4b3          	or	s1,a5,s1
8000c37c:	00cd2c23          	sw	a2,24(s10)
8000c380:	00dd2e23          	sw	a3,28(s10)
8000c384:	00070513          	mv	a0,a4
8000c388:	00048593          	mv	a1,s1
8000c38c:	00070c93          	mv	s9,a4
8000c390:	36c030ef          	jal	ra,8000f6fc <__floatundidf>
8000c394:	01f49793          	slli	a5,s1,0x1f
8000c398:	001cd713          	srli	a4,s9,0x1
8000c39c:	00e7e733          	or	a4,a5,a4
8000c3a0:	019747b3          	xor	a5,a4,s9
8000c3a4:	01e79793          	slli	a5,a5,0x1e
8000c3a8:	00f977b3          	and	a5,s2,a5
8000c3ac:	0014d493          	srli	s1,s1,0x1
8000c3b0:	0097e4b3          	or	s1,a5,s1
8000c3b4:	02ad2023          	sw	a0,32(s10)
8000c3b8:	02bd2223          	sw	a1,36(s10)
8000c3bc:	00070513          	mv	a0,a4
8000c3c0:	00048593          	mv	a1,s1
8000c3c4:	00070c93          	mv	s9,a4
8000c3c8:	334030ef          	jal	ra,8000f6fc <__floatundidf>
8000c3cc:	008d0993          	addi	s3,s10,8
8000c3d0:	02ad2423          	sw	a0,40(s10)
8000c3d4:	02bd2623          	sw	a1,44(s10)
8000c3d8:	030d0d13          	addi	s10,s10,48
8000c3dc:	e9aa1ce3          	bne	s4,s10,8000c274 <thread_entry+0x94>
8000c3e0:	0e898a13          	addi	s4,s3,232
8000c3e4:	e95a16e3          	bne	s4,s5,8000c270 <thread_entry+0x90>
8000c3e8:	fb042783          	lw	a5,-80(s0)
8000c3ec:	00001a37          	lui	s4,0x1
8000c3f0:	388a0a13          	addi	s4,s4,904 # 1388 <buflen.2941+0x1308>
8000c3f4:	0c878993          	addi	s3,a5,200
8000c3f8:	01478a33          	add	s4,a5,s4
8000c3fc:	40000937          	lui	s2,0x40000
8000c400:	f3898a93          	addi	s5,s3,-200
8000c404:	01f49793          	slli	a5,s1,0x1f
8000c408:	001cd713          	srli	a4,s9,0x1
8000c40c:	00e7e733          	or	a4,a5,a4
8000c410:	019747b3          	xor	a5,a4,s9
8000c414:	01e79793          	slli	a5,a5,0x1e
8000c418:	00f977b3          	and	a5,s2,a5
8000c41c:	0014d493          	srli	s1,s1,0x1
8000c420:	0097e4b3          	or	s1,a5,s1
8000c424:	00070513          	mv	a0,a4
8000c428:	00048593          	mv	a1,s1
8000c42c:	00070c93          	mv	s9,a4
8000c430:	2cc030ef          	jal	ra,8000f6fc <__floatundidf>
8000c434:	01f49793          	slli	a5,s1,0x1f
8000c438:	001cd713          	srli	a4,s9,0x1
8000c43c:	00e7e733          	or	a4,a5,a4
8000c440:	019747b3          	xor	a5,a4,s9
8000c444:	01e79793          	slli	a5,a5,0x1e
8000c448:	00f977b3          	and	a5,s2,a5
8000c44c:	0014d493          	srli	s1,s1,0x1
8000c450:	0097e4b3          	or	s1,a5,s1
8000c454:	00aaa023          	sw	a0,0(s5)
8000c458:	00baa223          	sw	a1,4(s5)
8000c45c:	00070513          	mv	a0,a4
8000c460:	00048593          	mv	a1,s1
8000c464:	00070c93          	mv	s9,a4
8000c468:	294030ef          	jal	ra,8000f6fc <__floatundidf>
8000c46c:	01f49793          	slli	a5,s1,0x1f
8000c470:	001cd713          	srli	a4,s9,0x1
8000c474:	00e7e733          	or	a4,a5,a4
8000c478:	019747b3          	xor	a5,a4,s9
8000c47c:	01e79793          	slli	a5,a5,0x1e
8000c480:	00f977b3          	and	a5,s2,a5
8000c484:	0014d493          	srli	s1,s1,0x1
8000c488:	0097e4b3          	or	s1,a5,s1
8000c48c:	00aaa423          	sw	a0,8(s5)
8000c490:	00baa623          	sw	a1,12(s5)
8000c494:	00070513          	mv	a0,a4
8000c498:	00048593          	mv	a1,s1
8000c49c:	00070c93          	mv	s9,a4
8000c4a0:	25c030ef          	jal	ra,8000f6fc <__floatundidf>
8000c4a4:	01f49793          	slli	a5,s1,0x1f
8000c4a8:	001cd713          	srli	a4,s9,0x1
8000c4ac:	00e7e733          	or	a4,a5,a4
8000c4b0:	019747b3          	xor	a5,a4,s9
8000c4b4:	01e79793          	slli	a5,a5,0x1e
8000c4b8:	00f977b3          	and	a5,s2,a5
8000c4bc:	0014d493          	srli	s1,s1,0x1
8000c4c0:	00050613          	mv	a2,a0
8000c4c4:	00058693          	mv	a3,a1
8000c4c8:	0097e4b3          	or	s1,a5,s1
8000c4cc:	00caa823          	sw	a2,16(s5)
8000c4d0:	00daaa23          	sw	a3,20(s5)
8000c4d4:	00070513          	mv	a0,a4
8000c4d8:	00048593          	mv	a1,s1
8000c4dc:	00070c93          	mv	s9,a4
8000c4e0:	21c030ef          	jal	ra,8000f6fc <__floatundidf>
8000c4e4:	01f49793          	slli	a5,s1,0x1f
8000c4e8:	001cd713          	srli	a4,s9,0x1
8000c4ec:	00e7e733          	or	a4,a5,a4
8000c4f0:	019747b3          	xor	a5,a4,s9
8000c4f4:	01e79793          	slli	a5,a5,0x1e
8000c4f8:	00f977b3          	and	a5,s2,a5
8000c4fc:	0014d493          	srli	s1,s1,0x1
8000c500:	0097e4b3          	or	s1,a5,s1
8000c504:	00aaac23          	sw	a0,24(s5)
8000c508:	00baae23          	sw	a1,28(s5)
8000c50c:	00070513          	mv	a0,a4
8000c510:	00048593          	mv	a1,s1
8000c514:	00070c93          	mv	s9,a4
8000c518:	1e4030ef          	jal	ra,8000f6fc <__floatundidf>
8000c51c:	008a8d13          	addi	s10,s5,8
8000c520:	02aaa023          	sw	a0,32(s5)
8000c524:	02baa223          	sw	a1,36(s5)
8000c528:	028a8a93          	addi	s5,s5,40
8000c52c:	ed599ce3          	bne	s3,s5,8000c404 <thread_entry+0x224>
8000c530:	0e8d0993          	addi	s3,s10,232
8000c534:	ed3a16e3          	bne	s4,s3,8000c400 <thread_entry+0x220>
8000c538:	00001637          	lui	a2,0x1
8000c53c:	2c060613          	addi	a2,a2,704 # 12c0 <buflen.2941+0x1240>
8000c540:	00000593          	li	a1,0
8000c544:	000c0513          	mv	a0,s8
8000c548:	44d000ef          	jal	ra,8000d194 <memset>
8000c54c:	00800493          	li	s1,8
8000c550:	01900a13          	li	s4,25
8000c554:	b0202973          	csrr	s2,minstret
8000c558:	b00029f3          	csrr	s3,mcycle
8000c55c:	fb042783          	lw	a5,-80(s0)
8000c560:	01900813          	li	a6,25
8000c564:	01412023          	sw	s4,0(sp)
8000c568:	000c0893          	mv	a7,s8
8000c56c:	01800713          	li	a4,24
8000c570:	000b0693          	mv	a3,s6
8000c574:	01800613          	li	a2,24
8000c578:	01900593          	li	a1,25
8000c57c:	01800513          	li	a0,24
8000c580:	9c5fd0ef          	jal	ra,80009f44 <mm>
8000c584:	b0202af3          	csrr	s5,minstret
8000c588:	b00027f3          	csrr	a5,mcycle
8000c58c:	fff48493          	addi	s1,s1,-1
8000c590:	fc0492e3          	bnez	s1,8000c554 <thread_entry+0x374>
8000c594:	413789b3          	sub	s3,a5,s3
8000c598:	0ff0000f          	fence
8000c59c:	fa442483          	lw	s1,-92(s0)
8000c5a0:	01800793          	li	a5,24
8000c5a4:	01800893          	li	a7,24
8000c5a8:	01900813          	li	a6,25
8000c5ac:	00600713          	li	a4,6
8000c5b0:	00500693          	li	a3,5
8000c5b4:	00400613          	li	a2,4
8000c5b8:	00048593          	mv	a1,s1
8000c5bc:	00003517          	auipc	a0,0x3
8000c5c0:	3f450513          	addi	a0,a0,1012 # 8000f9b0 <main+0x38>
8000c5c4:	2b1000ef          	jal	ra,8000d074 <printf>
8000c5c8:	412a8633          	sub	a2,s5,s2
8000c5cc:	00048593          	mv	a1,s1
8000c5d0:	00003517          	auipc	a0,0x3
8000c5d4:	41050513          	addi	a0,a0,1040 # 8000f9e0 <main+0x68>
8000c5d8:	29d000ef          	jal	ra,8000d074 <printf>
8000c5dc:	00098613          	mv	a2,s3
8000c5e0:	00048593          	mv	a1,s1
8000c5e4:	00003517          	auipc	a0,0x3
8000c5e8:	41450513          	addi	a0,a0,1044 # 8000f9f8 <main+0x80>
8000c5ec:	289000ef          	jal	ra,8000d074 <printf>
8000c5f0:	00007637          	lui	a2,0x7
8000c5f4:	08060613          	addi	a2,a2,128 # 7080 <buflen.2941+0x7000>
8000c5f8:	00048593          	mv	a1,s1
8000c5fc:	00003517          	auipc	a0,0x3
8000c600:	40c50513          	addi	a0,a0,1036 # 8000fa08 <main+0x90>
8000c604:	271000ef          	jal	ra,8000d074 <printf>
8000c608:	01b77637          	lui	a2,0x1b77
8000c60c:	40060613          	addi	a2,a2,1024 # 1b77400 <buflen.2941+0x1b77380>
8000c610:	03365633          	divu	a2,a2,s3
8000c614:	00048593          	mv	a1,s1
8000c618:	00003517          	auipc	a0,0x3
8000c61c:	40050513          	addi	a0,a0,1024 # 8000fa18 <main+0xa0>
8000c620:	fb842623          	sw	s8,-84(s0)
8000c624:	fa042423          	sw	zero,-88(s0)
8000c628:	fffffb37          	lui	s6,0xfffff
8000c62c:	80000ab7          	lui	s5,0x80000
8000c630:	fffaca93          	not	s5,s5
8000c634:	241000ef          	jal	ra,8000d074 <printf>
8000c638:	000017b7          	lui	a5,0x1
8000c63c:	2c078793          	addi	a5,a5,704 # 12c0 <buflen.2941+0x1240>
8000c640:	faf42023          	sw	a5,-96(s0)
8000c644:	d40b0793          	addi	a5,s6,-704 # ffffed40 <__global_pointer$+0x7ffeeba0>
8000c648:	faf42a23          	sw	a5,-76(s0)
8000c64c:	fb042783          	lw	a5,-80(s0)
8000c650:	fa042703          	lw	a4,-96(s0)
8000c654:	fac42983          	lw	s3,-84(s0)
8000c658:	00000a13          	li	s4,0
8000c65c:	00e78db3          	add	s11,a5,a4
8000c660:	fb442783          	lw	a5,-76(s0)
8000c664:	000b8c93          	mv	s9,s7
8000c668:	00000c13          	li	s8,0
8000c66c:	00fd8b33          	add	s6,s11,a5
8000c670:	00000d13          	li	s10,0
8000c674:	000b2603          	lw	a2,0(s6)
8000c678:	004b2683          	lw	a3,4(s6)
8000c67c:	000ca503          	lw	a0,0(s9)
8000c680:	004ca583          	lw	a1,4(s9)
8000c684:	0c8b0493          	addi	s1,s6,200
8000c688:	040c8c93          	addi	s9,s9,64
8000c68c:	2e8020ef          	jal	ra,8000e974 <__muldf3>
8000c690:	00050613          	mv	a2,a0
8000c694:	00058693          	mv	a3,a1
8000c698:	000c0513          	mv	a0,s8
8000c69c:	000d0593          	mv	a1,s10
8000c6a0:	235010ef          	jal	ra,8000e0d4 <__adddf3>
8000c6a4:	0c8b2603          	lw	a2,200(s6)
8000c6a8:	0ccb2683          	lw	a3,204(s6)
8000c6ac:	00050c13          	mv	s8,a0
8000c6b0:	00058d13          	mv	s10,a1
8000c6b4:	fc8ca503          	lw	a0,-56(s9)
8000c6b8:	fccca583          	lw	a1,-52(s9)
8000c6bc:	2b8020ef          	jal	ra,8000e974 <__muldf3>
8000c6c0:	00050613          	mv	a2,a0
8000c6c4:	00058693          	mv	a3,a1
8000c6c8:	000c0513          	mv	a0,s8
8000c6cc:	000d0593          	mv	a1,s10
8000c6d0:	205010ef          	jal	ra,8000e0d4 <__adddf3>
8000c6d4:	190b2603          	lw	a2,400(s6)
8000c6d8:	194b2683          	lw	a3,404(s6)
8000c6dc:	00050c13          	mv	s8,a0
8000c6e0:	00058d13          	mv	s10,a1
8000c6e4:	fd0ca503          	lw	a0,-48(s9)
8000c6e8:	fd4ca583          	lw	a1,-44(s9)
8000c6ec:	57848b13          	addi	s6,s1,1400
8000c6f0:	284020ef          	jal	ra,8000e974 <__muldf3>
8000c6f4:	00050613          	mv	a2,a0
8000c6f8:	00058693          	mv	a3,a1
8000c6fc:	000c0513          	mv	a0,s8
8000c700:	000d0593          	mv	a1,s10
8000c704:	1d1010ef          	jal	ra,8000e0d4 <__adddf3>
8000c708:	1904a603          	lw	a2,400(s1)
8000c70c:	1944a683          	lw	a3,404(s1)
8000c710:	00050c13          	mv	s8,a0
8000c714:	00058d13          	mv	s10,a1
8000c718:	fd8ca503          	lw	a0,-40(s9)
8000c71c:	fdcca583          	lw	a1,-36(s9)
8000c720:	254020ef          	jal	ra,8000e974 <__muldf3>
8000c724:	00050613          	mv	a2,a0
8000c728:	00058693          	mv	a3,a1
8000c72c:	000c0513          	mv	a0,s8
8000c730:	000d0593          	mv	a1,s10
8000c734:	1a1010ef          	jal	ra,8000e0d4 <__adddf3>
8000c738:	2584a603          	lw	a2,600(s1)
8000c73c:	25c4a683          	lw	a3,604(s1)
8000c740:	00050c13          	mv	s8,a0
8000c744:	00058d13          	mv	s10,a1
8000c748:	fe0ca503          	lw	a0,-32(s9)
8000c74c:	fe4ca583          	lw	a1,-28(s9)
8000c750:	224020ef          	jal	ra,8000e974 <__muldf3>
8000c754:	00050613          	mv	a2,a0
8000c758:	00058693          	mv	a3,a1
8000c75c:	000c0513          	mv	a0,s8
8000c760:	000d0593          	mv	a1,s10
8000c764:	171010ef          	jal	ra,8000e0d4 <__adddf3>
8000c768:	3204a603          	lw	a2,800(s1)
8000c76c:	3244a683          	lw	a3,804(s1)
8000c770:	00050c13          	mv	s8,a0
8000c774:	00058d13          	mv	s10,a1
8000c778:	fe8ca503          	lw	a0,-24(s9)
8000c77c:	fecca583          	lw	a1,-20(s9)
8000c780:	1f4020ef          	jal	ra,8000e974 <__muldf3>
8000c784:	00050613          	mv	a2,a0
8000c788:	00058693          	mv	a3,a1
8000c78c:	000c0513          	mv	a0,s8
8000c790:	000d0593          	mv	a1,s10
8000c794:	141010ef          	jal	ra,8000e0d4 <__adddf3>
8000c798:	00050c13          	mv	s8,a0
8000c79c:	00058d13          	mv	s10,a1
8000c7a0:	3e84a603          	lw	a2,1000(s1)
8000c7a4:	3ec4a683          	lw	a3,1004(s1)
8000c7a8:	ff0ca503          	lw	a0,-16(s9)
8000c7ac:	ff4ca583          	lw	a1,-12(s9)
8000c7b0:	1c4020ef          	jal	ra,8000e974 <__muldf3>
8000c7b4:	00050613          	mv	a2,a0
8000c7b8:	00058693          	mv	a3,a1
8000c7bc:	000c0513          	mv	a0,s8
8000c7c0:	000d0593          	mv	a1,s10
8000c7c4:	111010ef          	jal	ra,8000e0d4 <__adddf3>
8000c7c8:	00050c13          	mv	s8,a0
8000c7cc:	00058d13          	mv	s10,a1
8000c7d0:	4b04a603          	lw	a2,1200(s1)
8000c7d4:	4b44a683          	lw	a3,1204(s1)
8000c7d8:	ff8ca503          	lw	a0,-8(s9)
8000c7dc:	ffcca583          	lw	a1,-4(s9)
8000c7e0:	194020ef          	jal	ra,8000e974 <__muldf3>
8000c7e4:	00050613          	mv	a2,a0
8000c7e8:	00058693          	mv	a3,a1
8000c7ec:	000c0513          	mv	a0,s8
8000c7f0:	000d0593          	mv	a1,s10
8000c7f4:	0e1010ef          	jal	ra,8000e0d4 <__adddf3>
8000c7f8:	00050c13          	mv	s8,a0
8000c7fc:	00058d13          	mv	s10,a1
8000c800:	e76d9ae3          	bne	s11,s6,8000c674 <thread_entry+0x494>
8000c804:	00003797          	auipc	a5,0x3
8000c808:	19c78793          	addi	a5,a5,412 # 8000f9a0 <main+0x28>
8000c80c:	0007a603          	lw	a2,0(a5)
8000c810:	0047a683          	lw	a3,4(a5)
8000c814:	160020ef          	jal	ra,8000e974 <__muldf3>
8000c818:	0009a303          	lw	t1,0(s3)
8000c81c:	0049a383          	lw	t2,4(s3)
8000c820:	00050613          	mv	a2,a0
8000c824:	00058693          	mv	a3,a1
8000c828:	00050d93          	mv	s11,a0
8000c82c:	00058913          	mv	s2,a1
8000c830:	00030513          	mv	a0,t1
8000c834:	00038593          	mv	a1,t2
8000c838:	fa642c23          	sw	t1,-72(s0)
8000c83c:	fa742e23          	sw	t2,-68(s0)
8000c840:	6f4020ef          	jal	ra,8000ef34 <__subdf3>
8000c844:	00003797          	auipc	a5,0x3
8000c848:	16478793          	addi	a5,a5,356 # 8000f9a8 <main+0x30>
8000c84c:	0007a603          	lw	a2,0(a5)
8000c850:	0047a683          	lw	a3,4(a5)
8000c854:	00050c13          	mv	s8,a0
8000c858:	00058b13          	mv	s6,a1
8000c85c:	000d8513          	mv	a0,s11
8000c860:	00090593          	mv	a1,s2
8000c864:	110020ef          	jal	ra,8000e974 <__muldf3>
8000c868:	0155f833          	and	a6,a1,s5
8000c86c:	015b7b33          	and	s6,s6,s5
8000c870:	00050613          	mv	a2,a0
8000c874:	00080693          	mv	a3,a6
8000c878:	000c0513          	mv	a0,s8
8000c87c:	000b0593          	mv	a1,s6
8000c880:	010020ef          	jal	ra,8000e890 <__gedf2>
8000c884:	fb842303          	lw	t1,-72(s0)
8000c888:	fbc42383          	lw	t2,-68(s0)
8000c88c:	04a04663          	bgtz	a0,8000c8d8 <thread_entry+0x6f8>
8000c890:	001a0a13          	addi	s4,s4,1
8000c894:	01900793          	li	a5,25
8000c898:	00898993          	addi	s3,s3,8
8000c89c:	58048d93          	addi	s11,s1,1408
8000c8a0:	dcfa10e3          	bne	s4,a5,8000c660 <thread_entry+0x480>
8000c8a4:	fa842783          	lw	a5,-88(s0)
8000c8a8:	fac42703          	lw	a4,-84(s0)
8000c8ac:	0c0b8b93          	addi	s7,s7,192
8000c8b0:	00178793          	addi	a5,a5,1
8000c8b4:	0c870713          	addi	a4,a4,200
8000c8b8:	fae42623          	sw	a4,-84(s0)
8000c8bc:	faf42423          	sw	a5,-88(s0)
8000c8c0:	01800713          	li	a4,24
8000c8c4:	d8e794e3          	bne	a5,a4,8000c64c <thread_entry+0x46c>
8000c8c8:	f9c42503          	lw	a0,-100(s0)
8000c8cc:	8c5ff0ef          	jal	ra,8000c190 <barrier>
8000c8d0:	00000513          	li	a0,0
8000c8d4:	6cc000ef          	jal	ra,8000cfa0 <exit>
8000c8d8:	fa842603          	lw	a2,-88(s0)
8000c8dc:	fa442583          	lw	a1,-92(s0)
8000c8e0:	000d8813          	mv	a6,s11
8000c8e4:	00090893          	mv	a7,s2
8000c8e8:	00030713          	mv	a4,t1
8000c8ec:	00038793          	mv	a5,t2
8000c8f0:	000a0693          	mv	a3,s4
8000c8f4:	00003517          	auipc	a0,0x3
8000c8f8:	13c50513          	addi	a0,a0,316 # 8000fa30 <main+0xb8>
8000c8fc:	778000ef          	jal	ra,8000d074 <printf>
8000c900:	00100513          	li	a0,1
8000c904:	69c000ef          	jal	ra,8000cfa0 <exit>

8000c908 <vprintfmt>:
8000c908:	eb010113          	addi	sp,sp,-336
8000c90c:	13912223          	sw	s9,292(sp)
8000c910:	40000cb7          	lui	s9,0x40000
8000c914:	fffc8793          	addi	a5,s9,-1 # 3fffffff <buflen.2941+0x3fffff7f>
8000c918:	14812423          	sw	s0,328(sp)
8000c91c:	14912223          	sw	s1,324(sp)
8000c920:	15212023          	sw	s2,320(sp)
8000c924:	13512a23          	sw	s5,308(sp)
8000c928:	14112623          	sw	ra,332(sp)
8000c92c:	13312e23          	sw	s3,316(sp)
8000c930:	13412c23          	sw	s4,312(sp)
8000c934:	13612823          	sw	s6,304(sp)
8000c938:	13712623          	sw	s7,300(sp)
8000c93c:	13812423          	sw	s8,296(sp)
8000c940:	13a12023          	sw	s10,288(sp)
8000c944:	11b12e23          	sw	s11,284(sp)
8000c948:	00050913          	mv	s2,a0
8000c94c:	00058493          	mv	s1,a1
8000c950:	00060413          	mv	s0,a2
8000c954:	00d12423          	sw	a3,8(sp)
8000c958:	02500a93          	li	s5,37
8000c95c:	00f12623          	sw	a5,12(sp)
8000c960:	0140006f          	j	8000c974 <vprintfmt+0x6c>
8000c964:	06050263          	beqz	a0,8000c9c8 <vprintfmt+0xc0>
8000c968:	00048593          	mv	a1,s1
8000c96c:	00140413          	addi	s0,s0,1
8000c970:	000900e7          	jalr	s2 # 40000000 <buflen.2941+0x3fffff80>
8000c974:	00044503          	lbu	a0,0(s0)
8000c978:	ff5516e3          	bne	a0,s5,8000c964 <vprintfmt+0x5c>
8000c97c:	00144683          	lbu	a3,1(s0)
8000c980:	00140d93          	addi	s11,s0,1
8000c984:	000d8713          	mv	a4,s11
8000c988:	02000b93          	li	s7,32
8000c98c:	fff00993          	li	s3,-1
8000c990:	fff00a13          	li	s4,-1
8000c994:	00000593          	li	a1,0
8000c998:	05500613          	li	a2,85
8000c99c:	00900513          	li	a0,9
8000c9a0:	fdd68793          	addi	a5,a3,-35
8000c9a4:	0ff7f793          	andi	a5,a5,255
8000c9a8:	00170413          	addi	s0,a4,1
8000c9ac:	06f66a63          	bltu	a2,a5,8000ca20 <vprintfmt+0x118>
8000c9b0:	8ec18813          	addi	a6,gp,-1812 # 8000fa8c <main+0x114>
8000c9b4:	00279793          	slli	a5,a5,0x2
8000c9b8:	010787b3          	add	a5,a5,a6
8000c9bc:	0007a783          	lw	a5,0(a5)
8000c9c0:	010787b3          	add	a5,a5,a6
8000c9c4:	00078067          	jr	a5
8000c9c8:	14c12083          	lw	ra,332(sp)
8000c9cc:	14812403          	lw	s0,328(sp)
8000c9d0:	14412483          	lw	s1,324(sp)
8000c9d4:	14012903          	lw	s2,320(sp)
8000c9d8:	13c12983          	lw	s3,316(sp)
8000c9dc:	13812a03          	lw	s4,312(sp)
8000c9e0:	13412a83          	lw	s5,308(sp)
8000c9e4:	13012b03          	lw	s6,304(sp)
8000c9e8:	12c12b83          	lw	s7,300(sp)
8000c9ec:	12812c03          	lw	s8,296(sp)
8000c9f0:	12412c83          	lw	s9,292(sp)
8000c9f4:	12012d03          	lw	s10,288(sp)
8000c9f8:	11c12d83          	lw	s11,284(sp)
8000c9fc:	15010113          	addi	sp,sp,336
8000ca00:	00008067          	ret
8000ca04:	00068b93          	mv	s7,a3
8000ca08:	00174683          	lbu	a3,1(a4)
8000ca0c:	00040713          	mv	a4,s0
8000ca10:	00170413          	addi	s0,a4,1
8000ca14:	fdd68793          	addi	a5,a3,-35
8000ca18:	0ff7f793          	andi	a5,a5,255
8000ca1c:	f8f67ae3          	bgeu	a2,a5,8000c9b0 <vprintfmt+0xa8>
8000ca20:	00048593          	mv	a1,s1
8000ca24:	02500513          	li	a0,37
8000ca28:	000900e7          	jalr	s2
8000ca2c:	000d8413          	mv	s0,s11
8000ca30:	f45ff06f          	j	8000c974 <vprintfmt+0x6c>
8000ca34:	00174803          	lbu	a6,1(a4)
8000ca38:	fd068993          	addi	s3,a3,-48
8000ca3c:	00040713          	mv	a4,s0
8000ca40:	fd080793          	addi	a5,a6,-48
8000ca44:	00080693          	mv	a3,a6
8000ca48:	02f56663          	bltu	a0,a5,8000ca74 <vprintfmt+0x16c>
8000ca4c:	00299793          	slli	a5,s3,0x2
8000ca50:	013789b3          	add	s3,a5,s3
8000ca54:	00170713          	addi	a4,a4,1
8000ca58:	00199993          	slli	s3,s3,0x1
8000ca5c:	010989b3          	add	s3,s3,a6
8000ca60:	00074803          	lbu	a6,0(a4)
8000ca64:	fd098993          	addi	s3,s3,-48
8000ca68:	fd080793          	addi	a5,a6,-48
8000ca6c:	00080693          	mv	a3,a6
8000ca70:	fcf57ee3          	bgeu	a0,a5,8000ca4c <vprintfmt+0x144>
8000ca74:	f20a56e3          	bgez	s4,8000c9a0 <vprintfmt+0x98>
8000ca78:	00098a13          	mv	s4,s3
8000ca7c:	fff00993          	li	s3,-1
8000ca80:	f21ff06f          	j	8000c9a0 <vprintfmt+0x98>
8000ca84:	00174683          	lbu	a3,1(a4)
8000ca88:	00040713          	mv	a4,s0
8000ca8c:	f15ff06f          	j	8000c9a0 <vprintfmt+0x98>
8000ca90:	00048593          	mv	a1,s1
8000ca94:	02500513          	li	a0,37
8000ca98:	000900e7          	jalr	s2
8000ca9c:	ed9ff06f          	j	8000c974 <vprintfmt+0x6c>
8000caa0:	00812783          	lw	a5,8(sp)
8000caa4:	00174683          	lbu	a3,1(a4)
8000caa8:	00040713          	mv	a4,s0
8000caac:	0007a983          	lw	s3,0(a5)
8000cab0:	00478793          	addi	a5,a5,4
8000cab4:	00f12423          	sw	a5,8(sp)
8000cab8:	fbdff06f          	j	8000ca74 <vprintfmt+0x16c>
8000cabc:	03000513          	li	a0,48
8000cac0:	00048593          	mv	a1,s1
8000cac4:	000900e7          	jalr	s2
8000cac8:	00048593          	mv	a1,s1
8000cacc:	07800513          	li	a0,120
8000cad0:	000900e7          	jalr	s2
8000cad4:	00812783          	lw	a5,8(sp)
8000cad8:	01000c13          	li	s8,16
8000cadc:	00012223          	sw	zero,4(sp)
8000cae0:	00478713          	addi	a4,a5,4
8000cae4:	00812783          	lw	a5,8(sp)
8000cae8:	00000d93          	li	s11,0
8000caec:	0007a983          	lw	s3,0(a5)
8000caf0:	00e12423          	sw	a4,8(sp)
8000caf4:	000c0613          	mv	a2,s8
8000caf8:	00000693          	li	a3,0
8000cafc:	00098513          	mv	a0,s3
8000cb00:	000d8593          	mv	a1,s11
8000cb04:	1c8010ef          	jal	ra,8000dccc <__umoddi3>
8000cb08:	00a12823          	sw	a0,16(sp)
8000cb0c:	00000793          	li	a5,0
8000cb10:	00050c93          	mv	s9,a0
8000cb14:	23b78063          	beq	a5,s11,8000cd34 <vprintfmt+0x42c>
8000cb18:	01410b13          	addi	s6,sp,20
8000cb1c:	00100d13          	li	s10,1
8000cb20:	000c0613          	mv	a2,s8
8000cb24:	00000693          	li	a3,0
8000cb28:	00098513          	mv	a0,s3
8000cb2c:	000d8593          	mv	a1,s11
8000cb30:	571000ef          	jal	ra,8000d8a0 <__udivdi3>
8000cb34:	000c0613          	mv	a2,s8
8000cb38:	00000693          	li	a3,0
8000cb3c:	00050993          	mv	s3,a0
8000cb40:	00058d93          	mv	s11,a1
8000cb44:	188010ef          	jal	ra,8000dccc <__umoddi3>
8000cb48:	00412783          	lw	a5,4(sp)
8000cb4c:	00ab2023          	sw	a0,0(s6)
8000cb50:	01a12023          	sw	s10,0(sp)
8000cb54:	00050c93          	mv	s9,a0
8000cb58:	004b0b13          	addi	s6,s6,4
8000cb5c:	001d0d13          	addi	s10,s10,1
8000cb60:	fdb790e3          	bne	a5,s11,8000cb20 <vprintfmt+0x218>
8000cb64:	fb89fee3          	bgeu	s3,s8,8000cb20 <vprintfmt+0x218>
8000cb68:	014d5c63          	bge	s10,s4,8000cb80 <vprintfmt+0x278>
8000cb6c:	fffa0a13          	addi	s4,s4,-1
8000cb70:	00048593          	mv	a1,s1
8000cb74:	000b8513          	mv	a0,s7
8000cb78:	000900e7          	jalr	s2
8000cb7c:	ff4d48e3          	blt	s10,s4,8000cb6c <vprintfmt+0x264>
8000cb80:	00012783          	lw	a5,0(sp)
8000cb84:	00c12703          	lw	a4,12(sp)
8000cb88:	00900993          	li	s3,9
8000cb8c:	00e78a33          	add	s4,a5,a4
8000cb90:	002a1a13          	slli	s4,s4,0x2
8000cb94:	01010793          	addi	a5,sp,16
8000cb98:	01478a33          	add	s4,a5,s4
8000cb9c:	00c0006f          	j	8000cba8 <vprintfmt+0x2a0>
8000cba0:	000a2c83          	lw	s9,0(s4)
8000cba4:	ffca0a13          	addi	s4,s4,-4
8000cba8:	0199b7b3          	sltu	a5,s3,s9
8000cbac:	40f007b3          	neg	a5,a5
8000cbb0:	0277f793          	andi	a5,a5,39
8000cbb4:	03078793          	addi	a5,a5,48
8000cbb8:	01978533          	add	a0,a5,s9
8000cbbc:	00048593          	mv	a1,s1
8000cbc0:	000900e7          	jalr	s2
8000cbc4:	00c10793          	addi	a5,sp,12
8000cbc8:	fd479ce3          	bne	a5,s4,8000cba0 <vprintfmt+0x298>
8000cbcc:	da9ff06f          	j	8000c974 <vprintfmt+0x6c>
8000cbd0:	00100793          	li	a5,1
8000cbd4:	16b7cc63          	blt	a5,a1,8000cd4c <vprintfmt+0x444>
8000cbd8:	00812703          	lw	a4,8(sp)
8000cbdc:	00470793          	addi	a5,a4,4
8000cbe0:	18058663          	beqz	a1,8000cd6c <vprintfmt+0x464>
8000cbe4:	00072983          	lw	s3,0(a4)
8000cbe8:	00f12423          	sw	a5,8(sp)
8000cbec:	41f9dc13          	srai	s8,s3,0x1f
8000cbf0:	180c4e63          	bltz	s8,8000cd8c <vprintfmt+0x484>
8000cbf4:	000c0d93          	mv	s11,s8
8000cbf8:	00012223          	sw	zero,4(sp)
8000cbfc:	00a00c13          	li	s8,10
8000cc00:	ef5ff06f          	j	8000caf4 <vprintfmt+0x1ec>
8000cc04:	01000c13          	li	s8,16
8000cc08:	00012223          	sw	zero,4(sp)
8000cc0c:	00100793          	li	a5,1
8000cc10:	10b7c263          	blt	a5,a1,8000cd14 <vprintfmt+0x40c>
8000cc14:	00812783          	lw	a5,8(sp)
8000cc18:	00478713          	addi	a4,a5,4
8000cc1c:	ec9ff06f          	j	8000cae4 <vprintfmt+0x1dc>
8000cc20:	00812783          	lw	a5,8(sp)
8000cc24:	0007ad83          	lw	s11,0(a5)
8000cc28:	00478b13          	addi	s6,a5,4
8000cc2c:	180d8463          	beqz	s11,8000cdb4 <vprintfmt+0x4ac>
8000cc30:	09405863          	blez	s4,8000ccc0 <vprintfmt+0x3b8>
8000cc34:	02d00793          	li	a5,45
8000cc38:	04fb9e63          	bne	s7,a5,8000cc94 <vprintfmt+0x38c>
8000cc3c:	000dc503          	lbu	a0,0(s11)
8000cc40:	02050863          	beqz	a0,8000cc70 <vprintfmt+0x368>
8000cc44:	fff00b93          	li	s7,-1
8000cc48:	0009c663          	bltz	s3,8000cc54 <vprintfmt+0x34c>
8000cc4c:	fff98993          	addi	s3,s3,-1
8000cc50:	01798e63          	beq	s3,s7,8000cc6c <vprintfmt+0x364>
8000cc54:	00048593          	mv	a1,s1
8000cc58:	001d8d93          	addi	s11,s11,1
8000cc5c:	000900e7          	jalr	s2
8000cc60:	000dc503          	lbu	a0,0(s11)
8000cc64:	fffa0a13          	addi	s4,s4,-1
8000cc68:	fe0510e3          	bnez	a0,8000cc48 <vprintfmt+0x340>
8000cc6c:	01405c63          	blez	s4,8000cc84 <vprintfmt+0x37c>
8000cc70:	fffa0a13          	addi	s4,s4,-1
8000cc74:	00048593          	mv	a1,s1
8000cc78:	02000513          	li	a0,32
8000cc7c:	000900e7          	jalr	s2
8000cc80:	fe0a18e3          	bnez	s4,8000cc70 <vprintfmt+0x368>
8000cc84:	01612423          	sw	s6,8(sp)
8000cc88:	cedff06f          	j	8000c974 <vprintfmt+0x6c>
8000cc8c:	00003d97          	auipc	s11,0x3
8000cc90:	dc0d8d93          	addi	s11,s11,-576 # 8000fa4c <main+0xd4>
8000cc94:	000d8793          	mv	a5,s11
8000cc98:	013d86b3          	add	a3,s11,s3
8000cc9c:	00099863          	bnez	s3,8000ccac <vprintfmt+0x3a4>
8000cca0:	1340006f          	j	8000cdd4 <vprintfmt+0x4cc>
8000cca4:	00178793          	addi	a5,a5,1
8000cca8:	00d78663          	beq	a5,a3,8000ccb4 <vprintfmt+0x3ac>
8000ccac:	0007c703          	lbu	a4,0(a5)
8000ccb0:	fe071ae3          	bnez	a4,8000cca4 <vprintfmt+0x39c>
8000ccb4:	41b787b3          	sub	a5,a5,s11
8000ccb8:	40fa0a33          	sub	s4,s4,a5
8000ccbc:	11404c63          	bgtz	s4,8000cdd4 <vprintfmt+0x4cc>
8000ccc0:	000dc503          	lbu	a0,0(s11)
8000ccc4:	fc0500e3          	beqz	a0,8000cc84 <vprintfmt+0x37c>
8000ccc8:	fff00b93          	li	s7,-1
8000cccc:	f7dff06f          	j	8000cc48 <vprintfmt+0x340>
8000ccd0:	fffa4793          	not	a5,s4
8000ccd4:	41f7d793          	srai	a5,a5,0x1f
8000ccd8:	00174683          	lbu	a3,1(a4)
8000ccdc:	00fa7a33          	and	s4,s4,a5
8000cce0:	00040713          	mv	a4,s0
8000cce4:	cbdff06f          	j	8000c9a0 <vprintfmt+0x98>
8000cce8:	00812783          	lw	a5,8(sp)
8000ccec:	00048593          	mv	a1,s1
8000ccf0:	0007a503          	lw	a0,0(a5)
8000ccf4:	00478b13          	addi	s6,a5,4
8000ccf8:	000900e7          	jalr	s2
8000ccfc:	01612423          	sw	s6,8(sp)
8000cd00:	c75ff06f          	j	8000c974 <vprintfmt+0x6c>
8000cd04:	00174683          	lbu	a3,1(a4)
8000cd08:	00158593          	addi	a1,a1,1
8000cd0c:	00040713          	mv	a4,s0
8000cd10:	c91ff06f          	j	8000c9a0 <vprintfmt+0x98>
8000cd14:	00812783          	lw	a5,8(sp)
8000cd18:	00778b13          	addi	s6,a5,7
8000cd1c:	ff8b7b13          	andi	s6,s6,-8
8000cd20:	008b0793          	addi	a5,s6,8
8000cd24:	000b2983          	lw	s3,0(s6)
8000cd28:	004b2d83          	lw	s11,4(s6)
8000cd2c:	00f12423          	sw	a5,8(sp)
8000cd30:	dc5ff06f          	j	8000caf4 <vprintfmt+0x1ec>
8000cd34:	df89f2e3          	bgeu	s3,s8,8000cb18 <vprintfmt+0x210>
8000cd38:	00100793          	li	a5,1
8000cd3c:	00012023          	sw	zero,0(sp)
8000cd40:	00100d13          	li	s10,1
8000cd44:	e347c4e3          	blt	a5,s4,8000cb6c <vprintfmt+0x264>
8000cd48:	e39ff06f          	j	8000cb80 <vprintfmt+0x278>
8000cd4c:	00812783          	lw	a5,8(sp)
8000cd50:	00778b13          	addi	s6,a5,7
8000cd54:	ff8b7b13          	andi	s6,s6,-8
8000cd58:	008b0793          	addi	a5,s6,8
8000cd5c:	000b2983          	lw	s3,0(s6)
8000cd60:	004b2c03          	lw	s8,4(s6)
8000cd64:	00f12423          	sw	a5,8(sp)
8000cd68:	e89ff06f          	j	8000cbf0 <vprintfmt+0x2e8>
8000cd6c:	00812703          	lw	a4,8(sp)
8000cd70:	e75ff06f          	j	8000cbe4 <vprintfmt+0x2dc>
8000cd74:	00800c13          	li	s8,8
8000cd78:	00012223          	sw	zero,4(sp)
8000cd7c:	e91ff06f          	j	8000cc0c <vprintfmt+0x304>
8000cd80:	00a00c13          	li	s8,10
8000cd84:	00012223          	sw	zero,4(sp)
8000cd88:	e85ff06f          	j	8000cc0c <vprintfmt+0x304>
8000cd8c:	00048593          	mv	a1,s1
8000cd90:	02d00513          	li	a0,45
8000cd94:	000900e7          	jalr	s2
8000cd98:	01303733          	snez	a4,s3
8000cd9c:	418007b3          	neg	a5,s8
8000cda0:	413009b3          	neg	s3,s3
8000cda4:	40e78db3          	sub	s11,a5,a4
8000cda8:	00a00c13          	li	s8,10
8000cdac:	00012223          	sw	zero,4(sp)
8000cdb0:	d45ff06f          	j	8000caf4 <vprintfmt+0x1ec>
8000cdb4:	01405663          	blez	s4,8000cdc0 <vprintfmt+0x4b8>
8000cdb8:	02d00793          	li	a5,45
8000cdbc:	ecfb98e3          	bne	s7,a5,8000cc8c <vprintfmt+0x384>
8000cdc0:	00003d97          	auipc	s11,0x3
8000cdc4:	c8cd8d93          	addi	s11,s11,-884 # 8000fa4c <main+0xd4>
8000cdc8:	02800513          	li	a0,40
8000cdcc:	fff00b93          	li	s7,-1
8000cdd0:	e79ff06f          	j	8000cc48 <vprintfmt+0x340>
8000cdd4:	fffa0a13          	addi	s4,s4,-1
8000cdd8:	00048593          	mv	a1,s1
8000cddc:	000b8513          	mv	a0,s7
8000cde0:	000900e7          	jalr	s2
8000cde4:	ec0a0ee3          	beqz	s4,8000ccc0 <vprintfmt+0x3b8>
8000cde8:	fffa0a13          	addi	s4,s4,-1
8000cdec:	00048593          	mv	a1,s1
8000cdf0:	000b8513          	mv	a0,s7
8000cdf4:	000900e7          	jalr	s2
8000cdf8:	fc0a1ee3          	bnez	s4,8000cdd4 <vprintfmt+0x4cc>
8000cdfc:	ec5ff06f          	j	8000ccc0 <vprintfmt+0x3b8>

8000ce00 <sprintf_putch.3055>:
8000ce00:	0005a783          	lw	a5,0(a1)
8000ce04:	00a78023          	sb	a0,0(a5)
8000ce08:	0005a783          	lw	a5,0(a1)
8000ce0c:	00178793          	addi	a5,a5,1
8000ce10:	00f5a023          	sw	a5,0(a1)
8000ce14:	00008067          	ret

8000ce18 <syscall.constprop.0>:
8000ce18:	f8010113          	addi	sp,sp,-128
8000ce1c:	03f10813          	addi	a6,sp,63
8000ce20:	fc087813          	andi	a6,a6,-64
8000ce24:	04000713          	li	a4,64
8000ce28:	00e82023          	sw	a4,0(a6)
8000ce2c:	00000793          	li	a5,0
8000ce30:	00f82223          	sw	a5,4(a6)
8000ce34:	00100713          	li	a4,1
8000ce38:	00e82423          	sw	a4,8(a6)
8000ce3c:	00000793          	li	a5,0
8000ce40:	00f82623          	sw	a5,12(a6)
8000ce44:	00a82823          	sw	a0,16(a6)
8000ce48:	00b82a23          	sw	a1,20(a6)
8000ce4c:	00c82c23          	sw	a2,24(a6)
8000ce50:	00d82e23          	sw	a3,28(a6)
8000ce54:	0ff0000f          	fence
8000ce58:	ffff4697          	auipc	a3,0xffff4
8000ce5c:	1a868693          	addi	a3,a3,424 # 80001000 <tohost>
8000ce60:	0106a023          	sw	a6,0(a3)
8000ce64:	00000793          	li	a5,0
8000ce68:	00f6a223          	sw	a5,4(a3)
8000ce6c:	ffff4697          	auipc	a3,0xffff4
8000ce70:	1d468693          	addi	a3,a3,468 # 80001040 <fromhost>
8000ce74:	0006a703          	lw	a4,0(a3)
8000ce78:	0046a783          	lw	a5,4(a3)
8000ce7c:	00f76733          	or	a4,a4,a5
8000ce80:	fe070ae3          	beqz	a4,8000ce74 <syscall.constprop.0+0x5c>
8000ce84:	00000713          	li	a4,0
8000ce88:	00e6a023          	sw	a4,0(a3)
8000ce8c:	00000793          	li	a5,0
8000ce90:	00f6a223          	sw	a5,4(a3)
8000ce94:	0ff0000f          	fence
8000ce98:	00082503          	lw	a0,0(a6)
8000ce9c:	00482583          	lw	a1,4(a6)
8000cea0:	08010113          	addi	sp,sp,128
8000cea4:	00008067          	ret

8000cea8 <putchar>:
8000cea8:	ff010113          	addi	sp,sp,-16
8000ceac:	00812423          	sw	s0,8(sp)
8000ceb0:	08022583          	lw	a1,128(tp) # 80 <buflen.2941>
8000ceb4:	04020793          	addi	a5,tp,64 # 40 <buf.2940>
8000ceb8:	00112623          	sw	ra,12(sp)
8000cebc:	00b787b3          	add	a5,a5,a1
8000cec0:	00158613          	addi	a2,a1,1
8000cec4:	00a78023          	sb	a0,0(a5)
8000cec8:	08c22023          	sw	a2,128(tp) # 80 <buflen.2941>
8000cecc:	00a00793          	li	a5,10
8000ced0:	02f50063          	beq	a0,a5,8000cef0 <putchar+0x48>
8000ced4:	04000793          	li	a5,64
8000ced8:	00f60c63          	beq	a2,a5,8000cef0 <putchar+0x48>
8000cedc:	00c12083          	lw	ra,12(sp)
8000cee0:	00812403          	lw	s0,8(sp)
8000cee4:	00000513          	li	a0,0
8000cee8:	01010113          	addi	sp,sp,16
8000ceec:	00008067          	ret
8000cef0:	41f65693          	srai	a3,a2,0x1f
8000cef4:	04020513          	addi	a0,tp,64 # 40 <buf.2940>
8000cef8:	00000593          	li	a1,0
8000cefc:	f1dff0ef          	jal	ra,8000ce18 <syscall.constprop.0>
8000cf00:	00c12083          	lw	ra,12(sp)
8000cf04:	08022023          	sw	zero,128(tp) # 80 <buflen.2941>
8000cf08:	00812403          	lw	s0,8(sp)
8000cf0c:	00000513          	li	a0,0
8000cf10:	01010113          	addi	sp,sp,16
8000cf14:	00008067          	ret

8000cf18 <setStats>:
8000cf18:	b0002773          	csrr	a4,mcycle
8000cf1c:	be018793          	addi	a5,gp,-1056 # 8000fd80 <counters>
8000cf20:	00051c63          	bnez	a0,8000cf38 <setStats+0x20>
8000cf24:	0007a683          	lw	a3,0(a5)
8000cf28:	00003617          	auipc	a2,0x3
8000cf2c:	b2c60613          	addi	a2,a2,-1236 # 8000fa54 <main+0xdc>
8000cf30:	bcc1ac23          	sw	a2,-1064(gp) # 8000fd78 <counter_names>
8000cf34:	40d70733          	sub	a4,a4,a3
8000cf38:	00e7a023          	sw	a4,0(a5)
8000cf3c:	b0202773          	csrr	a4,minstret
8000cf40:	00051c63          	bnez	a0,8000cf58 <setStats+0x40>
8000cf44:	0047a683          	lw	a3,4(a5)
8000cf48:	00003617          	auipc	a2,0x3
8000cf4c:	b1460613          	addi	a2,a2,-1260 # 8000fa5c <main+0xe4>
8000cf50:	bcc1ae23          	sw	a2,-1060(gp) # 8000fd7c <counter_names+0x4>
8000cf54:	40d70733          	sub	a4,a4,a3
8000cf58:	00e7a223          	sw	a4,4(a5)
8000cf5c:	00008067          	ret

8000cf60 <tohost_exit>:
8000cf60:	00151693          	slli	a3,a0,0x1
8000cf64:	0016e713          	ori	a4,a3,1
8000cf68:	ffff4697          	auipc	a3,0xffff4
8000cf6c:	09868693          	addi	a3,a3,152 # 80001000 <tohost>
8000cf70:	00000793          	li	a5,0
8000cf74:	00e6a023          	sw	a4,0(a3)
8000cf78:	00f6a223          	sw	a5,4(a3)
8000cf7c:	0000006f          	j	8000cf7c <tohost_exit+0x1c>

8000cf80 <handle_trap>:
8000cf80:	00001637          	lui	a2,0x1
8000cf84:	ffff4797          	auipc	a5,0xffff4
8000cf88:	07c78793          	addi	a5,a5,124 # 80001000 <tohost>
8000cf8c:	a7360613          	addi	a2,a2,-1421 # a73 <buflen.2941+0x9f3>
8000cf90:	00000693          	li	a3,0
8000cf94:	00c7a023          	sw	a2,0(a5)
8000cf98:	00d7a223          	sw	a3,4(a5)
8000cf9c:	0000006f          	j	8000cf9c <handle_trap+0x1c>

8000cfa0 <exit>:
8000cfa0:	ff010113          	addi	sp,sp,-16
8000cfa4:	00112623          	sw	ra,12(sp)
8000cfa8:	fb9ff0ef          	jal	ra,8000cf60 <tohost_exit>

8000cfac <abort>:
8000cfac:	ffff4797          	auipc	a5,0xffff4
8000cfb0:	05478793          	addi	a5,a5,84 # 80001000 <tohost>
8000cfb4:	10d00613          	li	a2,269
8000cfb8:	00000693          	li	a3,0
8000cfbc:	00c7a023          	sw	a2,0(a5)
8000cfc0:	00d7a223          	sw	a3,4(a5)
8000cfc4:	0000006f          	j	8000cfc4 <abort+0x18>

8000cfc8 <printstr>:
8000cfc8:	00054783          	lbu	a5,0(a0)
8000cfcc:	02078263          	beqz	a5,8000cff0 <printstr+0x28>
8000cfd0:	00050613          	mv	a2,a0
8000cfd4:	00164783          	lbu	a5,1(a2)
8000cfd8:	00160613          	addi	a2,a2,1
8000cfdc:	fe079ce3          	bnez	a5,8000cfd4 <printstr+0xc>
8000cfe0:	40a60633          	sub	a2,a2,a0
8000cfe4:	00000693          	li	a3,0
8000cfe8:	00000593          	li	a1,0
8000cfec:	e2dff06f          	j	8000ce18 <syscall.constprop.0>
8000cff0:	00000613          	li	a2,0
8000cff4:	00000693          	li	a3,0
8000cff8:	00000593          	li	a1,0
8000cffc:	e1dff06f          	j	8000ce18 <syscall.constprop.0>
8000d000:	00051063          	bnez	a0,8000d000 <printstr+0x38>
8000d004:	00008067          	ret

8000d008 <printhex>:
8000d008:	fd010113          	addi	sp,sp,-48
8000d00c:	00050713          	mv	a4,a0
8000d010:	02112623          	sw	ra,44(sp)
8000d014:	00c10513          	addi	a0,sp,12
8000d018:	01b10613          	addi	a2,sp,27
8000d01c:	00900813          	li	a6,9
8000d020:	0080006f          	j	8000d028 <printhex+0x20>
8000d024:	00078613          	mv	a2,a5
8000d028:	00f77793          	andi	a5,a4,15
8000d02c:	00f837b3          	sltu	a5,a6,a5
8000d030:	40f007b3          	neg	a5,a5
8000d034:	0277f793          	andi	a5,a5,39
8000d038:	00f77693          	andi	a3,a4,15
8000d03c:	03078793          	addi	a5,a5,48
8000d040:	00f687b3          	add	a5,a3,a5
8000d044:	00f60023          	sb	a5,0(a2)
8000d048:	01c59693          	slli	a3,a1,0x1c
8000d04c:	00475713          	srli	a4,a4,0x4
8000d050:	fff60793          	addi	a5,a2,-1
8000d054:	00e6e733          	or	a4,a3,a4
8000d058:	0045d593          	srli	a1,a1,0x4
8000d05c:	fcc514e3          	bne	a0,a2,8000d024 <printhex+0x1c>
8000d060:	00010e23          	sb	zero,28(sp)
8000d064:	f65ff0ef          	jal	ra,8000cfc8 <printstr>
8000d068:	02c12083          	lw	ra,44(sp)
8000d06c:	03010113          	addi	sp,sp,48
8000d070:	00008067          	ret

8000d074 <printf>:
8000d074:	fc010113          	addi	sp,sp,-64
8000d078:	02410313          	addi	t1,sp,36
8000d07c:	00050e13          	mv	t3,a0
8000d080:	02b12223          	sw	a1,36(sp)
8000d084:	02c12423          	sw	a2,40(sp)
8000d088:	02d12623          	sw	a3,44(sp)
8000d08c:	00000517          	auipc	a0,0x0
8000d090:	e1c50513          	addi	a0,a0,-484 # 8000cea8 <putchar>
8000d094:	00030693          	mv	a3,t1
8000d098:	000e0613          	mv	a2,t3
8000d09c:	00000593          	li	a1,0
8000d0a0:	00112e23          	sw	ra,28(sp)
8000d0a4:	02e12823          	sw	a4,48(sp)
8000d0a8:	02f12a23          	sw	a5,52(sp)
8000d0ac:	03012c23          	sw	a6,56(sp)
8000d0b0:	03112e23          	sw	a7,60(sp)
8000d0b4:	00612623          	sw	t1,12(sp)
8000d0b8:	851ff0ef          	jal	ra,8000c908 <vprintfmt>
8000d0bc:	01c12083          	lw	ra,28(sp)
8000d0c0:	00000513          	li	a0,0
8000d0c4:	04010113          	addi	sp,sp,64
8000d0c8:	00008067          	ret

8000d0cc <sprintf>:
8000d0cc:	fb010113          	addi	sp,sp,-80
8000d0d0:	03810313          	addi	t1,sp,56
8000d0d4:	02812423          	sw	s0,40(sp)
8000d0d8:	00a12623          	sw	a0,12(sp)
8000d0dc:	02c12c23          	sw	a2,56(sp)
8000d0e0:	02d12e23          	sw	a3,60(sp)
8000d0e4:	00050413          	mv	s0,a0
8000d0e8:	00058613          	mv	a2,a1
8000d0ec:	00000517          	auipc	a0,0x0
8000d0f0:	d1450513          	addi	a0,a0,-748 # 8000ce00 <sprintf_putch.3055>
8000d0f4:	00c10593          	addi	a1,sp,12
8000d0f8:	00030693          	mv	a3,t1
8000d0fc:	02112623          	sw	ra,44(sp)
8000d100:	04f12223          	sw	a5,68(sp)
8000d104:	04e12023          	sw	a4,64(sp)
8000d108:	05012423          	sw	a6,72(sp)
8000d10c:	05112623          	sw	a7,76(sp)
8000d110:	00612e23          	sw	t1,28(sp)
8000d114:	ff4ff0ef          	jal	ra,8000c908 <vprintfmt>
8000d118:	00c12783          	lw	a5,12(sp)
8000d11c:	00078023          	sb	zero,0(a5)
8000d120:	00c12503          	lw	a0,12(sp)
8000d124:	02c12083          	lw	ra,44(sp)
8000d128:	40850533          	sub	a0,a0,s0
8000d12c:	02812403          	lw	s0,40(sp)
8000d130:	05010113          	addi	sp,sp,80
8000d134:	00008067          	ret

8000d138 <memcpy>:
8000d138:	00c5e7b3          	or	a5,a1,a2
8000d13c:	00f567b3          	or	a5,a0,a5
8000d140:	0037f793          	andi	a5,a5,3
8000d144:	00c506b3          	add	a3,a0,a2
8000d148:	02078463          	beqz	a5,8000d170 <memcpy+0x38>
8000d14c:	00c58633          	add	a2,a1,a2
8000d150:	00050793          	mv	a5,a0
8000d154:	02d57e63          	bgeu	a0,a3,8000d190 <memcpy+0x58>
8000d158:	0005c703          	lbu	a4,0(a1)
8000d15c:	00158593          	addi	a1,a1,1
8000d160:	00178793          	addi	a5,a5,1
8000d164:	fee78fa3          	sb	a4,-1(a5)
8000d168:	feb618e3          	bne	a2,a1,8000d158 <memcpy+0x20>
8000d16c:	00008067          	ret
8000d170:	fed57ee3          	bgeu	a0,a3,8000d16c <memcpy+0x34>
8000d174:	00050793          	mv	a5,a0
8000d178:	0005a703          	lw	a4,0(a1)
8000d17c:	00478793          	addi	a5,a5,4
8000d180:	00458593          	addi	a1,a1,4
8000d184:	fee7ae23          	sw	a4,-4(a5)
8000d188:	fed7e8e3          	bltu	a5,a3,8000d178 <memcpy+0x40>
8000d18c:	00008067          	ret
8000d190:	00008067          	ret

8000d194 <memset>:
8000d194:	00c567b3          	or	a5,a0,a2
8000d198:	0037f793          	andi	a5,a5,3
8000d19c:	00c50633          	add	a2,a0,a2
8000d1a0:	02078063          	beqz	a5,8000d1c0 <memset+0x2c>
8000d1a4:	0ff5f593          	andi	a1,a1,255
8000d1a8:	00050793          	mv	a5,a0
8000d1ac:	04c57063          	bgeu	a0,a2,8000d1ec <memset+0x58>
8000d1b0:	00178793          	addi	a5,a5,1
8000d1b4:	feb78fa3          	sb	a1,-1(a5)
8000d1b8:	fef61ce3          	bne	a2,a5,8000d1b0 <memset+0x1c>
8000d1bc:	00008067          	ret
8000d1c0:	0ff5f593          	andi	a1,a1,255
8000d1c4:	00859713          	slli	a4,a1,0x8
8000d1c8:	00e5e733          	or	a4,a1,a4
8000d1cc:	01071793          	slli	a5,a4,0x10
8000d1d0:	00f76733          	or	a4,a4,a5
8000d1d4:	fec574e3          	bgeu	a0,a2,8000d1bc <memset+0x28>
8000d1d8:	00050793          	mv	a5,a0
8000d1dc:	00478793          	addi	a5,a5,4
8000d1e0:	fee7ae23          	sw	a4,-4(a5)
8000d1e4:	fec7ece3          	bltu	a5,a2,8000d1dc <memset+0x48>
8000d1e8:	00008067          	ret
8000d1ec:	00008067          	ret

8000d1f0 <_init>:
8000d1f0:	f6010113          	addi	sp,sp,-160
8000d1f4:	be818793          	addi	a5,gp,-1048 # 8000fd88 <_tdata_begin>
8000d1f8:	09412423          	sw	s4,136(sp)
8000d1fc:	be818a13          	addi	s4,gp,-1048 # 8000fd88 <_tdata_begin>
8000d200:	09312623          	sw	s3,140(sp)
8000d204:	40fa09b3          	sub	s3,s4,a5
8000d208:	08912a23          	sw	s1,148(sp)
8000d20c:	09212823          	sw	s2,144(sp)
8000d210:	00050493          	mv	s1,a0
8000d214:	00058913          	mv	s2,a1
8000d218:	00020513          	mv	a0,tp
8000d21c:	00078593          	mv	a1,a5
8000d220:	00098613          	mv	a2,s3
8000d224:	08112e23          	sw	ra,156(sp)
8000d228:	08812c23          	sw	s0,152(sp)
8000d22c:	09512223          	sw	s5,132(sp)
8000d230:	00020a93          	mv	s5,tp
8000d234:	f05ff0ef          	jal	ra,8000d138 <memcpy>
8000d238:	ca418613          	addi	a2,gp,-860 # 8000fe44 <_tbss_end>
8000d23c:	41460633          	sub	a2,a2,s4
8000d240:	00000593          	li	a1,0
8000d244:	013a8533          	add	a0,s5,s3
8000d248:	f4dff0ef          	jal	ra,8000d194 <memset>
8000d24c:	00090593          	mv	a1,s2
8000d250:	00048513          	mv	a0,s1
8000d254:	f8dfe0ef          	jal	ra,8000c1e0 <thread_entry>
8000d258:	00000593          	li	a1,0
8000d25c:	00000513          	li	a0,0
8000d260:	718020ef          	jal	ra,8000f978 <main>
8000d264:	be018913          	addi	s2,gp,-1056 # 8000fd80 <counters>
8000d268:	00092683          	lw	a3,0(s2)
8000d26c:	03f10413          	addi	s0,sp,63
8000d270:	fc047413          	andi	s0,s0,-64
8000d274:	00050493          	mv	s1,a0
8000d278:	04069263          	bnez	a3,8000d2bc <_init+0xcc>
8000d27c:	00492683          	lw	a3,4(s2)
8000d280:	00069663          	bnez	a3,8000d28c <_init+0x9c>
8000d284:	00048513          	mv	a0,s1
8000d288:	cd9ff0ef          	jal	ra,8000cf60 <tohost_exit>
8000d28c:	00040913          	mv	s2,s0
8000d290:	bd818993          	addi	s3,gp,-1064 # 8000fd78 <counter_names>
8000d294:	0049a603          	lw	a2,4(s3)
8000d298:	00090513          	mv	a0,s2
8000d29c:	00002597          	auipc	a1,0x2
8000d2a0:	7e458593          	addi	a1,a1,2020 # 8000fa80 <main+0x108>
8000d2a4:	e29ff0ef          	jal	ra,8000d0cc <sprintf>
8000d2a8:	00a90933          	add	s2,s2,a0
8000d2ac:	fd240ce3          	beq	s0,s2,8000d284 <_init+0x94>
8000d2b0:	00040513          	mv	a0,s0
8000d2b4:	d15ff0ef          	jal	ra,8000cfc8 <printstr>
8000d2b8:	fcdff06f          	j	8000d284 <_init+0x94>
8000d2bc:	bd818993          	addi	s3,gp,-1064 # 8000fd78 <counter_names>
8000d2c0:	0009a603          	lw	a2,0(s3)
8000d2c4:	00002597          	auipc	a1,0x2
8000d2c8:	7bc58593          	addi	a1,a1,1980 # 8000fa80 <main+0x108>
8000d2cc:	00040513          	mv	a0,s0
8000d2d0:	dfdff0ef          	jal	ra,8000d0cc <sprintf>
8000d2d4:	00492683          	lw	a3,4(s2)
8000d2d8:	00a40933          	add	s2,s0,a0
8000d2dc:	fc0688e3          	beqz	a3,8000d2ac <_init+0xbc>
8000d2e0:	fb5ff06f          	j	8000d294 <_init+0xa4>

8000d2e4 <strlen>:
8000d2e4:	00054783          	lbu	a5,0(a0)
8000d2e8:	00078e63          	beqz	a5,8000d304 <strlen+0x20>
8000d2ec:	00050793          	mv	a5,a0
8000d2f0:	0017c703          	lbu	a4,1(a5)
8000d2f4:	00178793          	addi	a5,a5,1
8000d2f8:	fe071ce3          	bnez	a4,8000d2f0 <strlen+0xc>
8000d2fc:	40a78533          	sub	a0,a5,a0
8000d300:	00008067          	ret
8000d304:	00000513          	li	a0,0
8000d308:	00008067          	ret

8000d30c <strnlen>:
8000d30c:	00050613          	mv	a2,a0
8000d310:	00b606b3          	add	a3,a2,a1
8000d314:	00058513          	mv	a0,a1
8000d318:	00060793          	mv	a5,a2
8000d31c:	00059863          	bnez	a1,8000d32c <strnlen+0x20>
8000d320:	01c0006f          	j	8000d33c <strnlen+0x30>
8000d324:	00178793          	addi	a5,a5,1
8000d328:	00f68863          	beq	a3,a5,8000d338 <strnlen+0x2c>
8000d32c:	0007c703          	lbu	a4,0(a5)
8000d330:	fe071ae3          	bnez	a4,8000d324 <strnlen+0x18>
8000d334:	40c78533          	sub	a0,a5,a2
8000d338:	00008067          	ret
8000d33c:	00008067          	ret

8000d340 <strcmp>:
8000d340:	00054783          	lbu	a5,0(a0)
8000d344:	00158593          	addi	a1,a1,1
8000d348:	00150513          	addi	a0,a0,1
8000d34c:	fff5c703          	lbu	a4,-1(a1)
8000d350:	00078863          	beqz	a5,8000d360 <strcmp+0x20>
8000d354:	fee786e3          	beq	a5,a4,8000d340 <strcmp>
8000d358:	40e78533          	sub	a0,a5,a4
8000d35c:	00008067          	ret
8000d360:	00000793          	li	a5,0
8000d364:	ff5ff06f          	j	8000d358 <strcmp+0x18>

8000d368 <strcpy>:
8000d368:	00050793          	mv	a5,a0
8000d36c:	0005c703          	lbu	a4,0(a1)
8000d370:	00178793          	addi	a5,a5,1
8000d374:	00158593          	addi	a1,a1,1
8000d378:	fee78fa3          	sb	a4,-1(a5)
8000d37c:	fe0718e3          	bnez	a4,8000d36c <strcpy+0x4>
8000d380:	00008067          	ret

8000d384 <atol>:
8000d384:	00054703          	lbu	a4,0(a0)
8000d388:	02000693          	li	a3,32
8000d38c:	00050793          	mv	a5,a0
8000d390:	00d71863          	bne	a4,a3,8000d3a0 <atol+0x1c>
8000d394:	0017c703          	lbu	a4,1(a5)
8000d398:	00178793          	addi	a5,a5,1
8000d39c:	fed70ce3          	beq	a4,a3,8000d394 <atol+0x10>
8000d3a0:	02d00693          	li	a3,45
8000d3a4:	06d70063          	beq	a4,a3,8000d404 <atol+0x80>
8000d3a8:	02b00693          	li	a3,43
8000d3ac:	04d70063          	beq	a4,a3,8000d3ec <atol+0x68>
8000d3b0:	0007c683          	lbu	a3,0(a5)
8000d3b4:	00000593          	li	a1,0
8000d3b8:	04068263          	beqz	a3,8000d3fc <atol+0x78>
8000d3bc:	00000513          	li	a0,0
8000d3c0:	00178793          	addi	a5,a5,1
8000d3c4:	fd068613          	addi	a2,a3,-48
8000d3c8:	00251713          	slli	a4,a0,0x2
8000d3cc:	0007c683          	lbu	a3,0(a5)
8000d3d0:	00a70533          	add	a0,a4,a0
8000d3d4:	00151513          	slli	a0,a0,0x1
8000d3d8:	00a60533          	add	a0,a2,a0
8000d3dc:	fe0692e3          	bnez	a3,8000d3c0 <atol+0x3c>
8000d3e0:	02058063          	beqz	a1,8000d400 <atol+0x7c>
8000d3e4:	40a00533          	neg	a0,a0
8000d3e8:	00008067          	ret
8000d3ec:	0017c683          	lbu	a3,1(a5)
8000d3f0:	00000593          	li	a1,0
8000d3f4:	00178793          	addi	a5,a5,1
8000d3f8:	fc0692e3          	bnez	a3,8000d3bc <atol+0x38>
8000d3fc:	00000513          	li	a0,0
8000d400:	00008067          	ret
8000d404:	0017c683          	lbu	a3,1(a5)
8000d408:	00100593          	li	a1,1
8000d40c:	00178793          	addi	a5,a5,1
8000d410:	fa0696e3          	bnez	a3,8000d3bc <atol+0x38>
8000d414:	00000513          	li	a0,0
8000d418:	fe9ff06f          	j	8000d400 <atol+0x7c>

8000d41c <fma>:
8000d41c:	ff010113          	addi	sp,sp,-16
8000d420:	00112623          	sw	ra,12(sp)
8000d424:	00812423          	sw	s0,8(sp)
8000d428:	00912223          	sw	s1,4(sp)
8000d42c:	00078413          	mv	s0,a5
8000d430:	00070493          	mv	s1,a4
8000d434:	540010ef          	jal	ra,8000e974 <__muldf3>
8000d438:	00048613          	mv	a2,s1
8000d43c:	00040693          	mv	a3,s0
8000d440:	495000ef          	jal	ra,8000e0d4 <__adddf3>
8000d444:	00c12083          	lw	ra,12(sp)
8000d448:	00812403          	lw	s0,8(sp)
8000d44c:	00412483          	lw	s1,4(sp)
8000d450:	01010113          	addi	sp,sp,16
8000d454:	00008067          	ret

8000d458 <__moddi3>:
8000d458:	00058f13          	mv	t5,a1
8000d45c:	00000813          	li	a6,0
8000d460:	0005dc63          	bgez	a1,8000d478 <__moddi3+0x20>
8000d464:	00a037b3          	snez	a5,a0
8000d468:	40b005b3          	neg	a1,a1
8000d46c:	40f58f33          	sub	t5,a1,a5
8000d470:	40a00533          	neg	a0,a0
8000d474:	fff00813          	li	a6,-1
8000d478:	0006da63          	bgez	a3,8000d48c <__moddi3+0x34>
8000d47c:	00c035b3          	snez	a1,a2
8000d480:	40d00733          	neg	a4,a3
8000d484:	40b706b3          	sub	a3,a4,a1
8000d488:	40c00633          	neg	a2,a2
8000d48c:	00060893          	mv	a7,a2
8000d490:	00068713          	mv	a4,a3
8000d494:	00050793          	mv	a5,a0
8000d498:	000f0593          	mv	a1,t5
8000d49c:	24069263          	bnez	a3,8000d6e0 <__moddi3+0x288>
8000d4a0:	a8018693          	addi	a3,gp,-1408 # 8000fc20 <__clz_tab>
8000d4a4:	0ecf7663          	bgeu	t5,a2,8000d590 <__moddi3+0x138>
8000d4a8:	00010337          	lui	t1,0x10
8000d4ac:	0c667863          	bgeu	a2,t1,8000d57c <__moddi3+0x124>
8000d4b0:	0ff00313          	li	t1,255
8000d4b4:	00c37463          	bgeu	t1,a2,8000d4bc <__moddi3+0x64>
8000d4b8:	00800713          	li	a4,8
8000d4bc:	00e65333          	srl	t1,a2,a4
8000d4c0:	006686b3          	add	a3,a3,t1
8000d4c4:	0006ce03          	lbu	t3,0(a3)
8000d4c8:	00ee0e33          	add	t3,t3,a4
8000d4cc:	02000713          	li	a4,32
8000d4d0:	41c70333          	sub	t1,a4,t3
8000d4d4:	01c70c63          	beq	a4,t3,8000d4ec <__moddi3+0x94>
8000d4d8:	006f15b3          	sll	a1,t5,t1
8000d4dc:	01c55e33          	srl	t3,a0,t3
8000d4e0:	006618b3          	sll	a7,a2,t1
8000d4e4:	00be65b3          	or	a1,t3,a1
8000d4e8:	006517b3          	sll	a5,a0,t1
8000d4ec:	0108d613          	srli	a2,a7,0x10
8000d4f0:	02c5f6b3          	remu	a3,a1,a2
8000d4f4:	01089513          	slli	a0,a7,0x10
8000d4f8:	01055513          	srli	a0,a0,0x10
8000d4fc:	0107d713          	srli	a4,a5,0x10
8000d500:	02c5d5b3          	divu	a1,a1,a2
8000d504:	01069693          	slli	a3,a3,0x10
8000d508:	00e6e733          	or	a4,a3,a4
8000d50c:	02b505b3          	mul	a1,a0,a1
8000d510:	00b77a63          	bgeu	a4,a1,8000d524 <__moddi3+0xcc>
8000d514:	01170733          	add	a4,a4,a7
8000d518:	01176663          	bltu	a4,a7,8000d524 <__moddi3+0xcc>
8000d51c:	00b77463          	bgeu	a4,a1,8000d524 <__moddi3+0xcc>
8000d520:	01170733          	add	a4,a4,a7
8000d524:	40b70733          	sub	a4,a4,a1
8000d528:	02c776b3          	remu	a3,a4,a2
8000d52c:	01079793          	slli	a5,a5,0x10
8000d530:	0107d793          	srli	a5,a5,0x10
8000d534:	02c75733          	divu	a4,a4,a2
8000d538:	02e50733          	mul	a4,a0,a4
8000d53c:	01069513          	slli	a0,a3,0x10
8000d540:	00f567b3          	or	a5,a0,a5
8000d544:	00e7fa63          	bgeu	a5,a4,8000d558 <__moddi3+0x100>
8000d548:	011787b3          	add	a5,a5,a7
8000d54c:	0117e663          	bltu	a5,a7,8000d558 <__moddi3+0x100>
8000d550:	00e7f463          	bgeu	a5,a4,8000d558 <__moddi3+0x100>
8000d554:	011787b3          	add	a5,a5,a7
8000d558:	40e787b3          	sub	a5,a5,a4
8000d55c:	0067d533          	srl	a0,a5,t1
8000d560:	00000593          	li	a1,0
8000d564:	00080a63          	beqz	a6,8000d578 <__moddi3+0x120>
8000d568:	00a037b3          	snez	a5,a0
8000d56c:	40b006b3          	neg	a3,a1
8000d570:	40f685b3          	sub	a1,a3,a5
8000d574:	40a00533          	neg	a0,a0
8000d578:	00008067          	ret
8000d57c:	01000337          	lui	t1,0x1000
8000d580:	01000713          	li	a4,16
8000d584:	f2666ce3          	bltu	a2,t1,8000d4bc <__moddi3+0x64>
8000d588:	01800713          	li	a4,24
8000d58c:	f31ff06f          	j	8000d4bc <__moddi3+0x64>
8000d590:	00061663          	bnez	a2,8000d59c <__moddi3+0x144>
8000d594:	00100893          	li	a7,1
8000d598:	02e8d8b3          	divu	a7,a7,a4
8000d59c:	00010637          	lui	a2,0x10
8000d5a0:	12c8f663          	bgeu	a7,a2,8000d6cc <__moddi3+0x274>
8000d5a4:	0ff00613          	li	a2,255
8000d5a8:	01167463          	bgeu	a2,a7,8000d5b0 <__moddi3+0x158>
8000d5ac:	00800713          	li	a4,8
8000d5b0:	00e8d633          	srl	a2,a7,a4
8000d5b4:	00c686b3          	add	a3,a3,a2
8000d5b8:	0006ce03          	lbu	t3,0(a3)
8000d5bc:	411f05b3          	sub	a1,t5,a7
8000d5c0:	00ee0e33          	add	t3,t3,a4
8000d5c4:	02000713          	li	a4,32
8000d5c8:	41c70333          	sub	t1,a4,t3
8000d5cc:	09c70663          	beq	a4,t3,8000d658 <__moddi3+0x200>
8000d5d0:	006898b3          	sll	a7,a7,t1
8000d5d4:	01cf5eb3          	srl	t4,t5,t3
8000d5d8:	006517b3          	sll	a5,a0,t1
8000d5dc:	01c55e33          	srl	t3,a0,t3
8000d5e0:	0108d513          	srli	a0,a7,0x10
8000d5e4:	006f15b3          	sll	a1,t5,t1
8000d5e8:	00be6e33          	or	t3,t3,a1
8000d5ec:	01089593          	slli	a1,a7,0x10
8000d5f0:	0105d593          	srli	a1,a1,0x10
8000d5f4:	010e5613          	srli	a2,t3,0x10
8000d5f8:	02aed6b3          	divu	a3,t4,a0
8000d5fc:	02aef733          	remu	a4,t4,a0
8000d600:	02d586b3          	mul	a3,a1,a3
8000d604:	01071713          	slli	a4,a4,0x10
8000d608:	00c76733          	or	a4,a4,a2
8000d60c:	00d77a63          	bgeu	a4,a3,8000d620 <__moddi3+0x1c8>
8000d610:	01170733          	add	a4,a4,a7
8000d614:	01176663          	bltu	a4,a7,8000d620 <__moddi3+0x1c8>
8000d618:	00d77463          	bgeu	a4,a3,8000d620 <__moddi3+0x1c8>
8000d61c:	01170733          	add	a4,a4,a7
8000d620:	40d70633          	sub	a2,a4,a3
8000d624:	02a67733          	remu	a4,a2,a0
8000d628:	010e1e13          	slli	t3,t3,0x10
8000d62c:	010e5e13          	srli	t3,t3,0x10
8000d630:	02a65633          	divu	a2,a2,a0
8000d634:	01071713          	slli	a4,a4,0x10
8000d638:	02c58633          	mul	a2,a1,a2
8000d63c:	01c765b3          	or	a1,a4,t3
8000d640:	00c5fa63          	bgeu	a1,a2,8000d654 <__moddi3+0x1fc>
8000d644:	011585b3          	add	a1,a1,a7
8000d648:	0115e663          	bltu	a1,a7,8000d654 <__moddi3+0x1fc>
8000d64c:	00c5f463          	bgeu	a1,a2,8000d654 <__moddi3+0x1fc>
8000d650:	011585b3          	add	a1,a1,a7
8000d654:	40c585b3          	sub	a1,a1,a2
8000d658:	0108d693          	srli	a3,a7,0x10
8000d65c:	02d5f733          	remu	a4,a1,a3
8000d660:	01089513          	slli	a0,a7,0x10
8000d664:	01055513          	srli	a0,a0,0x10
8000d668:	0107d613          	srli	a2,a5,0x10
8000d66c:	02d5d5b3          	divu	a1,a1,a3
8000d670:	01071713          	slli	a4,a4,0x10
8000d674:	00c76733          	or	a4,a4,a2
8000d678:	02b505b3          	mul	a1,a0,a1
8000d67c:	00b77a63          	bgeu	a4,a1,8000d690 <__moddi3+0x238>
8000d680:	01170733          	add	a4,a4,a7
8000d684:	01176663          	bltu	a4,a7,8000d690 <__moddi3+0x238>
8000d688:	00b77463          	bgeu	a4,a1,8000d690 <__moddi3+0x238>
8000d68c:	01170733          	add	a4,a4,a7
8000d690:	40b705b3          	sub	a1,a4,a1
8000d694:	02d5f733          	remu	a4,a1,a3
8000d698:	01079793          	slli	a5,a5,0x10
8000d69c:	0107d793          	srli	a5,a5,0x10
8000d6a0:	02d5d5b3          	divu	a1,a1,a3
8000d6a4:	02b505b3          	mul	a1,a0,a1
8000d6a8:	01071513          	slli	a0,a4,0x10
8000d6ac:	00f567b3          	or	a5,a0,a5
8000d6b0:	00b7fa63          	bgeu	a5,a1,8000d6c4 <__moddi3+0x26c>
8000d6b4:	011787b3          	add	a5,a5,a7
8000d6b8:	0117e663          	bltu	a5,a7,8000d6c4 <__moddi3+0x26c>
8000d6bc:	00b7f463          	bgeu	a5,a1,8000d6c4 <__moddi3+0x26c>
8000d6c0:	011787b3          	add	a5,a5,a7
8000d6c4:	40b787b3          	sub	a5,a5,a1
8000d6c8:	e95ff06f          	j	8000d55c <__moddi3+0x104>
8000d6cc:	01000637          	lui	a2,0x1000
8000d6d0:	01000713          	li	a4,16
8000d6d4:	ecc8eee3          	bltu	a7,a2,8000d5b0 <__moddi3+0x158>
8000d6d8:	01800713          	li	a4,24
8000d6dc:	ed5ff06f          	j	8000d5b0 <__moddi3+0x158>
8000d6e0:	e8df62e3          	bltu	t5,a3,8000d564 <__moddi3+0x10c>
8000d6e4:	00010737          	lui	a4,0x10
8000d6e8:	04e6f863          	bgeu	a3,a4,8000d738 <__moddi3+0x2e0>
8000d6ec:	0ff00e93          	li	t4,255
8000d6f0:	00deb733          	sltu	a4,t4,a3
8000d6f4:	00371713          	slli	a4,a4,0x3
8000d6f8:	00e6d333          	srl	t1,a3,a4
8000d6fc:	a8018893          	addi	a7,gp,-1408 # 8000fc20 <__clz_tab>
8000d700:	006888b3          	add	a7,a7,t1
8000d704:	0008ce83          	lbu	t4,0(a7)
8000d708:	00ee8eb3          	add	t4,t4,a4
8000d70c:	02000713          	li	a4,32
8000d710:	41d70e33          	sub	t3,a4,t4
8000d714:	03d71c63          	bne	a4,t4,8000d74c <__moddi3+0x2f4>
8000d718:	01e6e463          	bltu	a3,t5,8000d720 <__moddi3+0x2c8>
8000d71c:	00c56a63          	bltu	a0,a2,8000d730 <__moddi3+0x2d8>
8000d720:	40c507b3          	sub	a5,a0,a2
8000d724:	40df05b3          	sub	a1,t5,a3
8000d728:	00f53533          	sltu	a0,a0,a5
8000d72c:	40a585b3          	sub	a1,a1,a0
8000d730:	00078513          	mv	a0,a5
8000d734:	e31ff06f          	j	8000d564 <__moddi3+0x10c>
8000d738:	010008b7          	lui	a7,0x1000
8000d73c:	01000713          	li	a4,16
8000d740:	fb16ece3          	bltu	a3,a7,8000d6f8 <__moddi3+0x2a0>
8000d744:	01800713          	li	a4,24
8000d748:	fb1ff06f          	j	8000d6f8 <__moddi3+0x2a0>
8000d74c:	01d65733          	srl	a4,a2,t4
8000d750:	01c696b3          	sll	a3,a3,t3
8000d754:	00d76fb3          	or	t6,a4,a3
8000d758:	01df57b3          	srl	a5,t5,t4
8000d75c:	010fd713          	srli	a4,t6,0x10
8000d760:	02e7f333          	remu	t1,a5,a4
8000d764:	01cf15b3          	sll	a1,t5,t3
8000d768:	01d556b3          	srl	a3,a0,t4
8000d76c:	00b6e6b3          	or	a3,a3,a1
8000d770:	010f9593          	slli	a1,t6,0x10
8000d774:	0105d593          	srli	a1,a1,0x10
8000d778:	0106d893          	srli	a7,a3,0x10
8000d77c:	01c61633          	sll	a2,a2,t3
8000d780:	01c51533          	sll	a0,a0,t3
8000d784:	02e7d7b3          	divu	a5,a5,a4
8000d788:	01031313          	slli	t1,t1,0x10
8000d78c:	011368b3          	or	a7,t1,a7
8000d790:	02f58f33          	mul	t5,a1,a5
8000d794:	00078313          	mv	t1,a5
8000d798:	01e8fe63          	bgeu	a7,t5,8000d7b4 <__moddi3+0x35c>
8000d79c:	01f888b3          	add	a7,a7,t6
8000d7a0:	fff78313          	addi	t1,a5,-1
8000d7a4:	01f8e863          	bltu	a7,t6,8000d7b4 <__moddi3+0x35c>
8000d7a8:	01e8f663          	bgeu	a7,t5,8000d7b4 <__moddi3+0x35c>
8000d7ac:	ffe78313          	addi	t1,a5,-2
8000d7b0:	01f888b3          	add	a7,a7,t6
8000d7b4:	41e888b3          	sub	a7,a7,t5
8000d7b8:	02e8ff33          	remu	t5,a7,a4
8000d7bc:	01069693          	slli	a3,a3,0x10
8000d7c0:	0106d693          	srli	a3,a3,0x10
8000d7c4:	02e8d8b3          	divu	a7,a7,a4
8000d7c8:	010f1f13          	slli	t5,t5,0x10
8000d7cc:	00df6f33          	or	t5,t5,a3
8000d7d0:	031585b3          	mul	a1,a1,a7
8000d7d4:	00088793          	mv	a5,a7
8000d7d8:	00bf7e63          	bgeu	t5,a1,8000d7f4 <__moddi3+0x39c>
8000d7dc:	01ff0f33          	add	t5,t5,t6
8000d7e0:	fff88793          	addi	a5,a7,-1 # ffffff <buflen.2941+0xffff7f>
8000d7e4:	01ff6863          	bltu	t5,t6,8000d7f4 <__moddi3+0x39c>
8000d7e8:	00bf7663          	bgeu	t5,a1,8000d7f4 <__moddi3+0x39c>
8000d7ec:	ffe88793          	addi	a5,a7,-2
8000d7f0:	01ff0f33          	add	t5,t5,t6
8000d7f4:	40bf05b3          	sub	a1,t5,a1
8000d7f8:	01031313          	slli	t1,t1,0x10
8000d7fc:	00010f37          	lui	t5,0x10
8000d800:	00f36333          	or	t1,t1,a5
8000d804:	ffff0793          	addi	a5,t5,-1 # ffff <buflen.2941+0xff7f>
8000d808:	00f378b3          	and	a7,t1,a5
8000d80c:	01065693          	srli	a3,a2,0x10
8000d810:	01035313          	srli	t1,t1,0x10
8000d814:	00f677b3          	and	a5,a2,a5
8000d818:	02f88733          	mul	a4,a7,a5
8000d81c:	02f307b3          	mul	a5,t1,a5
8000d820:	02d888b3          	mul	a7,a7,a3
8000d824:	02d30333          	mul	t1,t1,a3
8000d828:	00f888b3          	add	a7,a7,a5
8000d82c:	01075693          	srli	a3,a4,0x10
8000d830:	011686b3          	add	a3,a3,a7
8000d834:	00f6f463          	bgeu	a3,a5,8000d83c <__moddi3+0x3e4>
8000d838:	01e30333          	add	t1,t1,t5
8000d83c:	0106d793          	srli	a5,a3,0x10
8000d840:	00678333          	add	t1,a5,t1
8000d844:	000107b7          	lui	a5,0x10
8000d848:	fff78793          	addi	a5,a5,-1 # ffff <buflen.2941+0xff7f>
8000d84c:	00f6f6b3          	and	a3,a3,a5
8000d850:	01069693          	slli	a3,a3,0x10
8000d854:	00f77733          	and	a4,a4,a5
8000d858:	00e68733          	add	a4,a3,a4
8000d85c:	0065e663          	bltu	a1,t1,8000d868 <__moddi3+0x410>
8000d860:	00659e63          	bne	a1,t1,8000d87c <__moddi3+0x424>
8000d864:	00e57c63          	bgeu	a0,a4,8000d87c <__moddi3+0x424>
8000d868:	40c70633          	sub	a2,a4,a2
8000d86c:	00c73733          	sltu	a4,a4,a2
8000d870:	01f70733          	add	a4,a4,t6
8000d874:	40e30333          	sub	t1,t1,a4
8000d878:	00060713          	mv	a4,a2
8000d87c:	40e50733          	sub	a4,a0,a4
8000d880:	00e53533          	sltu	a0,a0,a4
8000d884:	406585b3          	sub	a1,a1,t1
8000d888:	40a585b3          	sub	a1,a1,a0
8000d88c:	01d597b3          	sll	a5,a1,t4
8000d890:	01c75733          	srl	a4,a4,t3
8000d894:	00e7e533          	or	a0,a5,a4
8000d898:	01c5d5b3          	srl	a1,a1,t3
8000d89c:	cc9ff06f          	j	8000d564 <__moddi3+0x10c>

8000d8a0 <__udivdi3>:
8000d8a0:	00050893          	mv	a7,a0
8000d8a4:	00058793          	mv	a5,a1
8000d8a8:	00060813          	mv	a6,a2
8000d8ac:	00068513          	mv	a0,a3
8000d8b0:	00088313          	mv	t1,a7
8000d8b4:	28069263          	bnez	a3,8000db38 <__udivdi3+0x298>
8000d8b8:	a8018693          	addi	a3,gp,-1408 # 8000fc20 <__clz_tab>
8000d8bc:	0ec5f663          	bgeu	a1,a2,8000d9a8 <__udivdi3+0x108>
8000d8c0:	00010737          	lui	a4,0x10
8000d8c4:	0ce67863          	bgeu	a2,a4,8000d994 <__udivdi3+0xf4>
8000d8c8:	0ff00713          	li	a4,255
8000d8cc:	00c73733          	sltu	a4,a4,a2
8000d8d0:	00371713          	slli	a4,a4,0x3
8000d8d4:	00e65533          	srl	a0,a2,a4
8000d8d8:	00a686b3          	add	a3,a3,a0
8000d8dc:	0006c683          	lbu	a3,0(a3)
8000d8e0:	02000513          	li	a0,32
8000d8e4:	00e68733          	add	a4,a3,a4
8000d8e8:	40e506b3          	sub	a3,a0,a4
8000d8ec:	00e50c63          	beq	a0,a4,8000d904 <__udivdi3+0x64>
8000d8f0:	00d797b3          	sll	a5,a5,a3
8000d8f4:	00e8d733          	srl	a4,a7,a4
8000d8f8:	00d61833          	sll	a6,a2,a3
8000d8fc:	00f765b3          	or	a1,a4,a5
8000d900:	00d89333          	sll	t1,a7,a3
8000d904:	01085893          	srli	a7,a6,0x10
8000d908:	0315d7b3          	divu	a5,a1,a7
8000d90c:	01081613          	slli	a2,a6,0x10
8000d910:	01065613          	srli	a2,a2,0x10
8000d914:	01035713          	srli	a4,t1,0x10
8000d918:	0315f6b3          	remu	a3,a1,a7
8000d91c:	00078513          	mv	a0,a5
8000d920:	02f605b3          	mul	a1,a2,a5
8000d924:	01069693          	slli	a3,a3,0x10
8000d928:	00e6e733          	or	a4,a3,a4
8000d92c:	00b77e63          	bgeu	a4,a1,8000d948 <__udivdi3+0xa8>
8000d930:	01070733          	add	a4,a4,a6
8000d934:	fff78513          	addi	a0,a5,-1
8000d938:	01076863          	bltu	a4,a6,8000d948 <__udivdi3+0xa8>
8000d93c:	00b77663          	bgeu	a4,a1,8000d948 <__udivdi3+0xa8>
8000d940:	ffe78513          	addi	a0,a5,-2
8000d944:	01070733          	add	a4,a4,a6
8000d948:	40b70733          	sub	a4,a4,a1
8000d94c:	031777b3          	remu	a5,a4,a7
8000d950:	01031313          	slli	t1,t1,0x10
8000d954:	01035313          	srli	t1,t1,0x10
8000d958:	03175733          	divu	a4,a4,a7
8000d95c:	01079793          	slli	a5,a5,0x10
8000d960:	0067e333          	or	t1,a5,t1
8000d964:	02e606b3          	mul	a3,a2,a4
8000d968:	00070613          	mv	a2,a4
8000d96c:	00d37c63          	bgeu	t1,a3,8000d984 <__udivdi3+0xe4>
8000d970:	00680333          	add	t1,a6,t1
8000d974:	fff70613          	addi	a2,a4,-1 # ffff <buflen.2941+0xff7f>
8000d978:	01036663          	bltu	t1,a6,8000d984 <__udivdi3+0xe4>
8000d97c:	00d37463          	bgeu	t1,a3,8000d984 <__udivdi3+0xe4>
8000d980:	ffe70613          	addi	a2,a4,-2
8000d984:	01051513          	slli	a0,a0,0x10
8000d988:	00c56533          	or	a0,a0,a2
8000d98c:	00000593          	li	a1,0
8000d990:	0e40006f          	j	8000da74 <__udivdi3+0x1d4>
8000d994:	01000537          	lui	a0,0x1000
8000d998:	01000713          	li	a4,16
8000d99c:	f2a66ce3          	bltu	a2,a0,8000d8d4 <__udivdi3+0x34>
8000d9a0:	01800713          	li	a4,24
8000d9a4:	f31ff06f          	j	8000d8d4 <__udivdi3+0x34>
8000d9a8:	00061663          	bnez	a2,8000d9b4 <__udivdi3+0x114>
8000d9ac:	00100713          	li	a4,1
8000d9b0:	02c75833          	divu	a6,a4,a2
8000d9b4:	00010737          	lui	a4,0x10
8000d9b8:	0ce87063          	bgeu	a6,a4,8000da78 <__udivdi3+0x1d8>
8000d9bc:	0ff00713          	li	a4,255
8000d9c0:	01077463          	bgeu	a4,a6,8000d9c8 <__udivdi3+0x128>
8000d9c4:	00800513          	li	a0,8
8000d9c8:	00a85733          	srl	a4,a6,a0
8000d9cc:	00e686b3          	add	a3,a3,a4
8000d9d0:	0006c703          	lbu	a4,0(a3)
8000d9d4:	02000613          	li	a2,32
8000d9d8:	00a70733          	add	a4,a4,a0
8000d9dc:	40e606b3          	sub	a3,a2,a4
8000d9e0:	0ae61663          	bne	a2,a4,8000da8c <__udivdi3+0x1ec>
8000d9e4:	410787b3          	sub	a5,a5,a6
8000d9e8:	00100593          	li	a1,1
8000d9ec:	01085893          	srli	a7,a6,0x10
8000d9f0:	01081613          	slli	a2,a6,0x10
8000d9f4:	01065613          	srli	a2,a2,0x10
8000d9f8:	01035713          	srli	a4,t1,0x10
8000d9fc:	0317f6b3          	remu	a3,a5,a7
8000da00:	0317d7b3          	divu	a5,a5,a7
8000da04:	01069693          	slli	a3,a3,0x10
8000da08:	00e6e733          	or	a4,a3,a4
8000da0c:	02f60e33          	mul	t3,a2,a5
8000da10:	00078513          	mv	a0,a5
8000da14:	01c77e63          	bgeu	a4,t3,8000da30 <__udivdi3+0x190>
8000da18:	01070733          	add	a4,a4,a6
8000da1c:	fff78513          	addi	a0,a5,-1
8000da20:	01076863          	bltu	a4,a6,8000da30 <__udivdi3+0x190>
8000da24:	01c77663          	bgeu	a4,t3,8000da30 <__udivdi3+0x190>
8000da28:	ffe78513          	addi	a0,a5,-2
8000da2c:	01070733          	add	a4,a4,a6
8000da30:	41c70733          	sub	a4,a4,t3
8000da34:	031777b3          	remu	a5,a4,a7
8000da38:	01031313          	slli	t1,t1,0x10
8000da3c:	01035313          	srli	t1,t1,0x10
8000da40:	03175733          	divu	a4,a4,a7
8000da44:	01079793          	slli	a5,a5,0x10
8000da48:	0067e333          	or	t1,a5,t1
8000da4c:	02e606b3          	mul	a3,a2,a4
8000da50:	00070613          	mv	a2,a4
8000da54:	00d37c63          	bgeu	t1,a3,8000da6c <__udivdi3+0x1cc>
8000da58:	00680333          	add	t1,a6,t1
8000da5c:	fff70613          	addi	a2,a4,-1 # ffff <buflen.2941+0xff7f>
8000da60:	01036663          	bltu	t1,a6,8000da6c <__udivdi3+0x1cc>
8000da64:	00d37463          	bgeu	t1,a3,8000da6c <__udivdi3+0x1cc>
8000da68:	ffe70613          	addi	a2,a4,-2
8000da6c:	01051513          	slli	a0,a0,0x10
8000da70:	00c56533          	or	a0,a0,a2
8000da74:	00008067          	ret
8000da78:	01000737          	lui	a4,0x1000
8000da7c:	01000513          	li	a0,16
8000da80:	f4e864e3          	bltu	a6,a4,8000d9c8 <__udivdi3+0x128>
8000da84:	01800513          	li	a0,24
8000da88:	f41ff06f          	j	8000d9c8 <__udivdi3+0x128>
8000da8c:	00d81833          	sll	a6,a6,a3
8000da90:	00e7d5b3          	srl	a1,a5,a4
8000da94:	00d89333          	sll	t1,a7,a3
8000da98:	00d797b3          	sll	a5,a5,a3
8000da9c:	00e8d733          	srl	a4,a7,a4
8000daa0:	01085893          	srli	a7,a6,0x10
8000daa4:	00f76633          	or	a2,a4,a5
8000daa8:	0315f733          	remu	a4,a1,a7
8000daac:	01081793          	slli	a5,a6,0x10
8000dab0:	0107d793          	srli	a5,a5,0x10
8000dab4:	01065513          	srli	a0,a2,0x10
8000dab8:	0315d5b3          	divu	a1,a1,a7
8000dabc:	01071713          	slli	a4,a4,0x10
8000dac0:	00a76733          	or	a4,a4,a0
8000dac4:	02b786b3          	mul	a3,a5,a1
8000dac8:	00058513          	mv	a0,a1
8000dacc:	00d77e63          	bgeu	a4,a3,8000dae8 <__udivdi3+0x248>
8000dad0:	01070733          	add	a4,a4,a6
8000dad4:	fff58513          	addi	a0,a1,-1
8000dad8:	01076863          	bltu	a4,a6,8000dae8 <__udivdi3+0x248>
8000dadc:	00d77663          	bgeu	a4,a3,8000dae8 <__udivdi3+0x248>
8000dae0:	ffe58513          	addi	a0,a1,-2
8000dae4:	01070733          	add	a4,a4,a6
8000dae8:	40d706b3          	sub	a3,a4,a3
8000daec:	0316f733          	remu	a4,a3,a7
8000daf0:	01061613          	slli	a2,a2,0x10
8000daf4:	01065613          	srli	a2,a2,0x10
8000daf8:	0316d6b3          	divu	a3,a3,a7
8000dafc:	01071713          	slli	a4,a4,0x10
8000db00:	02d788b3          	mul	a7,a5,a3
8000db04:	00c767b3          	or	a5,a4,a2
8000db08:	00068713          	mv	a4,a3
8000db0c:	0117fe63          	bgeu	a5,a7,8000db28 <__udivdi3+0x288>
8000db10:	010787b3          	add	a5,a5,a6
8000db14:	fff68713          	addi	a4,a3,-1
8000db18:	0107e863          	bltu	a5,a6,8000db28 <__udivdi3+0x288>
8000db1c:	0117f663          	bgeu	a5,a7,8000db28 <__udivdi3+0x288>
8000db20:	ffe68713          	addi	a4,a3,-2
8000db24:	010787b3          	add	a5,a5,a6
8000db28:	01051593          	slli	a1,a0,0x10
8000db2c:	411787b3          	sub	a5,a5,a7
8000db30:	00e5e5b3          	or	a1,a1,a4
8000db34:	eb9ff06f          	j	8000d9ec <__udivdi3+0x14c>
8000db38:	18d5e463          	bltu	a1,a3,8000dcc0 <__udivdi3+0x420>
8000db3c:	00010737          	lui	a4,0x10
8000db40:	04e6f263          	bgeu	a3,a4,8000db84 <__udivdi3+0x2e4>
8000db44:	0ff00713          	li	a4,255
8000db48:	00d735b3          	sltu	a1,a4,a3
8000db4c:	00359593          	slli	a1,a1,0x3
8000db50:	00b6d533          	srl	a0,a3,a1
8000db54:	a8018713          	addi	a4,gp,-1408 # 8000fc20 <__clz_tab>
8000db58:	00a70733          	add	a4,a4,a0
8000db5c:	00074703          	lbu	a4,0(a4) # 10000 <buflen.2941+0xff80>
8000db60:	02000513          	li	a0,32
8000db64:	00b70733          	add	a4,a4,a1
8000db68:	40e505b3          	sub	a1,a0,a4
8000db6c:	02e51663          	bne	a0,a4,8000db98 <__udivdi3+0x2f8>
8000db70:	00100513          	li	a0,1
8000db74:	f0f6e0e3          	bltu	a3,a5,8000da74 <__udivdi3+0x1d4>
8000db78:	00c8b533          	sltu	a0,a7,a2
8000db7c:	00154513          	xori	a0,a0,1
8000db80:	ef5ff06f          	j	8000da74 <__udivdi3+0x1d4>
8000db84:	01000737          	lui	a4,0x1000
8000db88:	01000593          	li	a1,16
8000db8c:	fce6e2e3          	bltu	a3,a4,8000db50 <__udivdi3+0x2b0>
8000db90:	01800593          	li	a1,24
8000db94:	fbdff06f          	j	8000db50 <__udivdi3+0x2b0>
8000db98:	00e65333          	srl	t1,a2,a4
8000db9c:	00b696b3          	sll	a3,a3,a1
8000dba0:	00d36333          	or	t1,t1,a3
8000dba4:	01035513          	srli	a0,t1,0x10
8000dba8:	00b61eb3          	sll	t4,a2,a1
8000dbac:	00e7d633          	srl	a2,a5,a4
8000dbb0:	02a676b3          	remu	a3,a2,a0
8000dbb4:	00b797b3          	sll	a5,a5,a1
8000dbb8:	00e8d733          	srl	a4,a7,a4
8000dbbc:	00f76833          	or	a6,a4,a5
8000dbc0:	01031793          	slli	a5,t1,0x10
8000dbc4:	0107d793          	srli	a5,a5,0x10
8000dbc8:	01085713          	srli	a4,a6,0x10
8000dbcc:	02a65633          	divu	a2,a2,a0
8000dbd0:	01069693          	slli	a3,a3,0x10
8000dbd4:	00e6e733          	or	a4,a3,a4
8000dbd8:	02c78f33          	mul	t5,a5,a2
8000dbdc:	00060e13          	mv	t3,a2
8000dbe0:	01e77e63          	bgeu	a4,t5,8000dbfc <__udivdi3+0x35c>
8000dbe4:	00670733          	add	a4,a4,t1
8000dbe8:	fff60e13          	addi	t3,a2,-1 # ffffff <buflen.2941+0xffff7f>
8000dbec:	00676863          	bltu	a4,t1,8000dbfc <__udivdi3+0x35c>
8000dbf0:	01e77663          	bgeu	a4,t5,8000dbfc <__udivdi3+0x35c>
8000dbf4:	ffe60e13          	addi	t3,a2,-2
8000dbf8:	00670733          	add	a4,a4,t1
8000dbfc:	41e70733          	sub	a4,a4,t5
8000dc00:	02a776b3          	remu	a3,a4,a0
8000dc04:	02a75733          	divu	a4,a4,a0
8000dc08:	01069693          	slli	a3,a3,0x10
8000dc0c:	02e78633          	mul	a2,a5,a4
8000dc10:	01081793          	slli	a5,a6,0x10
8000dc14:	0107d793          	srli	a5,a5,0x10
8000dc18:	00f6e7b3          	or	a5,a3,a5
8000dc1c:	00070693          	mv	a3,a4
8000dc20:	00c7fe63          	bgeu	a5,a2,8000dc3c <__udivdi3+0x39c>
8000dc24:	006787b3          	add	a5,a5,t1
8000dc28:	fff70693          	addi	a3,a4,-1 # ffffff <buflen.2941+0xffff7f>
8000dc2c:	0067e863          	bltu	a5,t1,8000dc3c <__udivdi3+0x39c>
8000dc30:	00c7f663          	bgeu	a5,a2,8000dc3c <__udivdi3+0x39c>
8000dc34:	ffe70693          	addi	a3,a4,-2
8000dc38:	006787b3          	add	a5,a5,t1
8000dc3c:	010e1513          	slli	a0,t3,0x10
8000dc40:	00010e37          	lui	t3,0x10
8000dc44:	00d56533          	or	a0,a0,a3
8000dc48:	fffe0693          	addi	a3,t3,-1 # ffff <buflen.2941+0xff7f>
8000dc4c:	00d57833          	and	a6,a0,a3
8000dc50:	40c787b3          	sub	a5,a5,a2
8000dc54:	00def6b3          	and	a3,t4,a3
8000dc58:	01055613          	srli	a2,a0,0x10
8000dc5c:	010ede93          	srli	t4,t4,0x10
8000dc60:	02d80333          	mul	t1,a6,a3
8000dc64:	02d606b3          	mul	a3,a2,a3
8000dc68:	01035713          	srli	a4,t1,0x10
8000dc6c:	03d80833          	mul	a6,a6,t4
8000dc70:	00d80833          	add	a6,a6,a3
8000dc74:	01070733          	add	a4,a4,a6
8000dc78:	03d60633          	mul	a2,a2,t4
8000dc7c:	00d77463          	bgeu	a4,a3,8000dc84 <__udivdi3+0x3e4>
8000dc80:	01c60633          	add	a2,a2,t3
8000dc84:	01075693          	srli	a3,a4,0x10
8000dc88:	00c68633          	add	a2,a3,a2
8000dc8c:	02c7e663          	bltu	a5,a2,8000dcb8 <__udivdi3+0x418>
8000dc90:	cec79ee3          	bne	a5,a2,8000d98c <__udivdi3+0xec>
8000dc94:	000107b7          	lui	a5,0x10
8000dc98:	fff78793          	addi	a5,a5,-1 # ffff <buflen.2941+0xff7f>
8000dc9c:	00f77733          	and	a4,a4,a5
8000dca0:	01071713          	slli	a4,a4,0x10
8000dca4:	00f37333          	and	t1,t1,a5
8000dca8:	00b898b3          	sll	a7,a7,a1
8000dcac:	00670733          	add	a4,a4,t1
8000dcb0:	00000593          	li	a1,0
8000dcb4:	dce8f0e3          	bgeu	a7,a4,8000da74 <__udivdi3+0x1d4>
8000dcb8:	fff50513          	addi	a0,a0,-1 # ffffff <buflen.2941+0xffff7f>
8000dcbc:	cd1ff06f          	j	8000d98c <__udivdi3+0xec>
8000dcc0:	00000593          	li	a1,0
8000dcc4:	00000513          	li	a0,0
8000dcc8:	dadff06f          	j	8000da74 <__udivdi3+0x1d4>

8000dccc <__umoddi3>:
8000dccc:	00060893          	mv	a7,a2
8000dcd0:	00068713          	mv	a4,a3
8000dcd4:	00050793          	mv	a5,a0
8000dcd8:	00058813          	mv	a6,a1
8000dcdc:	22069a63          	bnez	a3,8000df10 <__umoddi3+0x244>
8000dce0:	a8018693          	addi	a3,gp,-1408 # 8000fc20 <__clz_tab>
8000dce4:	0cc5fc63          	bgeu	a1,a2,8000ddbc <__umoddi3+0xf0>
8000dce8:	00010337          	lui	t1,0x10
8000dcec:	0a667e63          	bgeu	a2,t1,8000dda8 <__umoddi3+0xdc>
8000dcf0:	0ff00313          	li	t1,255
8000dcf4:	00c37463          	bgeu	t1,a2,8000dcfc <__umoddi3+0x30>
8000dcf8:	00800713          	li	a4,8
8000dcfc:	00e65333          	srl	t1,a2,a4
8000dd00:	006686b3          	add	a3,a3,t1
8000dd04:	0006ce03          	lbu	t3,0(a3)
8000dd08:	00ee0e33          	add	t3,t3,a4
8000dd0c:	02000713          	li	a4,32
8000dd10:	41c70333          	sub	t1,a4,t3
8000dd14:	01c70c63          	beq	a4,t3,8000dd2c <__umoddi3+0x60>
8000dd18:	006595b3          	sll	a1,a1,t1
8000dd1c:	01c55e33          	srl	t3,a0,t3
8000dd20:	006618b3          	sll	a7,a2,t1
8000dd24:	00be6833          	or	a6,t3,a1
8000dd28:	006517b3          	sll	a5,a0,t1
8000dd2c:	0108d613          	srli	a2,a7,0x10
8000dd30:	02c87733          	remu	a4,a6,a2
8000dd34:	01089513          	slli	a0,a7,0x10
8000dd38:	01055513          	srli	a0,a0,0x10
8000dd3c:	0107d693          	srli	a3,a5,0x10
8000dd40:	02c85833          	divu	a6,a6,a2
8000dd44:	01071713          	slli	a4,a4,0x10
8000dd48:	00d766b3          	or	a3,a4,a3
8000dd4c:	03050833          	mul	a6,a0,a6
8000dd50:	0106fa63          	bgeu	a3,a6,8000dd64 <__umoddi3+0x98>
8000dd54:	011686b3          	add	a3,a3,a7
8000dd58:	0116e663          	bltu	a3,a7,8000dd64 <__umoddi3+0x98>
8000dd5c:	0106f463          	bgeu	a3,a6,8000dd64 <__umoddi3+0x98>
8000dd60:	011686b3          	add	a3,a3,a7
8000dd64:	410686b3          	sub	a3,a3,a6
8000dd68:	02c6f733          	remu	a4,a3,a2
8000dd6c:	01079793          	slli	a5,a5,0x10
8000dd70:	0107d793          	srli	a5,a5,0x10
8000dd74:	02c6d6b3          	divu	a3,a3,a2
8000dd78:	02d506b3          	mul	a3,a0,a3
8000dd7c:	01071513          	slli	a0,a4,0x10
8000dd80:	00f567b3          	or	a5,a0,a5
8000dd84:	00d7fa63          	bgeu	a5,a3,8000dd98 <__umoddi3+0xcc>
8000dd88:	011787b3          	add	a5,a5,a7
8000dd8c:	0117e663          	bltu	a5,a7,8000dd98 <__umoddi3+0xcc>
8000dd90:	00d7f463          	bgeu	a5,a3,8000dd98 <__umoddi3+0xcc>
8000dd94:	011787b3          	add	a5,a5,a7
8000dd98:	40d787b3          	sub	a5,a5,a3
8000dd9c:	0067d533          	srl	a0,a5,t1
8000dda0:	00000593          	li	a1,0
8000dda4:	00008067          	ret
8000dda8:	01000337          	lui	t1,0x1000
8000ddac:	01000713          	li	a4,16
8000ddb0:	f46666e3          	bltu	a2,t1,8000dcfc <__umoddi3+0x30>
8000ddb4:	01800713          	li	a4,24
8000ddb8:	f45ff06f          	j	8000dcfc <__umoddi3+0x30>
8000ddbc:	00061663          	bnez	a2,8000ddc8 <__umoddi3+0xfc>
8000ddc0:	00100613          	li	a2,1
8000ddc4:	031658b3          	divu	a7,a2,a7
8000ddc8:	00010637          	lui	a2,0x10
8000ddcc:	0ac8f263          	bgeu	a7,a2,8000de70 <__umoddi3+0x1a4>
8000ddd0:	0ff00613          	li	a2,255
8000ddd4:	01167463          	bgeu	a2,a7,8000dddc <__umoddi3+0x110>
8000ddd8:	00800713          	li	a4,8
8000dddc:	00e8d633          	srl	a2,a7,a4
8000dde0:	00c686b3          	add	a3,a3,a2
8000dde4:	0006ce03          	lbu	t3,0(a3)
8000dde8:	00ee0e33          	add	t3,t3,a4
8000ddec:	02000713          	li	a4,32
8000ddf0:	41c70333          	sub	t1,a4,t3
8000ddf4:	09c71863          	bne	a4,t3,8000de84 <__umoddi3+0x1b8>
8000ddf8:	411585b3          	sub	a1,a1,a7
8000ddfc:	0108d713          	srli	a4,a7,0x10
8000de00:	01089513          	slli	a0,a7,0x10
8000de04:	01055513          	srli	a0,a0,0x10
8000de08:	0107d613          	srli	a2,a5,0x10
8000de0c:	02e5f6b3          	remu	a3,a1,a4
8000de10:	02e5d5b3          	divu	a1,a1,a4
8000de14:	01069693          	slli	a3,a3,0x10
8000de18:	00c6e6b3          	or	a3,a3,a2
8000de1c:	02b505b3          	mul	a1,a0,a1
8000de20:	00b6fa63          	bgeu	a3,a1,8000de34 <__umoddi3+0x168>
8000de24:	011686b3          	add	a3,a3,a7
8000de28:	0116e663          	bltu	a3,a7,8000de34 <__umoddi3+0x168>
8000de2c:	00b6f463          	bgeu	a3,a1,8000de34 <__umoddi3+0x168>
8000de30:	011686b3          	add	a3,a3,a7
8000de34:	40b685b3          	sub	a1,a3,a1
8000de38:	02e5f6b3          	remu	a3,a1,a4
8000de3c:	01079793          	slli	a5,a5,0x10
8000de40:	0107d793          	srli	a5,a5,0x10
8000de44:	02e5d5b3          	divu	a1,a1,a4
8000de48:	02b505b3          	mul	a1,a0,a1
8000de4c:	01069513          	slli	a0,a3,0x10
8000de50:	00f567b3          	or	a5,a0,a5
8000de54:	00b7fa63          	bgeu	a5,a1,8000de68 <__umoddi3+0x19c>
8000de58:	011787b3          	add	a5,a5,a7
8000de5c:	0117e663          	bltu	a5,a7,8000de68 <__umoddi3+0x19c>
8000de60:	00b7f463          	bgeu	a5,a1,8000de68 <__umoddi3+0x19c>
8000de64:	011787b3          	add	a5,a5,a7
8000de68:	40b787b3          	sub	a5,a5,a1
8000de6c:	f31ff06f          	j	8000dd9c <__umoddi3+0xd0>
8000de70:	01000637          	lui	a2,0x1000
8000de74:	01000713          	li	a4,16
8000de78:	f6c8e2e3          	bltu	a7,a2,8000dddc <__umoddi3+0x110>
8000de7c:	01800713          	li	a4,24
8000de80:	f5dff06f          	j	8000dddc <__umoddi3+0x110>
8000de84:	006898b3          	sll	a7,a7,t1
8000de88:	01c5d733          	srl	a4,a1,t3
8000de8c:	006517b3          	sll	a5,a0,t1
8000de90:	01c55e33          	srl	t3,a0,t3
8000de94:	0108d513          	srli	a0,a7,0x10
8000de98:	02a776b3          	remu	a3,a4,a0
8000de9c:	006595b3          	sll	a1,a1,t1
8000dea0:	00be6e33          	or	t3,t3,a1
8000dea4:	01089593          	slli	a1,a7,0x10
8000dea8:	0105d593          	srli	a1,a1,0x10
8000deac:	010e5613          	srli	a2,t3,0x10
8000deb0:	02a75733          	divu	a4,a4,a0
8000deb4:	01069693          	slli	a3,a3,0x10
8000deb8:	00c6e6b3          	or	a3,a3,a2
8000debc:	02e58733          	mul	a4,a1,a4
8000dec0:	00e6fa63          	bgeu	a3,a4,8000ded4 <__umoddi3+0x208>
8000dec4:	011686b3          	add	a3,a3,a7
8000dec8:	0116e663          	bltu	a3,a7,8000ded4 <__umoddi3+0x208>
8000decc:	00e6f463          	bgeu	a3,a4,8000ded4 <__umoddi3+0x208>
8000ded0:	011686b3          	add	a3,a3,a7
8000ded4:	40e68633          	sub	a2,a3,a4
8000ded8:	02a676b3          	remu	a3,a2,a0
8000dedc:	010e1e13          	slli	t3,t3,0x10
8000dee0:	010e5e13          	srli	t3,t3,0x10
8000dee4:	02a65633          	divu	a2,a2,a0
8000dee8:	01069693          	slli	a3,a3,0x10
8000deec:	02c58633          	mul	a2,a1,a2
8000def0:	01c6e5b3          	or	a1,a3,t3
8000def4:	00c5fa63          	bgeu	a1,a2,8000df08 <__umoddi3+0x23c>
8000def8:	011585b3          	add	a1,a1,a7
8000defc:	0115e663          	bltu	a1,a7,8000df08 <__umoddi3+0x23c>
8000df00:	00c5f463          	bgeu	a1,a2,8000df08 <__umoddi3+0x23c>
8000df04:	011585b3          	add	a1,a1,a7
8000df08:	40c585b3          	sub	a1,a1,a2
8000df0c:	ef1ff06f          	j	8000ddfc <__umoddi3+0x130>
8000df10:	e8d5eae3          	bltu	a1,a3,8000dda4 <__umoddi3+0xd8>
8000df14:	00010737          	lui	a4,0x10
8000df18:	04e6fa63          	bgeu	a3,a4,8000df6c <__umoddi3+0x2a0>
8000df1c:	0ff00e13          	li	t3,255
8000df20:	00de3733          	sltu	a4,t3,a3
8000df24:	00371713          	slli	a4,a4,0x3
8000df28:	00e6d333          	srl	t1,a3,a4
8000df2c:	a8018893          	addi	a7,gp,-1408 # 8000fc20 <__clz_tab>
8000df30:	006888b3          	add	a7,a7,t1
8000df34:	0008ce03          	lbu	t3,0(a7)
8000df38:	00ee0e33          	add	t3,t3,a4
8000df3c:	02000713          	li	a4,32
8000df40:	41c70333          	sub	t1,a4,t3
8000df44:	03c71e63          	bne	a4,t3,8000df80 <__umoddi3+0x2b4>
8000df48:	00b6e463          	bltu	a3,a1,8000df50 <__umoddi3+0x284>
8000df4c:	00c56a63          	bltu	a0,a2,8000df60 <__umoddi3+0x294>
8000df50:	40c507b3          	sub	a5,a0,a2
8000df54:	40d585b3          	sub	a1,a1,a3
8000df58:	00f53533          	sltu	a0,a0,a5
8000df5c:	40a58833          	sub	a6,a1,a0
8000df60:	00078513          	mv	a0,a5
8000df64:	00080593          	mv	a1,a6
8000df68:	e3dff06f          	j	8000dda4 <__umoddi3+0xd8>
8000df6c:	010008b7          	lui	a7,0x1000
8000df70:	01000713          	li	a4,16
8000df74:	fb16eae3          	bltu	a3,a7,8000df28 <__umoddi3+0x25c>
8000df78:	01800713          	li	a4,24
8000df7c:	fadff06f          	j	8000df28 <__umoddi3+0x25c>
8000df80:	01c65733          	srl	a4,a2,t3
8000df84:	006696b3          	sll	a3,a3,t1
8000df88:	00d76f33          	or	t5,a4,a3
8000df8c:	01c5d7b3          	srl	a5,a1,t3
8000df90:	010f5713          	srli	a4,t5,0x10
8000df94:	02e7f8b3          	remu	a7,a5,a4
8000df98:	006595b3          	sll	a1,a1,t1
8000df9c:	01c55833          	srl	a6,a0,t3
8000dfa0:	00b86833          	or	a6,a6,a1
8000dfa4:	010f1593          	slli	a1,t5,0x10
8000dfa8:	0105d593          	srli	a1,a1,0x10
8000dfac:	01085693          	srli	a3,a6,0x10
8000dfb0:	00661633          	sll	a2,a2,t1
8000dfb4:	00651533          	sll	a0,a0,t1
8000dfb8:	02e7d7b3          	divu	a5,a5,a4
8000dfbc:	01089893          	slli	a7,a7,0x10
8000dfc0:	00d8e6b3          	or	a3,a7,a3
8000dfc4:	02f58eb3          	mul	t4,a1,a5
8000dfc8:	00078893          	mv	a7,a5
8000dfcc:	01d6fe63          	bgeu	a3,t4,8000dfe8 <__umoddi3+0x31c>
8000dfd0:	01e686b3          	add	a3,a3,t5
8000dfd4:	fff78893          	addi	a7,a5,-1
8000dfd8:	01e6e863          	bltu	a3,t5,8000dfe8 <__umoddi3+0x31c>
8000dfdc:	01d6f663          	bgeu	a3,t4,8000dfe8 <__umoddi3+0x31c>
8000dfe0:	ffe78893          	addi	a7,a5,-2
8000dfe4:	01e686b3          	add	a3,a3,t5
8000dfe8:	41d686b3          	sub	a3,a3,t4
8000dfec:	02e6feb3          	remu	t4,a3,a4
8000dff0:	01081813          	slli	a6,a6,0x10
8000dff4:	01085813          	srli	a6,a6,0x10
8000dff8:	02e6d6b3          	divu	a3,a3,a4
8000dffc:	010e9e93          	slli	t4,t4,0x10
8000e000:	010eeeb3          	or	t4,t4,a6
8000e004:	02d585b3          	mul	a1,a1,a3
8000e008:	00068793          	mv	a5,a3
8000e00c:	00befe63          	bgeu	t4,a1,8000e028 <__umoddi3+0x35c>
8000e010:	01ee8eb3          	add	t4,t4,t5
8000e014:	fff68793          	addi	a5,a3,-1
8000e018:	01eee863          	bltu	t4,t5,8000e028 <__umoddi3+0x35c>
8000e01c:	00bef663          	bgeu	t4,a1,8000e028 <__umoddi3+0x35c>
8000e020:	ffe68793          	addi	a5,a3,-2
8000e024:	01ee8eb3          	add	t4,t4,t5
8000e028:	40be85b3          	sub	a1,t4,a1
8000e02c:	01089893          	slli	a7,a7,0x10
8000e030:	00010eb7          	lui	t4,0x10
8000e034:	00f8e8b3          	or	a7,a7,a5
8000e038:	fffe8793          	addi	a5,t4,-1 # ffff <buflen.2941+0xff7f>
8000e03c:	00f8f833          	and	a6,a7,a5
8000e040:	01065693          	srli	a3,a2,0x10
8000e044:	0108d893          	srli	a7,a7,0x10
8000e048:	00f677b3          	and	a5,a2,a5
8000e04c:	02f80733          	mul	a4,a6,a5
8000e050:	02f887b3          	mul	a5,a7,a5
8000e054:	02d80833          	mul	a6,a6,a3
8000e058:	02d888b3          	mul	a7,a7,a3
8000e05c:	00f80833          	add	a6,a6,a5
8000e060:	01075693          	srli	a3,a4,0x10
8000e064:	010686b3          	add	a3,a3,a6
8000e068:	00f6f463          	bgeu	a3,a5,8000e070 <__umoddi3+0x3a4>
8000e06c:	01d888b3          	add	a7,a7,t4
8000e070:	000107b7          	lui	a5,0x10
8000e074:	fff78793          	addi	a5,a5,-1 # ffff <buflen.2941+0xff7f>
8000e078:	0106d813          	srli	a6,a3,0x10
8000e07c:	00f6f6b3          	and	a3,a3,a5
8000e080:	01069693          	slli	a3,a3,0x10
8000e084:	00f77733          	and	a4,a4,a5
8000e088:	011808b3          	add	a7,a6,a7
8000e08c:	00e68733          	add	a4,a3,a4
8000e090:	0115e663          	bltu	a1,a7,8000e09c <__umoddi3+0x3d0>
8000e094:	01159e63          	bne	a1,a7,8000e0b0 <__umoddi3+0x3e4>
8000e098:	00e57c63          	bgeu	a0,a4,8000e0b0 <__umoddi3+0x3e4>
8000e09c:	40c70633          	sub	a2,a4,a2
8000e0a0:	00c73733          	sltu	a4,a4,a2
8000e0a4:	01e70733          	add	a4,a4,t5
8000e0a8:	40e888b3          	sub	a7,a7,a4
8000e0ac:	00060713          	mv	a4,a2
8000e0b0:	40e50733          	sub	a4,a0,a4
8000e0b4:	00e53533          	sltu	a0,a0,a4
8000e0b8:	411585b3          	sub	a1,a1,a7
8000e0bc:	40a585b3          	sub	a1,a1,a0
8000e0c0:	01c597b3          	sll	a5,a1,t3
8000e0c4:	00675733          	srl	a4,a4,t1
8000e0c8:	00e7e533          	or	a0,a5,a4
8000e0cc:	0065d5b3          	srl	a1,a1,t1
8000e0d0:	cd5ff06f          	j	8000dda4 <__umoddi3+0xd8>

8000e0d4 <__adddf3>:
8000e0d4:	00100837          	lui	a6,0x100
8000e0d8:	fff80813          	addi	a6,a6,-1 # fffff <buflen.2941+0xfff7f>
8000e0dc:	fe010113          	addi	sp,sp,-32
8000e0e0:	00b877b3          	and	a5,a6,a1
8000e0e4:	0145d713          	srli	a4,a1,0x14
8000e0e8:	00d87833          	and	a6,a6,a3
8000e0ec:	0146d893          	srli	a7,a3,0x14
8000e0f0:	00812c23          	sw	s0,24(sp)
8000e0f4:	00379793          	slli	a5,a5,0x3
8000e0f8:	7ff77413          	andi	s0,a4,2047
8000e0fc:	01d55713          	srli	a4,a0,0x1d
8000e100:	00912a23          	sw	s1,20(sp)
8000e104:	00f767b3          	or	a5,a4,a5
8000e108:	01f5d493          	srli	s1,a1,0x1f
8000e10c:	01d65713          	srli	a4,a2,0x1d
8000e110:	7ff8f893          	andi	a7,a7,2047
8000e114:	01f6d593          	srli	a1,a3,0x1f
8000e118:	00381813          	slli	a6,a6,0x3
8000e11c:	00112e23          	sw	ra,28(sp)
8000e120:	01212823          	sw	s2,16(sp)
8000e124:	01312623          	sw	s3,12(sp)
8000e128:	00351513          	slli	a0,a0,0x3
8000e12c:	01076733          	or	a4,a4,a6
8000e130:	00361613          	slli	a2,a2,0x3
8000e134:	411406b3          	sub	a3,s0,a7
8000e138:	2cb49463          	bne	s1,a1,8000e400 <__adddf3+0x32c>
8000e13c:	10d05e63          	blez	a3,8000e258 <__adddf3+0x184>
8000e140:	04089063          	bnez	a7,8000e180 <__adddf3+0xac>
8000e144:	00c765b3          	or	a1,a4,a2
8000e148:	2a058863          	beqz	a1,8000e3f8 <__adddf3+0x324>
8000e14c:	fff68593          	addi	a1,a3,-1
8000e150:	02059063          	bnez	a1,8000e170 <__adddf3+0x9c>
8000e154:	00c50633          	add	a2,a0,a2
8000e158:	00a63533          	sltu	a0,a2,a0
8000e15c:	00e787b3          	add	a5,a5,a4
8000e160:	00a787b3          	add	a5,a5,a0
8000e164:	00060513          	mv	a0,a2
8000e168:	00100413          	li	s0,1
8000e16c:	0700006f          	j	8000e1dc <__adddf3+0x108>
8000e170:	7ff00813          	li	a6,2047
8000e174:	03069063          	bne	a3,a6,8000e194 <__adddf3+0xc0>
8000e178:	7ff00413          	li	s0,2047
8000e17c:	20c0006f          	j	8000e388 <__adddf3+0x2b4>
8000e180:	7ff00593          	li	a1,2047
8000e184:	20b40263          	beq	s0,a1,8000e388 <__adddf3+0x2b4>
8000e188:	008005b7          	lui	a1,0x800
8000e18c:	00b76733          	or	a4,a4,a1
8000e190:	00068593          	mv	a1,a3
8000e194:	03800693          	li	a3,56
8000e198:	0ab6ca63          	blt	a3,a1,8000e24c <__adddf3+0x178>
8000e19c:	01f00693          	li	a3,31
8000e1a0:	06b6cc63          	blt	a3,a1,8000e218 <__adddf3+0x144>
8000e1a4:	02000813          	li	a6,32
8000e1a8:	40b80833          	sub	a6,a6,a1
8000e1ac:	010716b3          	sll	a3,a4,a6
8000e1b0:	00b658b3          	srl	a7,a2,a1
8000e1b4:	01061633          	sll	a2,a2,a6
8000e1b8:	0116e6b3          	or	a3,a3,a7
8000e1bc:	00c03633          	snez	a2,a2
8000e1c0:	00c6e633          	or	a2,a3,a2
8000e1c4:	00b75733          	srl	a4,a4,a1
8000e1c8:	00a60633          	add	a2,a2,a0
8000e1cc:	00f70733          	add	a4,a4,a5
8000e1d0:	00a637b3          	sltu	a5,a2,a0
8000e1d4:	00f707b3          	add	a5,a4,a5
8000e1d8:	00060513          	mv	a0,a2
8000e1dc:	00879713          	slli	a4,a5,0x8
8000e1e0:	1a075463          	bgez	a4,8000e388 <__adddf3+0x2b4>
8000e1e4:	00140413          	addi	s0,s0,1
8000e1e8:	7ff00713          	li	a4,2047
8000e1ec:	5ce40463          	beq	s0,a4,8000e7b4 <__adddf3+0x6e0>
8000e1f0:	ff8006b7          	lui	a3,0xff800
8000e1f4:	fff68693          	addi	a3,a3,-1 # ff7fffff <__global_pointer$+0x7f7efe5f>
8000e1f8:	00d7f6b3          	and	a3,a5,a3
8000e1fc:	00155593          	srli	a1,a0,0x1
8000e200:	00157513          	andi	a0,a0,1
8000e204:	01f69793          	slli	a5,a3,0x1f
8000e208:	00a5e533          	or	a0,a1,a0
8000e20c:	00a7e533          	or	a0,a5,a0
8000e210:	0016d793          	srli	a5,a3,0x1
8000e214:	1740006f          	j	8000e388 <__adddf3+0x2b4>
8000e218:	fe058693          	addi	a3,a1,-32 # 7fffe0 <buflen.2941+0x7fff60>
8000e21c:	02000893          	li	a7,32
8000e220:	00d756b3          	srl	a3,a4,a3
8000e224:	00000813          	li	a6,0
8000e228:	01158863          	beq	a1,a7,8000e238 <__adddf3+0x164>
8000e22c:	04000813          	li	a6,64
8000e230:	40b805b3          	sub	a1,a6,a1
8000e234:	00b71833          	sll	a6,a4,a1
8000e238:	00c86633          	or	a2,a6,a2
8000e23c:	00c03633          	snez	a2,a2
8000e240:	00c6e633          	or	a2,a3,a2
8000e244:	00000713          	li	a4,0
8000e248:	f81ff06f          	j	8000e1c8 <__adddf3+0xf4>
8000e24c:	00c76633          	or	a2,a4,a2
8000e250:	00c03633          	snez	a2,a2
8000e254:	ff1ff06f          	j	8000e244 <__adddf3+0x170>
8000e258:	0e068263          	beqz	a3,8000e33c <__adddf3+0x268>
8000e25c:	408885b3          	sub	a1,a7,s0
8000e260:	02041e63          	bnez	s0,8000e29c <__adddf3+0x1c8>
8000e264:	00a7e6b3          	or	a3,a5,a0
8000e268:	52068663          	beqz	a3,8000e794 <__adddf3+0x6c0>
8000e26c:	fff58693          	addi	a3,a1,-1
8000e270:	00069c63          	bnez	a3,8000e288 <__adddf3+0x1b4>
8000e274:	00c50533          	add	a0,a0,a2
8000e278:	00e787b3          	add	a5,a5,a4
8000e27c:	00c53633          	sltu	a2,a0,a2
8000e280:	00c787b3          	add	a5,a5,a2
8000e284:	ee5ff06f          	j	8000e168 <__adddf3+0x94>
8000e288:	7ff00813          	li	a6,2047
8000e28c:	03059263          	bne	a1,a6,8000e2b0 <__adddf3+0x1dc>
8000e290:	00070793          	mv	a5,a4
8000e294:	00060513          	mv	a0,a2
8000e298:	ee1ff06f          	j	8000e178 <__adddf3+0xa4>
8000e29c:	7ff00693          	li	a3,2047
8000e2a0:	fed888e3          	beq	a7,a3,8000e290 <__adddf3+0x1bc>
8000e2a4:	008006b7          	lui	a3,0x800
8000e2a8:	00d7e7b3          	or	a5,a5,a3
8000e2ac:	00058693          	mv	a3,a1
8000e2b0:	03800593          	li	a1,56
8000e2b4:	06d5ce63          	blt	a1,a3,8000e330 <__adddf3+0x25c>
8000e2b8:	01f00593          	li	a1,31
8000e2bc:	04d5c063          	blt	a1,a3,8000e2fc <__adddf3+0x228>
8000e2c0:	02000813          	li	a6,32
8000e2c4:	40d80833          	sub	a6,a6,a3
8000e2c8:	00d55333          	srl	t1,a0,a3
8000e2cc:	010795b3          	sll	a1,a5,a6
8000e2d0:	01051533          	sll	a0,a0,a6
8000e2d4:	0065e5b3          	or	a1,a1,t1
8000e2d8:	00a03533          	snez	a0,a0
8000e2dc:	00a5e533          	or	a0,a1,a0
8000e2e0:	00d7d6b3          	srl	a3,a5,a3
8000e2e4:	00c50533          	add	a0,a0,a2
8000e2e8:	00e687b3          	add	a5,a3,a4
8000e2ec:	00c53633          	sltu	a2,a0,a2
8000e2f0:	00c787b3          	add	a5,a5,a2
8000e2f4:	00088413          	mv	s0,a7
8000e2f8:	ee5ff06f          	j	8000e1dc <__adddf3+0x108>
8000e2fc:	fe068593          	addi	a1,a3,-32 # 7fffe0 <buflen.2941+0x7fff60>
8000e300:	02000313          	li	t1,32
8000e304:	00b7d5b3          	srl	a1,a5,a1
8000e308:	00000813          	li	a6,0
8000e30c:	00668863          	beq	a3,t1,8000e31c <__adddf3+0x248>
8000e310:	04000813          	li	a6,64
8000e314:	40d806b3          	sub	a3,a6,a3
8000e318:	00d79833          	sll	a6,a5,a3
8000e31c:	00a86533          	or	a0,a6,a0
8000e320:	00a03533          	snez	a0,a0
8000e324:	00a5e533          	or	a0,a1,a0
8000e328:	00000693          	li	a3,0
8000e32c:	fb9ff06f          	j	8000e2e4 <__adddf3+0x210>
8000e330:	00a7e533          	or	a0,a5,a0
8000e334:	00a03533          	snez	a0,a0
8000e338:	ff1ff06f          	j	8000e328 <__adddf3+0x254>
8000e33c:	00140693          	addi	a3,s0,1
8000e340:	7fe6f593          	andi	a1,a3,2046
8000e344:	08059663          	bnez	a1,8000e3d0 <__adddf3+0x2fc>
8000e348:	00a7e6b3          	or	a3,a5,a0
8000e34c:	06041263          	bnez	s0,8000e3b0 <__adddf3+0x2dc>
8000e350:	44068a63          	beqz	a3,8000e7a4 <__adddf3+0x6d0>
8000e354:	00c766b3          	or	a3,a4,a2
8000e358:	02068863          	beqz	a3,8000e388 <__adddf3+0x2b4>
8000e35c:	00c50633          	add	a2,a0,a2
8000e360:	00e787b3          	add	a5,a5,a4
8000e364:	00a63533          	sltu	a0,a2,a0
8000e368:	00a787b3          	add	a5,a5,a0
8000e36c:	00879713          	slli	a4,a5,0x8
8000e370:	00060513          	mv	a0,a2
8000e374:	00075a63          	bgez	a4,8000e388 <__adddf3+0x2b4>
8000e378:	ff800737          	lui	a4,0xff800
8000e37c:	fff70713          	addi	a4,a4,-1 # ff7fffff <__global_pointer$+0x7f7efe5f>
8000e380:	00e7f7b3          	and	a5,a5,a4
8000e384:	00100413          	li	s0,1
8000e388:	00757713          	andi	a4,a0,7
8000e38c:	42070863          	beqz	a4,8000e7bc <__adddf3+0x6e8>
8000e390:	00f57713          	andi	a4,a0,15
8000e394:	00400693          	li	a3,4
8000e398:	42d70263          	beq	a4,a3,8000e7bc <__adddf3+0x6e8>
8000e39c:	00450693          	addi	a3,a0,4
8000e3a0:	00a6b533          	sltu	a0,a3,a0
8000e3a4:	00a787b3          	add	a5,a5,a0
8000e3a8:	00068513          	mv	a0,a3
8000e3ac:	4100006f          	j	8000e7bc <__adddf3+0x6e8>
8000e3b0:	ee0680e3          	beqz	a3,8000e290 <__adddf3+0x1bc>
8000e3b4:	00c76633          	or	a2,a4,a2
8000e3b8:	dc0600e3          	beqz	a2,8000e178 <__adddf3+0xa4>
8000e3bc:	00000493          	li	s1,0
8000e3c0:	004007b7          	lui	a5,0x400
8000e3c4:	00000513          	li	a0,0
8000e3c8:	7ff00413          	li	s0,2047
8000e3cc:	3f00006f          	j	8000e7bc <__adddf3+0x6e8>
8000e3d0:	7ff00593          	li	a1,2047
8000e3d4:	3cb68e63          	beq	a3,a1,8000e7b0 <__adddf3+0x6dc>
8000e3d8:	00c50633          	add	a2,a0,a2
8000e3dc:	00e78733          	add	a4,a5,a4
8000e3e0:	00a637b3          	sltu	a5,a2,a0
8000e3e4:	00f70733          	add	a4,a4,a5
8000e3e8:	01f71513          	slli	a0,a4,0x1f
8000e3ec:	00165613          	srli	a2,a2,0x1
8000e3f0:	00c56533          	or	a0,a0,a2
8000e3f4:	00175793          	srli	a5,a4,0x1
8000e3f8:	00068413          	mv	s0,a3
8000e3fc:	f8dff06f          	j	8000e388 <__adddf3+0x2b4>
8000e400:	0ed05c63          	blez	a3,8000e4f8 <__adddf3+0x424>
8000e404:	08089e63          	bnez	a7,8000e4a0 <__adddf3+0x3cc>
8000e408:	00c765b3          	or	a1,a4,a2
8000e40c:	fe0586e3          	beqz	a1,8000e3f8 <__adddf3+0x324>
8000e410:	fff68593          	addi	a1,a3,-1
8000e414:	02059063          	bnez	a1,8000e434 <__adddf3+0x360>
8000e418:	40c50633          	sub	a2,a0,a2
8000e41c:	00c53533          	sltu	a0,a0,a2
8000e420:	40e787b3          	sub	a5,a5,a4
8000e424:	40a787b3          	sub	a5,a5,a0
8000e428:	00060513          	mv	a0,a2
8000e42c:	00100413          	li	s0,1
8000e430:	0540006f          	j	8000e484 <__adddf3+0x3b0>
8000e434:	7ff00813          	li	a6,2047
8000e438:	d50680e3          	beq	a3,a6,8000e178 <__adddf3+0xa4>
8000e43c:	03800693          	li	a3,56
8000e440:	0ab6c663          	blt	a3,a1,8000e4ec <__adddf3+0x418>
8000e444:	01f00693          	li	a3,31
8000e448:	06b6c863          	blt	a3,a1,8000e4b8 <__adddf3+0x3e4>
8000e44c:	02000813          	li	a6,32
8000e450:	40b80833          	sub	a6,a6,a1
8000e454:	010716b3          	sll	a3,a4,a6
8000e458:	00b658b3          	srl	a7,a2,a1
8000e45c:	01061633          	sll	a2,a2,a6
8000e460:	0116e6b3          	or	a3,a3,a7
8000e464:	00c03633          	snez	a2,a2
8000e468:	00c6e633          	or	a2,a3,a2
8000e46c:	00b75733          	srl	a4,a4,a1
8000e470:	40c50633          	sub	a2,a0,a2
8000e474:	40e78733          	sub	a4,a5,a4
8000e478:	00c537b3          	sltu	a5,a0,a2
8000e47c:	40f707b3          	sub	a5,a4,a5
8000e480:	00060513          	mv	a0,a2
8000e484:	00879713          	slli	a4,a5,0x8
8000e488:	f00750e3          	bgez	a4,8000e388 <__adddf3+0x2b4>
8000e48c:	00800937          	lui	s2,0x800
8000e490:	fff90913          	addi	s2,s2,-1 # 7fffff <buflen.2941+0x7fff7f>
8000e494:	0127f933          	and	s2,a5,s2
8000e498:	00050993          	mv	s3,a0
8000e49c:	20c0006f          	j	8000e6a8 <__adddf3+0x5d4>
8000e4a0:	7ff00593          	li	a1,2047
8000e4a4:	eeb402e3          	beq	s0,a1,8000e388 <__adddf3+0x2b4>
8000e4a8:	008005b7          	lui	a1,0x800
8000e4ac:	00b76733          	or	a4,a4,a1
8000e4b0:	00068593          	mv	a1,a3
8000e4b4:	f89ff06f          	j	8000e43c <__adddf3+0x368>
8000e4b8:	fe058693          	addi	a3,a1,-32 # 7fffe0 <buflen.2941+0x7fff60>
8000e4bc:	02000893          	li	a7,32
8000e4c0:	00d756b3          	srl	a3,a4,a3
8000e4c4:	00000813          	li	a6,0
8000e4c8:	01158863          	beq	a1,a7,8000e4d8 <__adddf3+0x404>
8000e4cc:	04000813          	li	a6,64
8000e4d0:	40b805b3          	sub	a1,a6,a1
8000e4d4:	00b71833          	sll	a6,a4,a1
8000e4d8:	00c86633          	or	a2,a6,a2
8000e4dc:	00c03633          	snez	a2,a2
8000e4e0:	00c6e633          	or	a2,a3,a2
8000e4e4:	00000713          	li	a4,0
8000e4e8:	f89ff06f          	j	8000e470 <__adddf3+0x39c>
8000e4ec:	00c76633          	or	a2,a4,a2
8000e4f0:	00c03633          	snez	a2,a2
8000e4f4:	ff1ff06f          	j	8000e4e4 <__adddf3+0x410>
8000e4f8:	0e068863          	beqz	a3,8000e5e8 <__adddf3+0x514>
8000e4fc:	40888833          	sub	a6,a7,s0
8000e500:	04041263          	bnez	s0,8000e544 <__adddf3+0x470>
8000e504:	00a7e6b3          	or	a3,a5,a0
8000e508:	34068263          	beqz	a3,8000e84c <__adddf3+0x778>
8000e50c:	fff80693          	addi	a3,a6,-1
8000e510:	00069e63          	bnez	a3,8000e52c <__adddf3+0x458>
8000e514:	40a60533          	sub	a0,a2,a0
8000e518:	40f707b3          	sub	a5,a4,a5
8000e51c:	00a63633          	sltu	a2,a2,a0
8000e520:	40c787b3          	sub	a5,a5,a2
8000e524:	00058493          	mv	s1,a1
8000e528:	f05ff06f          	j	8000e42c <__adddf3+0x358>
8000e52c:	7ff00313          	li	t1,2047
8000e530:	02681463          	bne	a6,t1,8000e558 <__adddf3+0x484>
8000e534:	00070793          	mv	a5,a4
8000e538:	00060513          	mv	a0,a2
8000e53c:	7ff00413          	li	s0,2047
8000e540:	0d00006f          	j	8000e610 <__adddf3+0x53c>
8000e544:	7ff00693          	li	a3,2047
8000e548:	fed886e3          	beq	a7,a3,8000e534 <__adddf3+0x460>
8000e54c:	008006b7          	lui	a3,0x800
8000e550:	00d7e7b3          	or	a5,a5,a3
8000e554:	00080693          	mv	a3,a6
8000e558:	03800813          	li	a6,56
8000e55c:	08d84063          	blt	a6,a3,8000e5dc <__adddf3+0x508>
8000e560:	01f00813          	li	a6,31
8000e564:	04d84263          	blt	a6,a3,8000e5a8 <__adddf3+0x4d4>
8000e568:	02000313          	li	t1,32
8000e56c:	40d30333          	sub	t1,t1,a3
8000e570:	00d55e33          	srl	t3,a0,a3
8000e574:	00679833          	sll	a6,a5,t1
8000e578:	00651533          	sll	a0,a0,t1
8000e57c:	01c86833          	or	a6,a6,t3
8000e580:	00a03533          	snez	a0,a0
8000e584:	00a86533          	or	a0,a6,a0
8000e588:	00d7d6b3          	srl	a3,a5,a3
8000e58c:	40a60533          	sub	a0,a2,a0
8000e590:	40d707b3          	sub	a5,a4,a3
8000e594:	00a63633          	sltu	a2,a2,a0
8000e598:	40c787b3          	sub	a5,a5,a2
8000e59c:	00088413          	mv	s0,a7
8000e5a0:	00058493          	mv	s1,a1
8000e5a4:	ee1ff06f          	j	8000e484 <__adddf3+0x3b0>
8000e5a8:	fe068813          	addi	a6,a3,-32 # 7fffe0 <buflen.2941+0x7fff60>
8000e5ac:	02000e13          	li	t3,32
8000e5b0:	0107d833          	srl	a6,a5,a6
8000e5b4:	00000313          	li	t1,0
8000e5b8:	01c68863          	beq	a3,t3,8000e5c8 <__adddf3+0x4f4>
8000e5bc:	04000313          	li	t1,64
8000e5c0:	40d306b3          	sub	a3,t1,a3
8000e5c4:	00d79333          	sll	t1,a5,a3
8000e5c8:	00a36533          	or	a0,t1,a0
8000e5cc:	00a03533          	snez	a0,a0
8000e5d0:	00a86533          	or	a0,a6,a0
8000e5d4:	00000693          	li	a3,0
8000e5d8:	fb5ff06f          	j	8000e58c <__adddf3+0x4b8>
8000e5dc:	00a7e533          	or	a0,a5,a0
8000e5e0:	00a03533          	snez	a0,a0
8000e5e4:	ff1ff06f          	j	8000e5d4 <__adddf3+0x500>
8000e5e8:	00140693          	addi	a3,s0,1
8000e5ec:	7fe6f693          	andi	a3,a3,2046
8000e5f0:	08069663          	bnez	a3,8000e67c <__adddf3+0x5a8>
8000e5f4:	00a7e833          	or	a6,a5,a0
8000e5f8:	00c766b3          	or	a3,a4,a2
8000e5fc:	06041063          	bnez	s0,8000e65c <__adddf3+0x588>
8000e600:	00081c63          	bnez	a6,8000e618 <__adddf3+0x544>
8000e604:	24068c63          	beqz	a3,8000e85c <__adddf3+0x788>
8000e608:	00070793          	mv	a5,a4
8000e60c:	00060513          	mv	a0,a2
8000e610:	00058493          	mv	s1,a1
8000e614:	d75ff06f          	j	8000e388 <__adddf3+0x2b4>
8000e618:	d60688e3          	beqz	a3,8000e388 <__adddf3+0x2b4>
8000e61c:	40c50833          	sub	a6,a0,a2
8000e620:	010538b3          	sltu	a7,a0,a6
8000e624:	40e786b3          	sub	a3,a5,a4
8000e628:	411686b3          	sub	a3,a3,a7
8000e62c:	00869893          	slli	a7,a3,0x8
8000e630:	0008dc63          	bgez	a7,8000e648 <__adddf3+0x574>
8000e634:	40a60533          	sub	a0,a2,a0
8000e638:	40f707b3          	sub	a5,a4,a5
8000e63c:	00a63633          	sltu	a2,a2,a0
8000e640:	40c787b3          	sub	a5,a5,a2
8000e644:	fcdff06f          	j	8000e610 <__adddf3+0x53c>
8000e648:	00d86533          	or	a0,a6,a3
8000e64c:	22050063          	beqz	a0,8000e86c <__adddf3+0x798>
8000e650:	00068793          	mv	a5,a3
8000e654:	00080513          	mv	a0,a6
8000e658:	d31ff06f          	j	8000e388 <__adddf3+0x2b4>
8000e65c:	00081c63          	bnez	a6,8000e674 <__adddf3+0x5a0>
8000e660:	20068a63          	beqz	a3,8000e874 <__adddf3+0x7a0>
8000e664:	00070793          	mv	a5,a4
8000e668:	00060513          	mv	a0,a2
8000e66c:	00058493          	mv	s1,a1
8000e670:	b09ff06f          	j	8000e178 <__adddf3+0xa4>
8000e674:	b00682e3          	beqz	a3,8000e178 <__adddf3+0xa4>
8000e678:	d45ff06f          	j	8000e3bc <__adddf3+0x2e8>
8000e67c:	40c509b3          	sub	s3,a0,a2
8000e680:	013536b3          	sltu	a3,a0,s3
8000e684:	40e78933          	sub	s2,a5,a4
8000e688:	40d90933          	sub	s2,s2,a3
8000e68c:	00891693          	slli	a3,s2,0x8
8000e690:	0806d463          	bgez	a3,8000e718 <__adddf3+0x644>
8000e694:	40a609b3          	sub	s3,a2,a0
8000e698:	40f707b3          	sub	a5,a4,a5
8000e69c:	01363633          	sltu	a2,a2,s3
8000e6a0:	40c78933          	sub	s2,a5,a2
8000e6a4:	00058493          	mv	s1,a1
8000e6a8:	08090263          	beqz	s2,8000e72c <__adddf3+0x658>
8000e6ac:	00090513          	mv	a0,s2
8000e6b0:	280010ef          	jal	ra,8000f930 <__clzsi2>
8000e6b4:	ff850713          	addi	a4,a0,-8
8000e6b8:	01f00793          	li	a5,31
8000e6bc:	08e7c063          	blt	a5,a4,8000e73c <__adddf3+0x668>
8000e6c0:	02000693          	li	a3,32
8000e6c4:	40e686b3          	sub	a3,a3,a4
8000e6c8:	00e917b3          	sll	a5,s2,a4
8000e6cc:	00d9d6b3          	srl	a3,s3,a3
8000e6d0:	00f6e6b3          	or	a3,a3,a5
8000e6d4:	00e99533          	sll	a0,s3,a4
8000e6d8:	0a874463          	blt	a4,s0,8000e780 <__adddf3+0x6ac>
8000e6dc:	40870733          	sub	a4,a4,s0
8000e6e0:	00170793          	addi	a5,a4,1
8000e6e4:	01f00613          	li	a2,31
8000e6e8:	06f64263          	blt	a2,a5,8000e74c <__adddf3+0x678>
8000e6ec:	02000713          	li	a4,32
8000e6f0:	40f70733          	sub	a4,a4,a5
8000e6f4:	00f555b3          	srl	a1,a0,a5
8000e6f8:	00e69633          	sll	a2,a3,a4
8000e6fc:	00e51533          	sll	a0,a0,a4
8000e700:	00b66633          	or	a2,a2,a1
8000e704:	00a03533          	snez	a0,a0
8000e708:	00a66533          	or	a0,a2,a0
8000e70c:	00f6d7b3          	srl	a5,a3,a5
8000e710:	00000413          	li	s0,0
8000e714:	c75ff06f          	j	8000e388 <__adddf3+0x2b4>
8000e718:	0129e533          	or	a0,s3,s2
8000e71c:	f80516e3          	bnez	a0,8000e6a8 <__adddf3+0x5d4>
8000e720:	00000793          	li	a5,0
8000e724:	00000413          	li	s0,0
8000e728:	13c0006f          	j	8000e864 <__adddf3+0x790>
8000e72c:	00098513          	mv	a0,s3
8000e730:	200010ef          	jal	ra,8000f930 <__clzsi2>
8000e734:	02050513          	addi	a0,a0,32
8000e738:	f7dff06f          	j	8000e6b4 <__adddf3+0x5e0>
8000e73c:	fd850513          	addi	a0,a0,-40
8000e740:	00a996b3          	sll	a3,s3,a0
8000e744:	00000513          	li	a0,0
8000e748:	f91ff06f          	j	8000e6d8 <__adddf3+0x604>
8000e74c:	fe170713          	addi	a4,a4,-31
8000e750:	02000593          	li	a1,32
8000e754:	00e6d733          	srl	a4,a3,a4
8000e758:	00000613          	li	a2,0
8000e75c:	00b78863          	beq	a5,a1,8000e76c <__adddf3+0x698>
8000e760:	04000613          	li	a2,64
8000e764:	40f60633          	sub	a2,a2,a5
8000e768:	00c69633          	sll	a2,a3,a2
8000e76c:	00c56533          	or	a0,a0,a2
8000e770:	00a03533          	snez	a0,a0
8000e774:	00a76533          	or	a0,a4,a0
8000e778:	00000793          	li	a5,0
8000e77c:	f95ff06f          	j	8000e710 <__adddf3+0x63c>
8000e780:	ff8007b7          	lui	a5,0xff800
8000e784:	fff78793          	addi	a5,a5,-1 # ff7fffff <__global_pointer$+0x7f7efe5f>
8000e788:	40e40433          	sub	s0,s0,a4
8000e78c:	00f6f7b3          	and	a5,a3,a5
8000e790:	bf9ff06f          	j	8000e388 <__adddf3+0x2b4>
8000e794:	00070793          	mv	a5,a4
8000e798:	00060513          	mv	a0,a2
8000e79c:	00058413          	mv	s0,a1
8000e7a0:	be9ff06f          	j	8000e388 <__adddf3+0x2b4>
8000e7a4:	00070793          	mv	a5,a4
8000e7a8:	00060513          	mv	a0,a2
8000e7ac:	bddff06f          	j	8000e388 <__adddf3+0x2b4>
8000e7b0:	7ff00413          	li	s0,2047
8000e7b4:	00000793          	li	a5,0
8000e7b8:	00000513          	li	a0,0
8000e7bc:	00879713          	slli	a4,a5,0x8
8000e7c0:	00075e63          	bgez	a4,8000e7dc <__adddf3+0x708>
8000e7c4:	00140413          	addi	s0,s0,1
8000e7c8:	7ff00713          	li	a4,2047
8000e7cc:	0ae40c63          	beq	s0,a4,8000e884 <__adddf3+0x7b0>
8000e7d0:	ff800737          	lui	a4,0xff800
8000e7d4:	fff70713          	addi	a4,a4,-1 # ff7fffff <__global_pointer$+0x7f7efe5f>
8000e7d8:	00e7f7b3          	and	a5,a5,a4
8000e7dc:	01d79713          	slli	a4,a5,0x1d
8000e7e0:	00355513          	srli	a0,a0,0x3
8000e7e4:	00a76533          	or	a0,a4,a0
8000e7e8:	7ff00713          	li	a4,2047
8000e7ec:	0037d793          	srli	a5,a5,0x3
8000e7f0:	00e41e63          	bne	s0,a4,8000e80c <__adddf3+0x738>
8000e7f4:	00f56533          	or	a0,a0,a5
8000e7f8:	00000793          	li	a5,0
8000e7fc:	00050863          	beqz	a0,8000e80c <__adddf3+0x738>
8000e800:	000807b7          	lui	a5,0x80
8000e804:	00000513          	li	a0,0
8000e808:	00000493          	li	s1,0
8000e80c:	01441713          	slli	a4,s0,0x14
8000e810:	7ff006b7          	lui	a3,0x7ff00
8000e814:	00c79793          	slli	a5,a5,0xc
8000e818:	01c12083          	lw	ra,28(sp)
8000e81c:	01812403          	lw	s0,24(sp)
8000e820:	00d77733          	and	a4,a4,a3
8000e824:	00c7d793          	srli	a5,a5,0xc
8000e828:	01f49493          	slli	s1,s1,0x1f
8000e82c:	00f767b3          	or	a5,a4,a5
8000e830:	0097e733          	or	a4,a5,s1
8000e834:	01012903          	lw	s2,16(sp)
8000e838:	01412483          	lw	s1,20(sp)
8000e83c:	00c12983          	lw	s3,12(sp)
8000e840:	00070593          	mv	a1,a4
8000e844:	02010113          	addi	sp,sp,32
8000e848:	00008067          	ret
8000e84c:	00070793          	mv	a5,a4
8000e850:	00060513          	mv	a0,a2
8000e854:	00080413          	mv	s0,a6
8000e858:	db9ff06f          	j	8000e610 <__adddf3+0x53c>
8000e85c:	00000793          	li	a5,0
8000e860:	00000513          	li	a0,0
8000e864:	00000493          	li	s1,0
8000e868:	f55ff06f          	j	8000e7bc <__adddf3+0x6e8>
8000e86c:	00000793          	li	a5,0
8000e870:	ff5ff06f          	j	8000e864 <__adddf3+0x790>
8000e874:	00000513          	li	a0,0
8000e878:	00000493          	li	s1,0
8000e87c:	004007b7          	lui	a5,0x400
8000e880:	b49ff06f          	j	8000e3c8 <__adddf3+0x2f4>
8000e884:	00000793          	li	a5,0
8000e888:	00000513          	li	a0,0
8000e88c:	f51ff06f          	j	8000e7dc <__adddf3+0x708>

8000e890 <__gedf2>:
8000e890:	00100737          	lui	a4,0x100
8000e894:	fff70713          	addi	a4,a4,-1 # fffff <buflen.2941+0xfff7f>
8000e898:	0145d813          	srli	a6,a1,0x14
8000e89c:	00b778b3          	and	a7,a4,a1
8000e8a0:	00050793          	mv	a5,a0
8000e8a4:	00050313          	mv	t1,a0
8000e8a8:	7ff87813          	andi	a6,a6,2047
8000e8ac:	01f5d513          	srli	a0,a1,0x1f
8000e8b0:	7ff00e93          	li	t4,2047
8000e8b4:	0146d593          	srli	a1,a3,0x14
8000e8b8:	00d77733          	and	a4,a4,a3
8000e8bc:	00060e13          	mv	t3,a2
8000e8c0:	7ff5f593          	andi	a1,a1,2047
8000e8c4:	01f6d693          	srli	a3,a3,0x1f
8000e8c8:	01d81a63          	bne	a6,t4,8000e8dc <__gedf2+0x4c>
8000e8cc:	00f8eeb3          	or	t4,a7,a5
8000e8d0:	080e8a63          	beqz	t4,8000e964 <__gedf2+0xd4>
8000e8d4:	ffe00513          	li	a0,-2
8000e8d8:	00008067          	ret
8000e8dc:	01d59663          	bne	a1,t4,8000e8e8 <__gedf2+0x58>
8000e8e0:	00c76eb3          	or	t4,a4,a2
8000e8e4:	fe0e98e3          	bnez	t4,8000e8d4 <__gedf2+0x44>
8000e8e8:	08081063          	bnez	a6,8000e968 <__gedf2+0xd8>
8000e8ec:	00f8e7b3          	or	a5,a7,a5
8000e8f0:	0017b793          	seqz	a5,a5
8000e8f4:	00059663          	bnez	a1,8000e900 <__gedf2+0x70>
8000e8f8:	00c76633          	or	a2,a4,a2
8000e8fc:	04060c63          	beqz	a2,8000e954 <__gedf2+0xc4>
8000e900:	00079c63          	bnez	a5,8000e918 <__gedf2+0x88>
8000e904:	00d51463          	bne	a0,a3,8000e90c <__gedf2+0x7c>
8000e908:	0305d063          	bge	a1,a6,8000e928 <__gedf2+0x98>
8000e90c:	04050063          	beqz	a0,8000e94c <__gedf2+0xbc>
8000e910:	fff00513          	li	a0,-1
8000e914:	00008067          	ret
8000e918:	fff00513          	li	a0,-1
8000e91c:	00068a63          	beqz	a3,8000e930 <__gedf2+0xa0>
8000e920:	00068513          	mv	a0,a3
8000e924:	00008067          	ret
8000e928:	00b85663          	bge	a6,a1,8000e934 <__gedf2+0xa4>
8000e92c:	fe0502e3          	beqz	a0,8000e910 <__gedf2+0x80>
8000e930:	00008067          	ret
8000e934:	fd176ce3          	bltu	a4,a7,8000e90c <__gedf2+0x7c>
8000e938:	02e89263          	bne	a7,a4,8000e95c <__gedf2+0xcc>
8000e93c:	fc6e68e3          	bltu	t3,t1,8000e90c <__gedf2+0x7c>
8000e940:	ffc366e3          	bltu	t1,t3,8000e92c <__gedf2+0x9c>
8000e944:	00000513          	li	a0,0
8000e948:	00008067          	ret
8000e94c:	00100513          	li	a0,1
8000e950:	00008067          	ret
8000e954:	fe0798e3          	bnez	a5,8000e944 <__gedf2+0xb4>
8000e958:	fb5ff06f          	j	8000e90c <__gedf2+0x7c>
8000e95c:	fce8e8e3          	bltu	a7,a4,8000e92c <__gedf2+0x9c>
8000e960:	fe5ff06f          	j	8000e944 <__gedf2+0xb4>
8000e964:	f7058ee3          	beq	a1,a6,8000e8e0 <__gedf2+0x50>
8000e968:	f8059ee3          	bnez	a1,8000e904 <__gedf2+0x74>
8000e96c:	00000793          	li	a5,0
8000e970:	f89ff06f          	j	8000e8f8 <__gedf2+0x68>

8000e974 <__muldf3>:
8000e974:	fd010113          	addi	sp,sp,-48
8000e978:	0145d793          	srli	a5,a1,0x14
8000e97c:	02812423          	sw	s0,40(sp)
8000e980:	02912223          	sw	s1,36(sp)
8000e984:	01312e23          	sw	s3,28(sp)
8000e988:	01412c23          	sw	s4,24(sp)
8000e98c:	01512a23          	sw	s5,20(sp)
8000e990:	00c59493          	slli	s1,a1,0xc
8000e994:	02112623          	sw	ra,44(sp)
8000e998:	03212023          	sw	s2,32(sp)
8000e99c:	01612823          	sw	s6,16(sp)
8000e9a0:	01712623          	sw	s7,12(sp)
8000e9a4:	01579713          	slli	a4,a5,0x15
8000e9a8:	00050413          	mv	s0,a0
8000e9ac:	00060993          	mv	s3,a2
8000e9b0:	00068a93          	mv	s5,a3
8000e9b4:	00c4d493          	srli	s1,s1,0xc
8000e9b8:	01f5da13          	srli	s4,a1,0x1f
8000e9bc:	0a070463          	beqz	a4,8000ea64 <__muldf3+0xf0>
8000e9c0:	7ff7fb13          	andi	s6,a5,2047
8000e9c4:	7ff00793          	li	a5,2047
8000e9c8:	10fb0063          	beq	s6,a5,8000eac8 <__muldf3+0x154>
8000e9cc:	01d55793          	srli	a5,a0,0x1d
8000e9d0:	00349493          	slli	s1,s1,0x3
8000e9d4:	0097e4b3          	or	s1,a5,s1
8000e9d8:	008007b7          	lui	a5,0x800
8000e9dc:	00f4e4b3          	or	s1,s1,a5
8000e9e0:	00351913          	slli	s2,a0,0x3
8000e9e4:	c01b0b13          	addi	s6,s6,-1023
8000e9e8:	00000b93          	li	s7,0
8000e9ec:	014ad793          	srli	a5,s5,0x14
8000e9f0:	00ca9413          	slli	s0,s5,0xc
8000e9f4:	01579713          	slli	a4,a5,0x15
8000e9f8:	00c45413          	srli	s0,s0,0xc
8000e9fc:	7ff7f513          	andi	a0,a5,2047
8000ea00:	01fada93          	srli	s5,s5,0x1f
8000ea04:	0e070e63          	beqz	a4,8000eb00 <__muldf3+0x18c>
8000ea08:	7ff00793          	li	a5,2047
8000ea0c:	14f50e63          	beq	a0,a5,8000eb68 <__muldf3+0x1f4>
8000ea10:	01d9d793          	srli	a5,s3,0x1d
8000ea14:	00341413          	slli	s0,s0,0x3
8000ea18:	0087e433          	or	s0,a5,s0
8000ea1c:	008007b7          	lui	a5,0x800
8000ea20:	00f46433          	or	s0,s0,a5
8000ea24:	c0150513          	addi	a0,a0,-1023
8000ea28:	00399793          	slli	a5,s3,0x3
8000ea2c:	00000713          	li	a4,0
8000ea30:	002b9693          	slli	a3,s7,0x2
8000ea34:	00e6e6b3          	or	a3,a3,a4
8000ea38:	00ab0533          	add	a0,s6,a0
8000ea3c:	fff68693          	addi	a3,a3,-1 # 7fefffff <buflen.2941+0x7fefff7f>
8000ea40:	00e00813          	li	a6,14
8000ea44:	015a4633          	xor	a2,s4,s5
8000ea48:	00150593          	addi	a1,a0,1
8000ea4c:	14d86a63          	bltu	a6,a3,8000eba0 <__muldf3+0x22c>
8000ea50:	00269693          	slli	a3,a3,0x2
8000ea54:	a4418513          	addi	a0,gp,-1468 # 8000fbe4 <main+0x26c>
8000ea58:	00a686b3          	add	a3,a3,a0
8000ea5c:	0006a683          	lw	a3,0(a3)
8000ea60:	00068067          	jr	a3
8000ea64:	00a4e933          	or	s2,s1,a0
8000ea68:	06090c63          	beqz	s2,8000eae0 <__muldf3+0x16c>
8000ea6c:	04048063          	beqz	s1,8000eaac <__muldf3+0x138>
8000ea70:	00048513          	mv	a0,s1
8000ea74:	6bd000ef          	jal	ra,8000f930 <__clzsi2>
8000ea78:	ff550713          	addi	a4,a0,-11
8000ea7c:	01c00793          	li	a5,28
8000ea80:	02e7cc63          	blt	a5,a4,8000eab8 <__muldf3+0x144>
8000ea84:	01d00793          	li	a5,29
8000ea88:	ff850913          	addi	s2,a0,-8
8000ea8c:	40e787b3          	sub	a5,a5,a4
8000ea90:	012494b3          	sll	s1,s1,s2
8000ea94:	00f457b3          	srl	a5,s0,a5
8000ea98:	0097e4b3          	or	s1,a5,s1
8000ea9c:	01241933          	sll	s2,s0,s2
8000eaa0:	c0d00b13          	li	s6,-1011
8000eaa4:	40ab0b33          	sub	s6,s6,a0
8000eaa8:	f41ff06f          	j	8000e9e8 <__muldf3+0x74>
8000eaac:	685000ef          	jal	ra,8000f930 <__clzsi2>
8000eab0:	02050513          	addi	a0,a0,32
8000eab4:	fc5ff06f          	j	8000ea78 <__muldf3+0x104>
8000eab8:	fd850493          	addi	s1,a0,-40
8000eabc:	009414b3          	sll	s1,s0,s1
8000eac0:	00000913          	li	s2,0
8000eac4:	fddff06f          	j	8000eaa0 <__muldf3+0x12c>
8000eac8:	00a4e933          	or	s2,s1,a0
8000eacc:	02090263          	beqz	s2,8000eaf0 <__muldf3+0x17c>
8000ead0:	00050913          	mv	s2,a0
8000ead4:	7ff00b13          	li	s6,2047
8000ead8:	00300b93          	li	s7,3
8000eadc:	f11ff06f          	j	8000e9ec <__muldf3+0x78>
8000eae0:	00000493          	li	s1,0
8000eae4:	00000b13          	li	s6,0
8000eae8:	00100b93          	li	s7,1
8000eaec:	f01ff06f          	j	8000e9ec <__muldf3+0x78>
8000eaf0:	00000493          	li	s1,0
8000eaf4:	7ff00b13          	li	s6,2047
8000eaf8:	00200b93          	li	s7,2
8000eafc:	ef1ff06f          	j	8000e9ec <__muldf3+0x78>
8000eb00:	013467b3          	or	a5,s0,s3
8000eb04:	06078e63          	beqz	a5,8000eb80 <__muldf3+0x20c>
8000eb08:	04040063          	beqz	s0,8000eb48 <__muldf3+0x1d4>
8000eb0c:	00040513          	mv	a0,s0
8000eb10:	621000ef          	jal	ra,8000f930 <__clzsi2>
8000eb14:	ff550693          	addi	a3,a0,-11
8000eb18:	01c00793          	li	a5,28
8000eb1c:	02d7ce63          	blt	a5,a3,8000eb58 <__muldf3+0x1e4>
8000eb20:	01d00713          	li	a4,29
8000eb24:	ff850793          	addi	a5,a0,-8
8000eb28:	40d70733          	sub	a4,a4,a3
8000eb2c:	00f41433          	sll	s0,s0,a5
8000eb30:	00e9d733          	srl	a4,s3,a4
8000eb34:	00876433          	or	s0,a4,s0
8000eb38:	00f997b3          	sll	a5,s3,a5
8000eb3c:	c0d00713          	li	a4,-1011
8000eb40:	40a70533          	sub	a0,a4,a0
8000eb44:	ee9ff06f          	j	8000ea2c <__muldf3+0xb8>
8000eb48:	00098513          	mv	a0,s3
8000eb4c:	5e5000ef          	jal	ra,8000f930 <__clzsi2>
8000eb50:	02050513          	addi	a0,a0,32
8000eb54:	fc1ff06f          	j	8000eb14 <__muldf3+0x1a0>
8000eb58:	fd850413          	addi	s0,a0,-40
8000eb5c:	00899433          	sll	s0,s3,s0
8000eb60:	00000793          	li	a5,0
8000eb64:	fd9ff06f          	j	8000eb3c <__muldf3+0x1c8>
8000eb68:	013467b3          	or	a5,s0,s3
8000eb6c:	02078263          	beqz	a5,8000eb90 <__muldf3+0x21c>
8000eb70:	00098793          	mv	a5,s3
8000eb74:	7ff00513          	li	a0,2047
8000eb78:	00300713          	li	a4,3
8000eb7c:	eb5ff06f          	j	8000ea30 <__muldf3+0xbc>
8000eb80:	00000413          	li	s0,0
8000eb84:	00000513          	li	a0,0
8000eb88:	00100713          	li	a4,1
8000eb8c:	ea5ff06f          	j	8000ea30 <__muldf3+0xbc>
8000eb90:	00000413          	li	s0,0
8000eb94:	7ff00513          	li	a0,2047
8000eb98:	00200713          	li	a4,2
8000eb9c:	e95ff06f          	j	8000ea30 <__muldf3+0xbc>
8000eba0:	00010f37          	lui	t5,0x10
8000eba4:	ffff0713          	addi	a4,t5,-1 # ffff <buflen.2941+0xff7f>
8000eba8:	01095693          	srli	a3,s2,0x10
8000ebac:	0107d313          	srli	t1,a5,0x10
8000ebb0:	00e97933          	and	s2,s2,a4
8000ebb4:	00e7f7b3          	and	a5,a5,a4
8000ebb8:	032308b3          	mul	a7,t1,s2
8000ebbc:	02f90833          	mul	a6,s2,a5
8000ebc0:	02f68fb3          	mul	t6,a3,a5
8000ebc4:	01f88eb3          	add	t4,a7,t6
8000ebc8:	01085893          	srli	a7,a6,0x10
8000ebcc:	01d888b3          	add	a7,a7,t4
8000ebd0:	02668e33          	mul	t3,a3,t1
8000ebd4:	01f8f463          	bgeu	a7,t6,8000ebdc <__muldf3+0x268>
8000ebd8:	01ee0e33          	add	t3,t3,t5
8000ebdc:	0108d293          	srli	t0,a7,0x10
8000ebe0:	00e8f8b3          	and	a7,a7,a4
8000ebe4:	00e87833          	and	a6,a6,a4
8000ebe8:	01045f13          	srli	t5,s0,0x10
8000ebec:	01089893          	slli	a7,a7,0x10
8000ebf0:	00e47433          	and	s0,s0,a4
8000ebf4:	010888b3          	add	a7,a7,a6
8000ebf8:	02868733          	mul	a4,a3,s0
8000ebfc:	02890833          	mul	a6,s2,s0
8000ec00:	032f0933          	mul	s2,t5,s2
8000ec04:	00e90eb3          	add	t4,s2,a4
8000ec08:	01085913          	srli	s2,a6,0x10
8000ec0c:	01d90933          	add	s2,s2,t4
8000ec10:	03e686b3          	mul	a3,a3,t5
8000ec14:	00e97663          	bgeu	s2,a4,8000ec20 <__muldf3+0x2ac>
8000ec18:	00010737          	lui	a4,0x10
8000ec1c:	00e686b3          	add	a3,a3,a4
8000ec20:	01095e93          	srli	t4,s2,0x10
8000ec24:	00de8eb3          	add	t4,t4,a3
8000ec28:	000106b7          	lui	a3,0x10
8000ec2c:	fff68f93          	addi	t6,a3,-1 # ffff <buflen.2941+0xff7f>
8000ec30:	01f97933          	and	s2,s2,t6
8000ec34:	01f87833          	and	a6,a6,t6
8000ec38:	0104d713          	srli	a4,s1,0x10
8000ec3c:	01091913          	slli	s2,s2,0x10
8000ec40:	01f4f4b3          	and	s1,s1,t6
8000ec44:	029783b3          	mul	t2,a5,s1
8000ec48:	01090933          	add	s2,s2,a6
8000ec4c:	012282b3          	add	t0,t0,s2
8000ec50:	02930833          	mul	a6,t1,s1
8000ec54:	02f707b3          	mul	a5,a4,a5
8000ec58:	02e30fb3          	mul	t6,t1,a4
8000ec5c:	00f80333          	add	t1,a6,a5
8000ec60:	0103d813          	srli	a6,t2,0x10
8000ec64:	00680833          	add	a6,a6,t1
8000ec68:	00f87463          	bgeu	a6,a5,8000ec70 <__muldf3+0x2fc>
8000ec6c:	00df8fb3          	add	t6,t6,a3
8000ec70:	01085793          	srli	a5,a6,0x10
8000ec74:	000106b7          	lui	a3,0x10
8000ec78:	01f78fb3          	add	t6,a5,t6
8000ec7c:	fff68793          	addi	a5,a3,-1 # ffff <buflen.2941+0xff7f>
8000ec80:	00f87833          	and	a6,a6,a5
8000ec84:	00f3f7b3          	and	a5,t2,a5
8000ec88:	029403b3          	mul	t2,s0,s1
8000ec8c:	01081813          	slli	a6,a6,0x10
8000ec90:	00f80833          	add	a6,a6,a5
8000ec94:	02870433          	mul	s0,a4,s0
8000ec98:	029f04b3          	mul	s1,t5,s1
8000ec9c:	02ef0333          	mul	t1,t5,a4
8000eca0:	008484b3          	add	s1,s1,s0
8000eca4:	0103d713          	srli	a4,t2,0x10
8000eca8:	009704b3          	add	s1,a4,s1
8000ecac:	0084f463          	bgeu	s1,s0,8000ecb4 <__muldf3+0x340>
8000ecb0:	00d30333          	add	t1,t1,a3
8000ecb4:	000107b7          	lui	a5,0x10
8000ecb8:	fff78793          	addi	a5,a5,-1 # ffff <buflen.2941+0xff7f>
8000ecbc:	00f4f6b3          	and	a3,s1,a5
8000ecc0:	01069693          	slli	a3,a3,0x10
8000ecc4:	00f3f7b3          	and	a5,t2,a5
8000ecc8:	005e0e33          	add	t3,t3,t0
8000eccc:	00f686b3          	add	a3,a3,a5
8000ecd0:	012e3933          	sltu	s2,t3,s2
8000ecd4:	01d686b3          	add	a3,a3,t4
8000ecd8:	01268733          	add	a4,a3,s2
8000ecdc:	010e0e33          	add	t3,t3,a6
8000ece0:	010e3833          	sltu	a6,t3,a6
8000ece4:	01f70f33          	add	t5,a4,t6
8000ece8:	010f02b3          	add	t0,t5,a6
8000ecec:	01d6b6b3          	sltu	a3,a3,t4
8000ecf0:	01273733          	sltu	a4,a4,s2
8000ecf4:	00e6e733          	or	a4,a3,a4
8000ecf8:	0102b833          	sltu	a6,t0,a6
8000ecfc:	0104d493          	srli	s1,s1,0x10
8000ed00:	01ff3fb3          	sltu	t6,t5,t6
8000ed04:	00970733          	add	a4,a4,s1
8000ed08:	010fe833          	or	a6,t6,a6
8000ed0c:	009e1793          	slli	a5,t3,0x9
8000ed10:	01070733          	add	a4,a4,a6
8000ed14:	00670733          	add	a4,a4,t1
8000ed18:	0117e7b3          	or	a5,a5,a7
8000ed1c:	00971713          	slli	a4,a4,0x9
8000ed20:	00f037b3          	snez	a5,a5
8000ed24:	017e5e13          	srli	t3,t3,0x17
8000ed28:	0172d413          	srli	s0,t0,0x17
8000ed2c:	01c7e7b3          	or	a5,a5,t3
8000ed30:	00929293          	slli	t0,t0,0x9
8000ed34:	00771693          	slli	a3,a4,0x7
8000ed38:	00876433          	or	s0,a4,s0
8000ed3c:	0057e7b3          	or	a5,a5,t0
8000ed40:	1006d463          	bgez	a3,8000ee48 <__muldf3+0x4d4>
8000ed44:	0017d713          	srli	a4,a5,0x1
8000ed48:	0017f793          	andi	a5,a5,1
8000ed4c:	00f767b3          	or	a5,a4,a5
8000ed50:	01f41713          	slli	a4,s0,0x1f
8000ed54:	00e7e7b3          	or	a5,a5,a4
8000ed58:	00145413          	srli	s0,s0,0x1
8000ed5c:	3ff58693          	addi	a3,a1,1023
8000ed60:	0ed05863          	blez	a3,8000ee50 <__muldf3+0x4dc>
8000ed64:	0077f713          	andi	a4,a5,7
8000ed68:	02070063          	beqz	a4,8000ed88 <__muldf3+0x414>
8000ed6c:	00f7f713          	andi	a4,a5,15
8000ed70:	00400513          	li	a0,4
8000ed74:	00a70a63          	beq	a4,a0,8000ed88 <__muldf3+0x414>
8000ed78:	00478713          	addi	a4,a5,4
8000ed7c:	00f737b3          	sltu	a5,a4,a5
8000ed80:	00f40433          	add	s0,s0,a5
8000ed84:	00070793          	mv	a5,a4
8000ed88:	00741713          	slli	a4,s0,0x7
8000ed8c:	00075a63          	bgez	a4,8000eda0 <__muldf3+0x42c>
8000ed90:	ff000737          	lui	a4,0xff000
8000ed94:	fff70713          	addi	a4,a4,-1 # feffffff <__global_pointer$+0x7efefe5f>
8000ed98:	00e47433          	and	s0,s0,a4
8000ed9c:	40058693          	addi	a3,a1,1024
8000eda0:	7fe00713          	li	a4,2046
8000eda4:	16d74863          	blt	a4,a3,8000ef14 <__muldf3+0x5a0>
8000eda8:	0037d713          	srli	a4,a5,0x3
8000edac:	01d41793          	slli	a5,s0,0x1d
8000edb0:	00e7e7b3          	or	a5,a5,a4
8000edb4:	00345413          	srli	s0,s0,0x3
8000edb8:	01469713          	slli	a4,a3,0x14
8000edbc:	00c41413          	slli	s0,s0,0xc
8000edc0:	7ff006b7          	lui	a3,0x7ff00
8000edc4:	00d77733          	and	a4,a4,a3
8000edc8:	00c45413          	srli	s0,s0,0xc
8000edcc:	00876433          	or	s0,a4,s0
8000edd0:	01f61613          	slli	a2,a2,0x1f
8000edd4:	02c12083          	lw	ra,44(sp)
8000edd8:	00c46733          	or	a4,s0,a2
8000eddc:	02812403          	lw	s0,40(sp)
8000ede0:	02412483          	lw	s1,36(sp)
8000ede4:	02012903          	lw	s2,32(sp)
8000ede8:	01c12983          	lw	s3,28(sp)
8000edec:	01812a03          	lw	s4,24(sp)
8000edf0:	01412a83          	lw	s5,20(sp)
8000edf4:	01012b03          	lw	s6,16(sp)
8000edf8:	00c12b83          	lw	s7,12(sp)
8000edfc:	00078513          	mv	a0,a5
8000ee00:	00070593          	mv	a1,a4
8000ee04:	03010113          	addi	sp,sp,48
8000ee08:	00008067          	ret
8000ee0c:	000a0613          	mv	a2,s4
8000ee10:	00048413          	mv	s0,s1
8000ee14:	00090793          	mv	a5,s2
8000ee18:	000b8713          	mv	a4,s7
8000ee1c:	00200693          	li	a3,2
8000ee20:	0ed70a63          	beq	a4,a3,8000ef14 <__muldf3+0x5a0>
8000ee24:	00300693          	li	a3,3
8000ee28:	0cd70c63          	beq	a4,a3,8000ef00 <__muldf3+0x58c>
8000ee2c:	00100693          	li	a3,1
8000ee30:	f2d716e3          	bne	a4,a3,8000ed5c <__muldf3+0x3e8>
8000ee34:	00000413          	li	s0,0
8000ee38:	00000793          	li	a5,0
8000ee3c:	0880006f          	j	8000eec4 <__muldf3+0x550>
8000ee40:	000a8613          	mv	a2,s5
8000ee44:	fd9ff06f          	j	8000ee1c <__muldf3+0x4a8>
8000ee48:	00050593          	mv	a1,a0
8000ee4c:	f11ff06f          	j	8000ed5c <__muldf3+0x3e8>
8000ee50:	00100513          	li	a0,1
8000ee54:	40d50533          	sub	a0,a0,a3
8000ee58:	03800713          	li	a4,56
8000ee5c:	fca74ce3          	blt	a4,a0,8000ee34 <__muldf3+0x4c0>
8000ee60:	01f00713          	li	a4,31
8000ee64:	06a74463          	blt	a4,a0,8000eecc <__muldf3+0x558>
8000ee68:	41e58593          	addi	a1,a1,1054
8000ee6c:	00b41733          	sll	a4,s0,a1
8000ee70:	00a7d6b3          	srl	a3,a5,a0
8000ee74:	00b797b3          	sll	a5,a5,a1
8000ee78:	00d76733          	or	a4,a4,a3
8000ee7c:	00f037b3          	snez	a5,a5
8000ee80:	00f767b3          	or	a5,a4,a5
8000ee84:	00a45433          	srl	s0,s0,a0
8000ee88:	0077f713          	andi	a4,a5,7
8000ee8c:	02070063          	beqz	a4,8000eeac <__muldf3+0x538>
8000ee90:	00f7f713          	andi	a4,a5,15
8000ee94:	00400693          	li	a3,4
8000ee98:	00d70a63          	beq	a4,a3,8000eeac <__muldf3+0x538>
8000ee9c:	00478713          	addi	a4,a5,4
8000eea0:	00f737b3          	sltu	a5,a4,a5
8000eea4:	00f40433          	add	s0,s0,a5
8000eea8:	00070793          	mv	a5,a4
8000eeac:	00841713          	slli	a4,s0,0x8
8000eeb0:	06074a63          	bltz	a4,8000ef24 <__muldf3+0x5b0>
8000eeb4:	01d41713          	slli	a4,s0,0x1d
8000eeb8:	0037d793          	srli	a5,a5,0x3
8000eebc:	00f767b3          	or	a5,a4,a5
8000eec0:	00345413          	srli	s0,s0,0x3
8000eec4:	00000693          	li	a3,0
8000eec8:	ef1ff06f          	j	8000edb8 <__muldf3+0x444>
8000eecc:	fe100713          	li	a4,-31
8000eed0:	40d70733          	sub	a4,a4,a3
8000eed4:	02000813          	li	a6,32
8000eed8:	00e45733          	srl	a4,s0,a4
8000eedc:	00000693          	li	a3,0
8000eee0:	01050663          	beq	a0,a6,8000eeec <__muldf3+0x578>
8000eee4:	43e58593          	addi	a1,a1,1086
8000eee8:	00b416b3          	sll	a3,s0,a1
8000eeec:	00f6e7b3          	or	a5,a3,a5
8000eef0:	00f037b3          	snez	a5,a5
8000eef4:	00f767b3          	or	a5,a4,a5
8000eef8:	00000413          	li	s0,0
8000eefc:	f8dff06f          	j	8000ee88 <__muldf3+0x514>
8000ef00:	00080437          	lui	s0,0x80
8000ef04:	00000793          	li	a5,0
8000ef08:	7ff00693          	li	a3,2047
8000ef0c:	00000613          	li	a2,0
8000ef10:	ea9ff06f          	j	8000edb8 <__muldf3+0x444>
8000ef14:	00000413          	li	s0,0
8000ef18:	00000793          	li	a5,0
8000ef1c:	7ff00693          	li	a3,2047
8000ef20:	e99ff06f          	j	8000edb8 <__muldf3+0x444>
8000ef24:	00000413          	li	s0,0
8000ef28:	00000793          	li	a5,0
8000ef2c:	00100693          	li	a3,1
8000ef30:	e89ff06f          	j	8000edb8 <__muldf3+0x444>

8000ef34 <__subdf3>:
8000ef34:	00100837          	lui	a6,0x100
8000ef38:	fff80813          	addi	a6,a6,-1 # fffff <buflen.2941+0xfff7f>
8000ef3c:	fe010113          	addi	sp,sp,-32
8000ef40:	00b877b3          	and	a5,a6,a1
8000ef44:	0145d713          	srli	a4,a1,0x14
8000ef48:	00d87833          	and	a6,a6,a3
8000ef4c:	0146d893          	srli	a7,a3,0x14
8000ef50:	00812c23          	sw	s0,24(sp)
8000ef54:	00379793          	slli	a5,a5,0x3
8000ef58:	7ff77413          	andi	s0,a4,2047
8000ef5c:	01d55713          	srli	a4,a0,0x1d
8000ef60:	00912a23          	sw	s1,20(sp)
8000ef64:	00f767b3          	or	a5,a4,a5
8000ef68:	01f5d493          	srli	s1,a1,0x1f
8000ef6c:	01d65713          	srli	a4,a2,0x1d
8000ef70:	01f6d593          	srli	a1,a3,0x1f
8000ef74:	00381813          	slli	a6,a6,0x3
8000ef78:	00112e23          	sw	ra,28(sp)
8000ef7c:	01212823          	sw	s2,16(sp)
8000ef80:	01312623          	sw	s3,12(sp)
8000ef84:	7ff8f893          	andi	a7,a7,2047
8000ef88:	7ff00693          	li	a3,2047
8000ef8c:	00351513          	slli	a0,a0,0x3
8000ef90:	01076733          	or	a4,a4,a6
8000ef94:	00361613          	slli	a2,a2,0x3
8000ef98:	00d89663          	bne	a7,a3,8000efa4 <__subdf3+0x70>
8000ef9c:	00c766b3          	or	a3,a4,a2
8000efa0:	00069463          	bnez	a3,8000efa8 <__subdf3+0x74>
8000efa4:	0015c593          	xori	a1,a1,1
8000efa8:	41140833          	sub	a6,s0,a7
8000efac:	2c959063          	bne	a1,s1,8000f26c <__subdf3+0x338>
8000efb0:	13005c63          	blez	a6,8000f0e8 <__subdf3+0x1b4>
8000efb4:	06089063          	bnez	a7,8000f014 <__subdf3+0xe0>
8000efb8:	00c766b3          	or	a3,a4,a2
8000efbc:	02068863          	beqz	a3,8000efec <__subdf3+0xb8>
8000efc0:	fff40813          	addi	a6,s0,-1 # 7ffff <buflen.2941+0x7ff7f>
8000efc4:	02081063          	bnez	a6,8000efe4 <__subdf3+0xb0>
8000efc8:	00c50633          	add	a2,a0,a2
8000efcc:	00a63533          	sltu	a0,a2,a0
8000efd0:	00e787b3          	add	a5,a5,a4
8000efd4:	00a787b3          	add	a5,a5,a0
8000efd8:	00060513          	mv	a0,a2
8000efdc:	00100413          	li	s0,1
8000efe0:	08c0006f          	j	8000f06c <__subdf3+0x138>
8000efe4:	7ff00693          	li	a3,2047
8000efe8:	02d41e63          	bne	s0,a3,8000f024 <__subdf3+0xf0>
8000efec:	00757713          	andi	a4,a0,7
8000eff0:	62070c63          	beqz	a4,8000f628 <__subdf3+0x6f4>
8000eff4:	00f57713          	andi	a4,a0,15
8000eff8:	00400693          	li	a3,4
8000effc:	62d70663          	beq	a4,a3,8000f628 <__subdf3+0x6f4>
8000f000:	00450693          	addi	a3,a0,4
8000f004:	00a6b533          	sltu	a0,a3,a0
8000f008:	00a787b3          	add	a5,a5,a0
8000f00c:	00068513          	mv	a0,a3
8000f010:	6180006f          	j	8000f628 <__subdf3+0x6f4>
8000f014:	7ff00693          	li	a3,2047
8000f018:	fcd40ae3          	beq	s0,a3,8000efec <__subdf3+0xb8>
8000f01c:	008006b7          	lui	a3,0x800
8000f020:	00d76733          	or	a4,a4,a3
8000f024:	03800693          	li	a3,56
8000f028:	0b06ca63          	blt	a3,a6,8000f0dc <__subdf3+0x1a8>
8000f02c:	01f00693          	li	a3,31
8000f030:	0706cc63          	blt	a3,a6,8000f0a8 <__subdf3+0x174>
8000f034:	02000593          	li	a1,32
8000f038:	410585b3          	sub	a1,a1,a6
8000f03c:	00b716b3          	sll	a3,a4,a1
8000f040:	010658b3          	srl	a7,a2,a6
8000f044:	00b61633          	sll	a2,a2,a1
8000f048:	0116e6b3          	or	a3,a3,a7
8000f04c:	00c03633          	snez	a2,a2
8000f050:	00c6e633          	or	a2,a3,a2
8000f054:	01075733          	srl	a4,a4,a6
8000f058:	00a60633          	add	a2,a2,a0
8000f05c:	00f70733          	add	a4,a4,a5
8000f060:	00a637b3          	sltu	a5,a2,a0
8000f064:	00f707b3          	add	a5,a4,a5
8000f068:	00060513          	mv	a0,a2
8000f06c:	00879713          	slli	a4,a5,0x8
8000f070:	f6075ee3          	bgez	a4,8000efec <__subdf3+0xb8>
8000f074:	00140413          	addi	s0,s0,1
8000f078:	7ff00713          	li	a4,2047
8000f07c:	5ae40263          	beq	s0,a4,8000f620 <__subdf3+0x6ec>
8000f080:	ff8006b7          	lui	a3,0xff800
8000f084:	fff68693          	addi	a3,a3,-1 # ff7fffff <__global_pointer$+0x7f7efe5f>
8000f088:	00d7f6b3          	and	a3,a5,a3
8000f08c:	00155593          	srli	a1,a0,0x1
8000f090:	00157513          	andi	a0,a0,1
8000f094:	01f69793          	slli	a5,a3,0x1f
8000f098:	00a5e533          	or	a0,a1,a0
8000f09c:	00a7e533          	or	a0,a5,a0
8000f0a0:	0016d793          	srli	a5,a3,0x1
8000f0a4:	f49ff06f          	j	8000efec <__subdf3+0xb8>
8000f0a8:	fe080693          	addi	a3,a6,-32
8000f0ac:	02000893          	li	a7,32
8000f0b0:	00d756b3          	srl	a3,a4,a3
8000f0b4:	00000593          	li	a1,0
8000f0b8:	01180863          	beq	a6,a7,8000f0c8 <__subdf3+0x194>
8000f0bc:	04000593          	li	a1,64
8000f0c0:	41058833          	sub	a6,a1,a6
8000f0c4:	010715b3          	sll	a1,a4,a6
8000f0c8:	00c5e633          	or	a2,a1,a2
8000f0cc:	00c03633          	snez	a2,a2
8000f0d0:	00c6e633          	or	a2,a3,a2
8000f0d4:	00000713          	li	a4,0
8000f0d8:	f81ff06f          	j	8000f058 <__subdf3+0x124>
8000f0dc:	00c76633          	or	a2,a4,a2
8000f0e0:	00c03633          	snez	a2,a2
8000f0e4:	ff1ff06f          	j	8000f0d4 <__subdf3+0x1a0>
8000f0e8:	0e080263          	beqz	a6,8000f1cc <__subdf3+0x298>
8000f0ec:	408885b3          	sub	a1,a7,s0
8000f0f0:	02041e63          	bnez	s0,8000f12c <__subdf3+0x1f8>
8000f0f4:	00a7e6b3          	or	a3,a5,a0
8000f0f8:	50068463          	beqz	a3,8000f600 <__subdf3+0x6cc>
8000f0fc:	fff58693          	addi	a3,a1,-1
8000f100:	00069c63          	bnez	a3,8000f118 <__subdf3+0x1e4>
8000f104:	00c50533          	add	a0,a0,a2
8000f108:	00e787b3          	add	a5,a5,a4
8000f10c:	00c53633          	sltu	a2,a0,a2
8000f110:	00c787b3          	add	a5,a5,a2
8000f114:	ec9ff06f          	j	8000efdc <__subdf3+0xa8>
8000f118:	7ff00813          	li	a6,2047
8000f11c:	03059263          	bne	a1,a6,8000f140 <__subdf3+0x20c>
8000f120:	00070793          	mv	a5,a4
8000f124:	00060513          	mv	a0,a2
8000f128:	3b00006f          	j	8000f4d8 <__subdf3+0x5a4>
8000f12c:	7ff00693          	li	a3,2047
8000f130:	fed888e3          	beq	a7,a3,8000f120 <__subdf3+0x1ec>
8000f134:	008006b7          	lui	a3,0x800
8000f138:	00d7e7b3          	or	a5,a5,a3
8000f13c:	00058693          	mv	a3,a1
8000f140:	03800593          	li	a1,56
8000f144:	06d5ce63          	blt	a1,a3,8000f1c0 <__subdf3+0x28c>
8000f148:	01f00593          	li	a1,31
8000f14c:	04d5c063          	blt	a1,a3,8000f18c <__subdf3+0x258>
8000f150:	02000813          	li	a6,32
8000f154:	40d80833          	sub	a6,a6,a3
8000f158:	00d55333          	srl	t1,a0,a3
8000f15c:	010795b3          	sll	a1,a5,a6
8000f160:	01051533          	sll	a0,a0,a6
8000f164:	0065e5b3          	or	a1,a1,t1
8000f168:	00a03533          	snez	a0,a0
8000f16c:	00a5e533          	or	a0,a1,a0
8000f170:	00d7d6b3          	srl	a3,a5,a3
8000f174:	00c50533          	add	a0,a0,a2
8000f178:	00e687b3          	add	a5,a3,a4
8000f17c:	00c53633          	sltu	a2,a0,a2
8000f180:	00c787b3          	add	a5,a5,a2
8000f184:	00088413          	mv	s0,a7
8000f188:	ee5ff06f          	j	8000f06c <__subdf3+0x138>
8000f18c:	fe068593          	addi	a1,a3,-32 # 7fffe0 <buflen.2941+0x7fff60>
8000f190:	02000313          	li	t1,32
8000f194:	00b7d5b3          	srl	a1,a5,a1
8000f198:	00000813          	li	a6,0
8000f19c:	00668863          	beq	a3,t1,8000f1ac <__subdf3+0x278>
8000f1a0:	04000813          	li	a6,64
8000f1a4:	40d806b3          	sub	a3,a6,a3
8000f1a8:	00d79833          	sll	a6,a5,a3
8000f1ac:	00a86533          	or	a0,a6,a0
8000f1b0:	00a03533          	snez	a0,a0
8000f1b4:	00a5e533          	or	a0,a1,a0
8000f1b8:	00000693          	li	a3,0
8000f1bc:	fb9ff06f          	j	8000f174 <__subdf3+0x240>
8000f1c0:	00a7e533          	or	a0,a5,a0
8000f1c4:	00a03533          	snez	a0,a0
8000f1c8:	ff1ff06f          	j	8000f1b8 <__subdf3+0x284>
8000f1cc:	00140693          	addi	a3,s0,1
8000f1d0:	7fe6f593          	andi	a1,a3,2046
8000f1d4:	06059463          	bnez	a1,8000f23c <__subdf3+0x308>
8000f1d8:	00a7e6b3          	or	a3,a5,a0
8000f1dc:	04041063          	bnez	s0,8000f21c <__subdf3+0x2e8>
8000f1e0:	42068863          	beqz	a3,8000f610 <__subdf3+0x6dc>
8000f1e4:	00c766b3          	or	a3,a4,a2
8000f1e8:	e00682e3          	beqz	a3,8000efec <__subdf3+0xb8>
8000f1ec:	00c50633          	add	a2,a0,a2
8000f1f0:	00e787b3          	add	a5,a5,a4
8000f1f4:	00a63533          	sltu	a0,a2,a0
8000f1f8:	00a787b3          	add	a5,a5,a0
8000f1fc:	00879713          	slli	a4,a5,0x8
8000f200:	00060513          	mv	a0,a2
8000f204:	de0754e3          	bgez	a4,8000efec <__subdf3+0xb8>
8000f208:	ff800737          	lui	a4,0xff800
8000f20c:	fff70713          	addi	a4,a4,-1 # ff7fffff <__global_pointer$+0x7f7efe5f>
8000f210:	00e7f7b3          	and	a5,a5,a4
8000f214:	00100413          	li	s0,1
8000f218:	dd5ff06f          	j	8000efec <__subdf3+0xb8>
8000f21c:	f00682e3          	beqz	a3,8000f120 <__subdf3+0x1ec>
8000f220:	00c76633          	or	a2,a4,a2
8000f224:	2a060a63          	beqz	a2,8000f4d8 <__subdf3+0x5a4>
8000f228:	00000493          	li	s1,0
8000f22c:	004007b7          	lui	a5,0x400
8000f230:	00000513          	li	a0,0
8000f234:	7ff00413          	li	s0,2047
8000f238:	3f00006f          	j	8000f628 <__subdf3+0x6f4>
8000f23c:	7ff00593          	li	a1,2047
8000f240:	3cb68e63          	beq	a3,a1,8000f61c <__subdf3+0x6e8>
8000f244:	00c50633          	add	a2,a0,a2
8000f248:	00e78733          	add	a4,a5,a4
8000f24c:	00a637b3          	sltu	a5,a2,a0
8000f250:	00f70733          	add	a4,a4,a5
8000f254:	01f71513          	slli	a0,a4,0x1f
8000f258:	00165613          	srli	a2,a2,0x1
8000f25c:	00c56533          	or	a0,a0,a2
8000f260:	00175793          	srli	a5,a4,0x1
8000f264:	00068413          	mv	s0,a3
8000f268:	d85ff06f          	j	8000efec <__subdf3+0xb8>
8000f26c:	0f005a63          	blez	a6,8000f360 <__subdf3+0x42c>
8000f270:	08089e63          	bnez	a7,8000f30c <__subdf3+0x3d8>
8000f274:	00c766b3          	or	a3,a4,a2
8000f278:	d6068ae3          	beqz	a3,8000efec <__subdf3+0xb8>
8000f27c:	fff40813          	addi	a6,s0,-1
8000f280:	02081063          	bnez	a6,8000f2a0 <__subdf3+0x36c>
8000f284:	40c50633          	sub	a2,a0,a2
8000f288:	00c53533          	sltu	a0,a0,a2
8000f28c:	40e787b3          	sub	a5,a5,a4
8000f290:	40a787b3          	sub	a5,a5,a0
8000f294:	00060513          	mv	a0,a2
8000f298:	00100413          	li	s0,1
8000f29c:	0540006f          	j	8000f2f0 <__subdf3+0x3bc>
8000f2a0:	7ff00693          	li	a3,2047
8000f2a4:	d4d404e3          	beq	s0,a3,8000efec <__subdf3+0xb8>
8000f2a8:	03800693          	li	a3,56
8000f2ac:	0b06c463          	blt	a3,a6,8000f354 <__subdf3+0x420>
8000f2b0:	01f00693          	li	a3,31
8000f2b4:	0706c663          	blt	a3,a6,8000f320 <__subdf3+0x3ec>
8000f2b8:	02000593          	li	a1,32
8000f2bc:	410585b3          	sub	a1,a1,a6
8000f2c0:	00b716b3          	sll	a3,a4,a1
8000f2c4:	010658b3          	srl	a7,a2,a6
8000f2c8:	00b61633          	sll	a2,a2,a1
8000f2cc:	0116e6b3          	or	a3,a3,a7
8000f2d0:	00c03633          	snez	a2,a2
8000f2d4:	00c6e633          	or	a2,a3,a2
8000f2d8:	01075733          	srl	a4,a4,a6
8000f2dc:	40c50633          	sub	a2,a0,a2
8000f2e0:	40e78733          	sub	a4,a5,a4
8000f2e4:	00c537b3          	sltu	a5,a0,a2
8000f2e8:	40f707b3          	sub	a5,a4,a5
8000f2ec:	00060513          	mv	a0,a2
8000f2f0:	00879713          	slli	a4,a5,0x8
8000f2f4:	ce075ce3          	bgez	a4,8000efec <__subdf3+0xb8>
8000f2f8:	00800937          	lui	s2,0x800
8000f2fc:	fff90913          	addi	s2,s2,-1 # 7fffff <buflen.2941+0x7fff7f>
8000f300:	0127f933          	and	s2,a5,s2
8000f304:	00050993          	mv	s3,a0
8000f308:	20c0006f          	j	8000f514 <__subdf3+0x5e0>
8000f30c:	7ff00693          	li	a3,2047
8000f310:	ccd40ee3          	beq	s0,a3,8000efec <__subdf3+0xb8>
8000f314:	008006b7          	lui	a3,0x800
8000f318:	00d76733          	or	a4,a4,a3
8000f31c:	f8dff06f          	j	8000f2a8 <__subdf3+0x374>
8000f320:	fe080693          	addi	a3,a6,-32
8000f324:	02000893          	li	a7,32
8000f328:	00d756b3          	srl	a3,a4,a3
8000f32c:	00000593          	li	a1,0
8000f330:	01180863          	beq	a6,a7,8000f340 <__subdf3+0x40c>
8000f334:	04000593          	li	a1,64
8000f338:	41058833          	sub	a6,a1,a6
8000f33c:	010715b3          	sll	a1,a4,a6
8000f340:	00c5e633          	or	a2,a1,a2
8000f344:	00c03633          	snez	a2,a2
8000f348:	00c6e633          	or	a2,a3,a2
8000f34c:	00000713          	li	a4,0
8000f350:	f8dff06f          	j	8000f2dc <__subdf3+0x3a8>
8000f354:	00c76633          	or	a2,a4,a2
8000f358:	00c03633          	snez	a2,a2
8000f35c:	ff1ff06f          	j	8000f34c <__subdf3+0x418>
8000f360:	0e080863          	beqz	a6,8000f450 <__subdf3+0x51c>
8000f364:	40888833          	sub	a6,a7,s0
8000f368:	04041263          	bnez	s0,8000f3ac <__subdf3+0x478>
8000f36c:	00a7e6b3          	or	a3,a5,a0
8000f370:	34068463          	beqz	a3,8000f6b8 <__subdf3+0x784>
8000f374:	fff80693          	addi	a3,a6,-1
8000f378:	00069e63          	bnez	a3,8000f394 <__subdf3+0x460>
8000f37c:	40a60533          	sub	a0,a2,a0
8000f380:	40f707b3          	sub	a5,a4,a5
8000f384:	00a63633          	sltu	a2,a2,a0
8000f388:	40c787b3          	sub	a5,a5,a2
8000f38c:	00058493          	mv	s1,a1
8000f390:	f09ff06f          	j	8000f298 <__subdf3+0x364>
8000f394:	7ff00313          	li	t1,2047
8000f398:	02681463          	bne	a6,t1,8000f3c0 <__subdf3+0x48c>
8000f39c:	00070793          	mv	a5,a4
8000f3a0:	00060513          	mv	a0,a2
8000f3a4:	7ff00413          	li	s0,2047
8000f3a8:	0d00006f          	j	8000f478 <__subdf3+0x544>
8000f3ac:	7ff00693          	li	a3,2047
8000f3b0:	fed886e3          	beq	a7,a3,8000f39c <__subdf3+0x468>
8000f3b4:	008006b7          	lui	a3,0x800
8000f3b8:	00d7e7b3          	or	a5,a5,a3
8000f3bc:	00080693          	mv	a3,a6
8000f3c0:	03800813          	li	a6,56
8000f3c4:	08d84063          	blt	a6,a3,8000f444 <__subdf3+0x510>
8000f3c8:	01f00813          	li	a6,31
8000f3cc:	04d84263          	blt	a6,a3,8000f410 <__subdf3+0x4dc>
8000f3d0:	02000313          	li	t1,32
8000f3d4:	40d30333          	sub	t1,t1,a3
8000f3d8:	00d55e33          	srl	t3,a0,a3
8000f3dc:	00679833          	sll	a6,a5,t1
8000f3e0:	00651533          	sll	a0,a0,t1
8000f3e4:	01c86833          	or	a6,a6,t3
8000f3e8:	00a03533          	snez	a0,a0
8000f3ec:	00a86533          	or	a0,a6,a0
8000f3f0:	00d7d6b3          	srl	a3,a5,a3
8000f3f4:	40a60533          	sub	a0,a2,a0
8000f3f8:	40d707b3          	sub	a5,a4,a3
8000f3fc:	00a63633          	sltu	a2,a2,a0
8000f400:	40c787b3          	sub	a5,a5,a2
8000f404:	00088413          	mv	s0,a7
8000f408:	00058493          	mv	s1,a1
8000f40c:	ee5ff06f          	j	8000f2f0 <__subdf3+0x3bc>
8000f410:	fe068813          	addi	a6,a3,-32 # 7fffe0 <buflen.2941+0x7fff60>
8000f414:	02000e13          	li	t3,32
8000f418:	0107d833          	srl	a6,a5,a6
8000f41c:	00000313          	li	t1,0
8000f420:	01c68863          	beq	a3,t3,8000f430 <__subdf3+0x4fc>
8000f424:	04000313          	li	t1,64
8000f428:	40d306b3          	sub	a3,t1,a3
8000f42c:	00d79333          	sll	t1,a5,a3
8000f430:	00a36533          	or	a0,t1,a0
8000f434:	00a03533          	snez	a0,a0
8000f438:	00a86533          	or	a0,a6,a0
8000f43c:	00000693          	li	a3,0
8000f440:	fb5ff06f          	j	8000f3f4 <__subdf3+0x4c0>
8000f444:	00a7e533          	or	a0,a5,a0
8000f448:	00a03533          	snez	a0,a0
8000f44c:	ff1ff06f          	j	8000f43c <__subdf3+0x508>
8000f450:	00140693          	addi	a3,s0,1
8000f454:	7fe6f693          	andi	a3,a3,2046
8000f458:	08069863          	bnez	a3,8000f4e8 <__subdf3+0x5b4>
8000f45c:	00a7e833          	or	a6,a5,a0
8000f460:	00c766b3          	or	a3,a4,a2
8000f464:	06041063          	bnez	s0,8000f4c4 <__subdf3+0x590>
8000f468:	00081c63          	bnez	a6,8000f480 <__subdf3+0x54c>
8000f46c:	24068e63          	beqz	a3,8000f6c8 <__subdf3+0x794>
8000f470:	00070793          	mv	a5,a4
8000f474:	00060513          	mv	a0,a2
8000f478:	00058493          	mv	s1,a1
8000f47c:	b71ff06f          	j	8000efec <__subdf3+0xb8>
8000f480:	b60686e3          	beqz	a3,8000efec <__subdf3+0xb8>
8000f484:	40c50833          	sub	a6,a0,a2
8000f488:	010538b3          	sltu	a7,a0,a6
8000f48c:	40e786b3          	sub	a3,a5,a4
8000f490:	411686b3          	sub	a3,a3,a7
8000f494:	00869893          	slli	a7,a3,0x8
8000f498:	0008dc63          	bgez	a7,8000f4b0 <__subdf3+0x57c>
8000f49c:	40a60533          	sub	a0,a2,a0
8000f4a0:	40f707b3          	sub	a5,a4,a5
8000f4a4:	00a63633          	sltu	a2,a2,a0
8000f4a8:	40c787b3          	sub	a5,a5,a2
8000f4ac:	fcdff06f          	j	8000f478 <__subdf3+0x544>
8000f4b0:	00d86533          	or	a0,a6,a3
8000f4b4:	22050263          	beqz	a0,8000f6d8 <__subdf3+0x7a4>
8000f4b8:	00068793          	mv	a5,a3
8000f4bc:	00080513          	mv	a0,a6
8000f4c0:	b2dff06f          	j	8000efec <__subdf3+0xb8>
8000f4c4:	00081e63          	bnez	a6,8000f4e0 <__subdf3+0x5ac>
8000f4c8:	20068c63          	beqz	a3,8000f6e0 <__subdf3+0x7ac>
8000f4cc:	00070793          	mv	a5,a4
8000f4d0:	00060513          	mv	a0,a2
8000f4d4:	00058493          	mv	s1,a1
8000f4d8:	7ff00413          	li	s0,2047
8000f4dc:	b11ff06f          	j	8000efec <__subdf3+0xb8>
8000f4e0:	fe068ce3          	beqz	a3,8000f4d8 <__subdf3+0x5a4>
8000f4e4:	d45ff06f          	j	8000f228 <__subdf3+0x2f4>
8000f4e8:	40c509b3          	sub	s3,a0,a2
8000f4ec:	013536b3          	sltu	a3,a0,s3
8000f4f0:	40e78933          	sub	s2,a5,a4
8000f4f4:	40d90933          	sub	s2,s2,a3
8000f4f8:	00891693          	slli	a3,s2,0x8
8000f4fc:	0806d463          	bgez	a3,8000f584 <__subdf3+0x650>
8000f500:	40a609b3          	sub	s3,a2,a0
8000f504:	40f707b3          	sub	a5,a4,a5
8000f508:	01363633          	sltu	a2,a2,s3
8000f50c:	40c78933          	sub	s2,a5,a2
8000f510:	00058493          	mv	s1,a1
8000f514:	08090263          	beqz	s2,8000f598 <__subdf3+0x664>
8000f518:	00090513          	mv	a0,s2
8000f51c:	414000ef          	jal	ra,8000f930 <__clzsi2>
8000f520:	ff850713          	addi	a4,a0,-8
8000f524:	01f00793          	li	a5,31
8000f528:	08e7c063          	blt	a5,a4,8000f5a8 <__subdf3+0x674>
8000f52c:	02000693          	li	a3,32
8000f530:	40e686b3          	sub	a3,a3,a4
8000f534:	00e917b3          	sll	a5,s2,a4
8000f538:	00d9d6b3          	srl	a3,s3,a3
8000f53c:	00f6e6b3          	or	a3,a3,a5
8000f540:	00e99533          	sll	a0,s3,a4
8000f544:	0a874463          	blt	a4,s0,8000f5ec <__subdf3+0x6b8>
8000f548:	40870733          	sub	a4,a4,s0
8000f54c:	00170793          	addi	a5,a4,1
8000f550:	01f00613          	li	a2,31
8000f554:	06f64263          	blt	a2,a5,8000f5b8 <__subdf3+0x684>
8000f558:	02000713          	li	a4,32
8000f55c:	40f70733          	sub	a4,a4,a5
8000f560:	00f555b3          	srl	a1,a0,a5
8000f564:	00e69633          	sll	a2,a3,a4
8000f568:	00e51533          	sll	a0,a0,a4
8000f56c:	00b66633          	or	a2,a2,a1
8000f570:	00a03533          	snez	a0,a0
8000f574:	00a66533          	or	a0,a2,a0
8000f578:	00f6d7b3          	srl	a5,a3,a5
8000f57c:	00000413          	li	s0,0
8000f580:	a6dff06f          	j	8000efec <__subdf3+0xb8>
8000f584:	0129e533          	or	a0,s3,s2
8000f588:	f80516e3          	bnez	a0,8000f514 <__subdf3+0x5e0>
8000f58c:	00000793          	li	a5,0
8000f590:	00000413          	li	s0,0
8000f594:	13c0006f          	j	8000f6d0 <__subdf3+0x79c>
8000f598:	00098513          	mv	a0,s3
8000f59c:	394000ef          	jal	ra,8000f930 <__clzsi2>
8000f5a0:	02050513          	addi	a0,a0,32
8000f5a4:	f7dff06f          	j	8000f520 <__subdf3+0x5ec>
8000f5a8:	fd850513          	addi	a0,a0,-40
8000f5ac:	00a996b3          	sll	a3,s3,a0
8000f5b0:	00000513          	li	a0,0
8000f5b4:	f91ff06f          	j	8000f544 <__subdf3+0x610>
8000f5b8:	fe170713          	addi	a4,a4,-31
8000f5bc:	02000593          	li	a1,32
8000f5c0:	00e6d733          	srl	a4,a3,a4
8000f5c4:	00000613          	li	a2,0
8000f5c8:	00b78863          	beq	a5,a1,8000f5d8 <__subdf3+0x6a4>
8000f5cc:	04000613          	li	a2,64
8000f5d0:	40f60633          	sub	a2,a2,a5
8000f5d4:	00c69633          	sll	a2,a3,a2
8000f5d8:	00c56533          	or	a0,a0,a2
8000f5dc:	00a03533          	snez	a0,a0
8000f5e0:	00a76533          	or	a0,a4,a0
8000f5e4:	00000793          	li	a5,0
8000f5e8:	f95ff06f          	j	8000f57c <__subdf3+0x648>
8000f5ec:	ff8007b7          	lui	a5,0xff800
8000f5f0:	fff78793          	addi	a5,a5,-1 # ff7fffff <__global_pointer$+0x7f7efe5f>
8000f5f4:	40e40433          	sub	s0,s0,a4
8000f5f8:	00f6f7b3          	and	a5,a3,a5
8000f5fc:	9f1ff06f          	j	8000efec <__subdf3+0xb8>
8000f600:	00070793          	mv	a5,a4
8000f604:	00060513          	mv	a0,a2
8000f608:	00058413          	mv	s0,a1
8000f60c:	9e1ff06f          	j	8000efec <__subdf3+0xb8>
8000f610:	00070793          	mv	a5,a4
8000f614:	00060513          	mv	a0,a2
8000f618:	9d5ff06f          	j	8000efec <__subdf3+0xb8>
8000f61c:	7ff00413          	li	s0,2047
8000f620:	00000793          	li	a5,0
8000f624:	00000513          	li	a0,0
8000f628:	00879713          	slli	a4,a5,0x8
8000f62c:	00075e63          	bgez	a4,8000f648 <__subdf3+0x714>
8000f630:	00140413          	addi	s0,s0,1
8000f634:	7ff00713          	li	a4,2047
8000f638:	0ae40c63          	beq	s0,a4,8000f6f0 <__subdf3+0x7bc>
8000f63c:	ff800737          	lui	a4,0xff800
8000f640:	fff70713          	addi	a4,a4,-1 # ff7fffff <__global_pointer$+0x7f7efe5f>
8000f644:	00e7f7b3          	and	a5,a5,a4
8000f648:	01d79713          	slli	a4,a5,0x1d
8000f64c:	00355513          	srli	a0,a0,0x3
8000f650:	00a76533          	or	a0,a4,a0
8000f654:	7ff00713          	li	a4,2047
8000f658:	0037d793          	srli	a5,a5,0x3
8000f65c:	00e41e63          	bne	s0,a4,8000f678 <__subdf3+0x744>
8000f660:	00f56533          	or	a0,a0,a5
8000f664:	00000793          	li	a5,0
8000f668:	00050863          	beqz	a0,8000f678 <__subdf3+0x744>
8000f66c:	000807b7          	lui	a5,0x80
8000f670:	00000513          	li	a0,0
8000f674:	00000493          	li	s1,0
8000f678:	01441713          	slli	a4,s0,0x14
8000f67c:	7ff006b7          	lui	a3,0x7ff00
8000f680:	00c79793          	slli	a5,a5,0xc
8000f684:	01c12083          	lw	ra,28(sp)
8000f688:	01812403          	lw	s0,24(sp)
8000f68c:	00d77733          	and	a4,a4,a3
8000f690:	00c7d793          	srli	a5,a5,0xc
8000f694:	01f49493          	slli	s1,s1,0x1f
8000f698:	00f767b3          	or	a5,a4,a5
8000f69c:	0097e733          	or	a4,a5,s1
8000f6a0:	01012903          	lw	s2,16(sp)
8000f6a4:	01412483          	lw	s1,20(sp)
8000f6a8:	00c12983          	lw	s3,12(sp)
8000f6ac:	00070593          	mv	a1,a4
8000f6b0:	02010113          	addi	sp,sp,32
8000f6b4:	00008067          	ret
8000f6b8:	00070793          	mv	a5,a4
8000f6bc:	00060513          	mv	a0,a2
8000f6c0:	00080413          	mv	s0,a6
8000f6c4:	db5ff06f          	j	8000f478 <__subdf3+0x544>
8000f6c8:	00000793          	li	a5,0
8000f6cc:	00000513          	li	a0,0
8000f6d0:	00000493          	li	s1,0
8000f6d4:	f55ff06f          	j	8000f628 <__subdf3+0x6f4>
8000f6d8:	00000793          	li	a5,0
8000f6dc:	ff5ff06f          	j	8000f6d0 <__subdf3+0x79c>
8000f6e0:	00000513          	li	a0,0
8000f6e4:	00000493          	li	s1,0
8000f6e8:	004007b7          	lui	a5,0x400
8000f6ec:	b49ff06f          	j	8000f234 <__subdf3+0x300>
8000f6f0:	00000793          	li	a5,0
8000f6f4:	00000513          	li	a0,0
8000f6f8:	f51ff06f          	j	8000f648 <__subdf3+0x714>

8000f6fc <__floatundidf>:
8000f6fc:	fe010113          	addi	sp,sp,-32
8000f700:	00112e23          	sw	ra,28(sp)
8000f704:	00812c23          	sw	s0,24(sp)
8000f708:	00912a23          	sw	s1,20(sp)
8000f70c:	01212823          	sw	s2,16(sp)
8000f710:	01312623          	sw	s3,12(sp)
8000f714:	01412423          	sw	s4,8(sp)
8000f718:	00b567b3          	or	a5,a0,a1
8000f71c:	18078a63          	beqz	a5,8000f8b0 <__floatundidf+0x1b4>
8000f720:	00050413          	mv	s0,a0
8000f724:	00058913          	mv	s2,a1
8000f728:	00058493          	mv	s1,a1
8000f72c:	08058463          	beqz	a1,8000f7b4 <__floatundidf+0xb8>
8000f730:	00058513          	mv	a0,a1
8000f734:	1fc000ef          	jal	ra,8000f930 <__clzsi2>
8000f738:	00050993          	mv	s3,a0
8000f73c:	43e00a13          	li	s4,1086
8000f740:	413a0a33          	sub	s4,s4,s3
8000f744:	43300793          	li	a5,1075
8000f748:	0947c463          	blt	a5,s4,8000f7d0 <__floatundidf+0xd4>
8000f74c:	00b00713          	li	a4,11
8000f750:	00040793          	mv	a5,s0
8000f754:	03375463          	bge	a4,s3,8000f77c <__floatundidf+0x80>
8000f758:	02a00713          	li	a4,42
8000f75c:	07374263          	blt	a4,s3,8000f7c0 <__floatundidf+0xc4>
8000f760:	02b00493          	li	s1,43
8000f764:	ff598713          	addi	a4,s3,-11
8000f768:	413484b3          	sub	s1,s1,s3
8000f76c:	009454b3          	srl	s1,s0,s1
8000f770:	00e915b3          	sll	a1,s2,a4
8000f774:	00b4e4b3          	or	s1,s1,a1
8000f778:	00e417b3          	sll	a5,s0,a4
8000f77c:	01c12083          	lw	ra,28(sp)
8000f780:	01812403          	lw	s0,24(sp)
8000f784:	00c49593          	slli	a1,s1,0xc
8000f788:	014a1a13          	slli	s4,s4,0x14
8000f78c:	00c5d593          	srli	a1,a1,0xc
8000f790:	00ba6733          	or	a4,s4,a1
8000f794:	01412483          	lw	s1,20(sp)
8000f798:	01012903          	lw	s2,16(sp)
8000f79c:	00c12983          	lw	s3,12(sp)
8000f7a0:	00812a03          	lw	s4,8(sp)
8000f7a4:	00078513          	mv	a0,a5
8000f7a8:	00070593          	mv	a1,a4
8000f7ac:	02010113          	addi	sp,sp,32
8000f7b0:	00008067          	ret
8000f7b4:	17c000ef          	jal	ra,8000f930 <__clzsi2>
8000f7b8:	02050993          	addi	s3,a0,32
8000f7bc:	f81ff06f          	j	8000f73c <__floatundidf+0x40>
8000f7c0:	fd598593          	addi	a1,s3,-43
8000f7c4:	00b414b3          	sll	s1,s0,a1
8000f7c8:	00000793          	li	a5,0
8000f7cc:	fb1ff06f          	j	8000f77c <__floatundidf+0x80>
8000f7d0:	43600793          	li	a5,1078
8000f7d4:	0347dc63          	bge	a5,s4,8000f80c <__floatundidf+0x110>
8000f7d8:	03898613          	addi	a2,s3,56
8000f7dc:	00040513          	mv	a0,s0
8000f7e0:	00090593          	mv	a1,s2
8000f7e4:	114000ef          	jal	ra,8000f8f8 <__ashldi3>
8000f7e8:	00b56533          	or	a0,a0,a1
8000f7ec:	00800613          	li	a2,8
8000f7f0:	00a034b3          	snez	s1,a0
8000f7f4:	00090593          	mv	a1,s2
8000f7f8:	00040513          	mv	a0,s0
8000f7fc:	41360633          	sub	a2,a2,s3
8000f800:	0c0000ef          	jal	ra,8000f8c0 <__lshrdi3>
8000f804:	00a4e433          	or	s0,s1,a0
8000f808:	00058913          	mv	s2,a1
8000f80c:	00800713          	li	a4,8
8000f810:	00040793          	mv	a5,s0
8000f814:	00090593          	mv	a1,s2
8000f818:	03375463          	bge	a4,s3,8000f840 <__floatundidf+0x144>
8000f81c:	02700713          	li	a4,39
8000f820:	09374063          	blt	a4,s3,8000f8a0 <__floatundidf+0x1a4>
8000f824:	ff898713          	addi	a4,s3,-8
8000f828:	00e915b3          	sll	a1,s2,a4
8000f82c:	02800913          	li	s2,40
8000f830:	41390933          	sub	s2,s2,s3
8000f834:	01245933          	srl	s2,s0,s2
8000f838:	00b965b3          	or	a1,s2,a1
8000f83c:	00e417b3          	sll	a5,s0,a4
8000f840:	ff800737          	lui	a4,0xff800
8000f844:	fff70713          	addi	a4,a4,-1 # ff7fffff <__global_pointer$+0x7f7efe5f>
8000f848:	00e5f5b3          	and	a1,a1,a4
8000f84c:	0077f713          	andi	a4,a5,7
8000f850:	02070063          	beqz	a4,8000f870 <__floatundidf+0x174>
8000f854:	00f7f713          	andi	a4,a5,15
8000f858:	00400693          	li	a3,4
8000f85c:	00d70a63          	beq	a4,a3,8000f870 <__floatundidf+0x174>
8000f860:	00478713          	addi	a4,a5,4 # 400004 <buflen.2941+0x3fff84>
8000f864:	00f737b3          	sltu	a5,a4,a5
8000f868:	00f585b3          	add	a1,a1,a5
8000f86c:	00070793          	mv	a5,a4
8000f870:	00859713          	slli	a4,a1,0x8
8000f874:	00075c63          	bgez	a4,8000f88c <__floatundidf+0x190>
8000f878:	ff800737          	lui	a4,0xff800
8000f87c:	fff70713          	addi	a4,a4,-1 # ff7fffff <__global_pointer$+0x7f7efe5f>
8000f880:	43f00a13          	li	s4,1087
8000f884:	00e5f5b3          	and	a1,a1,a4
8000f888:	413a0a33          	sub	s4,s4,s3
8000f88c:	0037d793          	srli	a5,a5,0x3
8000f890:	01d59513          	slli	a0,a1,0x1d
8000f894:	00f567b3          	or	a5,a0,a5
8000f898:	0035d493          	srli	s1,a1,0x3
8000f89c:	ee1ff06f          	j	8000f77c <__floatundidf+0x80>
8000f8a0:	fd898593          	addi	a1,s3,-40
8000f8a4:	00b415b3          	sll	a1,s0,a1
8000f8a8:	00000793          	li	a5,0
8000f8ac:	f95ff06f          	j	8000f840 <__floatundidf+0x144>
8000f8b0:	00000493          	li	s1,0
8000f8b4:	00000793          	li	a5,0
8000f8b8:	00000a13          	li	s4,0
8000f8bc:	ec1ff06f          	j	8000f77c <__floatundidf+0x80>

8000f8c0 <__lshrdi3>:
8000f8c0:	02060063          	beqz	a2,8000f8e0 <__lshrdi3+0x20>
8000f8c4:	02000793          	li	a5,32
8000f8c8:	40c787b3          	sub	a5,a5,a2
8000f8cc:	00f04c63          	bgtz	a5,8000f8e4 <__lshrdi3+0x24>
8000f8d0:	fe060513          	addi	a0,a2,-32 # ffffe0 <buflen.2941+0xffff60>
8000f8d4:	00000713          	li	a4,0
8000f8d8:	00a5d533          	srl	a0,a1,a0
8000f8dc:	00070593          	mv	a1,a4
8000f8e0:	00008067          	ret
8000f8e4:	00c5d733          	srl	a4,a1,a2
8000f8e8:	00c55533          	srl	a0,a0,a2
8000f8ec:	00f595b3          	sll	a1,a1,a5
8000f8f0:	00b56533          	or	a0,a0,a1
8000f8f4:	fe9ff06f          	j	8000f8dc <__lshrdi3+0x1c>

8000f8f8 <__ashldi3>:
8000f8f8:	02060063          	beqz	a2,8000f918 <__ashldi3+0x20>
8000f8fc:	02000793          	li	a5,32
8000f900:	40c787b3          	sub	a5,a5,a2
8000f904:	00f04c63          	bgtz	a5,8000f91c <__ashldi3+0x24>
8000f908:	fe060593          	addi	a1,a2,-32
8000f90c:	00000713          	li	a4,0
8000f910:	00b515b3          	sll	a1,a0,a1
8000f914:	00070513          	mv	a0,a4
8000f918:	00008067          	ret
8000f91c:	00c51733          	sll	a4,a0,a2
8000f920:	00c595b3          	sll	a1,a1,a2
8000f924:	00f55533          	srl	a0,a0,a5
8000f928:	00a5e5b3          	or	a1,a1,a0
8000f92c:	fe9ff06f          	j	8000f914 <__ashldi3+0x1c>

8000f930 <__clzsi2>:
8000f930:	000107b7          	lui	a5,0x10
8000f934:	02f57863          	bgeu	a0,a5,8000f964 <__clzsi2+0x34>
8000f938:	0ff00793          	li	a5,255
8000f93c:	00a7b7b3          	sltu	a5,a5,a0
8000f940:	00379793          	slli	a5,a5,0x3
8000f944:	02000693          	li	a3,32
8000f948:	40f686b3          	sub	a3,a3,a5
8000f94c:	00f55533          	srl	a0,a0,a5
8000f950:	a8018793          	addi	a5,gp,-1408 # 8000fc20 <__clz_tab>
8000f954:	00a78533          	add	a0,a5,a0
8000f958:	00054503          	lbu	a0,0(a0)
8000f95c:	40a68533          	sub	a0,a3,a0
8000f960:	00008067          	ret
8000f964:	01000737          	lui	a4,0x1000
8000f968:	01000793          	li	a5,16
8000f96c:	fce56ce3          	bltu	a0,a4,8000f944 <__clzsi2+0x14>
8000f970:	01800793          	li	a5,24
8000f974:	fd1ff06f          	j	8000f944 <__clzsi2+0x14>

セクション .text.startup の逆アセンブル:

8000f978 <main>:
8000f978:	ff010113          	addi	sp,sp,-16
8000f97c:	00000517          	auipc	a0,0x0
8000f980:	0ec50513          	addi	a0,a0,236 # 8000fa68 <main+0xf0>
8000f984:	00112623          	sw	ra,12(sp)
8000f988:	e40fd0ef          	jal	ra,8000cfc8 <printstr>
8000f98c:	00c12083          	lw	ra,12(sp)
8000f990:	fff00513          	li	a0,-1
8000f994:	01010113          	addi	sp,sp,16
8000f998:	00008067          	ret
