
qsort.riscv:     ファイル形式 elf32-littleriscv


セクション .text.init の逆アセンブル:

80000000 <_start>:
80000000:	00000093          	li	ra,0
80000004:	00000113          	li	sp,0
80000008:	00000193          	li	gp,0
8000000c:	00000213          	li	tp,0
80000010:	00000293          	li	t0,0
80000014:	00000313          	li	t1,0
80000018:	00000393          	li	t2,0
8000001c:	00000413          	li	s0,0
80000020:	00000493          	li	s1,0
80000024:	00000513          	li	a0,0
80000028:	00000593          	li	a1,0
8000002c:	00000613          	li	a2,0
80000030:	00000693          	li	a3,0
80000034:	00000713          	li	a4,0
80000038:	00000793          	li	a5,0
8000003c:	00000813          	li	a6,0
80000040:	00000893          	li	a7,0
80000044:	00000913          	li	s2,0
80000048:	00000993          	li	s3,0
8000004c:	00000a13          	li	s4,0
80000050:	00000a93          	li	s5,0
80000054:	00000b13          	li	s6,0
80000058:	00000b93          	li	s7,0
8000005c:	00000c13          	li	s8,0
80000060:	00000c93          	li	s9,0
80000064:	00000d13          	li	s10,0
80000068:	00000d93          	li	s11,0
8000006c:	00000e13          	li	t3,0
80000070:	00000e93          	li	t4,0
80000074:	00000f13          	li	t5,0
80000078:	00000f93          	li	t6,0
8000007c:	0001e2b7          	lui	t0,0x1e
80000080:	3002a073          	csrs	mstatus,t0
80000084:	00100293          	li	t0,1
80000088:	01f29293          	slli	t0,t0,0x1f
8000008c:	0002ca63          	bltz	t0,800000a0 <_start+0xa0>
80000090:	00100513          	li	a0,1
80000094:	00001297          	auipc	t0,0x1
80000098:	f6a2a623          	sw	a0,-148(t0) # 80001000 <tohost>
8000009c:	ff5ff06f          	j	80000090 <_start+0x90>
800000a0:	00000297          	auipc	t0,0x0
800000a4:	04028293          	addi	t0,t0,64 # 800000e0 <trap_entry>
800000a8:	30529073          	csrw	mtvec,t0
800000ac:	00007197          	auipc	gp,0x7
800000b0:	4c018193          	addi	gp,gp,1216 # 8000756c <__global_pointer$>
800000b4:	85318213          	addi	tp,gp,-1965 # 80006dbf <_end+0x3f>
800000b8:	fc027213          	andi	tp,tp,-64
800000bc:	f1402573          	csrr	a0,mhartid
800000c0:	00100593          	li	a1,1
800000c4:	00b57063          	bgeu	a0,a1,800000c4 <_start+0xc4>
800000c8:	00150113          	addi	sp,a0,1
800000cc:	01111113          	slli	sp,sp,0x11
800000d0:	00410133          	add	sp,sp,tp
800000d4:	01151613          	slli	a2,a0,0x11
800000d8:	00c20233          	add	tp,tp,a2
800000dc:	2350106f          	j	80001b10 <_init>

800000e0 <trap_entry>:
800000e0:	ef010113          	addi	sp,sp,-272
800000e4:	00112223          	sw	ra,4(sp)
800000e8:	00212423          	sw	sp,8(sp)
800000ec:	00312623          	sw	gp,12(sp)
800000f0:	00412823          	sw	tp,16(sp)
800000f4:	00512a23          	sw	t0,20(sp)
800000f8:	00612c23          	sw	t1,24(sp)
800000fc:	00712e23          	sw	t2,28(sp)
80000100:	02812023          	sw	s0,32(sp)
80000104:	02912223          	sw	s1,36(sp)
80000108:	02a12423          	sw	a0,40(sp)
8000010c:	02b12623          	sw	a1,44(sp)
80000110:	02c12823          	sw	a2,48(sp)
80000114:	02d12a23          	sw	a3,52(sp)
80000118:	02e12c23          	sw	a4,56(sp)
8000011c:	02f12e23          	sw	a5,60(sp)
80000120:	05012023          	sw	a6,64(sp)
80000124:	05112223          	sw	a7,68(sp)
80000128:	05212423          	sw	s2,72(sp)
8000012c:	05312623          	sw	s3,76(sp)
80000130:	05412823          	sw	s4,80(sp)
80000134:	05512a23          	sw	s5,84(sp)
80000138:	05612c23          	sw	s6,88(sp)
8000013c:	05712e23          	sw	s7,92(sp)
80000140:	07812023          	sw	s8,96(sp)
80000144:	07912223          	sw	s9,100(sp)
80000148:	07a12423          	sw	s10,104(sp)
8000014c:	07b12623          	sw	s11,108(sp)
80000150:	07c12823          	sw	t3,112(sp)
80000154:	07d12a23          	sw	t4,116(sp)
80000158:	07e12c23          	sw	t5,120(sp)
8000015c:	07f12e23          	sw	t6,124(sp)
80000160:	34202573          	csrr	a0,mcause
80000164:	341025f3          	csrr	a1,mepc
80000168:	00010613          	mv	a2,sp
8000016c:	734010ef          	jal	ra,800018a0 <handle_trap>
80000170:	34151073          	csrw	mepc,a0
80000174:	000022b7          	lui	t0,0x2
80000178:	80028293          	addi	t0,t0,-2048 # 1800 <buflen.2941+0x17c0>
8000017c:	3002a073          	csrs	mstatus,t0
80000180:	00412083          	lw	ra,4(sp)
80000184:	00812103          	lw	sp,8(sp)
80000188:	00c12183          	lw	gp,12(sp)
8000018c:	01012203          	lw	tp,16(sp)
80000190:	01412283          	lw	t0,20(sp)
80000194:	01812303          	lw	t1,24(sp)
80000198:	01c12383          	lw	t2,28(sp)
8000019c:	02012403          	lw	s0,32(sp)
800001a0:	02412483          	lw	s1,36(sp)
800001a4:	02812503          	lw	a0,40(sp)
800001a8:	02c12583          	lw	a1,44(sp)
800001ac:	03012603          	lw	a2,48(sp)
800001b0:	03412683          	lw	a3,52(sp)
800001b4:	03812703          	lw	a4,56(sp)
800001b8:	03c12783          	lw	a5,60(sp)
800001bc:	04012803          	lw	a6,64(sp)
800001c0:	04412883          	lw	a7,68(sp)
800001c4:	04812903          	lw	s2,72(sp)
800001c8:	04c12983          	lw	s3,76(sp)
800001cc:	05012a03          	lw	s4,80(sp)
800001d0:	05412a83          	lw	s5,84(sp)
800001d4:	05812b03          	lw	s6,88(sp)
800001d8:	05c12b83          	lw	s7,92(sp)
800001dc:	06012c03          	lw	s8,96(sp)
800001e0:	06412c83          	lw	s9,100(sp)
800001e4:	06812d03          	lw	s10,104(sp)
800001e8:	06c12d83          	lw	s11,108(sp)
800001ec:	07012e03          	lw	t3,112(sp)
800001f0:	07412e83          	lw	t4,116(sp)
800001f4:	07812f03          	lw	t5,120(sp)
800001f8:	07c12f83          	lw	t6,124(sp)
800001fc:	11010113          	addi	sp,sp,272
80000200:	30200073          	mret

セクション .text の逆アセンブル:

80001048 <verify.constprop.0>:
80001048:	00050793          	mv	a5,a0
8000104c:	00004717          	auipc	a4,0x4
80001050:	d2070713          	addi	a4,a4,-736 # 80004d6c <input_data>
80001054:	00000513          	li	a0,0
80001058:	00072603          	lw	a2,0(a4)
8000105c:	0007a683          	lw	a3,0(a5)
80001060:	00472803          	lw	a6,4(a4)
80001064:	0047a583          	lw	a1,4(a5)
80001068:	02d61263          	bne	a2,a3,8000108c <verify.constprop.0+0x44>
8000106c:	00250513          	addi	a0,a0,2
80001070:	80050693          	addi	a3,a0,-2048
80001074:	00b81a63          	bne	a6,a1,80001088 <verify.constprop.0+0x40>
80001078:	00870713          	addi	a4,a4,8
8000107c:	00878793          	addi	a5,a5,8
80001080:	fc069ce3          	bnez	a3,80001058 <verify.constprop.0+0x10>
80001084:	00000513          	li	a0,0
80001088:	00008067          	ret
8000108c:	00150513          	addi	a0,a0,1
80001090:	00008067          	ret

80001094 <sort>:
80001094:	f3010113          	addi	sp,sp,-208
80001098:	00251513          	slli	a0,a0,0x2
8000109c:	00810f13          	addi	t5,sp,8
800010a0:	40000fb7          	lui	t6,0x40000
800010a4:	00058e93          	mv	t4,a1
800010a8:	00a588b3          	add	a7,a1,a0
800010ac:	000f0313          	mv	t1,t5
800010b0:	00458593          	addi	a1,a1,4
800010b4:	02400e13          	li	t3,36
800010b8:	ffff8f93          	addi	t6,t6,-1 # 3fffffff <buflen.2941+0x3fffffbf>
800010bc:	40b887b3          	sub	a5,a7,a1
800010c0:	04fe4863          	blt	t3,a5,80001110 <sort+0x7c>
800010c4:	ffc58613          	addi	a2,a1,-4
800010c8:	0315f863          	bgeu	a1,a7,800010f8 <sort+0x64>
800010cc:	0005a683          	lw	a3,0(a1)
800010d0:	00058793          	mv	a5,a1
800010d4:	0100006f          	j	800010e4 <sort+0x50>
800010d8:	00e7a023          	sw	a4,0(a5)
800010dc:	ffc78793          	addi	a5,a5,-4
800010e0:	00f60663          	beq	a2,a5,800010ec <sort+0x58>
800010e4:	ffc7a703          	lw	a4,-4(a5)
800010e8:	fee6c8e3          	blt	a3,a4,800010d8 <sort+0x44>
800010ec:	00d7a023          	sw	a3,0(a5)
800010f0:	00458593          	addi	a1,a1,4
800010f4:	fd15ece3          	bltu	a1,a7,800010cc <sort+0x38>
800010f8:	11e30c63          	beq	t1,t5,80001210 <sort+0x17c>
800010fc:	00032883          	lw	a7,0(t1)
80001100:	ffc32583          	lw	a1,-4(t1)
80001104:	ff830313          	addi	t1,t1,-8
80001108:	40b887b3          	sub	a5,a7,a1
8000110c:	fafe5ce3          	bge	t3,a5,800010c4 <sort+0x30>
80001110:	41d587b3          	sub	a5,a1,t4
80001114:	41d88733          	sub	a4,a7,t4
80001118:	4027d793          	srai	a5,a5,0x2
8000111c:	40275713          	srai	a4,a4,0x2
80001120:	00e78733          	add	a4,a5,a4
80001124:	01f75793          	srli	a5,a4,0x1f
80001128:	00e787b3          	add	a5,a5,a4
8000112c:	4017d793          	srai	a5,a5,0x1
80001130:	01f787b3          	add	a5,a5,t6
80001134:	00279793          	slli	a5,a5,0x2
80001138:	0005a703          	lw	a4,0(a1)
8000113c:	00fe87b3          	add	a5,t4,a5
80001140:	0007a683          	lw	a3,0(a5)
80001144:	00e7a023          	sw	a4,0(a5)
80001148:	ffc5a703          	lw	a4,-4(a1)
8000114c:	00d5a023          	sw	a3,0(a1)
80001150:	ffc8a783          	lw	a5,-4(a7)
80001154:	00e7da63          	bge	a5,a4,80001168 <sort+0xd4>
80001158:	fef5ae23          	sw	a5,-4(a1)
8000115c:	fee8ae23          	sw	a4,-4(a7)
80001160:	0005a683          	lw	a3,0(a1)
80001164:	00070793          	mv	a5,a4
80001168:	00d7d863          	bge	a5,a3,80001178 <sort+0xe4>
8000116c:	00f5a023          	sw	a5,0(a1)
80001170:	fed8ae23          	sw	a3,-4(a7)
80001174:	0005a683          	lw	a3,0(a1)
80001178:	ffc5a783          	lw	a5,-4(a1)
8000117c:	00f6d863          	bge	a3,a5,8000118c <sort+0xf8>
80001180:	fed5ae23          	sw	a3,-4(a1)
80001184:	00f5a023          	sw	a5,0(a1)
80001188:	00078693          	mv	a3,a5
8000118c:	00458513          	addi	a0,a1,4
80001190:	00088793          	mv	a5,a7
80001194:	00052803          	lw	a6,0(a0)
80001198:	00450513          	addi	a0,a0,4
8000119c:	fed84ce3          	blt	a6,a3,80001194 <sort+0x100>
800011a0:	ff87a703          	lw	a4,-8(a5)
800011a4:	00078613          	mv	a2,a5
800011a8:	ffc78793          	addi	a5,a5,-4
800011ac:	fee6cae3          	blt	a3,a4,800011a0 <sort+0x10c>
800011b0:	00a7e863          	bltu	a5,a0,800011c0 <sort+0x12c>
800011b4:	fee52e23          	sw	a4,-4(a0)
800011b8:	ff07ae23          	sw	a6,-4(a5)
800011bc:	fd9ff06f          	j	80001194 <sort+0x100>
800011c0:	40a88833          	sub	a6,a7,a0
800011c4:	00e5a023          	sw	a4,0(a1)
800011c8:	40285713          	srai	a4,a6,0x2
800011cc:	40b78833          	sub	a6,a5,a1
800011d0:	fed7ae23          	sw	a3,-4(a5)
800011d4:	00170793          	addi	a5,a4,1
800011d8:	40285713          	srai	a4,a6,0x2
800011dc:	00830693          	addi	a3,t1,8
800011e0:	ff860613          	addi	a2,a2,-8
800011e4:	00e7cc63          	blt	a5,a4,800011fc <sort+0x168>
800011e8:	01132423          	sw	a7,8(t1)
800011ec:	00a32223          	sw	a0,4(t1)
800011f0:	00060893          	mv	a7,a2
800011f4:	00068313          	mv	t1,a3
800011f8:	ec5ff06f          	j	800010bc <sort+0x28>
800011fc:	00b32223          	sw	a1,4(t1)
80001200:	00c32423          	sw	a2,8(t1)
80001204:	00050593          	mv	a1,a0
80001208:	00068313          	mv	t1,a3
8000120c:	eb1ff06f          	j	800010bc <sort+0x28>
80001210:	0d010113          	addi	sp,sp,208
80001214:	00008067          	ret

80001218 <vprintfmt>:
80001218:	eb010113          	addi	sp,sp,-336
8000121c:	13912223          	sw	s9,292(sp)
80001220:	40000cb7          	lui	s9,0x40000
80001224:	fffc8793          	addi	a5,s9,-1 # 3fffffff <buflen.2941+0x3fffffbf>
80001228:	14812423          	sw	s0,328(sp)
8000122c:	14912223          	sw	s1,324(sp)
80001230:	15212023          	sw	s2,320(sp)
80001234:	13512a23          	sw	s5,308(sp)
80001238:	14112623          	sw	ra,332(sp)
8000123c:	13312e23          	sw	s3,316(sp)
80001240:	13412c23          	sw	s4,312(sp)
80001244:	13612823          	sw	s6,304(sp)
80001248:	13712623          	sw	s7,300(sp)
8000124c:	13812423          	sw	s8,296(sp)
80001250:	13a12023          	sw	s10,288(sp)
80001254:	11b12e23          	sw	s11,284(sp)
80001258:	00050913          	mv	s2,a0
8000125c:	00058493          	mv	s1,a1
80001260:	00060413          	mv	s0,a2
80001264:	00d12423          	sw	a3,8(sp)
80001268:	02500a93          	li	s5,37
8000126c:	00f12623          	sw	a5,12(sp)
80001270:	0140006f          	j	80001284 <vprintfmt+0x6c>
80001274:	06050463          	beqz	a0,800012dc <vprintfmt+0xc4>
80001278:	00048593          	mv	a1,s1
8000127c:	00140413          	addi	s0,s0,1
80001280:	000900e7          	jalr	s2
80001284:	00044503          	lbu	a0,0(s0)
80001288:	ff5516e3          	bne	a0,s5,80001274 <vprintfmt+0x5c>
8000128c:	00144683          	lbu	a3,1(s0)
80001290:	00140d93          	addi	s11,s0,1
80001294:	000d8713          	mv	a4,s11
80001298:	02000b93          	li	s7,32
8000129c:	fff00993          	li	s3,-1
800012a0:	fff00a13          	li	s4,-1
800012a4:	00000593          	li	a1,0
800012a8:	05500613          	li	a2,85
800012ac:	00900513          	li	a0,9
800012b0:	fdd68793          	addi	a5,a3,-35
800012b4:	0ff7f793          	andi	a5,a5,255
800012b8:	00170413          	addi	s0,a4,1
800012bc:	06f66c63          	bltu	a2,a5,80001334 <vprintfmt+0x11c>
800012c0:	00002817          	auipc	a6,0x2
800012c4:	80480813          	addi	a6,a6,-2044 # 80002ac4 <main+0xe0>
800012c8:	00279793          	slli	a5,a5,0x2
800012cc:	010787b3          	add	a5,a5,a6
800012d0:	0007a783          	lw	a5,0(a5)
800012d4:	010787b3          	add	a5,a5,a6
800012d8:	00078067          	jr	a5
800012dc:	14c12083          	lw	ra,332(sp)
800012e0:	14812403          	lw	s0,328(sp)
800012e4:	14412483          	lw	s1,324(sp)
800012e8:	14012903          	lw	s2,320(sp)
800012ec:	13c12983          	lw	s3,316(sp)
800012f0:	13812a03          	lw	s4,312(sp)
800012f4:	13412a83          	lw	s5,308(sp)
800012f8:	13012b03          	lw	s6,304(sp)
800012fc:	12c12b83          	lw	s7,300(sp)
80001300:	12812c03          	lw	s8,296(sp)
80001304:	12412c83          	lw	s9,292(sp)
80001308:	12012d03          	lw	s10,288(sp)
8000130c:	11c12d83          	lw	s11,284(sp)
80001310:	15010113          	addi	sp,sp,336
80001314:	00008067          	ret
80001318:	00068b93          	mv	s7,a3
8000131c:	00174683          	lbu	a3,1(a4)
80001320:	00040713          	mv	a4,s0
80001324:	00170413          	addi	s0,a4,1
80001328:	fdd68793          	addi	a5,a3,-35
8000132c:	0ff7f793          	andi	a5,a5,255
80001330:	f8f678e3          	bgeu	a2,a5,800012c0 <vprintfmt+0xa8>
80001334:	00048593          	mv	a1,s1
80001338:	02500513          	li	a0,37
8000133c:	000900e7          	jalr	s2
80001340:	000d8413          	mv	s0,s11
80001344:	f41ff06f          	j	80001284 <vprintfmt+0x6c>
80001348:	00174803          	lbu	a6,1(a4)
8000134c:	fd068993          	addi	s3,a3,-48
80001350:	00040713          	mv	a4,s0
80001354:	fd080793          	addi	a5,a6,-48
80001358:	00080693          	mv	a3,a6
8000135c:	02f56663          	bltu	a0,a5,80001388 <vprintfmt+0x170>
80001360:	00299793          	slli	a5,s3,0x2
80001364:	013789b3          	add	s3,a5,s3
80001368:	00170713          	addi	a4,a4,1
8000136c:	00199993          	slli	s3,s3,0x1
80001370:	010989b3          	add	s3,s3,a6
80001374:	00074803          	lbu	a6,0(a4)
80001378:	fd098993          	addi	s3,s3,-48
8000137c:	fd080793          	addi	a5,a6,-48
80001380:	00080693          	mv	a3,a6
80001384:	fcf57ee3          	bgeu	a0,a5,80001360 <vprintfmt+0x148>
80001388:	f20a54e3          	bgez	s4,800012b0 <vprintfmt+0x98>
8000138c:	00098a13          	mv	s4,s3
80001390:	fff00993          	li	s3,-1
80001394:	f1dff06f          	j	800012b0 <vprintfmt+0x98>
80001398:	00174683          	lbu	a3,1(a4)
8000139c:	00040713          	mv	a4,s0
800013a0:	f11ff06f          	j	800012b0 <vprintfmt+0x98>
800013a4:	00048593          	mv	a1,s1
800013a8:	02500513          	li	a0,37
800013ac:	000900e7          	jalr	s2
800013b0:	ed5ff06f          	j	80001284 <vprintfmt+0x6c>
800013b4:	00812783          	lw	a5,8(sp)
800013b8:	00174683          	lbu	a3,1(a4)
800013bc:	00040713          	mv	a4,s0
800013c0:	0007a983          	lw	s3,0(a5)
800013c4:	00478793          	addi	a5,a5,4
800013c8:	00f12423          	sw	a5,8(sp)
800013cc:	fbdff06f          	j	80001388 <vprintfmt+0x170>
800013d0:	03000513          	li	a0,48
800013d4:	00048593          	mv	a1,s1
800013d8:	000900e7          	jalr	s2
800013dc:	00048593          	mv	a1,s1
800013e0:	07800513          	li	a0,120
800013e4:	000900e7          	jalr	s2
800013e8:	00812783          	lw	a5,8(sp)
800013ec:	01000c13          	li	s8,16
800013f0:	00012223          	sw	zero,4(sp)
800013f4:	00478713          	addi	a4,a5,4
800013f8:	00812783          	lw	a5,8(sp)
800013fc:	00000d93          	li	s11,0
80001400:	0007a983          	lw	s3,0(a5)
80001404:	00e12423          	sw	a4,8(sp)
80001408:	000c0613          	mv	a2,s8
8000140c:	00000693          	li	a3,0
80001410:	00098513          	mv	a0,s3
80001414:	000d8593          	mv	a1,s11
80001418:	1bc010ef          	jal	ra,800025d4 <__umoddi3>
8000141c:	00a12823          	sw	a0,16(sp)
80001420:	00000793          	li	a5,0
80001424:	00050c93          	mv	s9,a0
80001428:	23b78063          	beq	a5,s11,80001648 <vprintfmt+0x430>
8000142c:	01410b13          	addi	s6,sp,20
80001430:	00100d13          	li	s10,1
80001434:	000c0613          	mv	a2,s8
80001438:	00000693          	li	a3,0
8000143c:	00098513          	mv	a0,s3
80001440:	000d8593          	mv	a1,s11
80001444:	55d000ef          	jal	ra,800021a0 <__udivdi3>
80001448:	000c0613          	mv	a2,s8
8000144c:	00000693          	li	a3,0
80001450:	00050993          	mv	s3,a0
80001454:	00058d93          	mv	s11,a1
80001458:	17c010ef          	jal	ra,800025d4 <__umoddi3>
8000145c:	00412783          	lw	a5,4(sp)
80001460:	00ab2023          	sw	a0,0(s6)
80001464:	01a12023          	sw	s10,0(sp)
80001468:	00050c93          	mv	s9,a0
8000146c:	004b0b13          	addi	s6,s6,4
80001470:	001d0d13          	addi	s10,s10,1
80001474:	fdb790e3          	bne	a5,s11,80001434 <vprintfmt+0x21c>
80001478:	fb89fee3          	bgeu	s3,s8,80001434 <vprintfmt+0x21c>
8000147c:	014d5c63          	bge	s10,s4,80001494 <vprintfmt+0x27c>
80001480:	fffa0a13          	addi	s4,s4,-1
80001484:	00048593          	mv	a1,s1
80001488:	000b8513          	mv	a0,s7
8000148c:	000900e7          	jalr	s2
80001490:	ff4d48e3          	blt	s10,s4,80001480 <vprintfmt+0x268>
80001494:	00012783          	lw	a5,0(sp)
80001498:	00c12703          	lw	a4,12(sp)
8000149c:	00900993          	li	s3,9
800014a0:	00e78a33          	add	s4,a5,a4
800014a4:	002a1a13          	slli	s4,s4,0x2
800014a8:	01010793          	addi	a5,sp,16
800014ac:	01478a33          	add	s4,a5,s4
800014b0:	00c0006f          	j	800014bc <vprintfmt+0x2a4>
800014b4:	000a2c83          	lw	s9,0(s4)
800014b8:	ffca0a13          	addi	s4,s4,-4
800014bc:	0199b7b3          	sltu	a5,s3,s9
800014c0:	40f007b3          	neg	a5,a5
800014c4:	0277f793          	andi	a5,a5,39
800014c8:	03078793          	addi	a5,a5,48
800014cc:	01978533          	add	a0,a5,s9
800014d0:	00048593          	mv	a1,s1
800014d4:	000900e7          	jalr	s2
800014d8:	00c10793          	addi	a5,sp,12
800014dc:	fd479ce3          	bne	a5,s4,800014b4 <vprintfmt+0x29c>
800014e0:	da5ff06f          	j	80001284 <vprintfmt+0x6c>
800014e4:	00100793          	li	a5,1
800014e8:	16b7cc63          	blt	a5,a1,80001660 <vprintfmt+0x448>
800014ec:	00812703          	lw	a4,8(sp)
800014f0:	00470793          	addi	a5,a4,4
800014f4:	18058663          	beqz	a1,80001680 <vprintfmt+0x468>
800014f8:	00072983          	lw	s3,0(a4)
800014fc:	00f12423          	sw	a5,8(sp)
80001500:	41f9dc13          	srai	s8,s3,0x1f
80001504:	180c4e63          	bltz	s8,800016a0 <vprintfmt+0x488>
80001508:	000c0d93          	mv	s11,s8
8000150c:	00012223          	sw	zero,4(sp)
80001510:	00a00c13          	li	s8,10
80001514:	ef5ff06f          	j	80001408 <vprintfmt+0x1f0>
80001518:	01000c13          	li	s8,16
8000151c:	00012223          	sw	zero,4(sp)
80001520:	00100793          	li	a5,1
80001524:	10b7c263          	blt	a5,a1,80001628 <vprintfmt+0x410>
80001528:	00812783          	lw	a5,8(sp)
8000152c:	00478713          	addi	a4,a5,4
80001530:	ec9ff06f          	j	800013f8 <vprintfmt+0x1e0>
80001534:	00812783          	lw	a5,8(sp)
80001538:	0007ad83          	lw	s11,0(a5)
8000153c:	00478b13          	addi	s6,a5,4
80001540:	180d8463          	beqz	s11,800016c8 <vprintfmt+0x4b0>
80001544:	09405863          	blez	s4,800015d4 <vprintfmt+0x3bc>
80001548:	02d00793          	li	a5,45
8000154c:	04fb9e63          	bne	s7,a5,800015a8 <vprintfmt+0x390>
80001550:	000dc503          	lbu	a0,0(s11)
80001554:	02050863          	beqz	a0,80001584 <vprintfmt+0x36c>
80001558:	fff00b93          	li	s7,-1
8000155c:	0009c663          	bltz	s3,80001568 <vprintfmt+0x350>
80001560:	fff98993          	addi	s3,s3,-1
80001564:	01798e63          	beq	s3,s7,80001580 <vprintfmt+0x368>
80001568:	00048593          	mv	a1,s1
8000156c:	001d8d93          	addi	s11,s11,1
80001570:	000900e7          	jalr	s2
80001574:	000dc503          	lbu	a0,0(s11)
80001578:	fffa0a13          	addi	s4,s4,-1
8000157c:	fe0510e3          	bnez	a0,8000155c <vprintfmt+0x344>
80001580:	01405c63          	blez	s4,80001598 <vprintfmt+0x380>
80001584:	fffa0a13          	addi	s4,s4,-1
80001588:	00048593          	mv	a1,s1
8000158c:	02000513          	li	a0,32
80001590:	000900e7          	jalr	s2
80001594:	fe0a18e3          	bnez	s4,80001584 <vprintfmt+0x36c>
80001598:	01612423          	sw	s6,8(sp)
8000159c:	ce9ff06f          	j	80001284 <vprintfmt+0x6c>
800015a0:	00001d97          	auipc	s11,0x1
800015a4:	4e4d8d93          	addi	s11,s11,1252 # 80002a84 <main+0xa0>
800015a8:	000d8793          	mv	a5,s11
800015ac:	013d86b3          	add	a3,s11,s3
800015b0:	00099863          	bnez	s3,800015c0 <vprintfmt+0x3a8>
800015b4:	1340006f          	j	800016e8 <vprintfmt+0x4d0>
800015b8:	00178793          	addi	a5,a5,1
800015bc:	00d78663          	beq	a5,a3,800015c8 <vprintfmt+0x3b0>
800015c0:	0007c703          	lbu	a4,0(a5)
800015c4:	fe071ae3          	bnez	a4,800015b8 <vprintfmt+0x3a0>
800015c8:	41b787b3          	sub	a5,a5,s11
800015cc:	40fa0a33          	sub	s4,s4,a5
800015d0:	11404c63          	bgtz	s4,800016e8 <vprintfmt+0x4d0>
800015d4:	000dc503          	lbu	a0,0(s11)
800015d8:	fc0500e3          	beqz	a0,80001598 <vprintfmt+0x380>
800015dc:	fff00b93          	li	s7,-1
800015e0:	f7dff06f          	j	8000155c <vprintfmt+0x344>
800015e4:	fffa4793          	not	a5,s4
800015e8:	41f7d793          	srai	a5,a5,0x1f
800015ec:	00174683          	lbu	a3,1(a4)
800015f0:	00fa7a33          	and	s4,s4,a5
800015f4:	00040713          	mv	a4,s0
800015f8:	cb9ff06f          	j	800012b0 <vprintfmt+0x98>
800015fc:	00812783          	lw	a5,8(sp)
80001600:	00048593          	mv	a1,s1
80001604:	0007a503          	lw	a0,0(a5)
80001608:	00478b13          	addi	s6,a5,4
8000160c:	000900e7          	jalr	s2
80001610:	01612423          	sw	s6,8(sp)
80001614:	c71ff06f          	j	80001284 <vprintfmt+0x6c>
80001618:	00174683          	lbu	a3,1(a4)
8000161c:	00158593          	addi	a1,a1,1
80001620:	00040713          	mv	a4,s0
80001624:	c8dff06f          	j	800012b0 <vprintfmt+0x98>
80001628:	00812783          	lw	a5,8(sp)
8000162c:	00778b13          	addi	s6,a5,7
80001630:	ff8b7b13          	andi	s6,s6,-8
80001634:	008b0793          	addi	a5,s6,8
80001638:	000b2983          	lw	s3,0(s6)
8000163c:	004b2d83          	lw	s11,4(s6)
80001640:	00f12423          	sw	a5,8(sp)
80001644:	dc5ff06f          	j	80001408 <vprintfmt+0x1f0>
80001648:	df89f2e3          	bgeu	s3,s8,8000142c <vprintfmt+0x214>
8000164c:	00100793          	li	a5,1
80001650:	00012023          	sw	zero,0(sp)
80001654:	00100d13          	li	s10,1
80001658:	e347c4e3          	blt	a5,s4,80001480 <vprintfmt+0x268>
8000165c:	e39ff06f          	j	80001494 <vprintfmt+0x27c>
80001660:	00812783          	lw	a5,8(sp)
80001664:	00778b13          	addi	s6,a5,7
80001668:	ff8b7b13          	andi	s6,s6,-8
8000166c:	008b0793          	addi	a5,s6,8
80001670:	000b2983          	lw	s3,0(s6)
80001674:	004b2c03          	lw	s8,4(s6)
80001678:	00f12423          	sw	a5,8(sp)
8000167c:	e89ff06f          	j	80001504 <vprintfmt+0x2ec>
80001680:	00812703          	lw	a4,8(sp)
80001684:	e75ff06f          	j	800014f8 <vprintfmt+0x2e0>
80001688:	00800c13          	li	s8,8
8000168c:	00012223          	sw	zero,4(sp)
80001690:	e91ff06f          	j	80001520 <vprintfmt+0x308>
80001694:	00a00c13          	li	s8,10
80001698:	00012223          	sw	zero,4(sp)
8000169c:	e85ff06f          	j	80001520 <vprintfmt+0x308>
800016a0:	00048593          	mv	a1,s1
800016a4:	02d00513          	li	a0,45
800016a8:	000900e7          	jalr	s2
800016ac:	01303733          	snez	a4,s3
800016b0:	418007b3          	neg	a5,s8
800016b4:	413009b3          	neg	s3,s3
800016b8:	40e78db3          	sub	s11,a5,a4
800016bc:	00a00c13          	li	s8,10
800016c0:	00012223          	sw	zero,4(sp)
800016c4:	d45ff06f          	j	80001408 <vprintfmt+0x1f0>
800016c8:	01405663          	blez	s4,800016d4 <vprintfmt+0x4bc>
800016cc:	02d00793          	li	a5,45
800016d0:	ecfb98e3          	bne	s7,a5,800015a0 <vprintfmt+0x388>
800016d4:	00001d97          	auipc	s11,0x1
800016d8:	3b0d8d93          	addi	s11,s11,944 # 80002a84 <main+0xa0>
800016dc:	02800513          	li	a0,40
800016e0:	fff00b93          	li	s7,-1
800016e4:	e79ff06f          	j	8000155c <vprintfmt+0x344>
800016e8:	fffa0a13          	addi	s4,s4,-1
800016ec:	00048593          	mv	a1,s1
800016f0:	000b8513          	mv	a0,s7
800016f4:	000900e7          	jalr	s2
800016f8:	ec0a0ee3          	beqz	s4,800015d4 <vprintfmt+0x3bc>
800016fc:	fffa0a13          	addi	s4,s4,-1
80001700:	00048593          	mv	a1,s1
80001704:	000b8513          	mv	a0,s7
80001708:	000900e7          	jalr	s2
8000170c:	fc0a1ee3          	bnez	s4,800016e8 <vprintfmt+0x4d0>
80001710:	ec5ff06f          	j	800015d4 <vprintfmt+0x3bc>

80001714 <sprintf_putch.3055>:
80001714:	0005a783          	lw	a5,0(a1)
80001718:	00a78023          	sb	a0,0(a5)
8000171c:	0005a783          	lw	a5,0(a1)
80001720:	00178793          	addi	a5,a5,1
80001724:	00f5a023          	sw	a5,0(a1)
80001728:	00008067          	ret

8000172c <syscall.constprop.0>:
8000172c:	f8010113          	addi	sp,sp,-128
80001730:	03f10813          	addi	a6,sp,63
80001734:	fc087813          	andi	a6,a6,-64
80001738:	04000713          	li	a4,64
8000173c:	00e82023          	sw	a4,0(a6)
80001740:	00000793          	li	a5,0
80001744:	00f82223          	sw	a5,4(a6)
80001748:	00100713          	li	a4,1
8000174c:	00e82423          	sw	a4,8(a6)
80001750:	00000793          	li	a5,0
80001754:	00f82623          	sw	a5,12(a6)
80001758:	00a82823          	sw	a0,16(a6)
8000175c:	00b82a23          	sw	a1,20(a6)
80001760:	00c82c23          	sw	a2,24(a6)
80001764:	00d82e23          	sw	a3,28(a6)
80001768:	0ff0000f          	fence
8000176c:	00000697          	auipc	a3,0x0
80001770:	89468693          	addi	a3,a3,-1900 # 80001000 <tohost>
80001774:	0106a023          	sw	a6,0(a3)
80001778:	00000793          	li	a5,0
8000177c:	00f6a223          	sw	a5,4(a3)
80001780:	00000697          	auipc	a3,0x0
80001784:	8c068693          	addi	a3,a3,-1856 # 80001040 <fromhost>
80001788:	0006a703          	lw	a4,0(a3)
8000178c:	0046a783          	lw	a5,4(a3)
80001790:	00f76733          	or	a4,a4,a5
80001794:	fe070ae3          	beqz	a4,80001788 <syscall.constprop.0+0x5c>
80001798:	00000713          	li	a4,0
8000179c:	00e6a023          	sw	a4,0(a3)
800017a0:	00000793          	li	a5,0
800017a4:	00f6a223          	sw	a5,4(a3)
800017a8:	0ff0000f          	fence
800017ac:	00082503          	lw	a0,0(a6)
800017b0:	00482583          	lw	a1,4(a6)
800017b4:	08010113          	addi	sp,sp,128
800017b8:	00008067          	ret

800017bc <putchar>:
800017bc:	ff010113          	addi	sp,sp,-16
800017c0:	00812423          	sw	s0,8(sp)
800017c4:	04022583          	lw	a1,64(tp) # 40 <buflen.2941>
800017c8:	00020793          	mv	a5,tp
800017cc:	00112623          	sw	ra,12(sp)
800017d0:	00b787b3          	add	a5,a5,a1
800017d4:	00158613          	addi	a2,a1,1
800017d8:	00a78023          	sb	a0,0(a5)
800017dc:	04c22023          	sw	a2,64(tp) # 40 <buflen.2941>
800017e0:	00a00793          	li	a5,10
800017e4:	02f50063          	beq	a0,a5,80001804 <putchar+0x48>
800017e8:	04000793          	li	a5,64
800017ec:	00f60c63          	beq	a2,a5,80001804 <putchar+0x48>
800017f0:	00c12083          	lw	ra,12(sp)
800017f4:	00812403          	lw	s0,8(sp)
800017f8:	00000513          	li	a0,0
800017fc:	01010113          	addi	sp,sp,16
80001800:	00008067          	ret
80001804:	41f65693          	srai	a3,a2,0x1f
80001808:	00020513          	mv	a0,tp
8000180c:	00000593          	li	a1,0
80001810:	f1dff0ef          	jal	ra,8000172c <syscall.constprop.0>
80001814:	00c12083          	lw	ra,12(sp)
80001818:	04022023          	sw	zero,64(tp) # 40 <buflen.2941>
8000181c:	00812403          	lw	s0,8(sp)
80001820:	00000513          	li	a0,0
80001824:	01010113          	addi	sp,sp,16
80001828:	00008067          	ret

8000182c <setStats>:
8000182c:	b0002773          	csrr	a4,mcycle
80001830:	00005797          	auipc	a5,0x5
80001834:	54478793          	addi	a5,a5,1348 # 80006d74 <counters>
80001838:	00051e63          	bnez	a0,80001854 <setStats+0x28>
8000183c:	0007a683          	lw	a3,0(a5)
80001840:	00001617          	auipc	a2,0x1
80001844:	24c60613          	addi	a2,a2,588 # 80002a8c <main+0xa8>
80001848:	00005597          	auipc	a1,0x5
8000184c:	52c5a223          	sw	a2,1316(a1) # 80006d6c <counter_names>
80001850:	40d70733          	sub	a4,a4,a3
80001854:	00e7a023          	sw	a4,0(a5)
80001858:	b0202773          	csrr	a4,minstret
8000185c:	00051e63          	bnez	a0,80001878 <setStats+0x4c>
80001860:	0047a683          	lw	a3,4(a5)
80001864:	00001617          	auipc	a2,0x1
80001868:	23060613          	addi	a2,a2,560 # 80002a94 <main+0xb0>
8000186c:	00005597          	auipc	a1,0x5
80001870:	50c5a223          	sw	a2,1284(a1) # 80006d70 <counter_names+0x4>
80001874:	40d70733          	sub	a4,a4,a3
80001878:	00e7a223          	sw	a4,4(a5)
8000187c:	00008067          	ret

80001880 <tohost_exit>:
80001880:	00151693          	slli	a3,a0,0x1
80001884:	0016e713          	ori	a4,a3,1
80001888:	fffff697          	auipc	a3,0xfffff
8000188c:	77868693          	addi	a3,a3,1912 # 80001000 <tohost>
80001890:	00000793          	li	a5,0
80001894:	00e6a023          	sw	a4,0(a3)
80001898:	00f6a223          	sw	a5,4(a3)
8000189c:	0000006f          	j	8000189c <tohost_exit+0x1c>

800018a0 <handle_trap>:
800018a0:	00001637          	lui	a2,0x1
800018a4:	fffff797          	auipc	a5,0xfffff
800018a8:	75c78793          	addi	a5,a5,1884 # 80001000 <tohost>
800018ac:	a7360613          	addi	a2,a2,-1421 # a73 <buflen.2941+0xa33>
800018b0:	00000693          	li	a3,0
800018b4:	00c7a023          	sw	a2,0(a5)
800018b8:	00d7a223          	sw	a3,4(a5)
800018bc:	0000006f          	j	800018bc <handle_trap+0x1c>

800018c0 <exit>:
800018c0:	ff010113          	addi	sp,sp,-16
800018c4:	00112623          	sw	ra,12(sp)
800018c8:	fb9ff0ef          	jal	ra,80001880 <tohost_exit>

800018cc <abort>:
800018cc:	fffff797          	auipc	a5,0xfffff
800018d0:	73478793          	addi	a5,a5,1844 # 80001000 <tohost>
800018d4:	10d00613          	li	a2,269
800018d8:	00000693          	li	a3,0
800018dc:	00c7a023          	sw	a2,0(a5)
800018e0:	00d7a223          	sw	a3,4(a5)
800018e4:	0000006f          	j	800018e4 <abort+0x18>

800018e8 <printstr>:
800018e8:	00054783          	lbu	a5,0(a0)
800018ec:	02078263          	beqz	a5,80001910 <printstr+0x28>
800018f0:	00050613          	mv	a2,a0
800018f4:	00164783          	lbu	a5,1(a2)
800018f8:	00160613          	addi	a2,a2,1
800018fc:	fe079ce3          	bnez	a5,800018f4 <printstr+0xc>
80001900:	40a60633          	sub	a2,a2,a0
80001904:	00000693          	li	a3,0
80001908:	00000593          	li	a1,0
8000190c:	e21ff06f          	j	8000172c <syscall.constprop.0>
80001910:	00000613          	li	a2,0
80001914:	00000693          	li	a3,0
80001918:	00000593          	li	a1,0
8000191c:	e11ff06f          	j	8000172c <syscall.constprop.0>

80001920 <thread_entry>:
80001920:	00051063          	bnez	a0,80001920 <thread_entry>
80001924:	00008067          	ret

80001928 <printhex>:
80001928:	fd010113          	addi	sp,sp,-48
8000192c:	00050713          	mv	a4,a0
80001930:	02112623          	sw	ra,44(sp)
80001934:	00c10513          	addi	a0,sp,12
80001938:	01b10613          	addi	a2,sp,27
8000193c:	00900813          	li	a6,9
80001940:	0080006f          	j	80001948 <printhex+0x20>
80001944:	00078613          	mv	a2,a5
80001948:	00f77793          	andi	a5,a4,15
8000194c:	00f837b3          	sltu	a5,a6,a5
80001950:	40f007b3          	neg	a5,a5
80001954:	0277f793          	andi	a5,a5,39
80001958:	00f77693          	andi	a3,a4,15
8000195c:	03078793          	addi	a5,a5,48
80001960:	00f687b3          	add	a5,a3,a5
80001964:	00f60023          	sb	a5,0(a2)
80001968:	01c59693          	slli	a3,a1,0x1c
8000196c:	00475713          	srli	a4,a4,0x4
80001970:	fff60793          	addi	a5,a2,-1
80001974:	00e6e733          	or	a4,a3,a4
80001978:	0045d593          	srli	a1,a1,0x4
8000197c:	fcc514e3          	bne	a0,a2,80001944 <printhex+0x1c>
80001980:	00010e23          	sb	zero,28(sp)
80001984:	f65ff0ef          	jal	ra,800018e8 <printstr>
80001988:	02c12083          	lw	ra,44(sp)
8000198c:	03010113          	addi	sp,sp,48
80001990:	00008067          	ret

80001994 <printf>:
80001994:	fc010113          	addi	sp,sp,-64
80001998:	02410313          	addi	t1,sp,36
8000199c:	00050e13          	mv	t3,a0
800019a0:	02b12223          	sw	a1,36(sp)
800019a4:	02c12423          	sw	a2,40(sp)
800019a8:	02d12623          	sw	a3,44(sp)
800019ac:	00000517          	auipc	a0,0x0
800019b0:	e1050513          	addi	a0,a0,-496 # 800017bc <putchar>
800019b4:	00030693          	mv	a3,t1
800019b8:	000e0613          	mv	a2,t3
800019bc:	00000593          	li	a1,0
800019c0:	00112e23          	sw	ra,28(sp)
800019c4:	02e12823          	sw	a4,48(sp)
800019c8:	02f12a23          	sw	a5,52(sp)
800019cc:	03012c23          	sw	a6,56(sp)
800019d0:	03112e23          	sw	a7,60(sp)
800019d4:	00612623          	sw	t1,12(sp)
800019d8:	841ff0ef          	jal	ra,80001218 <vprintfmt>
800019dc:	01c12083          	lw	ra,28(sp)
800019e0:	00000513          	li	a0,0
800019e4:	04010113          	addi	sp,sp,64
800019e8:	00008067          	ret

800019ec <sprintf>:
800019ec:	fb010113          	addi	sp,sp,-80
800019f0:	03810313          	addi	t1,sp,56
800019f4:	02812423          	sw	s0,40(sp)
800019f8:	00a12623          	sw	a0,12(sp)
800019fc:	02c12c23          	sw	a2,56(sp)
80001a00:	02d12e23          	sw	a3,60(sp)
80001a04:	00050413          	mv	s0,a0
80001a08:	00058613          	mv	a2,a1
80001a0c:	00000517          	auipc	a0,0x0
80001a10:	d0850513          	addi	a0,a0,-760 # 80001714 <sprintf_putch.3055>
80001a14:	00c10593          	addi	a1,sp,12
80001a18:	00030693          	mv	a3,t1
80001a1c:	02112623          	sw	ra,44(sp)
80001a20:	04f12223          	sw	a5,68(sp)
80001a24:	04e12023          	sw	a4,64(sp)
80001a28:	05012423          	sw	a6,72(sp)
80001a2c:	05112623          	sw	a7,76(sp)
80001a30:	00612e23          	sw	t1,28(sp)
80001a34:	fe4ff0ef          	jal	ra,80001218 <vprintfmt>
80001a38:	00c12783          	lw	a5,12(sp)
80001a3c:	00078023          	sb	zero,0(a5)
80001a40:	00c12503          	lw	a0,12(sp)
80001a44:	02c12083          	lw	ra,44(sp)
80001a48:	40850533          	sub	a0,a0,s0
80001a4c:	02812403          	lw	s0,40(sp)
80001a50:	05010113          	addi	sp,sp,80
80001a54:	00008067          	ret

80001a58 <memcpy>:
80001a58:	00c5e7b3          	or	a5,a1,a2
80001a5c:	00f567b3          	or	a5,a0,a5
80001a60:	0037f793          	andi	a5,a5,3
80001a64:	00c506b3          	add	a3,a0,a2
80001a68:	02078463          	beqz	a5,80001a90 <memcpy+0x38>
80001a6c:	00c58633          	add	a2,a1,a2
80001a70:	00050793          	mv	a5,a0
80001a74:	02d57e63          	bgeu	a0,a3,80001ab0 <memcpy+0x58>
80001a78:	0005c703          	lbu	a4,0(a1)
80001a7c:	00158593          	addi	a1,a1,1
80001a80:	00178793          	addi	a5,a5,1
80001a84:	fee78fa3          	sb	a4,-1(a5)
80001a88:	feb618e3          	bne	a2,a1,80001a78 <memcpy+0x20>
80001a8c:	00008067          	ret
80001a90:	fed57ee3          	bgeu	a0,a3,80001a8c <memcpy+0x34>
80001a94:	00050793          	mv	a5,a0
80001a98:	0005a703          	lw	a4,0(a1)
80001a9c:	00478793          	addi	a5,a5,4
80001aa0:	00458593          	addi	a1,a1,4
80001aa4:	fee7ae23          	sw	a4,-4(a5)
80001aa8:	fed7e8e3          	bltu	a5,a3,80001a98 <memcpy+0x40>
80001aac:	00008067          	ret
80001ab0:	00008067          	ret

80001ab4 <memset>:
80001ab4:	00c567b3          	or	a5,a0,a2
80001ab8:	0037f793          	andi	a5,a5,3
80001abc:	00c50633          	add	a2,a0,a2
80001ac0:	02078063          	beqz	a5,80001ae0 <memset+0x2c>
80001ac4:	0ff5f593          	andi	a1,a1,255
80001ac8:	00050793          	mv	a5,a0
80001acc:	04c57063          	bgeu	a0,a2,80001b0c <memset+0x58>
80001ad0:	00178793          	addi	a5,a5,1
80001ad4:	feb78fa3          	sb	a1,-1(a5)
80001ad8:	fef61ce3          	bne	a2,a5,80001ad0 <memset+0x1c>
80001adc:	00008067          	ret
80001ae0:	0ff5f593          	andi	a1,a1,255
80001ae4:	00859713          	slli	a4,a1,0x8
80001ae8:	00e5e733          	or	a4,a1,a4
80001aec:	01071793          	slli	a5,a4,0x10
80001af0:	00f76733          	or	a4,a4,a5
80001af4:	fec574e3          	bgeu	a0,a2,80001adc <memset+0x28>
80001af8:	00050793          	mv	a5,a0
80001afc:	00478793          	addi	a5,a5,4
80001b00:	fee7ae23          	sw	a4,-4(a5)
80001b04:	fec7ece3          	bltu	a5,a2,80001afc <memset+0x48>
80001b08:	00008067          	ret
80001b0c:	00008067          	ret

80001b10 <_init>:
80001b10:	f6010113          	addi	sp,sp,-160
80001b14:	00005797          	auipc	a5,0x5
80001b18:	26878793          	addi	a5,a5,616 # 80006d7c <_tdata_begin>
80001b1c:	09412423          	sw	s4,136(sp)
80001b20:	00005a17          	auipc	s4,0x5
80001b24:	25ca0a13          	addi	s4,s4,604 # 80006d7c <_tdata_begin>
80001b28:	09312623          	sw	s3,140(sp)
80001b2c:	40fa09b3          	sub	s3,s4,a5
80001b30:	08912a23          	sw	s1,148(sp)
80001b34:	09212823          	sw	s2,144(sp)
80001b38:	00050493          	mv	s1,a0
80001b3c:	00058913          	mv	s2,a1
80001b40:	00020513          	mv	a0,tp
80001b44:	00078593          	mv	a1,a5
80001b48:	00098613          	mv	a2,s3
80001b4c:	08112e23          	sw	ra,156(sp)
80001b50:	08812c23          	sw	s0,152(sp)
80001b54:	09512223          	sw	s5,132(sp)
80001b58:	00020a93          	mv	s5,tp
80001b5c:	efdff0ef          	jal	ra,80001a58 <memcpy>
80001b60:	85818613          	addi	a2,gp,-1960 # 80006dc4 <_tbss_end>
80001b64:	41460633          	sub	a2,a2,s4
80001b68:	00000593          	li	a1,0
80001b6c:	013a8533          	add	a0,s5,s3
80001b70:	f45ff0ef          	jal	ra,80001ab4 <memset>
80001b74:	00090593          	mv	a1,s2
80001b78:	00048513          	mv	a0,s1
80001b7c:	da5ff0ef          	jal	ra,80001920 <thread_entry>
80001b80:	00000593          	li	a1,0
80001b84:	00000513          	li	a0,0
80001b88:	65d000ef          	jal	ra,800029e4 <main>
80001b8c:	00005917          	auipc	s2,0x5
80001b90:	1e890913          	addi	s2,s2,488 # 80006d74 <counters>
80001b94:	00092683          	lw	a3,0(s2)
80001b98:	03f10413          	addi	s0,sp,63
80001b9c:	fc047413          	andi	s0,s0,-64
80001ba0:	00050493          	mv	s1,a0
80001ba4:	04069463          	bnez	a3,80001bec <_init+0xdc>
80001ba8:	00492683          	lw	a3,4(s2)
80001bac:	00069663          	bnez	a3,80001bb8 <_init+0xa8>
80001bb0:	00048513          	mv	a0,s1
80001bb4:	ccdff0ef          	jal	ra,80001880 <tohost_exit>
80001bb8:	00040913          	mv	s2,s0
80001bbc:	00005997          	auipc	s3,0x5
80001bc0:	1b098993          	addi	s3,s3,432 # 80006d6c <counter_names>
80001bc4:	0049a603          	lw	a2,4(s3)
80001bc8:	00090513          	mv	a0,s2
80001bcc:	00001597          	auipc	a1,0x1
80001bd0:	eec58593          	addi	a1,a1,-276 # 80002ab8 <main+0xd4>
80001bd4:	e19ff0ef          	jal	ra,800019ec <sprintf>
80001bd8:	00a90933          	add	s2,s2,a0
80001bdc:	fd240ae3          	beq	s0,s2,80001bb0 <_init+0xa0>
80001be0:	00040513          	mv	a0,s0
80001be4:	d05ff0ef          	jal	ra,800018e8 <printstr>
80001be8:	fc9ff06f          	j	80001bb0 <_init+0xa0>
80001bec:	00005997          	auipc	s3,0x5
80001bf0:	18098993          	addi	s3,s3,384 # 80006d6c <counter_names>
80001bf4:	0009a603          	lw	a2,0(s3)
80001bf8:	00001597          	auipc	a1,0x1
80001bfc:	ec058593          	addi	a1,a1,-320 # 80002ab8 <main+0xd4>
80001c00:	00040513          	mv	a0,s0
80001c04:	de9ff0ef          	jal	ra,800019ec <sprintf>
80001c08:	00492683          	lw	a3,4(s2)
80001c0c:	00a40933          	add	s2,s0,a0
80001c10:	fc0686e3          	beqz	a3,80001bdc <_init+0xcc>
80001c14:	fb1ff06f          	j	80001bc4 <_init+0xb4>

80001c18 <strlen>:
80001c18:	00054783          	lbu	a5,0(a0)
80001c1c:	00078e63          	beqz	a5,80001c38 <strlen+0x20>
80001c20:	00050793          	mv	a5,a0
80001c24:	0017c703          	lbu	a4,1(a5)
80001c28:	00178793          	addi	a5,a5,1
80001c2c:	fe071ce3          	bnez	a4,80001c24 <strlen+0xc>
80001c30:	40a78533          	sub	a0,a5,a0
80001c34:	00008067          	ret
80001c38:	00000513          	li	a0,0
80001c3c:	00008067          	ret

80001c40 <strnlen>:
80001c40:	00050613          	mv	a2,a0
80001c44:	00b606b3          	add	a3,a2,a1
80001c48:	00058513          	mv	a0,a1
80001c4c:	00060793          	mv	a5,a2
80001c50:	00059863          	bnez	a1,80001c60 <strnlen+0x20>
80001c54:	01c0006f          	j	80001c70 <strnlen+0x30>
80001c58:	00178793          	addi	a5,a5,1
80001c5c:	00f68863          	beq	a3,a5,80001c6c <strnlen+0x2c>
80001c60:	0007c703          	lbu	a4,0(a5)
80001c64:	fe071ae3          	bnez	a4,80001c58 <strnlen+0x18>
80001c68:	40c78533          	sub	a0,a5,a2
80001c6c:	00008067          	ret
80001c70:	00008067          	ret

80001c74 <strcmp>:
80001c74:	00054783          	lbu	a5,0(a0)
80001c78:	00158593          	addi	a1,a1,1
80001c7c:	00150513          	addi	a0,a0,1
80001c80:	fff5c703          	lbu	a4,-1(a1)
80001c84:	00078863          	beqz	a5,80001c94 <strcmp+0x20>
80001c88:	fee786e3          	beq	a5,a4,80001c74 <strcmp>
80001c8c:	40e78533          	sub	a0,a5,a4
80001c90:	00008067          	ret
80001c94:	00000793          	li	a5,0
80001c98:	ff5ff06f          	j	80001c8c <strcmp+0x18>

80001c9c <strcpy>:
80001c9c:	00050793          	mv	a5,a0
80001ca0:	0005c703          	lbu	a4,0(a1)
80001ca4:	00178793          	addi	a5,a5,1
80001ca8:	00158593          	addi	a1,a1,1
80001cac:	fee78fa3          	sb	a4,-1(a5)
80001cb0:	fe0718e3          	bnez	a4,80001ca0 <strcpy+0x4>
80001cb4:	00008067          	ret

80001cb8 <atol>:
80001cb8:	00054703          	lbu	a4,0(a0)
80001cbc:	02000693          	li	a3,32
80001cc0:	00050793          	mv	a5,a0
80001cc4:	00d71863          	bne	a4,a3,80001cd4 <atol+0x1c>
80001cc8:	0017c703          	lbu	a4,1(a5)
80001ccc:	00178793          	addi	a5,a5,1
80001cd0:	fed70ce3          	beq	a4,a3,80001cc8 <atol+0x10>
80001cd4:	02d00693          	li	a3,45
80001cd8:	06d70063          	beq	a4,a3,80001d38 <atol+0x80>
80001cdc:	02b00693          	li	a3,43
80001ce0:	04d70063          	beq	a4,a3,80001d20 <atol+0x68>
80001ce4:	0007c683          	lbu	a3,0(a5)
80001ce8:	00000593          	li	a1,0
80001cec:	04068263          	beqz	a3,80001d30 <atol+0x78>
80001cf0:	00000513          	li	a0,0
80001cf4:	00178793          	addi	a5,a5,1
80001cf8:	fd068613          	addi	a2,a3,-48
80001cfc:	00251713          	slli	a4,a0,0x2
80001d00:	0007c683          	lbu	a3,0(a5)
80001d04:	00a70533          	add	a0,a4,a0
80001d08:	00151513          	slli	a0,a0,0x1
80001d0c:	00a60533          	add	a0,a2,a0
80001d10:	fe0692e3          	bnez	a3,80001cf4 <atol+0x3c>
80001d14:	02058063          	beqz	a1,80001d34 <atol+0x7c>
80001d18:	40a00533          	neg	a0,a0
80001d1c:	00008067          	ret
80001d20:	0017c683          	lbu	a3,1(a5)
80001d24:	00000593          	li	a1,0
80001d28:	00178793          	addi	a5,a5,1
80001d2c:	fc0692e3          	bnez	a3,80001cf0 <atol+0x38>
80001d30:	00000513          	li	a0,0
80001d34:	00008067          	ret
80001d38:	0017c683          	lbu	a3,1(a5)
80001d3c:	00100593          	li	a1,1
80001d40:	00178793          	addi	a5,a5,1
80001d44:	fa0696e3          	bnez	a3,80001cf0 <atol+0x38>
80001d48:	00000513          	li	a0,0
80001d4c:	fe9ff06f          	j	80001d34 <atol+0x7c>

80001d50 <__moddi3>:
80001d50:	00058f13          	mv	t5,a1
80001d54:	00000813          	li	a6,0
80001d58:	0005dc63          	bgez	a1,80001d70 <__moddi3+0x20>
80001d5c:	00a037b3          	snez	a5,a0
80001d60:	40b005b3          	neg	a1,a1
80001d64:	40f58f33          	sub	t5,a1,a5
80001d68:	40a00533          	neg	a0,a0
80001d6c:	fff00813          	li	a6,-1
80001d70:	0006da63          	bgez	a3,80001d84 <__moddi3+0x34>
80001d74:	00c035b3          	snez	a1,a2
80001d78:	40d00733          	neg	a4,a3
80001d7c:	40b706b3          	sub	a3,a4,a1
80001d80:	40c00633          	neg	a2,a2
80001d84:	00060893          	mv	a7,a2
80001d88:	00068713          	mv	a4,a3
80001d8c:	00050793          	mv	a5,a0
80001d90:	000f0593          	mv	a1,t5
80001d94:	24069463          	bnez	a3,80001fdc <__moddi3+0x28c>
80001d98:	800036b7          	lui	a3,0x80003
80001d9c:	c1c68693          	addi	a3,a3,-996 # 80002c1c <__global_pointer$+0xffffb6b0>
80001da0:	0ecf7663          	bgeu	t5,a2,80001e8c <__moddi3+0x13c>
80001da4:	00010337          	lui	t1,0x10
80001da8:	0c667863          	bgeu	a2,t1,80001e78 <__moddi3+0x128>
80001dac:	0ff00313          	li	t1,255
80001db0:	00c37463          	bgeu	t1,a2,80001db8 <__moddi3+0x68>
80001db4:	00800713          	li	a4,8
80001db8:	00e65333          	srl	t1,a2,a4
80001dbc:	006686b3          	add	a3,a3,t1
80001dc0:	0006ce03          	lbu	t3,0(a3)
80001dc4:	00ee0e33          	add	t3,t3,a4
80001dc8:	02000713          	li	a4,32
80001dcc:	41c70333          	sub	t1,a4,t3
80001dd0:	01c70c63          	beq	a4,t3,80001de8 <__moddi3+0x98>
80001dd4:	006f15b3          	sll	a1,t5,t1
80001dd8:	01c55e33          	srl	t3,a0,t3
80001ddc:	006618b3          	sll	a7,a2,t1
80001de0:	00be65b3          	or	a1,t3,a1
80001de4:	006517b3          	sll	a5,a0,t1
80001de8:	0108d613          	srli	a2,a7,0x10
80001dec:	02c5f6b3          	remu	a3,a1,a2
80001df0:	01089513          	slli	a0,a7,0x10
80001df4:	01055513          	srli	a0,a0,0x10
80001df8:	0107d713          	srli	a4,a5,0x10
80001dfc:	02c5d5b3          	divu	a1,a1,a2
80001e00:	01069693          	slli	a3,a3,0x10
80001e04:	00e6e733          	or	a4,a3,a4
80001e08:	02b505b3          	mul	a1,a0,a1
80001e0c:	00b77a63          	bgeu	a4,a1,80001e20 <__moddi3+0xd0>
80001e10:	01170733          	add	a4,a4,a7
80001e14:	01176663          	bltu	a4,a7,80001e20 <__moddi3+0xd0>
80001e18:	00b77463          	bgeu	a4,a1,80001e20 <__moddi3+0xd0>
80001e1c:	01170733          	add	a4,a4,a7
80001e20:	40b70733          	sub	a4,a4,a1
80001e24:	02c776b3          	remu	a3,a4,a2
80001e28:	01079793          	slli	a5,a5,0x10
80001e2c:	0107d793          	srli	a5,a5,0x10
80001e30:	02c75733          	divu	a4,a4,a2
80001e34:	02e50733          	mul	a4,a0,a4
80001e38:	01069513          	slli	a0,a3,0x10
80001e3c:	00f567b3          	or	a5,a0,a5
80001e40:	00e7fa63          	bgeu	a5,a4,80001e54 <__moddi3+0x104>
80001e44:	011787b3          	add	a5,a5,a7
80001e48:	0117e663          	bltu	a5,a7,80001e54 <__moddi3+0x104>
80001e4c:	00e7f463          	bgeu	a5,a4,80001e54 <__moddi3+0x104>
80001e50:	011787b3          	add	a5,a5,a7
80001e54:	40e787b3          	sub	a5,a5,a4
80001e58:	0067d533          	srl	a0,a5,t1
80001e5c:	00000593          	li	a1,0
80001e60:	00080a63          	beqz	a6,80001e74 <__moddi3+0x124>
80001e64:	00a037b3          	snez	a5,a0
80001e68:	40b006b3          	neg	a3,a1
80001e6c:	40f685b3          	sub	a1,a3,a5
80001e70:	40a00533          	neg	a0,a0
80001e74:	00008067          	ret
80001e78:	01000337          	lui	t1,0x1000
80001e7c:	01000713          	li	a4,16
80001e80:	f2666ce3          	bltu	a2,t1,80001db8 <__moddi3+0x68>
80001e84:	01800713          	li	a4,24
80001e88:	f31ff06f          	j	80001db8 <__moddi3+0x68>
80001e8c:	00061663          	bnez	a2,80001e98 <__moddi3+0x148>
80001e90:	00100893          	li	a7,1
80001e94:	02e8d8b3          	divu	a7,a7,a4
80001e98:	00010637          	lui	a2,0x10
80001e9c:	12c8f663          	bgeu	a7,a2,80001fc8 <__moddi3+0x278>
80001ea0:	0ff00613          	li	a2,255
80001ea4:	01167463          	bgeu	a2,a7,80001eac <__moddi3+0x15c>
80001ea8:	00800713          	li	a4,8
80001eac:	00e8d633          	srl	a2,a7,a4
80001eb0:	00c686b3          	add	a3,a3,a2
80001eb4:	0006ce03          	lbu	t3,0(a3)
80001eb8:	411f05b3          	sub	a1,t5,a7
80001ebc:	00ee0e33          	add	t3,t3,a4
80001ec0:	02000713          	li	a4,32
80001ec4:	41c70333          	sub	t1,a4,t3
80001ec8:	09c70663          	beq	a4,t3,80001f54 <__moddi3+0x204>
80001ecc:	006898b3          	sll	a7,a7,t1
80001ed0:	01cf5eb3          	srl	t4,t5,t3
80001ed4:	006517b3          	sll	a5,a0,t1
80001ed8:	01c55e33          	srl	t3,a0,t3
80001edc:	0108d513          	srli	a0,a7,0x10
80001ee0:	006f15b3          	sll	a1,t5,t1
80001ee4:	00be6e33          	or	t3,t3,a1
80001ee8:	01089593          	slli	a1,a7,0x10
80001eec:	0105d593          	srli	a1,a1,0x10
80001ef0:	010e5613          	srli	a2,t3,0x10
80001ef4:	02aed6b3          	divu	a3,t4,a0
80001ef8:	02aef733          	remu	a4,t4,a0
80001efc:	02d586b3          	mul	a3,a1,a3
80001f00:	01071713          	slli	a4,a4,0x10
80001f04:	00c76733          	or	a4,a4,a2
80001f08:	00d77a63          	bgeu	a4,a3,80001f1c <__moddi3+0x1cc>
80001f0c:	01170733          	add	a4,a4,a7
80001f10:	01176663          	bltu	a4,a7,80001f1c <__moddi3+0x1cc>
80001f14:	00d77463          	bgeu	a4,a3,80001f1c <__moddi3+0x1cc>
80001f18:	01170733          	add	a4,a4,a7
80001f1c:	40d70633          	sub	a2,a4,a3
80001f20:	02a67733          	remu	a4,a2,a0
80001f24:	010e1e13          	slli	t3,t3,0x10
80001f28:	010e5e13          	srli	t3,t3,0x10
80001f2c:	02a65633          	divu	a2,a2,a0
80001f30:	01071713          	slli	a4,a4,0x10
80001f34:	02c58633          	mul	a2,a1,a2
80001f38:	01c765b3          	or	a1,a4,t3
80001f3c:	00c5fa63          	bgeu	a1,a2,80001f50 <__moddi3+0x200>
80001f40:	011585b3          	add	a1,a1,a7
80001f44:	0115e663          	bltu	a1,a7,80001f50 <__moddi3+0x200>
80001f48:	00c5f463          	bgeu	a1,a2,80001f50 <__moddi3+0x200>
80001f4c:	011585b3          	add	a1,a1,a7
80001f50:	40c585b3          	sub	a1,a1,a2
80001f54:	0108d693          	srli	a3,a7,0x10
80001f58:	02d5f733          	remu	a4,a1,a3
80001f5c:	01089513          	slli	a0,a7,0x10
80001f60:	01055513          	srli	a0,a0,0x10
80001f64:	0107d613          	srli	a2,a5,0x10
80001f68:	02d5d5b3          	divu	a1,a1,a3
80001f6c:	01071713          	slli	a4,a4,0x10
80001f70:	00c76733          	or	a4,a4,a2
80001f74:	02b505b3          	mul	a1,a0,a1
80001f78:	00b77a63          	bgeu	a4,a1,80001f8c <__moddi3+0x23c>
80001f7c:	01170733          	add	a4,a4,a7
80001f80:	01176663          	bltu	a4,a7,80001f8c <__moddi3+0x23c>
80001f84:	00b77463          	bgeu	a4,a1,80001f8c <__moddi3+0x23c>
80001f88:	01170733          	add	a4,a4,a7
80001f8c:	40b705b3          	sub	a1,a4,a1
80001f90:	02d5f733          	remu	a4,a1,a3
80001f94:	01079793          	slli	a5,a5,0x10
80001f98:	0107d793          	srli	a5,a5,0x10
80001f9c:	02d5d5b3          	divu	a1,a1,a3
80001fa0:	02b505b3          	mul	a1,a0,a1
80001fa4:	01071513          	slli	a0,a4,0x10
80001fa8:	00f567b3          	or	a5,a0,a5
80001fac:	00b7fa63          	bgeu	a5,a1,80001fc0 <__moddi3+0x270>
80001fb0:	011787b3          	add	a5,a5,a7
80001fb4:	0117e663          	bltu	a5,a7,80001fc0 <__moddi3+0x270>
80001fb8:	00b7f463          	bgeu	a5,a1,80001fc0 <__moddi3+0x270>
80001fbc:	011787b3          	add	a5,a5,a7
80001fc0:	40b787b3          	sub	a5,a5,a1
80001fc4:	e95ff06f          	j	80001e58 <__moddi3+0x108>
80001fc8:	01000637          	lui	a2,0x1000
80001fcc:	01000713          	li	a4,16
80001fd0:	ecc8eee3          	bltu	a7,a2,80001eac <__moddi3+0x15c>
80001fd4:	01800713          	li	a4,24
80001fd8:	ed5ff06f          	j	80001eac <__moddi3+0x15c>
80001fdc:	e8df62e3          	bltu	t5,a3,80001e60 <__moddi3+0x110>
80001fe0:	00010737          	lui	a4,0x10
80001fe4:	04e6fa63          	bgeu	a3,a4,80002038 <__moddi3+0x2e8>
80001fe8:	0ff00e93          	li	t4,255
80001fec:	00deb733          	sltu	a4,t4,a3
80001ff0:	00371713          	slli	a4,a4,0x3
80001ff4:	800038b7          	lui	a7,0x80003
80001ff8:	00e6d333          	srl	t1,a3,a4
80001ffc:	c1c88893          	addi	a7,a7,-996 # 80002c1c <__global_pointer$+0xffffb6b0>
80002000:	006888b3          	add	a7,a7,t1
80002004:	0008ce83          	lbu	t4,0(a7)
80002008:	00ee8eb3          	add	t4,t4,a4
8000200c:	02000713          	li	a4,32
80002010:	41d70e33          	sub	t3,a4,t4
80002014:	03d71c63          	bne	a4,t4,8000204c <__moddi3+0x2fc>
80002018:	01e6e463          	bltu	a3,t5,80002020 <__moddi3+0x2d0>
8000201c:	00c56a63          	bltu	a0,a2,80002030 <__moddi3+0x2e0>
80002020:	40c507b3          	sub	a5,a0,a2
80002024:	40df05b3          	sub	a1,t5,a3
80002028:	00f53533          	sltu	a0,a0,a5
8000202c:	40a585b3          	sub	a1,a1,a0
80002030:	00078513          	mv	a0,a5
80002034:	e2dff06f          	j	80001e60 <__moddi3+0x110>
80002038:	010008b7          	lui	a7,0x1000
8000203c:	01000713          	li	a4,16
80002040:	fb16eae3          	bltu	a3,a7,80001ff4 <__moddi3+0x2a4>
80002044:	01800713          	li	a4,24
80002048:	fadff06f          	j	80001ff4 <__moddi3+0x2a4>
8000204c:	01d65733          	srl	a4,a2,t4
80002050:	01c696b3          	sll	a3,a3,t3
80002054:	00d76fb3          	or	t6,a4,a3
80002058:	01df57b3          	srl	a5,t5,t4
8000205c:	010fd713          	srli	a4,t6,0x10
80002060:	02e7f333          	remu	t1,a5,a4
80002064:	01cf15b3          	sll	a1,t5,t3
80002068:	01d556b3          	srl	a3,a0,t4
8000206c:	00b6e6b3          	or	a3,a3,a1
80002070:	010f9593          	slli	a1,t6,0x10
80002074:	0105d593          	srli	a1,a1,0x10
80002078:	0106d893          	srli	a7,a3,0x10
8000207c:	01c61633          	sll	a2,a2,t3
80002080:	01c51533          	sll	a0,a0,t3
80002084:	02e7d7b3          	divu	a5,a5,a4
80002088:	01031313          	slli	t1,t1,0x10
8000208c:	011368b3          	or	a7,t1,a7
80002090:	02f58f33          	mul	t5,a1,a5
80002094:	00078313          	mv	t1,a5
80002098:	01e8fe63          	bgeu	a7,t5,800020b4 <__moddi3+0x364>
8000209c:	01f888b3          	add	a7,a7,t6
800020a0:	fff78313          	addi	t1,a5,-1
800020a4:	01f8e863          	bltu	a7,t6,800020b4 <__moddi3+0x364>
800020a8:	01e8f663          	bgeu	a7,t5,800020b4 <__moddi3+0x364>
800020ac:	ffe78313          	addi	t1,a5,-2
800020b0:	01f888b3          	add	a7,a7,t6
800020b4:	41e888b3          	sub	a7,a7,t5
800020b8:	02e8ff33          	remu	t5,a7,a4
800020bc:	01069693          	slli	a3,a3,0x10
800020c0:	0106d693          	srli	a3,a3,0x10
800020c4:	02e8d8b3          	divu	a7,a7,a4
800020c8:	010f1f13          	slli	t5,t5,0x10
800020cc:	00df6f33          	or	t5,t5,a3
800020d0:	031585b3          	mul	a1,a1,a7
800020d4:	00088793          	mv	a5,a7
800020d8:	00bf7e63          	bgeu	t5,a1,800020f4 <__moddi3+0x3a4>
800020dc:	01ff0f33          	add	t5,t5,t6
800020e0:	fff88793          	addi	a5,a7,-1 # ffffff <buflen.2941+0xffffbf>
800020e4:	01ff6863          	bltu	t5,t6,800020f4 <__moddi3+0x3a4>
800020e8:	00bf7663          	bgeu	t5,a1,800020f4 <__moddi3+0x3a4>
800020ec:	ffe88793          	addi	a5,a7,-2
800020f0:	01ff0f33          	add	t5,t5,t6
800020f4:	40bf05b3          	sub	a1,t5,a1
800020f8:	01031313          	slli	t1,t1,0x10
800020fc:	00010f37          	lui	t5,0x10
80002100:	00f36333          	or	t1,t1,a5
80002104:	ffff0793          	addi	a5,t5,-1 # ffff <buflen.2941+0xffbf>
80002108:	00f378b3          	and	a7,t1,a5
8000210c:	01065693          	srli	a3,a2,0x10
80002110:	01035313          	srli	t1,t1,0x10
80002114:	00f677b3          	and	a5,a2,a5
80002118:	02f88733          	mul	a4,a7,a5
8000211c:	02f307b3          	mul	a5,t1,a5
80002120:	02d888b3          	mul	a7,a7,a3
80002124:	02d30333          	mul	t1,t1,a3
80002128:	00f888b3          	add	a7,a7,a5
8000212c:	01075693          	srli	a3,a4,0x10
80002130:	011686b3          	add	a3,a3,a7
80002134:	00f6f463          	bgeu	a3,a5,8000213c <__moddi3+0x3ec>
80002138:	01e30333          	add	t1,t1,t5
8000213c:	0106d793          	srli	a5,a3,0x10
80002140:	00678333          	add	t1,a5,t1
80002144:	000107b7          	lui	a5,0x10
80002148:	fff78793          	addi	a5,a5,-1 # ffff <buflen.2941+0xffbf>
8000214c:	00f6f6b3          	and	a3,a3,a5
80002150:	01069693          	slli	a3,a3,0x10
80002154:	00f77733          	and	a4,a4,a5
80002158:	00e68733          	add	a4,a3,a4
8000215c:	0065e663          	bltu	a1,t1,80002168 <__moddi3+0x418>
80002160:	00659e63          	bne	a1,t1,8000217c <__moddi3+0x42c>
80002164:	00e57c63          	bgeu	a0,a4,8000217c <__moddi3+0x42c>
80002168:	40c70633          	sub	a2,a4,a2
8000216c:	00c73733          	sltu	a4,a4,a2
80002170:	01f70733          	add	a4,a4,t6
80002174:	40e30333          	sub	t1,t1,a4
80002178:	00060713          	mv	a4,a2
8000217c:	40e50733          	sub	a4,a0,a4
80002180:	00e53533          	sltu	a0,a0,a4
80002184:	406585b3          	sub	a1,a1,t1
80002188:	40a585b3          	sub	a1,a1,a0
8000218c:	01d597b3          	sll	a5,a1,t4
80002190:	01c75733          	srl	a4,a4,t3
80002194:	00e7e533          	or	a0,a5,a4
80002198:	01c5d5b3          	srl	a1,a1,t3
8000219c:	cc5ff06f          	j	80001e60 <__moddi3+0x110>

800021a0 <__udivdi3>:
800021a0:	00050893          	mv	a7,a0
800021a4:	00058793          	mv	a5,a1
800021a8:	00060813          	mv	a6,a2
800021ac:	00068513          	mv	a0,a3
800021b0:	00088313          	mv	t1,a7
800021b4:	28069463          	bnez	a3,8000243c <__udivdi3+0x29c>
800021b8:	800036b7          	lui	a3,0x80003
800021bc:	c1c68693          	addi	a3,a3,-996 # 80002c1c <__global_pointer$+0xffffb6b0>
800021c0:	0ec5f663          	bgeu	a1,a2,800022ac <__udivdi3+0x10c>
800021c4:	00010737          	lui	a4,0x10
800021c8:	0ce67863          	bgeu	a2,a4,80002298 <__udivdi3+0xf8>
800021cc:	0ff00713          	li	a4,255
800021d0:	00c73733          	sltu	a4,a4,a2
800021d4:	00371713          	slli	a4,a4,0x3
800021d8:	00e65533          	srl	a0,a2,a4
800021dc:	00a686b3          	add	a3,a3,a0
800021e0:	0006c683          	lbu	a3,0(a3)
800021e4:	02000513          	li	a0,32
800021e8:	00e68733          	add	a4,a3,a4
800021ec:	40e506b3          	sub	a3,a0,a4
800021f0:	00e50c63          	beq	a0,a4,80002208 <__udivdi3+0x68>
800021f4:	00d797b3          	sll	a5,a5,a3
800021f8:	00e8d733          	srl	a4,a7,a4
800021fc:	00d61833          	sll	a6,a2,a3
80002200:	00f765b3          	or	a1,a4,a5
80002204:	00d89333          	sll	t1,a7,a3
80002208:	01085893          	srli	a7,a6,0x10
8000220c:	0315d7b3          	divu	a5,a1,a7
80002210:	01081613          	slli	a2,a6,0x10
80002214:	01065613          	srli	a2,a2,0x10
80002218:	01035713          	srli	a4,t1,0x10
8000221c:	0315f6b3          	remu	a3,a1,a7
80002220:	00078513          	mv	a0,a5
80002224:	02f605b3          	mul	a1,a2,a5
80002228:	01069693          	slli	a3,a3,0x10
8000222c:	00e6e733          	or	a4,a3,a4
80002230:	00b77e63          	bgeu	a4,a1,8000224c <__udivdi3+0xac>
80002234:	01070733          	add	a4,a4,a6
80002238:	fff78513          	addi	a0,a5,-1
8000223c:	01076863          	bltu	a4,a6,8000224c <__udivdi3+0xac>
80002240:	00b77663          	bgeu	a4,a1,8000224c <__udivdi3+0xac>
80002244:	ffe78513          	addi	a0,a5,-2
80002248:	01070733          	add	a4,a4,a6
8000224c:	40b70733          	sub	a4,a4,a1
80002250:	031777b3          	remu	a5,a4,a7
80002254:	01031313          	slli	t1,t1,0x10
80002258:	01035313          	srli	t1,t1,0x10
8000225c:	03175733          	divu	a4,a4,a7
80002260:	01079793          	slli	a5,a5,0x10
80002264:	0067e333          	or	t1,a5,t1
80002268:	02e606b3          	mul	a3,a2,a4
8000226c:	00070613          	mv	a2,a4
80002270:	00d37c63          	bgeu	t1,a3,80002288 <__udivdi3+0xe8>
80002274:	00680333          	add	t1,a6,t1
80002278:	fff70613          	addi	a2,a4,-1 # ffff <buflen.2941+0xffbf>
8000227c:	01036663          	bltu	t1,a6,80002288 <__udivdi3+0xe8>
80002280:	00d37463          	bgeu	t1,a3,80002288 <__udivdi3+0xe8>
80002284:	ffe70613          	addi	a2,a4,-2
80002288:	01051513          	slli	a0,a0,0x10
8000228c:	00c56533          	or	a0,a0,a2
80002290:	00000593          	li	a1,0
80002294:	0e40006f          	j	80002378 <__udivdi3+0x1d8>
80002298:	01000537          	lui	a0,0x1000
8000229c:	01000713          	li	a4,16
800022a0:	f2a66ce3          	bltu	a2,a0,800021d8 <__udivdi3+0x38>
800022a4:	01800713          	li	a4,24
800022a8:	f31ff06f          	j	800021d8 <__udivdi3+0x38>
800022ac:	00061663          	bnez	a2,800022b8 <__udivdi3+0x118>
800022b0:	00100713          	li	a4,1
800022b4:	02c75833          	divu	a6,a4,a2
800022b8:	00010737          	lui	a4,0x10
800022bc:	0ce87063          	bgeu	a6,a4,8000237c <__udivdi3+0x1dc>
800022c0:	0ff00713          	li	a4,255
800022c4:	01077463          	bgeu	a4,a6,800022cc <__udivdi3+0x12c>
800022c8:	00800513          	li	a0,8
800022cc:	00a85733          	srl	a4,a6,a0
800022d0:	00e686b3          	add	a3,a3,a4
800022d4:	0006c703          	lbu	a4,0(a3)
800022d8:	02000613          	li	a2,32
800022dc:	00a70733          	add	a4,a4,a0
800022e0:	40e606b3          	sub	a3,a2,a4
800022e4:	0ae61663          	bne	a2,a4,80002390 <__udivdi3+0x1f0>
800022e8:	410787b3          	sub	a5,a5,a6
800022ec:	00100593          	li	a1,1
800022f0:	01085893          	srli	a7,a6,0x10
800022f4:	01081613          	slli	a2,a6,0x10
800022f8:	01065613          	srli	a2,a2,0x10
800022fc:	01035713          	srli	a4,t1,0x10
80002300:	0317f6b3          	remu	a3,a5,a7
80002304:	0317d7b3          	divu	a5,a5,a7
80002308:	01069693          	slli	a3,a3,0x10
8000230c:	00e6e733          	or	a4,a3,a4
80002310:	02f60e33          	mul	t3,a2,a5
80002314:	00078513          	mv	a0,a5
80002318:	01c77e63          	bgeu	a4,t3,80002334 <__udivdi3+0x194>
8000231c:	01070733          	add	a4,a4,a6
80002320:	fff78513          	addi	a0,a5,-1
80002324:	01076863          	bltu	a4,a6,80002334 <__udivdi3+0x194>
80002328:	01c77663          	bgeu	a4,t3,80002334 <__udivdi3+0x194>
8000232c:	ffe78513          	addi	a0,a5,-2
80002330:	01070733          	add	a4,a4,a6
80002334:	41c70733          	sub	a4,a4,t3
80002338:	031777b3          	remu	a5,a4,a7
8000233c:	01031313          	slli	t1,t1,0x10
80002340:	01035313          	srli	t1,t1,0x10
80002344:	03175733          	divu	a4,a4,a7
80002348:	01079793          	slli	a5,a5,0x10
8000234c:	0067e333          	or	t1,a5,t1
80002350:	02e606b3          	mul	a3,a2,a4
80002354:	00070613          	mv	a2,a4
80002358:	00d37c63          	bgeu	t1,a3,80002370 <__udivdi3+0x1d0>
8000235c:	00680333          	add	t1,a6,t1
80002360:	fff70613          	addi	a2,a4,-1 # ffff <buflen.2941+0xffbf>
80002364:	01036663          	bltu	t1,a6,80002370 <__udivdi3+0x1d0>
80002368:	00d37463          	bgeu	t1,a3,80002370 <__udivdi3+0x1d0>
8000236c:	ffe70613          	addi	a2,a4,-2
80002370:	01051513          	slli	a0,a0,0x10
80002374:	00c56533          	or	a0,a0,a2
80002378:	00008067          	ret
8000237c:	01000737          	lui	a4,0x1000
80002380:	01000513          	li	a0,16
80002384:	f4e864e3          	bltu	a6,a4,800022cc <__udivdi3+0x12c>
80002388:	01800513          	li	a0,24
8000238c:	f41ff06f          	j	800022cc <__udivdi3+0x12c>
80002390:	00d81833          	sll	a6,a6,a3
80002394:	00e7d5b3          	srl	a1,a5,a4
80002398:	00d89333          	sll	t1,a7,a3
8000239c:	00d797b3          	sll	a5,a5,a3
800023a0:	00e8d733          	srl	a4,a7,a4
800023a4:	01085893          	srli	a7,a6,0x10
800023a8:	00f76633          	or	a2,a4,a5
800023ac:	0315f733          	remu	a4,a1,a7
800023b0:	01081793          	slli	a5,a6,0x10
800023b4:	0107d793          	srli	a5,a5,0x10
800023b8:	01065513          	srli	a0,a2,0x10
800023bc:	0315d5b3          	divu	a1,a1,a7
800023c0:	01071713          	slli	a4,a4,0x10
800023c4:	00a76733          	or	a4,a4,a0
800023c8:	02b786b3          	mul	a3,a5,a1
800023cc:	00058513          	mv	a0,a1
800023d0:	00d77e63          	bgeu	a4,a3,800023ec <__udivdi3+0x24c>
800023d4:	01070733          	add	a4,a4,a6
800023d8:	fff58513          	addi	a0,a1,-1
800023dc:	01076863          	bltu	a4,a6,800023ec <__udivdi3+0x24c>
800023e0:	00d77663          	bgeu	a4,a3,800023ec <__udivdi3+0x24c>
800023e4:	ffe58513          	addi	a0,a1,-2
800023e8:	01070733          	add	a4,a4,a6
800023ec:	40d706b3          	sub	a3,a4,a3
800023f0:	0316f733          	remu	a4,a3,a7
800023f4:	01061613          	slli	a2,a2,0x10
800023f8:	01065613          	srli	a2,a2,0x10
800023fc:	0316d6b3          	divu	a3,a3,a7
80002400:	01071713          	slli	a4,a4,0x10
80002404:	02d788b3          	mul	a7,a5,a3
80002408:	00c767b3          	or	a5,a4,a2
8000240c:	00068713          	mv	a4,a3
80002410:	0117fe63          	bgeu	a5,a7,8000242c <__udivdi3+0x28c>
80002414:	010787b3          	add	a5,a5,a6
80002418:	fff68713          	addi	a4,a3,-1
8000241c:	0107e863          	bltu	a5,a6,8000242c <__udivdi3+0x28c>
80002420:	0117f663          	bgeu	a5,a7,8000242c <__udivdi3+0x28c>
80002424:	ffe68713          	addi	a4,a3,-2
80002428:	010787b3          	add	a5,a5,a6
8000242c:	01051593          	slli	a1,a0,0x10
80002430:	411787b3          	sub	a5,a5,a7
80002434:	00e5e5b3          	or	a1,a1,a4
80002438:	eb9ff06f          	j	800022f0 <__udivdi3+0x150>
8000243c:	18d5e663          	bltu	a1,a3,800025c8 <__udivdi3+0x428>
80002440:	00010737          	lui	a4,0x10
80002444:	04e6f463          	bgeu	a3,a4,8000248c <__udivdi3+0x2ec>
80002448:	0ff00713          	li	a4,255
8000244c:	00d735b3          	sltu	a1,a4,a3
80002450:	00359593          	slli	a1,a1,0x3
80002454:	80003737          	lui	a4,0x80003
80002458:	00b6d533          	srl	a0,a3,a1
8000245c:	c1c70713          	addi	a4,a4,-996 # 80002c1c <__global_pointer$+0xffffb6b0>
80002460:	00a70733          	add	a4,a4,a0
80002464:	00074703          	lbu	a4,0(a4)
80002468:	02000513          	li	a0,32
8000246c:	00b70733          	add	a4,a4,a1
80002470:	40e505b3          	sub	a1,a0,a4
80002474:	02e51663          	bne	a0,a4,800024a0 <__udivdi3+0x300>
80002478:	00100513          	li	a0,1
8000247c:	eef6eee3          	bltu	a3,a5,80002378 <__udivdi3+0x1d8>
80002480:	00c8b533          	sltu	a0,a7,a2
80002484:	00154513          	xori	a0,a0,1
80002488:	ef1ff06f          	j	80002378 <__udivdi3+0x1d8>
8000248c:	01000737          	lui	a4,0x1000
80002490:	01000593          	li	a1,16
80002494:	fce6e0e3          	bltu	a3,a4,80002454 <__udivdi3+0x2b4>
80002498:	01800593          	li	a1,24
8000249c:	fb9ff06f          	j	80002454 <__udivdi3+0x2b4>
800024a0:	00e65333          	srl	t1,a2,a4
800024a4:	00b696b3          	sll	a3,a3,a1
800024a8:	00d36333          	or	t1,t1,a3
800024ac:	01035513          	srli	a0,t1,0x10
800024b0:	00b61eb3          	sll	t4,a2,a1
800024b4:	00e7d633          	srl	a2,a5,a4
800024b8:	02a676b3          	remu	a3,a2,a0
800024bc:	00b797b3          	sll	a5,a5,a1
800024c0:	00e8d733          	srl	a4,a7,a4
800024c4:	00f76833          	or	a6,a4,a5
800024c8:	01031793          	slli	a5,t1,0x10
800024cc:	0107d793          	srli	a5,a5,0x10
800024d0:	01085713          	srli	a4,a6,0x10
800024d4:	02a65633          	divu	a2,a2,a0
800024d8:	01069693          	slli	a3,a3,0x10
800024dc:	00e6e733          	or	a4,a3,a4
800024e0:	02c78f33          	mul	t5,a5,a2
800024e4:	00060e13          	mv	t3,a2
800024e8:	01e77e63          	bgeu	a4,t5,80002504 <__udivdi3+0x364>
800024ec:	00670733          	add	a4,a4,t1
800024f0:	fff60e13          	addi	t3,a2,-1 # ffffff <buflen.2941+0xffffbf>
800024f4:	00676863          	bltu	a4,t1,80002504 <__udivdi3+0x364>
800024f8:	01e77663          	bgeu	a4,t5,80002504 <__udivdi3+0x364>
800024fc:	ffe60e13          	addi	t3,a2,-2
80002500:	00670733          	add	a4,a4,t1
80002504:	41e70733          	sub	a4,a4,t5
80002508:	02a776b3          	remu	a3,a4,a0
8000250c:	02a75733          	divu	a4,a4,a0
80002510:	01069693          	slli	a3,a3,0x10
80002514:	02e78633          	mul	a2,a5,a4
80002518:	01081793          	slli	a5,a6,0x10
8000251c:	0107d793          	srli	a5,a5,0x10
80002520:	00f6e7b3          	or	a5,a3,a5
80002524:	00070693          	mv	a3,a4
80002528:	00c7fe63          	bgeu	a5,a2,80002544 <__udivdi3+0x3a4>
8000252c:	006787b3          	add	a5,a5,t1
80002530:	fff70693          	addi	a3,a4,-1 # ffffff <buflen.2941+0xffffbf>
80002534:	0067e863          	bltu	a5,t1,80002544 <__udivdi3+0x3a4>
80002538:	00c7f663          	bgeu	a5,a2,80002544 <__udivdi3+0x3a4>
8000253c:	ffe70693          	addi	a3,a4,-2
80002540:	006787b3          	add	a5,a5,t1
80002544:	010e1513          	slli	a0,t3,0x10
80002548:	00010e37          	lui	t3,0x10
8000254c:	00d56533          	or	a0,a0,a3
80002550:	fffe0693          	addi	a3,t3,-1 # ffff <buflen.2941+0xffbf>
80002554:	00d57833          	and	a6,a0,a3
80002558:	40c787b3          	sub	a5,a5,a2
8000255c:	00def6b3          	and	a3,t4,a3
80002560:	01055613          	srli	a2,a0,0x10
80002564:	010ede93          	srli	t4,t4,0x10
80002568:	02d80333          	mul	t1,a6,a3
8000256c:	02d606b3          	mul	a3,a2,a3
80002570:	01035713          	srli	a4,t1,0x10
80002574:	03d80833          	mul	a6,a6,t4
80002578:	00d80833          	add	a6,a6,a3
8000257c:	01070733          	add	a4,a4,a6
80002580:	03d60633          	mul	a2,a2,t4
80002584:	00d77463          	bgeu	a4,a3,8000258c <__udivdi3+0x3ec>
80002588:	01c60633          	add	a2,a2,t3
8000258c:	01075693          	srli	a3,a4,0x10
80002590:	00c68633          	add	a2,a3,a2
80002594:	02c7e663          	bltu	a5,a2,800025c0 <__udivdi3+0x420>
80002598:	cec79ce3          	bne	a5,a2,80002290 <__udivdi3+0xf0>
8000259c:	000107b7          	lui	a5,0x10
800025a0:	fff78793          	addi	a5,a5,-1 # ffff <buflen.2941+0xffbf>
800025a4:	00f77733          	and	a4,a4,a5
800025a8:	01071713          	slli	a4,a4,0x10
800025ac:	00f37333          	and	t1,t1,a5
800025b0:	00b898b3          	sll	a7,a7,a1
800025b4:	00670733          	add	a4,a4,t1
800025b8:	00000593          	li	a1,0
800025bc:	dae8fee3          	bgeu	a7,a4,80002378 <__udivdi3+0x1d8>
800025c0:	fff50513          	addi	a0,a0,-1 # ffffff <buflen.2941+0xffffbf>
800025c4:	ccdff06f          	j	80002290 <__udivdi3+0xf0>
800025c8:	00000593          	li	a1,0
800025cc:	00000513          	li	a0,0
800025d0:	da9ff06f          	j	80002378 <__udivdi3+0x1d8>

800025d4 <__umoddi3>:
800025d4:	00060893          	mv	a7,a2
800025d8:	00068713          	mv	a4,a3
800025dc:	00050793          	mv	a5,a0
800025e0:	00058813          	mv	a6,a1
800025e4:	22069c63          	bnez	a3,8000281c <__umoddi3+0x248>
800025e8:	800036b7          	lui	a3,0x80003
800025ec:	c1c68693          	addi	a3,a3,-996 # 80002c1c <__global_pointer$+0xffffb6b0>
800025f0:	0cc5fc63          	bgeu	a1,a2,800026c8 <__umoddi3+0xf4>
800025f4:	00010337          	lui	t1,0x10
800025f8:	0a667e63          	bgeu	a2,t1,800026b4 <__umoddi3+0xe0>
800025fc:	0ff00313          	li	t1,255
80002600:	00c37463          	bgeu	t1,a2,80002608 <__umoddi3+0x34>
80002604:	00800713          	li	a4,8
80002608:	00e65333          	srl	t1,a2,a4
8000260c:	006686b3          	add	a3,a3,t1
80002610:	0006ce03          	lbu	t3,0(a3)
80002614:	00ee0e33          	add	t3,t3,a4
80002618:	02000713          	li	a4,32
8000261c:	41c70333          	sub	t1,a4,t3
80002620:	01c70c63          	beq	a4,t3,80002638 <__umoddi3+0x64>
80002624:	006595b3          	sll	a1,a1,t1
80002628:	01c55e33          	srl	t3,a0,t3
8000262c:	006618b3          	sll	a7,a2,t1
80002630:	00be6833          	or	a6,t3,a1
80002634:	006517b3          	sll	a5,a0,t1
80002638:	0108d613          	srli	a2,a7,0x10
8000263c:	02c87733          	remu	a4,a6,a2
80002640:	01089513          	slli	a0,a7,0x10
80002644:	01055513          	srli	a0,a0,0x10
80002648:	0107d693          	srli	a3,a5,0x10
8000264c:	02c85833          	divu	a6,a6,a2
80002650:	01071713          	slli	a4,a4,0x10
80002654:	00d766b3          	or	a3,a4,a3
80002658:	03050833          	mul	a6,a0,a6
8000265c:	0106fa63          	bgeu	a3,a6,80002670 <__umoddi3+0x9c>
80002660:	011686b3          	add	a3,a3,a7
80002664:	0116e663          	bltu	a3,a7,80002670 <__umoddi3+0x9c>
80002668:	0106f463          	bgeu	a3,a6,80002670 <__umoddi3+0x9c>
8000266c:	011686b3          	add	a3,a3,a7
80002670:	410686b3          	sub	a3,a3,a6
80002674:	02c6f733          	remu	a4,a3,a2
80002678:	01079793          	slli	a5,a5,0x10
8000267c:	0107d793          	srli	a5,a5,0x10
80002680:	02c6d6b3          	divu	a3,a3,a2
80002684:	02d506b3          	mul	a3,a0,a3
80002688:	01071513          	slli	a0,a4,0x10
8000268c:	00f567b3          	or	a5,a0,a5
80002690:	00d7fa63          	bgeu	a5,a3,800026a4 <__umoddi3+0xd0>
80002694:	011787b3          	add	a5,a5,a7
80002698:	0117e663          	bltu	a5,a7,800026a4 <__umoddi3+0xd0>
8000269c:	00d7f463          	bgeu	a5,a3,800026a4 <__umoddi3+0xd0>
800026a0:	011787b3          	add	a5,a5,a7
800026a4:	40d787b3          	sub	a5,a5,a3
800026a8:	0067d533          	srl	a0,a5,t1
800026ac:	00000593          	li	a1,0
800026b0:	00008067          	ret
800026b4:	01000337          	lui	t1,0x1000
800026b8:	01000713          	li	a4,16
800026bc:	f46666e3          	bltu	a2,t1,80002608 <__umoddi3+0x34>
800026c0:	01800713          	li	a4,24
800026c4:	f45ff06f          	j	80002608 <__umoddi3+0x34>
800026c8:	00061663          	bnez	a2,800026d4 <__umoddi3+0x100>
800026cc:	00100613          	li	a2,1
800026d0:	031658b3          	divu	a7,a2,a7
800026d4:	00010637          	lui	a2,0x10
800026d8:	0ac8f263          	bgeu	a7,a2,8000277c <__umoddi3+0x1a8>
800026dc:	0ff00613          	li	a2,255
800026e0:	01167463          	bgeu	a2,a7,800026e8 <__umoddi3+0x114>
800026e4:	00800713          	li	a4,8
800026e8:	00e8d633          	srl	a2,a7,a4
800026ec:	00c686b3          	add	a3,a3,a2
800026f0:	0006ce03          	lbu	t3,0(a3)
800026f4:	00ee0e33          	add	t3,t3,a4
800026f8:	02000713          	li	a4,32
800026fc:	41c70333          	sub	t1,a4,t3
80002700:	09c71863          	bne	a4,t3,80002790 <__umoddi3+0x1bc>
80002704:	411585b3          	sub	a1,a1,a7
80002708:	0108d713          	srli	a4,a7,0x10
8000270c:	01089513          	slli	a0,a7,0x10
80002710:	01055513          	srli	a0,a0,0x10
80002714:	0107d613          	srli	a2,a5,0x10
80002718:	02e5f6b3          	remu	a3,a1,a4
8000271c:	02e5d5b3          	divu	a1,a1,a4
80002720:	01069693          	slli	a3,a3,0x10
80002724:	00c6e6b3          	or	a3,a3,a2
80002728:	02b505b3          	mul	a1,a0,a1
8000272c:	00b6fa63          	bgeu	a3,a1,80002740 <__umoddi3+0x16c>
80002730:	011686b3          	add	a3,a3,a7
80002734:	0116e663          	bltu	a3,a7,80002740 <__umoddi3+0x16c>
80002738:	00b6f463          	bgeu	a3,a1,80002740 <__umoddi3+0x16c>
8000273c:	011686b3          	add	a3,a3,a7
80002740:	40b685b3          	sub	a1,a3,a1
80002744:	02e5f6b3          	remu	a3,a1,a4
80002748:	01079793          	slli	a5,a5,0x10
8000274c:	0107d793          	srli	a5,a5,0x10
80002750:	02e5d5b3          	divu	a1,a1,a4
80002754:	02b505b3          	mul	a1,a0,a1
80002758:	01069513          	slli	a0,a3,0x10
8000275c:	00f567b3          	or	a5,a0,a5
80002760:	00b7fa63          	bgeu	a5,a1,80002774 <__umoddi3+0x1a0>
80002764:	011787b3          	add	a5,a5,a7
80002768:	0117e663          	bltu	a5,a7,80002774 <__umoddi3+0x1a0>
8000276c:	00b7f463          	bgeu	a5,a1,80002774 <__umoddi3+0x1a0>
80002770:	011787b3          	add	a5,a5,a7
80002774:	40b787b3          	sub	a5,a5,a1
80002778:	f31ff06f          	j	800026a8 <__umoddi3+0xd4>
8000277c:	01000637          	lui	a2,0x1000
80002780:	01000713          	li	a4,16
80002784:	f6c8e2e3          	bltu	a7,a2,800026e8 <__umoddi3+0x114>
80002788:	01800713          	li	a4,24
8000278c:	f5dff06f          	j	800026e8 <__umoddi3+0x114>
80002790:	006898b3          	sll	a7,a7,t1
80002794:	01c5d733          	srl	a4,a1,t3
80002798:	006517b3          	sll	a5,a0,t1
8000279c:	01c55e33          	srl	t3,a0,t3
800027a0:	0108d513          	srli	a0,a7,0x10
800027a4:	02a776b3          	remu	a3,a4,a0
800027a8:	006595b3          	sll	a1,a1,t1
800027ac:	00be6e33          	or	t3,t3,a1
800027b0:	01089593          	slli	a1,a7,0x10
800027b4:	0105d593          	srli	a1,a1,0x10
800027b8:	010e5613          	srli	a2,t3,0x10
800027bc:	02a75733          	divu	a4,a4,a0
800027c0:	01069693          	slli	a3,a3,0x10
800027c4:	00c6e6b3          	or	a3,a3,a2
800027c8:	02e58733          	mul	a4,a1,a4
800027cc:	00e6fa63          	bgeu	a3,a4,800027e0 <__umoddi3+0x20c>
800027d0:	011686b3          	add	a3,a3,a7
800027d4:	0116e663          	bltu	a3,a7,800027e0 <__umoddi3+0x20c>
800027d8:	00e6f463          	bgeu	a3,a4,800027e0 <__umoddi3+0x20c>
800027dc:	011686b3          	add	a3,a3,a7
800027e0:	40e68633          	sub	a2,a3,a4
800027e4:	02a676b3          	remu	a3,a2,a0
800027e8:	010e1e13          	slli	t3,t3,0x10
800027ec:	010e5e13          	srli	t3,t3,0x10
800027f0:	02a65633          	divu	a2,a2,a0
800027f4:	01069693          	slli	a3,a3,0x10
800027f8:	02c58633          	mul	a2,a1,a2
800027fc:	01c6e5b3          	or	a1,a3,t3
80002800:	00c5fa63          	bgeu	a1,a2,80002814 <__umoddi3+0x240>
80002804:	011585b3          	add	a1,a1,a7
80002808:	0115e663          	bltu	a1,a7,80002814 <__umoddi3+0x240>
8000280c:	00c5f463          	bgeu	a1,a2,80002814 <__umoddi3+0x240>
80002810:	011585b3          	add	a1,a1,a7
80002814:	40c585b3          	sub	a1,a1,a2
80002818:	ef1ff06f          	j	80002708 <__umoddi3+0x134>
8000281c:	e8d5eae3          	bltu	a1,a3,800026b0 <__umoddi3+0xdc>
80002820:	00010737          	lui	a4,0x10
80002824:	04e6fc63          	bgeu	a3,a4,8000287c <__umoddi3+0x2a8>
80002828:	0ff00e13          	li	t3,255
8000282c:	00de3733          	sltu	a4,t3,a3
80002830:	00371713          	slli	a4,a4,0x3
80002834:	800038b7          	lui	a7,0x80003
80002838:	00e6d333          	srl	t1,a3,a4
8000283c:	c1c88893          	addi	a7,a7,-996 # 80002c1c <__global_pointer$+0xffffb6b0>
80002840:	006888b3          	add	a7,a7,t1
80002844:	0008ce03          	lbu	t3,0(a7)
80002848:	00ee0e33          	add	t3,t3,a4
8000284c:	02000713          	li	a4,32
80002850:	41c70333          	sub	t1,a4,t3
80002854:	03c71e63          	bne	a4,t3,80002890 <__umoddi3+0x2bc>
80002858:	00b6e463          	bltu	a3,a1,80002860 <__umoddi3+0x28c>
8000285c:	00c56a63          	bltu	a0,a2,80002870 <__umoddi3+0x29c>
80002860:	40c507b3          	sub	a5,a0,a2
80002864:	40d585b3          	sub	a1,a1,a3
80002868:	00f53533          	sltu	a0,a0,a5
8000286c:	40a58833          	sub	a6,a1,a0
80002870:	00078513          	mv	a0,a5
80002874:	00080593          	mv	a1,a6
80002878:	e39ff06f          	j	800026b0 <__umoddi3+0xdc>
8000287c:	010008b7          	lui	a7,0x1000
80002880:	01000713          	li	a4,16
80002884:	fb16e8e3          	bltu	a3,a7,80002834 <__umoddi3+0x260>
80002888:	01800713          	li	a4,24
8000288c:	fa9ff06f          	j	80002834 <__umoddi3+0x260>
80002890:	01c65733          	srl	a4,a2,t3
80002894:	006696b3          	sll	a3,a3,t1
80002898:	00d76f33          	or	t5,a4,a3
8000289c:	01c5d7b3          	srl	a5,a1,t3
800028a0:	010f5713          	srli	a4,t5,0x10
800028a4:	02e7f8b3          	remu	a7,a5,a4
800028a8:	006595b3          	sll	a1,a1,t1
800028ac:	01c55833          	srl	a6,a0,t3
800028b0:	00b86833          	or	a6,a6,a1
800028b4:	010f1593          	slli	a1,t5,0x10
800028b8:	0105d593          	srli	a1,a1,0x10
800028bc:	01085693          	srli	a3,a6,0x10
800028c0:	00661633          	sll	a2,a2,t1
800028c4:	00651533          	sll	a0,a0,t1
800028c8:	02e7d7b3          	divu	a5,a5,a4
800028cc:	01089893          	slli	a7,a7,0x10
800028d0:	00d8e6b3          	or	a3,a7,a3
800028d4:	02f58eb3          	mul	t4,a1,a5
800028d8:	00078893          	mv	a7,a5
800028dc:	01d6fe63          	bgeu	a3,t4,800028f8 <__umoddi3+0x324>
800028e0:	01e686b3          	add	a3,a3,t5
800028e4:	fff78893          	addi	a7,a5,-1
800028e8:	01e6e863          	bltu	a3,t5,800028f8 <__umoddi3+0x324>
800028ec:	01d6f663          	bgeu	a3,t4,800028f8 <__umoddi3+0x324>
800028f0:	ffe78893          	addi	a7,a5,-2
800028f4:	01e686b3          	add	a3,a3,t5
800028f8:	41d686b3          	sub	a3,a3,t4
800028fc:	02e6feb3          	remu	t4,a3,a4
80002900:	01081813          	slli	a6,a6,0x10
80002904:	01085813          	srli	a6,a6,0x10
80002908:	02e6d6b3          	divu	a3,a3,a4
8000290c:	010e9e93          	slli	t4,t4,0x10
80002910:	010eeeb3          	or	t4,t4,a6
80002914:	02d585b3          	mul	a1,a1,a3
80002918:	00068793          	mv	a5,a3
8000291c:	00befe63          	bgeu	t4,a1,80002938 <__umoddi3+0x364>
80002920:	01ee8eb3          	add	t4,t4,t5
80002924:	fff68793          	addi	a5,a3,-1
80002928:	01eee863          	bltu	t4,t5,80002938 <__umoddi3+0x364>
8000292c:	00bef663          	bgeu	t4,a1,80002938 <__umoddi3+0x364>
80002930:	ffe68793          	addi	a5,a3,-2
80002934:	01ee8eb3          	add	t4,t4,t5
80002938:	40be85b3          	sub	a1,t4,a1
8000293c:	01089893          	slli	a7,a7,0x10
80002940:	00010eb7          	lui	t4,0x10
80002944:	00f8e8b3          	or	a7,a7,a5
80002948:	fffe8793          	addi	a5,t4,-1 # ffff <buflen.2941+0xffbf>
8000294c:	00f8f833          	and	a6,a7,a5
80002950:	01065693          	srli	a3,a2,0x10
80002954:	0108d893          	srli	a7,a7,0x10
80002958:	00f677b3          	and	a5,a2,a5
8000295c:	02f80733          	mul	a4,a6,a5
80002960:	02f887b3          	mul	a5,a7,a5
80002964:	02d80833          	mul	a6,a6,a3
80002968:	02d888b3          	mul	a7,a7,a3
8000296c:	00f80833          	add	a6,a6,a5
80002970:	01075693          	srli	a3,a4,0x10
80002974:	010686b3          	add	a3,a3,a6
80002978:	00f6f463          	bgeu	a3,a5,80002980 <__umoddi3+0x3ac>
8000297c:	01d888b3          	add	a7,a7,t4
80002980:	000107b7          	lui	a5,0x10
80002984:	fff78793          	addi	a5,a5,-1 # ffff <buflen.2941+0xffbf>
80002988:	0106d813          	srli	a6,a3,0x10
8000298c:	00f6f6b3          	and	a3,a3,a5
80002990:	01069693          	slli	a3,a3,0x10
80002994:	00f77733          	and	a4,a4,a5
80002998:	011808b3          	add	a7,a6,a7
8000299c:	00e68733          	add	a4,a3,a4
800029a0:	0115e663          	bltu	a1,a7,800029ac <__umoddi3+0x3d8>
800029a4:	01159e63          	bne	a1,a7,800029c0 <__umoddi3+0x3ec>
800029a8:	00e57c63          	bgeu	a0,a4,800029c0 <__umoddi3+0x3ec>
800029ac:	40c70633          	sub	a2,a4,a2
800029b0:	00c73733          	sltu	a4,a4,a2
800029b4:	01e70733          	add	a4,a4,t5
800029b8:	40e888b3          	sub	a7,a7,a4
800029bc:	00060713          	mv	a4,a2
800029c0:	40e50733          	sub	a4,a0,a4
800029c4:	00e53533          	sltu	a0,a0,a4
800029c8:	411585b3          	sub	a1,a1,a7
800029cc:	40a585b3          	sub	a1,a1,a0
800029d0:	01c597b3          	sll	a5,a1,t3
800029d4:	00675733          	srl	a4,a4,t1
800029d8:	00e7e533          	or	a0,a5,a4
800029dc:	0065d5b3          	srl	a1,a1,t1
800029e0:	cd1ff06f          	j	800026b0 <__umoddi3+0xdc>

セクション .text.startup の逆アセンブル:

800029e4 <main>:
800029e4:	ff010113          	addi	sp,sp,-16
800029e8:	00812423          	sw	s0,8(sp)
800029ec:	00001437          	lui	s0,0x1
800029f0:	80040513          	addi	a0,s0,-2048 # 800 <buflen.2941+0x7c0>
800029f4:	00000597          	auipc	a1,0x0
800029f8:	37858593          	addi	a1,a1,888 # 80002d6c <verify_data>
800029fc:	00112623          	sw	ra,12(sp)
80002a00:	e94fe0ef          	jal	ra,80001094 <sort>
80002a04:	00002517          	auipc	a0,0x2
80002a08:	36850513          	addi	a0,a0,872 # 80004d6c <input_data>
80002a0c:	e3cfe0ef          	jal	ra,80001048 <verify.constprop.0>
80002a10:	00050c63          	beqz	a0,80002a28 <main+0x44>
80002a14:	00c12083          	lw	ra,12(sp)
80002a18:	00812403          	lw	s0,8(sp)
80002a1c:	00100513          	li	a0,1
80002a20:	01010113          	addi	sp,sp,16
80002a24:	00008067          	ret
80002a28:	00100513          	li	a0,1
80002a2c:	e01fe0ef          	jal	ra,8000182c <setStats>
80002a30:	80040513          	addi	a0,s0,-2048
80002a34:	00002597          	auipc	a1,0x2
80002a38:	33858593          	addi	a1,a1,824 # 80004d6c <input_data>
80002a3c:	e58fe0ef          	jal	ra,80001094 <sort>
80002a40:	00000513          	li	a0,0
80002a44:	de9fe0ef          	jal	ra,8000182c <setStats>
80002a48:	00812403          	lw	s0,8(sp)
80002a4c:	00c12083          	lw	ra,12(sp)
80002a50:	00000517          	auipc	a0,0x0
80002a54:	31c50513          	addi	a0,a0,796 # 80002d6c <verify_data>
80002a58:	01010113          	addi	sp,sp,16
80002a5c:	decfe06f          	j	80001048 <verify.constprop.0>
80002a60:	ff010113          	addi	sp,sp,-16
80002a64:	00000517          	auipc	a0,0x0
80002a68:	03c50513          	addi	a0,a0,60 # 80002aa0 <main+0xbc>
80002a6c:	00112623          	sw	ra,12(sp)
80002a70:	e79fe0ef          	jal	ra,800018e8 <printstr>
80002a74:	00c12083          	lw	ra,12(sp)
80002a78:	fff00513          	li	a0,-1
80002a7c:	01010113          	addi	sp,sp,16
80002a80:	00008067          	ret

セクション .data の逆アセンブル:

80002d6c <verify_data>:
80002d6c:	000a8b27          	0xa8b27
80002d70:	bef4                	fsd	fa3,248(a3)
80002d72:	000d                	c.nop	3
80002d74:	83c4                	0x83c4
80002d76:	0021                	c.nop	8
80002d78:	9b62                	add	s6,s6,s8
80002d7a:	0026                	c.slli	zero,0x9
80002d7c:	0030356f          	jal	a0,8000657e <input_data+0x1812>
80002d80:	be92                	fsd	ft4,376(sp)
80002d82:	0035                	c.nop	13
80002d84:	0039e5ef          	jal	a1,800a1586 <__global_pointer$+0x9a01a>
80002d88:	82bc                	0x82bc
80002d8a:	003d                	c.nop	15
80002d8c:	02d6                	slli	t0,t0,0x15
80002d8e:	0051                	c.nop	20
80002d90:	d704                	sw	s1,40(a4)
80002d92:	0051                	c.nop	20
80002d94:	00949033          	sll	zero,s1,s1
80002d98:	1df9                	addi	s11,s11,-2
80002d9a:	779600af          	0x779600af
80002d9e:	00c2                	slli	ra,ra,0x10
80002da0:	1040                	addi	s0,sp,36
80002da2:	00c4                	addi	s1,sp,68
80002da4:	00c56a53          	fadd.s	fs4,fa0,fa2,unknown
80002da8:	1f1d                	addi	t5,t5,-25
80002daa:	00c9                	addi	ra,ra,18
80002dac:	00d3e7bb          	0xd3e7bb
80002db0:	8b4c                	0x8b4c
80002db2:	459500d7          	0x459500d7
80002db6:	00d9                	addi	ra,ra,22
80002db8:	6bd8                	flw	fa4,20(a5)
80002dba:	00fa                	slli	ra,ra,0x1e
80002dbc:	0125630f          	0x125630f
80002dc0:	ffb9                	bnez	a5,80002d1e <__clz_tab+0x102>
80002dc2:	013a                	slli	sp,sp,0xe
80002dc4:	d932                	sw	a2,176(sp)
80002dc6:	0144                	addi	s1,sp,132
80002dc8:	c7f5                	beqz	a5,80002eb4 <verify_data+0x148>
80002dca:	0151                	addi	sp,sp,20
80002dcc:	54ee                	lw	s1,248(sp)
80002dce:	5b5b015b          	0x5b5b015b
80002dd2:	00ad0163          	beq	s10,a0,80002dd4 <verify_data+0x68>
80002dd6:	0174                	addi	a3,sp,140
80002dd8:	fa95                	bnez	a3,80002d0c <__clz_tab+0xf0>
80002dda:	018a                	slli	gp,gp,0x2
80002ddc:	30b0                	fld	fa2,96(s1)
80002dde:	0191                	addi	gp,gp,4
80002de0:	019736cb          	fnmsub.s	fa3,fa4,fs9,ft0,rup
80002de4:	befe                	fsd	ft11,376(sp)
80002de6:	01a1                	addi	gp,gp,8
80002de8:	9418                	0x9418
80002dea:	01a4                	addi	s1,sp,200
80002dec:	2a85                	jal	80002f5c <verify_data+0x1f0>
80002dee:	532401af          	0x532401af
80002df2:	e9c701b7          	lui	gp,0xe9c70
80002df6:	01d8                	addi	a4,sp,196
80002df8:	01db5cd7          	0x1db5cd7
80002dfc:	c8a5                	beqz	s1,80002e6c <verify_data+0x100>
80002dfe:	01e1                	addi	gp,gp,24
80002e00:	2134                	fld	fa3,64(a0)
80002e02:	01e2                	slli	gp,gp,0x18
80002e04:	2442                	fld	fs0,16(sp)
80002e06:	021f 2b34 0223      	0x2232b34021f
80002e0c:	d6fc                	sw	a5,108(a3)
80002e0e:	0234                	addi	a3,sp,264
80002e10:	bdad                	j	80002c8a <__clz_tab+0x6e>
80002e12:	0236                	slli	tp,tp,0xd
80002e14:	4c36                	lw	s8,76(sp)
80002e16:	024d                	addi	tp,tp,19
80002e18:	8266                	mv	tp,s9
80002e1a:	027c                	addi	a5,sp,268
80002e1c:	31ca                	fld	ft3,176(sp)
80002e1e:	0281                	addi	t0,t0,0
80002e20:	b6de                	fsd	fs7,360(sp)
80002e22:	029e                	slli	t0,t0,0x7
80002e24:	b6a6                	fsd	fs1,360(sp)
80002e26:	02cd                	addi	t0,t0,19
80002e28:	127d                	addi	tp,tp,-1
80002e2a:	02d4                	addi	a3,sp,324
80002e2c:	3e02                	fld	ft8,32(sp)
80002e2e:	02d4                	addi	a3,sp,324
80002e30:	02e12ea7          	fsw	fa4,61(sp)
80002e34:	4258                	lw	a4,4(a2)
80002e36:	02e8                	addi	a0,sp,332
80002e38:	03065ce3          	bge	a2,a6,80003670 <verify_data+0x904>
80002e3c:	b802                	fsd	ft0,48(sp)
80002e3e:	0309                	addi	t1,t1,2
80002e40:	c325                	beqz	a4,80002ea0 <verify_data+0x134>
80002e42:	0314                	addi	a3,sp,384
80002e44:	f686                	fsw	ft1,108(sp)
80002e46:	0335                	addi	t1,t1,13
80002e48:	472e                	lw	a4,200(sp)
80002e4a:	034e                	slli	t1,t1,0x13
80002e4c:	705c                	flw	fa5,36(s0)
80002e4e:	55e00377          	0x55e00377
80002e52:	0378                	addi	a4,sp,396
80002e54:	2382                	fld	ft7,0(sp)
80002e56:	038a                	slli	t2,t2,0x2
80002e58:	b6cd                	j	80002a3a <main+0x56>
80002e5a:	b922039b          	0xb922039b
80002e5e:	03ad                	addi	t2,t2,11
80002e60:	3e1f 03b5 08ea      	0x8ea03b53e1f
80002e66:	03c5                	addi	t2,t2,17
80002e68:	b410                	fsd	fa2,40(s0)
80002e6a:	03dc                	addi	a5,sp,452
80002e6c:	ea69                	bnez	a2,80002f3e <verify_data+0x1d2>
80002e6e:	a10703f7          	0xa10703f7
80002e72:	040e                	slli	s0,s0,0x3
80002e74:	aaf4                	fsd	fa3,208(a3)
80002e76:	041e                	slli	s0,s0,0x7
80002e78:	6f58                	flw	fa4,28(a4)
80002e7a:	042a                	slli	s0,s0,0xa
80002e7c:	042c2c93          	slti	s9,s8,66
80002e80:	c4c2                	sw	a6,72(sp)
80002e82:	0439                	addi	s0,s0,14
80002e84:	82a8                	0x82a8
80002e86:	e231044f          	fnmadd.d	fs0,ft2,ft3,ft8,rne
80002e8a:	0456                	slli	s0,s0,0x15
80002e8c:	f6c6                	fsw	fa7,108(sp)
80002e8e:	0458                	addi	a4,sp,516
80002e90:	b2da                	fsd	fs6,352(sp)
80002e92:	0476                	slli	s0,s0,0x1d
80002e94:	7e24                	flw	fs1,120(a2)
80002e96:	0486                	slli	s1,s1,0x1
80002e98:	86b6                	mv	a3,a3
80002e9a:	0498                	addi	a4,sp,576
80002e9c:	49b6                	lw	s3,76(sp)
80002e9e:	049e                	slli	s1,s1,0x7
80002ea0:	80f2                	mv	ra,t3
80002ea2:	9c1c04ab          	0x9c1c04ab
80002ea6:	04c9                	addi	s1,s1,18
80002ea8:	deea                	sw	s10,124(sp)
80002eaa:	04ca                	slli	s1,s1,0x12
80002eac:	04d2734b          	0x4d2734b
80002eb0:	04da198b          	0x4da198b
80002eb4:	a428                	fsd	fa0,72(s0)
80002eb6:	04f0                	addi	a2,sp,588
80002eb8:	d981                	beqz	a1,80002dc8 <verify_data+0x5c>
80002eba:	3571050f          	0x3571050f
80002ebe:	053d                	addi	a0,a0,15
80002ec0:	5552                	lw	a0,52(sp)
80002ec2:	24a4054b          	0x24a4054b
80002ec6:	0554                	addi	a3,sp,644
80002ec8:	415f 055e 41a4      	0x41a4055e415f
80002ece:	f25c056f          	jal	a0,7ffc3df2 <buflen.2941+0x7ffc3db2>
80002ed2:	057f                	0x57f
80002ed4:	058545bf 0588efda 	0x588efda058545bf
80002edc:	058dfb67          	0x58dfb67
80002ee0:	05a5ef07          	0x5a5ef07
80002ee4:	1220                	addi	s0,sp,296
80002ee6:	05b5                	addi	a1,a1,13
80002ee8:	6e11                	lui	t3,0x4
80002eea:	05ee                	slli	a1,a1,0x1b
80002eec:	a4ed                	j	800031d6 <verify_data+0x46a>
80002eee:	063c                	addi	a5,sp,776
80002ef0:	0340                	addi	s0,sp,388
80002ef2:	063e                	slli	a2,a2,0xf
80002ef4:	091f 0648 d5d4      	0xd5d40648091f
80002efa:	0654                	addi	a3,sp,772
80002efc:	065a84b7          	lui	s1,0x65a8
80002f00:	06622783          	lw	a5,102(tp) # 66 <buflen.2941+0x26>
80002f04:	2422                	fld	fs0,8(sp)
80002f06:	47c40663          	beq	s0,t3,80003372 <verify_data+0x606>
80002f0a:	0670                	addi	a2,sp,780
80002f0c:	3ad6                	fld	fs5,368(sp)
80002f0e:	0675                	addi	a2,a2,29
80002f10:	417f                	0x417f
80002f12:	0676                	slli	a2,a2,0x1d
80002f14:	895f 0679 c100      	0xc1000679895f
80002f1a:	067f                	0x67f
80002f1c:	3ee4                	fld	fs1,248(a3)
80002f1e:	86480687          	0x86480687
80002f22:	06ad                	addi	a3,a3,11
80002f24:	e19d                	bnez	a1,80002f4a <verify_data+0x1de>
80002f26:	06b6                	slli	a3,a3,0xd
80002f28:	06c34b8b          	0x6c34b8b
80002f2c:	1870                	addi	a2,sp,60
80002f2e:	06c5                	addi	a3,a3,17
80002f30:	9628                	0x9628
80002f32:	06ce                	slli	a3,a3,0x13
80002f34:	02e2                	slli	t0,t0,0x18
80002f36:	b7c306db          	0xb7c306db
80002f3a:	06f5                	addi	a3,a3,29
80002f3c:	3fc0                	fld	fs0,184(a5)
80002f3e:	06fd                	addi	a3,a3,31
80002f40:	8f21                	xor	a4,a4,s0
80002f42:	06fd                	addi	a3,a3,31
80002f44:	f79f 0704 25d6      	0x25d60704f79f
80002f4a:	071c                	addi	a5,sp,896
80002f4c:	d1ee                	sw	s11,224(sp)
80002f4e:	0721                	addi	a4,a4,8
80002f50:	07477a3f 075a3493 	0x75a349307477a3f
80002f58:	076267bf 079f193f 	0x79f193f076267bf
80002f60:	afe9                	j	8000373a <verify_data+0x9ce>
80002f62:	07a1                	addi	a5,a5,8
80002f64:	a8fc                	fsd	fa5,208(s1)
80002f66:	154507bf 7b3807d5 	0x7b3807d5154507bf
80002f6e:	07f9                	addi	a5,a5,30
80002f70:	08039873          	csrrw	a6,0x80,t2
80002f74:	2215                	jal	80003098 <verify_data+0x32c>
80002f76:	080c                	addi	a1,sp,16
80002f78:	49ca                	lw	s3,144(sp)
80002f7a:	0816                	slli	a6,a6,0x5
80002f7c:	082b2a17          	auipc	s4,0x82b2
80002f80:	9b68                	0x9b68
80002f82:	0836                	slli	a6,a6,0xd
80002f84:	8469                	srai	s0,s0,0x1a
80002f86:	0850                	addi	a2,sp,20
80002f88:	08606c9b          	0x8606c9b
80002f8c:	da71                	beqz	a2,80002f60 <verify_data+0x1f4>
80002f8e:	08ad                	addi	a7,a7,11
80002f90:	08b3d3db          	0x8b3d3db
80002f94:	09fd                	addi	s3,s3,31
80002f96:	08d4                	addi	a3,sp,84
80002f98:	08da5b6b          	0x8da5b6b
80002f9c:	2c11                	jal	800031b0 <verify_data+0x444>
80002f9e:	08e4                	addi	s1,sp,92
80002fa0:	08fe3757          	0x8fe3757
80002fa4:	6d30                	flw	fa2,88(a0)
80002fa6:	0906                	slli	s2,s2,0x1
80002fa8:	8185                	srli	a1,a1,0x1
80002faa:	03e50913          	addi	s2,a0,62
80002fae:	094a                	slli	s2,s2,0x12
80002fb0:	f9c1                	bnez	a1,80002f40 <verify_data+0x1d4>
80002fb2:	f94f0953          	0xf94f0953
80002fb6:	89600957          	0x89600957
80002fba:	099f 54b6 09a0      	0x9a054b6099f
80002fc0:	b5b6                	fsd	fa3,232(sp)
80002fc2:	09bc                	addi	a5,sp,216
80002fc4:	09fe3077          	0x9fe3077
80002fc8:	4130                	lw	a2,64(a0)
80002fca:	379b0a0f          	0x379b0a0f
80002fce:	d3450a17          	auipc	s4,0xd3450
80002fd2:	0a1d                	addi	s4,s4,7
80002fd4:	4a15                	li	s4,5
80002fd6:	0a26                	slli	s4,s4,0x9
80002fd8:	2f1a                	fld	ft10,384(sp)
80002fda:	0a42                	slli	s4,s4,0x10
80002fdc:	0a50ba03          	0xa50ba03
80002fe0:	53d9                	li	t2,-10
80002fe2:	0a5c                	addi	a5,sp,276
80002fe4:	48d2                	lw	a7,20(sp)
80002fe6:	0a60                	addi	s0,sp,284
80002fe8:	0a6dc44f          	fnmadd.d	fs0,fs11,ft6,ft1,rmm
80002fec:	c97f                	0xc97f
80002fee:	0a79                	addi	s4,s4,30
80002ff0:	2930                	fld	fa2,80(a0)
80002ff2:	ea250a7b          	0xea250a7b
80002ff6:	0a7d                	addi	s4,s4,31
80002ff8:	5874                	lw	a3,116(s0)
80002ffa:	0a8e                	slli	s5,s5,0x3
80002ffc:	d099                	beqz	s1,80002f02 <verify_data+0x196>
80002ffe:	0aa9                	addi	s5,s5,10
80003000:	f591                	bnez	a1,80002f0c <verify_data+0x1a0>
80003002:	0ac2                	slli	s5,s5,0x10
80003004:	0ac3bca3          	0xac3bca3
80003008:	8142                	mv	sp,a6
8000300a:	0ad2                	slli	s5,s5,0x14
8000300c:	3aae                	fld	fs5,232(sp)
8000300e:	0ae2                	slli	s5,s5,0x18
80003010:	ba5a                	fsd	fs6,304(sp)
80003012:	0af2                	slli	s5,s5,0x1c
80003014:	0b0fe933          	0xb0fe933
80003018:	eae8                	fsw	fa0,84(a3)
8000301a:	0b10                	addi	a2,sp,400
8000301c:	d360                	sw	s0,100(a4)
8000301e:	0b15                	addi	s6,s6,5
80003020:	dbe0                	sw	s0,116(a5)
80003022:	dcd00b17          	auipc	s6,0xdcd00
80003026:	0b18                	addi	a4,sp,400
80003028:	e892                	fsw	ft4,80(sp)
8000302a:	0b34                	addi	a3,sp,408
8000302c:	0b5676e3          	bgeu	a2,s5,800038d8 <verify_data+0xb6c>
80003030:	5a9a                	lw	s5,164(sp)
80003032:	7c260b5b          	0x7c260b5b
80003036:	0b5f 4814 0b8e      	0xb8e48140b5f
8000303c:	3f66                	fld	ft10,120(sp)
8000303e:	0ba5                	addi	s7,s7,9
80003040:	db0a                	sw	sp,180(sp)
80003042:	0bb4                	addi	a3,sp,472
80003044:	b420                	fsd	fs0,104(s0)
80003046:	0bcc                	addi	a1,sp,468
80003048:	16b9                	addi	a3,a3,-18
8000304a:	0bd0                	addi	a2,sp,468
8000304c:	cd60                	sw	s0,92(a0)
8000304e:	0bd0                	addi	a2,sp,468
80003050:	0919                	addi	s2,s2,6
80003052:	0bed                	addi	s7,s7,27
80003054:	9f16                	add	t5,t5,t0
80003056:	f2ea0bef          	jal	s7,7ffa3784 <buflen.2941+0x7ffa3744>
8000305a:	0c11                	addi	s8,s8,4
8000305c:	0c30a657          	0xc30a657
80003060:	2cec                	fld	fa1,216(s1)
80003062:	0c38                	addi	a4,sp,536
80003064:	0c514963          	blt	sp,t0,80003136 <verify_data+0x3ca>
80003068:	45e2                	lw	a1,24(sp)
8000306a:	0c68                	addi	a0,sp,540
8000306c:	6fc0                	flw	fs0,28(a5)
8000306e:	0c6c                	addi	a1,sp,540
80003070:	d928                	sw	a0,112(a0)
80003072:	0c85                	addi	s9,s9,1
80003074:	c4ff                	0xc4ff
80003076:	366e0c8f          	0x366e0c8f
8000307a:	0c92                	slli	s9,s9,0x4
8000307c:	90c0                	0x90c0
8000307e:	65910ca3          	sb	s9,1625(sp)
80003082:	75090caf          	0x75090caf
80003086:	0ccc                	addi	a1,sp,596
80003088:	ea80                	fsw	fs0,16(a3)
8000308a:	0cd0                	addi	a2,sp,596
8000308c:	8aa1                	andi	a3,a3,8
8000308e:	0ce6                	slli	s9,s9,0x19
80003090:	68ec                	flw	fa1,84(s1)
80003092:	0ce8                	addi	a0,sp,604
80003094:	cc9f 0cfa a7e9      	0xa7e90cfacc9f
8000309a:	0d08                	addi	a0,sp,656
8000309c:	3b0a                	fld	fs6,160(sp)
8000309e:	0d31                	addi	s10,s10,12
800030a0:	0d36494b          	0xd36494b
800030a4:	88d1                	andi	s1,s1,20
800030a6:	9e8b0d43          	fmadd.q	fs10,fs6,fs0,fs3,rne
800030aa:	0d6a                	slli	s10,s10,0x1a
800030ac:	18cd                	addi	a7,a7,-13
800030ae:	7e030d77          	0x7e030d77
800030b2:	85140d77          	0x85140d77
800030b6:	90d40d83          	lb	s11,-1779(s0)
800030ba:	507c0d83          	lb	s11,1287(s8)
800030be:	0d86                	slli	s11,s11,0x1
800030c0:	0d8789af          	0xd8789af
800030c4:	0d8e43d3          	0xd8e43d3
800030c8:	05ac                	addi	a1,sp,712
800030ca:	0d95                	addi	s11,s11,5
800030cc:	a911                	j	800034e0 <verify_data+0x774>
800030ce:	0da5                	addi	s11,s11,9
800030d0:	1500                	addi	s0,sp,672
800030d2:	0db4                	addi	a3,sp,728
800030d4:	b6ca                	fsd	fs2,360(sp)
800030d6:	0dba                	slli	s11,s11,0xe
800030d8:	323a                	fld	ft4,424(sp)
800030da:	8d110dbf a4550dc7 	0xa4550dc78d110dbf
800030e2:	0dd6                	slli	s11,s11,0x15
800030e4:	27b1                	jal	80003830 <verify_data+0xac4>
800030e6:	124f0df3          	0x124f0df3
800030ea:	0e1e                	slli	t3,t3,0x7
800030ec:	0e20a51b          	0xe20a51b
800030f0:	d8e0                	sw	s0,116(s1)
800030f2:	3b240e33          	0x3b240e33
800030f6:	0e38                	addi	a4,sp,792
800030f8:	f698                	fsw	fa4,40(a3)
800030fa:	0e4d                	addi	t3,t3,19
800030fc:	0e578ce3          	beq	a5,t0,800039f4 <verify_data+0xc88>
80003100:	b631                	j	80002c0c <main+0x228>
80003102:	0e64                	addi	s1,sp,796
80003104:	938a                	add	t2,t2,sp
80003106:	0e65                	addi	t3,t3,25
80003108:	3a1d                	jal	80002a3e <main+0x5a>
8000310a:	0e68                	addi	a0,sp,796
8000310c:	f848                	fsw	fa0,52(s0)
8000310e:	0e95                	addi	t4,t4,5
80003110:	06c9                	addi	a3,a3,18
80003112:	0e9a                	slli	t4,t4,0x6
80003114:	83b2                	mv	t2,a2
80003116:	0e9f a14b 0ebc      	0xebca14b0e9f
8000311c:	be14                	fsd	fa3,56(a2)
8000311e:	c3680ebf 1ec70ebf 	0x1ec70ebfc3680ebf
80003126:	0ee2                	slli	t4,t4,0x18
80003128:	0ee70b53          	fsub.q	fs6,fa4,fa4,rne
8000312c:	ab91                	j	80003680 <verify_data+0x914>
8000312e:	0ee8                	addi	a0,sp,860
80003130:	db66                	sw	s9,180(sp)
80003132:	0ef1                	addi	t4,t4,28
80003134:	cfda                	sw	s6,220(sp)
80003136:	cd000ef3          	0xcd000ef3
8000313a:	0efd                	addi	t4,t4,31
8000313c:	2f3e                	fld	ft10,456(sp)
8000313e:	0f22                	slli	t5,t5,0x8
80003140:	73da                	flw	ft7,180(sp)
80003142:	0f36                	slli	t5,t5,0xd
80003144:	760e                	flw	fa2,224(sp)
80003146:	0f45                	addi	t5,t5,17
80003148:	61f6                	flw	ft3,92(sp)
8000314a:	9eb70f4f          	fnmadd.q	ft10,fa4,fa1,fs3,rne
8000314e:	0f5c                	addi	a5,sp,916
80003150:	0f637b73          	csrrci	s6,0xf6,6
80003154:	c1b1                	beqz	a1,80003198 <verify_data+0x42c>
80003156:	dcbd0f7b          	0xdcbd0f7b
8000315a:	5fc40f7b          	0x5fc40f7b
8000315e:	82b70f83          	lb	t6,-2005(a4) # f82b <buflen.2941+0xf7eb>
80003162:	0f89                	addi	t6,t6,2
80003164:	9338                	0x9338
80003166:	0f89                	addi	t6,t6,2
80003168:	0f8b5fbf 0f97096e 	0xf97096e0f8b5fbf
80003170:	1efe                	slli	t4,t4,0x3f
80003172:	0fd1                	addi	t6,t6,20
80003174:	c2dc                	sw	a5,4(a3)
80003176:	0fec                	addi	a1,sp,988
80003178:	b0dc                	fsd	fa5,160(s1)
8000317a:	0ffa                	slli	t6,t6,0x1e
8000317c:	2d4e                	fld	fs10,208(sp)
8000317e:	233d100b          	0x233d100b
80003182:	101e                	c.slli	zero,0x27
80003184:	10244d23          	0x10244d23
80003188:	f81f 1034 4c25      	0x4c251034f81f
8000318e:	1060                	addi	s0,sp,44
80003190:	45f5                	li	a1,29
80003192:	108a                	slli	ra,ra,0x22
80003194:	0f29                	addi	t5,t5,10
80003196:	1091                	addi	ra,ra,-28
80003198:	0db2                	slli	s11,s11,0xc
8000319a:	10a5                	addi	ra,ra,-23
8000319c:	8f9a                	mv	t6,t1
8000319e:	10c4                	addi	s1,sp,100
800031a0:	10e4ceaf          	0x10e4ceaf
800031a4:	8979                	andi	a0,a0,30
800031a6:	dde610f7          	0xdde610f7
800031aa:	1122                	slli	sp,sp,0x28
800031ac:	112b5d0f          	0x112b5d0f
800031b0:	43c8                	lw	a0,4(a5)
800031b2:	1144                	addi	s1,sp,164
800031b4:	dc36                	sw	a3,56(sp)
800031b6:	115c                	addi	a5,sp,164
800031b8:	7eec                	flw	fa1,124(a3)
800031ba:	1178                	addi	a4,sp,172
800031bc:	0002                	c.slli64	zero
800031be:	1189                	addi	gp,gp,-30
800031c0:	119f8227          	0x119f8227
800031c4:	4fc8                	lw	a0,28(a5)
800031c6:	182611cf          	fnmadd.s	ft3,fa2,ft2,ft3,rtz
800031ca:	11da                	slli	gp,gp,0x36
800031cc:	8de8                	0x8de8
800031ce:	11e4                	addi	s1,sp,236
800031d0:	12e0                	addi	s0,sp,364
800031d2:	3fa611eb          	0x3fa611eb
800031d6:	11f6                	slli	gp,gp,0x3d
800031d8:	04bd                	addi	s1,s1,15
800031da:	2b6111fb          	0x2b6111fb
800031de:	824211fb          	0x824211fb
800031e2:	51f61203          	lh	tp,1311(a2) # 100051f <buflen.2941+0x10004df>
800031e6:	121c                	addi	a5,sp,288
800031e8:	acb4                	fsd	fa3,88(s1)
800031ea:	1220                	addi	s0,sp,296
800031ec:	e474                	fsw	fa3,76(s0)
800031ee:	1221                	addi	tp,tp,-24
800031f0:	321c                	fld	fa5,32(a2)
800031f2:	1225                	addi	tp,tp,-23
800031f4:	671f 1235 6343      	0x63431235671f
800031fa:	1239                	addi	tp,tp,-18
800031fc:	c895                	beqz	s1,80003230 <verify_data+0x4c4>
800031fe:	63be125b          	0x63be125b
80003202:	1266                	slli	tp,tp,0x39
80003204:	6746                	flw	fa4,80(sp)
80003206:	1268                	addi	a0,sp,300
80003208:	c920                	sw	s0,80(a0)
8000320a:	1268                	addi	a0,sp,300
8000320c:	6408                	flw	fa0,8(s0)
8000320e:	127e                	slli	tp,tp,0x3f
80003210:	6db5                	lui	s11,0xd
80003212:	1744128b          	0x1744128b
80003216:	12dd                	addi	t0,t0,-9
80003218:	12f40083          	lb	ra,303(s0)
8000321c:	bfaa                	fsd	fa0,504(sp)
8000321e:	12ff                	0x12ff
80003220:	e741                	bnez	a4,800032a8 <verify_data+0x53c>
80003222:	1314                	addi	a3,sp,416
80003224:	c0ac                	sw	a1,64(s1)
80003226:	133c                	addi	a5,sp,424
80003228:	2441                	jal	800034a8 <verify_data+0x73c>
8000322a:	0e9b1353          	fsub.q	ft6,fs6,fs1,rtz
8000322e:	1364                	addi	s1,sp,428
80003230:	136948cb          	fnmsub.d	fa7,fs2,fs6,ft2,rmm
80003234:	4dd8                	lw	a4,28(a1)
80003236:	1395                	addi	t2,t2,-27
80003238:	e4b2                	fsw	fa2,72(sp)
8000323a:	139c                	addi	a5,sp,480
8000323c:	db86                	sw	ra,244(sp)
8000323e:	a26a13a7          	0xa26a13a7
80003242:	13b2                	slli	t2,t2,0x2c
80003244:	13bf00c7          	fmsub.d	ft1,ft10,fs11,ft2,rne
80003248:	13ccfe2f          	0x13ccfe2f
8000324c:	b436                	fsd	fa3,40(sp)
8000324e:	13e5                	addi	t2,t2,-7
80003250:	13e702e3          	beq	a4,t5,80003b74 <verify_data+0xe08>
80003254:	0138                	addi	a4,sp,136
80003256:	13e9                	addi	t2,t2,-6
80003258:	a794                	fsd	fa3,8(a5)
8000325a:	13fe                	slli	t2,t2,0x3f
8000325c:	140a3777          	0x140a3777
80003260:	98ae                	add	a7,a7,a1
80003262:	142d                	addi	s0,s0,-21
80003264:	8655                	srai	a2,a2,0x15
80003266:	bdd61447          	0xbdd61447
8000326a:	144a                	slli	s0,s0,0x32
8000326c:	81a2                	mv	gp,s0
8000326e:	145a                	slli	s0,s0,0x36
80003270:	145d8bd7          	0x145d8bd7
80003274:	14624fa3          	0x14624fa3
80003278:	5a5e                	lw	s4,244(sp)
8000327a:	1472                	slli	s0,s0,0x3c
8000327c:	14739627          	0x14739627
80003280:	2e08                	fld	fa0,24(a2)
80003282:	147c                	addi	a5,sp,556
80003284:	e22a                	fsw	fa0,4(sp)
80003286:	1488                	addi	a0,sp,608
80003288:	2630                	fld	fa2,72(a2)
8000328a:	148e                	slli	s1,s1,0x23
8000328c:	14a8aca7          	fsw	fa0,345(a7) # 1000159 <buflen.2941+0x1000119>
80003290:	108a                	slli	ra,ra,0x22
80003292:	14c0                	addi	s0,sp,612
80003294:	14d11f33          	0x14d11f33
80003298:	14df5beb          	0x14df5beb
8000329c:	26d6                	fld	fa3,336(sp)
8000329e:	caae14f7          	0xcaae14f7
800032a2:	1518                	addi	a4,sp,672
800032a4:	3f1e                	fld	ft10,480(sp)
800032a6:	1532                	slli	a0,a0,0x2c
800032a8:	7742                	flw	fa4,48(sp)
800032aa:	1540                	addi	s0,sp,676
800032ac:	1541dfdb          	0x1541dfdb
800032b0:	63a5                	lui	t2,0x9
800032b2:	1542                	slli	a0,a0,0x30
800032b4:	1fe2                	slli	t6,t6,0x38
800032b6:	1571                	addi	a0,a0,-4
800032b8:	d1f1                	beqz	a1,8000327c <verify_data+0x510>
800032ba:	157e                	slli	a0,a0,0x3f
800032bc:	18e0                	addi	s0,sp,124
800032be:	159f b440 15aa      	0x15aab440159f
800032c4:	15bb2fe7          	0x15bb2fe7
800032c8:	a9d0                	fsd	fa2,144(a1)
800032ca:	a7d115bb          	0xa7d115bb
800032ce:	15c5                	addi	a1,a1,-15
800032d0:	7f16                	flw	ft10,100(sp)
800032d2:	15ce                	slli	a1,a1,0x33
800032d4:	68b2                	flw	fa7,12(sp)
800032d6:	0f8915db          	0xf8915db
800032da:	15ee                	slli	a1,a1,0x3b
800032dc:	15f77ee7          	0x15f77ee7
800032e0:	15fcce2f          	0x15fcce2f
800032e4:	12d6                	slli	t0,t0,0x35
800032e6:	1629                	addi	a2,a2,-22
800032e8:	8dc1                	or	a1,a1,s0
800032ea:	1630                	addi	a2,sp,808
800032ec:	5f2d                	li	t5,-21
800032ee:	eb5f1633          	0xeb5f1633
800032f2:	fd611633          	0xfd611633
800032f6:	163e                	slli	a2,a2,0x2f
800032f8:	2ff2                	fld	ft11,280(sp)
800032fa:	1640                	addi	s0,sp,804
800032fc:	379a                	fld	fa5,416(sp)
800032fe:	39421667          	0x39421667
80003302:	1675                	addi	a2,a2,-3
80003304:	bf1f 1695 42fc      	0x42fc1695bf1f
8000330a:	169e                	slli	a3,a3,0x27
8000330c:	6ad2                	flw	fs5,20(sp)
8000330e:	0ad616a7          	0xad616a7
80003312:	534b16b7          	lui	a3,0x534b1
80003316:	16be                	slli	a3,a3,0x2f
80003318:	d8e5                	beqz	s1,80003308 <verify_data+0x59c>
8000331a:	4eab16c3          	fmadd.q	fa3,fs6,fa0,fs1,rtz
8000331e:	098116cb          	fnmsub.s	fa3,ft2,fs8,ft1,rtz
80003322:	1700                	addi	s0,sp,928
80003324:	1692                	slli	a3,a3,0x24
80003326:	170d                	addi	a4,a4,-29
80003328:	1621                	addi	a2,a2,-24
8000332a:	1712                	slli	a4,a4,0x24
8000332c:	17155447          	fmsub.q	fs0,fa0,fa7,ft2,unknown
80003330:	7b35                	lui	s6,0xfffed
80003332:	171a                	slli	a4,a4,0x26
80003334:	172d75a3          	0x172d75a3
80003338:	3a26                	fld	fs4,104(sp)
8000333a:	46e31733          	0x46e31733
8000333e:	174a                	slli	a4,a4,0x32
80003340:	1753184b          	fnmsub.q	fa6,ft6,fs5,ft2,rtz
80003344:	b7d5                	j	80003328 <verify_data+0x5bc>
80003346:	1790                	addi	a2,sp,992
80003348:	394c                	fld	fa1,176(a0)
8000334a:	17bc                	addi	a5,sp,1000
8000334c:	bb4a                	fsd	fs2,432(sp)
8000334e:	17bc                	addi	a5,sp,1000
80003350:	e6da                	fsw	fs6,76(sp)
80003352:	17c6                	slli	a5,a5,0x31
80003354:	ff59                	bnez	a4,800032f2 <verify_data+0x586>
80003356:	17c9                	addi	a5,a5,-14
80003358:	3abd                	jal	80002cd6 <__clz_tab+0xba>
8000335a:	61c617cf          	fnmadd.s	fa5,fa2,ft8,fa2,rtz
8000335e:	974017d7          	0x974017d7
80003362:	17ed                	addi	a5,a5,-5
80003364:	eeec                	fsw	fa1,92(a3)
80003366:	1802                	slli	a6,a6,0x20
80003368:	10d2                	slli	ra,ra,0x34
8000336a:	1aef180b          	0x1aef180b
8000336e:	184e                	slli	a6,a6,0x33
80003370:	8e8d                	sub	a3,a3,a1
80003372:	188c                	addi	a1,sp,112
80003374:	c656                	sw	s5,12(sp)
80003376:	189e                	slli	a7,a7,0x27
80003378:	a1ce                	fsd	fs3,192(sp)
8000337a:	18d2                	slli	a7,a7,0x34
8000337c:	9675                	srai	a2,a2,0x3d
8000337e:	3dfe18e3          	bne	t3,t6,80003f4e <verify_data+0x11e2>
80003382:	18fa                	slli	a7,a7,0x3e
80003384:	19de                	slli	s3,s3,0x37
80003386:	b28018fb          	0xb28018fb
8000338a:	1900                	addi	s0,sp,176
8000338c:	4ff0                	lw	a2,92(a5)
8000338e:	190a                	slli	s2,s2,0x22
80003390:	191afacb          	fnmsub.s	fs5,fs5,fa7,ft3
80003394:	ed44                	fsw	fs1,28(a0)
80003396:	0a531927          	0xa531927
8000339a:	b1bf193b          	0xb1bf193b
8000339e:	194e                	slli	s2,s2,0x33
800033a0:	19a2b58b          	0x19a2b58b
800033a4:	5cc9                	li	s9,-14
800033a6:	19c1                	addi	s3,s3,-16
800033a8:	1980                	addi	s0,sp,240
800033aa:	19c9                	addi	s3,s3,-14
800033ac:	19cee96b          	0x19cee96b
800033b0:	59f1                	li	s3,-4
800033b2:	19d5                	addi	s3,s3,-11
800033b4:	4af1                	li	s5,28
800033b6:	306d19eb          	0x306d19eb
800033ba:	19f1                	addi	s3,s3,-4
800033bc:	f8f2                	fsw	ft8,112(sp)
800033be:	19f1                	addi	s3,s3,-4
800033c0:	1886                	slli	a7,a7,0x21
800033c2:	1a04                	addi	s1,sp,304
800033c4:	af00                	fsd	fs0,24(a4)
800033c6:	1a05                	addi	s4,s4,-31
800033c8:	1a067347          	fmsub.d	ft6,fa2,ft0,ft3
800033cc:	efe9                	bnez	a5,800034a6 <verify_data+0x73a>
800033ce:	1a16                	slli	s4,s4,0x25
800033d0:	34a2                	fld	fs1,40(sp)
800033d2:	1a26                	slli	s4,s4,0x29
800033d4:	6680                	flw	fs0,8(a3)
800033d6:	1a72                	slli	s4,s4,0x3c
800033d8:	6a3e                	flw	fs4,204(sp)
800033da:	1a7c                	addi	a5,sp,316
800033dc:	1a9b193f 1ab845a1 	0x1ab845a11a9b193f
800033e4:	c174                	sw	a3,68(a0)
800033e6:	1abe                	slli	s5,s5,0x2f
800033e8:	8f99                	sub	a5,a5,a4
800033ea:	1ae8                	addi	a0,sp,380
800033ec:	88d5                	andi	s1,s1,21
800033ee:	1afe                	slli	s5,s5,0x3f
800033f0:	fbb4                	fsw	fa3,112(a5)
800033f2:	1b14                	addi	a3,sp,432
800033f4:	2e78                	fld	fa4,216(a2)
800033f6:	1b16                	slli	s6,s6,0x25
800033f8:	1b1ae0d3          	fdiv.d	ft1,fs5,fa7,unknown
800033fc:	d252                	sw	s4,36(sp)
800033fe:	0fbf1b2b          	0xfbf1b2b
80003402:	1b35                	addi	s6,s6,-19
80003404:	fb86                	fsw	ft1,244(sp)
80003406:	1b60                	addi	s0,sp,444
80003408:	1b717563          	bgeu	sp,s7,800035b2 <verify_data+0x846>
8000340c:	ab66                	fsd	fs9,400(sp)
8000340e:	1b78                	addi	a4,sp,444
80003410:	0f16                	slli	t5,t5,0x5
80003412:	1b81                	addi	s7,s7,-32
80003414:	1b825af3          	csrrwi	s5,0x1b8,4
80003418:	e83e                	fsw	fa5,16(sp)
8000341a:	1b94                	addi	a3,sp,496
8000341c:	a632                	fsd	fa2,264(sp)
8000341e:	1b96                	slli	s7,s7,0x25
80003420:	1baab177          	0x1baab177
80003424:	1bb4383f 1bb928d5 	0x1bb928d51bb4383f
8000342c:	0309                	addi	t1,t1,2
8000342e:	1c05                	addi	s8,s8,-31
80003430:	84d0                	0x84d0
80003432:	1c2d                	addi	s8,s8,-21
80003434:	1c2f74ab          	0x1c2f74ab
80003438:	4355                	li	t1,21
8000343a:	1c36                	slli	s8,s8,0x2d
8000343c:	4b00                	lw	s0,16(a4)
8000343e:	a9601c73          	csrrw	s8,0xa96,zero
80003442:	1c74                	addi	a3,sp,572
80003444:	b4a9                	j	80002e8e <verify_data+0x122>
80003446:	1c88                	addi	a0,sp,624
80003448:	0ac5                	addi	s5,s5,17
8000344a:	1cb4                	addi	a3,sp,632
8000344c:	12d4                	addi	a3,sp,356
8000344e:	1cb4                	addi	a3,sp,632
80003450:	bb55                	j	80003204 <verify_data+0x498>
80003452:	1cc8                	addi	a0,sp,628
80003454:	1ccf4e3b          	0x1ccf4e3b
80003458:	000d                	c.nop	3
8000345a:	1cf5                	addi	s9,s9,-3
8000345c:	4c05                	li	s8,1
8000345e:	1cfa                	slli	s9,s9,0x3e
80003460:	88a1                	andi	s1,s1,8
80003462:	1cfa                	slli	s9,s9,0x3e
80003464:	9565                	srai	a0,a0,0x39
80003466:	1d14                	addi	a3,sp,688
80003468:	da5f 1d42 1082      	0x10821d42da5f
8000346e:	71bc1d5b          	0x71bc1d5b
80003472:	97091d77          	0x97091d77
80003476:	1d82                	slli	s11,s11,0x20
80003478:	daea                	sw	s10,116(sp)
8000347a:	1dac                	addi	a1,sp,760
8000347c:	9829                	andi	s0,s0,-22
8000347e:	1db9                	addi	s11,s11,-18
80003480:	d75f 1dcb 2524      	0x25241dcbd75f
80003486:	9af51dd3          	0x9af51dd3
8000348a:	1dd8                	addi	a4,sp,756
8000348c:	8a44                	0x8a44
8000348e:	daf91def          	jal	s11,7ff9523c <buflen.2941+0x7ff951fc>
80003492:	1df0                	addi	a2,sp,764
80003494:	6e48                	flw	fa0,28(a2)
80003496:	1df4                	addi	a3,sp,764
80003498:	c9c9                	beqz	a1,8000352a <verify_data+0x7be>
8000349a:	1e00                	addi	s0,sp,816
8000349c:	d51d                	beqz	a0,800033ca <verify_data+0x65e>
8000349e:	1e08                	addi	a0,sp,816
800034a0:	1e300f6b          	0x1e300f6b
800034a4:	25de                	fld	fa1,464(sp)
800034a6:	1e45                	addi	t3,t3,-15
800034a8:	8062                	c.mv	zero,s8
800034aa:	1e46                	slli	t3,t3,0x31
800034ac:	1e48192b          	0x1e48192b
800034b0:	7f46                	flw	ft10,112(sp)
800034b2:	1e58                	addi	a4,sp,820
800034b4:	1641                	addi	a2,a2,-16
800034b6:	1e62                	slli	t3,t3,0x38
800034b8:	47e8                	lw	a0,76(a5)
800034ba:	1e6d                	addi	t3,t3,-5
800034bc:	932c                	0x932c
800034be:	1e6d                	addi	t3,t3,-5
800034c0:	0b6e                	slli	s6,s6,0x1b
800034c2:	1e8c                	addi	a1,sp,880
800034c4:	e911                	bnez	a0,800034d8 <verify_data+0x76c>
800034c6:	540d1e93          	0x540d1e93
800034ca:	1e9c                	addi	a5,sp,880
800034cc:	1e9ca763          	0x1e9ca763
800034d0:	49c4                	lw	s1,20(a1)
800034d2:	1ea6                	slli	t4,t4,0x29
800034d4:	f87d                	bnez	s0,800034ca <verify_data+0x75e>
800034d6:	1eb0                	addi	a2,sp,888
800034d8:	98ac                	0x98ac
800034da:	1eb8                	addi	a4,sp,888
800034dc:	a950                	fsd	fa2,144(a0)
800034de:	1ebe                	slli	t4,t4,0x2f
800034e0:	8110                	0x8110
800034e2:	1edc                	addi	a5,sp,884
800034e4:	2d32                	fld	fs10,264(sp)
800034e6:	1ee1                	addi	t4,t4,-8
800034e8:	4855                	li	a6,21
800034ea:	1ef2                	slli	t4,t4,0x3c
800034ec:	1ef490c3          	fmadd.q	ft1,fs1,fa5,ft3,rtz
800034f0:	1ef9fd23          	0x1ef9fd23
800034f4:	9906                	add	s2,s2,ra
800034f6:	5e7e1f03          	lh	t5,1511(t3) # 45e7 <buflen.2941+0x45a7>
800034fa:	1f06                	slli	t5,t5,0x21
800034fc:	3d39                	jal	8000331a <verify_data+0x5ae>
800034fe:	1f09                	addi	t5,t5,-30
80003500:	8905                	andi	a0,a0,1
80003502:	1f1f 5071 1f23      	0x1f2350711f1f
80003508:	1f407de7          	0x1f407de7
8000350c:	1c49                	addi	s8,s8,-14
8000350e:	1f54                	addi	a3,sp,948
80003510:	0239                	addi	tp,tp,14
80003512:	1f79                	addi	t5,t5,-2
80003514:	1f8b77b7          	lui	a5,0x1f8b7
80003518:	96fd                	srai	a3,a3,0x3f
8000351a:	1f98                	addi	a4,sp,1008
8000351c:	b1ee                	fsd	fs11,224(sp)
8000351e:	cd531fb7          	lui	t6,0xcd531
80003522:	1fbc                	addi	a5,sp,1016
80003524:	7b61                	lui	s6,0xffff8
80003526:	1fc6                	slli	t6,t6,0x31
80003528:	0dde                	slli	s11,s11,0x17
8000352a:	1fda                	slli	t6,t6,0x36
8000352c:	16f9                	addi	a3,a3,-2
8000352e:	1ff0                	addi	a2,sp,1020
80003530:	adc6                	fsd	fa7,216(sp)
80003532:	73bb1ff3          	csrrw	t6,0x73b,s6
80003536:	201f 0c4c 2027      	0x20270c4c201f
8000353c:	202edda7          	0x202edda7
80003540:	202fd7d7          	0x202fd7d7
80003544:	2c8c                	fld	fa1,24(s1)
80003546:	2031                	jal	80003552 <verify_data+0x7e6>
80003548:	46f4                	lw	a3,76(a3)
8000354a:	203e                	fld	ft0,456(sp)
8000354c:	8ed1                	or	a3,a3,a2
8000354e:	0db82057          	0xdb82057
80003552:	206c                	fld	fa1,192(s0)
80003554:	7fd8                	flw	fa4,60(a5)
80003556:	207a                	fld	ft0,408(sp)
80003558:	0d30                	addi	a2,sp,664
8000355a:	207d                	jal	80003608 <verify_data+0x89c>
8000355c:	3aed                	jal	80002f56 <verify_data+0x1ea>
8000355e:	2085                	jal	800035be <verify_data+0x852>
80003560:	7fc9                	lui	t6,0xffff2
80003562:	2090                	fld	fa2,0(s1)
80003564:	78d4                	flw	fa3,52(s1)
80003566:	f31d20b3          	0xf31d20b3
8000356a:	20bc                	fld	fa5,64(s1)
8000356c:	7518                	flw	fa4,40(a0)
8000356e:	20d0                	fld	fa2,128(s1)
80003570:	cf61                	beqz	a4,80003648 <verify_data+0x8dc>
80003572:	e50320fb          	0xe50320fb
80003576:	2128                	fld	fa0,64(a0)
80003578:	7078                	flw	fa4,100(s0)
8000357a:	2159                	jal	80003a00 <verify_data+0xc94>
8000357c:	0b52                	slli	s6,s6,0x14
8000357e:	9d30216b          	0x9d30216b
80003582:	218e                	fld	ft3,192(sp)
80003584:	81de                	mv	gp,s7
80003586:	03af21af          	amoadd.w.rl	gp,s10,(t5)
8000358a:	a15d21bf f16e21d7 	0xf16e21d7a15d21bf
80003592:	21e4                	fld	fs1,192(a1)
80003594:	21f8bbe7          	0x21f8bbe7
80003598:	757d                	lui	a0,0xfffff
8000359a:	2212                	fld	ft4,256(sp)
8000359c:	221bb1f3          	csrrc	gp,0x221,s7
800035a0:	27e4                	fld	fs1,200(a5)
800035a2:	223a                	fld	ft4,392(sp)
800035a4:	e330                	fsw	fa2,64(a4)
800035a6:	2262                	fld	ft4,24(sp)
800035a8:	226a2ea7          	fsw	ft6,573(s4) # 5345320b <buflen.2941+0x534531cb>
800035ac:	9562                	add	a0,a0,s8
800035ae:	226a                	fld	ft4,152(sp)
800035b0:	227f96f7          	0x227f96f7
800035b4:	810a                	mv	sp,sp
800035b6:	2285                	jal	80003716 <verify_data+0x9aa>
800035b8:	22992e4b          	fnmsub.d	ft8,fs2,fs1,ft4,rdn
800035bc:	aa91                	j	80003710 <verify_data+0x9a4>
800035be:	229c                	fld	fa5,0(a3)
800035c0:	9608                	0x9608
800035c2:	22c1                	jal	80003782 <verify_data+0xa16>
800035c4:	fb81                	bnez	a5,800034d4 <verify_data+0x768>
800035c6:	22e0                	fld	fs0,192(a3)
800035c8:	ab60                	fsd	fs0,208(a4)
800035ca:	22ea                	fld	ft5,152(sp)
800035cc:	2fa9                	jal	80003d26 <verify_data+0xfba>
800035ce:	231c                	fld	fa5,0(a4)
800035d0:	39df 2335 4e2b      	0x4e2b233539df
800035d6:	2349                	jal	80003b58 <verify_data+0xdec>
800035d8:	c94a                	sw	s2,144(sp)
800035da:	234c                	fld	fa1,128(a4)
800035dc:	23688f3b          	0x23688f3b
800035e0:	278e                	fld	fa5,192(sp)
800035e2:	2374                	fld	fa3,192(a4)
800035e4:	ed70                	fsw	fa2,92(a0)
800035e6:	2381                	jal	80003b26 <verify_data+0xdba>
800035e8:	04c5                	addi	s1,s1,17
800035ea:	239c                	fld	fa5,0(a5)
800035ec:	034d                	addi	t1,t1,19
800035ee:	23a5                	jal	80003b56 <verify_data+0xdea>
800035f0:	6a30                	flw	fa2,80(a2)
800035f2:	a2f223e7          	0xa2f223e7
800035f6:	7ca623ef          	jal	t2,80065dc0 <__global_pointer$+0x5e854>
800035fa:	e3c123f3          	csrrs	t2,0xe3c,sp
800035fe:	23fe                	fld	ft7,472(sp)
80003600:	240481ab          	0x240481ab
80003604:	37ea                	fld	fa5,184(sp)
80003606:	491c240f          	0x491c240f
8000360a:	2435                	jal	80003836 <verify_data+0xaca>
8000360c:	b44a                	fsd	fs2,40(sp)
8000360e:	2439                	jal	8000381c <verify_data+0xab0>
80003610:	cd3e                	sw	a5,152(sp)
80003612:	247e                	fld	fs0,472(sp)
80003614:	490d                	li	s2,3
80003616:	249c                	fld	fa5,8(s1)
80003618:	3ecd                	jal	8000320a <verify_data+0x49e>
8000361a:	24a2                	fld	fs1,8(sp)
8000361c:	5cb5                	li	s9,-19
8000361e:	66c324b3          	0x66c324b3
80003622:	24d2                	fld	fs1,272(sp)
80003624:	24d5dd8b          	0x24d5dd8b
80003628:	81fd                	srli	a1,a1,0x1f
8000362a:	24d8                	fld	fa4,136(s1)
8000362c:	5376                	lw	t1,124(sp)
8000362e:	24e0                	fld	fs0,200(s1)
80003630:	bbfa                	fsd	ft10,496(sp)
80003632:	3a3624eb          	0x3a3624eb
80003636:	24ec                	fld	fa1,200(s1)
80003638:	05f9                	addi	a1,a1,30
8000363a:	24f4                	fld	fa3,200(s1)
8000363c:	0b3d                	addi	s6,s6,15
8000363e:	24fc                	fld	fa5,200(s1)
80003640:	c3bd                	beqz	a5,800036a6 <verify_data+0x93a>
80003642:	2511                	jal	80003c46 <verify_data+0xeda>
80003644:	b685                	j	800031a4 <verify_data+0x438>
80003646:	2514                	fld	fa3,8(a0)
80003648:	90ea                	add	ra,ra,s10
8000364a:	2515                	jal	80003c6e <verify_data+0xf02>
8000364c:	76c0                	flw	fs0,44(a3)
8000364e:	252c                	fld	fa1,72(a0)
80003650:	18b0                	addi	a2,sp,120
80003652:	2530                	fld	fa2,72(a0)
80003654:	dc48                	sw	a0,60(s0)
80003656:	253a                	fld	fa0,392(sp)
80003658:	625f 253c d083      	0xd083253c625f
8000365e:	e0d6253f 5203254f 	0x5203254fe0d6253f
80003666:	2575                	jal	80003d12 <verify_data+0xfa6>
80003668:	0af0                	addi	a2,sp,348
8000366a:	a39e2593          	slti	a1,t3,-1479
8000366e:	259c                	fld	fa5,8(a1)
80003670:	648d                	lui	s1,0x3
80003672:	25a2                	fld	fa1,8(sp)
80003674:	25aa979b          	0x25aa979b
80003678:	e378                	fsw	fa4,68(a4)
8000367a:	25b4                	fld	fa3,72(a1)
8000367c:	25bbf907          	0x25bbf907
80003680:	7b4a                	flw	fs6,176(sp)
80003682:	25be                	fld	fa1,456(sp)
80003684:	ff86                	fsw	ft1,252(sp)
80003686:	eb4f25ef          	jal	a1,7fff5d3a <buflen.2941+0x7fff5cfa>
8000368a:	2601                	jal	8000398a <verify_data+0xc1e>
8000368c:	a9bd                	j	80003b0a <verify_data+0xd9e>
8000368e:	2609                	jal	80003990 <verify_data+0xc24>
80003690:	5fae                	lw	t6,232(sp)
80003692:	2632                	fld	fa2,264(sp)
80003694:	2540                	fld	fs0,136(a0)
80003696:	83a92667          	0x83a92667
8000369a:	afc1266f          	jal	a2,7ff15996 <buflen.2941+0x7ff15956>
8000369e:	78e9268b          	0x78e9268b
800036a2:	26ba                	fld	fa3,392(sp)
800036a4:	0b60                	addi	s0,sp,412
800036a6:	26c6                	fld	fa3,80(sp)
800036a8:	a9e2                	fsd	fs8,208(sp)
800036aa:	26d5                	jal	80003a8e <verify_data+0xd22>
800036ac:	ed86                	fsw	ft1,216(sp)
800036ae:	26d8                	fld	fa4,136(a3)
800036b0:	ebc4                	fsw	fs1,20(a5)
800036b2:	26dd                	jal	80003a98 <verify_data+0xd2c>
800036b4:	e848                	fsw	fa0,20(s0)
800036b6:	26e2                	fld	fa3,24(sp)
800036b8:	26ecc43f 26f58add 	0x26f58add26ecc43f
800036c0:	2ad8                	fld	fa4,144(a3)
800036c2:	2709                	jal	80003dc4 <verify_data+0x1058>
800036c4:	9280                	0x9280
800036c6:	270d                	jal	80003de8 <verify_data+0x107c>
800036c8:	4fba                	lw	t6,140(sp)
800036ca:	2711                	jal	80003dce <verify_data+0x1062>
800036cc:	53c2                	lw	t2,48(sp)
800036ce:	2728                	fld	fa0,72(a4)
800036d0:	272cdbc7          	fmsub.q	fs7,fs9,fs2,ft4,unknown
800036d4:	ec5c                	fsw	fa5,28(s0)
800036d6:	276a                	fld	fa4,152(sp)
800036d8:	bfb6                	fsd	fa3,504(sp)
800036da:	2799                	jal	80003e20 <verify_data+0x10b4>
800036dc:	27ac473b          	0x27ac473b
800036e0:	e2fd                	bnez	a3,800037c6 <verify_data+0xa5a>
800036e2:	dfd027bb          	0xdfd027bb
800036e6:	27f8                	fld	fa4,200(a5)
800036e8:	280b98c7          	fmsub.s	fa7,fs7,ft0,ft5,rtz
800036ec:	d6ad                	beqz	a3,80003656 <verify_data+0x8ea>
800036ee:	2812                	fld	fa6,256(sp)
800036f0:	281bbd27          	fsd	ft1,666(s7)
800036f4:	fe11                	bnez	a2,80003610 <verify_data+0x8a4>
800036f6:	2828                	fld	fa0,80(s0)
800036f8:	49a5                	li	s3,9
800036fa:	2835                	jal	80003736 <verify_data+0x9ca>
800036fc:	10f8                	addi	a4,sp,108
800036fe:	2844                	fld	fs1,144(s0)
80003700:	2845d05b          	0x2845d05b
80003704:	9189                	srli	a1,a1,0x22
80003706:	285d                	jal	800037bc <verify_data+0xa50>
80003708:	2870b66f          	jal	a2,8000f18e <__global_pointer$+0x7c22>
8000370c:	a34d                	j	80003cae <verify_data+0xf42>
8000370e:	2880                	fld	fs0,16(s1)
80003710:	9bfd                	andi	a5,a5,-1
80003712:	288a                	fld	fa7,128(sp)
80003714:	c5f0                	sw	a2,76(a1)
80003716:	28a6                	fld	fa7,72(sp)
80003718:	c1b4                	sw	a3,64(a1)
8000371a:	f15328bb          	0xf15328bb
8000371e:	28bd                	jal	8000379c <verify_data+0xa30>
80003720:	5d55                	li	s10,-11
80003722:	28d4                	fld	fa3,144(s1)
80003724:	b431                	j	80003130 <verify_data+0x3c4>
80003726:	25ea28ef          	jal	a7,800a5984 <__global_pointer$+0x9e418>
8000372a:	2901                	jal	80003b3a <verify_data+0xdce>
8000372c:	290737e7          	0x290737e7
80003730:	6c64                	flw	fs1,92(s0)
80003732:	2909                	jal	80003b44 <verify_data+0xdd8>
80003734:	292b6803          	0x292b6803
80003738:	de5d                	beqz	a2,800036f6 <verify_data+0x98a>
8000373a:	292c                	fld	fa1,80(a0)
8000373c:	292dc637          	lui	a2,0x292dc
80003740:	4190                	lw	a2,0(a1)
80003742:	2931                	jal	80003b5e <verify_data+0xdf2>
80003744:	fc5d                	bnez	s0,80003702 <verify_data+0x996>
80003746:	9857294b          	fnmsub.s	fs2,fa4,ft5,fs3,rdn
8000374a:	2959                	jal	80003be0 <verify_data+0xe74>
8000374c:	28ae                	fld	fa7,200(sp)
8000374e:	297c                	fld	fa5,208(a0)
80003750:	297efd5b          	0x297efd5b
80003754:	f432                	fsw	fa2,40(sp)
80003756:	2982                	fld	fs3,0(sp)
80003758:	d515                	beqz	a0,80003684 <verify_data+0x918>
8000375a:	2995                	jal	80003bce <verify_data+0xe62>
8000375c:	daa0                	sw	s0,112(a3)
8000375e:	986b2997          	auipc	s3,0x986b2
80003762:	2998                	fld	fa4,16(a1)
80003764:	29a4b67b          	0x29a4b67b
80003768:	29c439a7          	fsd	ft8,659(s0)
8000376c:	29d70e33          	0x29d70e33
80003770:	7a22                	flw	fs4,40(sp)
80003772:	29dd                	jal	80003c68 <verify_data+0xefc>
80003774:	eae5                	bnez	a3,80003864 <verify_data+0xaf8>
80003776:	29e8                	fld	fa0,208(a1)
80003778:	35ba                	fld	fa1,424(sp)
8000377a:	2a0d                	jal	800038ac <verify_data+0xb40>
8000377c:	2a12718f          	0x2a12718f
80003780:	2885                	jal	800037f0 <verify_data+0xa84>
80003782:	2a1a                	fld	fs4,384(sp)
80003784:	4eda                	lw	t4,148(sp)
80003786:	2a21                	jal	8000389e <verify_data+0xb32>
80003788:	2a22a5e3          	0x2a22a5e3
8000378c:	6ac2                	flw	fs5,16(sp)
8000378e:	2a4c                	fld	fa1,144(a2)
80003790:	2a8f6b6f          	jal	s6,800f9a38 <__global_pointer$+0xf24cc>
80003794:	bc82                	fsd	ft0,120(sp)
80003796:	2a95                	jal	8000390a <verify_data+0xb9e>
80003798:	6351                	lui	t1,0x14
8000379a:	2aac                	fld	fa1,80(a3)
8000379c:	74f2                	flw	fs1,60(sp)
8000379e:	2aca                	fld	fs5,144(sp)
800037a0:	832c                	0x832c
800037a2:	4d282aef          	jal	s5,80085c74 <__global_pointer$+0x7e708>
800037a6:	2afa                	fld	fs5,408(sp)
800037a8:	9719                	srai	a4,a4,0x26
800037aa:	2b01                	jal	80003cba <verify_data+0xf4e>
800037ac:	2b0b5427          	0x2b0b5427
800037b0:	d0ed                	beqz	s1,80003792 <verify_data+0xa26>
800037b2:	2b0c                	fld	fa1,16(a4)
800037b4:	261f 2b0e deec      	0xdeec2b0e261f
800037ba:	2b16                	fld	fs6,320(sp)
800037bc:	0b2a                	slli	s6,s6,0xa
800037be:	2b1d                	jal	80003cf4 <verify_data+0xf88>
800037c0:	4dbe                	lw	s11,204(sp)
800037c2:	2b26                	fld	fs6,72(sp)
800037c4:	0c12                	slli	s8,s8,0x4
800037c6:	2b48                	fld	fa0,144(a4)
800037c8:	2488                	fld	fa0,8(s1)
800037ca:	1c4b2b53          	0x1c4b2b53
800037ce:	2b5e                	fld	fs6,464(sp)
800037d0:	e58d                	bnez	a1,800037fa <verify_data+0xa8e>
800037d2:	2b7a                	fld	fs6,408(sp)
800037d4:	6fa2                	flw	ft11,8(sp)
800037d6:	4d812b7b          	0x4d812b7b
800037da:	2b84                	fld	fs1,16(a5)
800037dc:	70c8                	flw	fa0,36(s1)
800037de:	5d0d2b87          	flw	fs7,1488(s10)
800037e2:	2b89                	jal	80003d34 <verify_data+0xfc8>
800037e4:	d1e1                	beqz	a1,800037a4 <verify_data+0xa38>
800037e6:	6ca02b8f          	0x6ca02b8f
800037ea:	d24e2b9b          	0xd24e2b9b
800037ee:	2b9d                	jal	80003d64 <verify_data+0xff8>
800037f0:	5d49                	li	s10,-14
800037f2:	35dc2ba7          	fsw	ft9,855(s8)
800037f6:	2ba8                	fld	fa0,80(a5)
800037f8:	6a49                	lui	s4,0x12
800037fa:	2be5                	jal	80003df2 <verify_data+0x1086>
800037fc:	7d20                	flw	fs0,120(a0)
800037fe:	a3052bf3          	csrrs	s7,0xa30,a0
80003802:	2bf5                	jal	80003dfe <verify_data+0x1092>
80003804:	64c0                	flw	fs0,12(s1)
80003806:	58672c07          	flw	fs8,1414(a4)
8000380a:	2c15                	jal	80003a3e <verify_data+0xcd2>
8000380c:	aecc                	fsd	fa1,152(a3)
8000380e:	f5572c23          	sw	s5,-168(a4)
80003812:	94b82c2b          	0x94b82c2b
80003816:	2c2d                	jal	80003a50 <verify_data+0xce4>
80003818:	2c3cdaab          	0x2c3cdaab
8000381c:	0379                	addi	t1,t1,30
8000381e:	2c52                	fld	fs8,272(sp)
80003820:	2c54a803          	lw	a6,709(s1) # 32c5 <buflen.2941+0x3285>
80003824:	983d                	andi	s0,s0,-17
80003826:	2c6a                	fld	fs8,152(sp)
80003828:	aaad                	j	800039a2 <verify_data+0xc36>
8000382a:	5cab2c73          	csrrs	s8,0x5ca,s6
8000382e:	9f222c8f          	0x9f222c8f
80003832:	2c9d                	jal	80003aa8 <verify_data+0xd3c>
80003834:	2c45                	jal	80003ae4 <verify_data+0xd78>
80003836:	b88a2cab          	0xb88a2cab
8000383a:	2cbd                	jal	80003ab8 <verify_data+0xd4c>
8000383c:	2cc21eab          	0x2cc21eab
80003840:	ddc4                	sw	s1,60(a1)
80003842:	2cd0                	fld	fa2,152(s1)
80003844:	8849                	andi	s0,s0,18
80003846:	2cd8                	fld	fa4,152(s1)
80003848:	2ce66627          	0x2ce66627
8000384c:	6b72                	flw	fs6,28(sp)
8000384e:	2cf4                	fld	fa3,216(s1)
80003850:	e584                	fsw	fs1,8(a1)
80003852:	2cf4                	fld	fa3,216(s1)
80003854:	ceea                	sw	s10,92(sp)
80003856:	2cfe                	fld	fs9,472(sp)
80003858:	d921                	beqz	a0,800037a8 <verify_data+0xa3c>
8000385a:	2d08                	fld	fa0,24(a0)
8000385c:	9006                	c.add	zero,ra
8000385e:	2d0c                	fld	fa1,24(a0)
80003860:	2d2aea73          	csrrsi	s4,0x2d2,21
80003864:	8c8c                	0x8c8c
80003866:	2d2d                	jal	80003ea0 <verify_data+0x1134>
80003868:	d426                	sw	s1,40(sp)
8000386a:	2d30                	fld	fa2,88(a0)
8000386c:	eda1                	bnez	a1,800038c4 <verify_data+0xb58>
8000386e:	2d68                	fld	fa0,216(a0)
80003870:	2d73d15b          	0x2d73d15b
80003874:	7cb6                	flw	fs9,108(sp)
80003876:	fe492d97          	auipc	s11,0xfe492
8000387a:	ddde2d97          	auipc	s11,0xddde2
8000387e:	2d9e                	fld	fs11,448(sp)
80003880:	ac55                	j	80003b34 <verify_data+0xdc8>
80003882:	0f762da3          	sw	s7,251(a2) # 292dc0fb <buflen.2941+0x292dc0bb>
80003886:	ec892dbb          	0xec892dbb
8000388a:	2dc4                	fld	fs1,152(a1)
8000388c:	95c4                	0x95c4
8000388e:	2dc9                	jal	80003f60 <verify_data+0x11f4>
80003890:	17e0                	addi	s0,sp,1004
80003892:	2dd6                	fld	fs11,336(sp)
80003894:	2deb91bf 2df3dfcb 	0x2df3dfcb2deb91bf
8000389c:	2e04b247          	fmsub.q	ft4,fs1,ft0,ft5,rup
800038a0:	9db6                	add	s11,s11,a3
800038a2:	77ef2e07          	flw	ft8,1918(t5)
800038a6:	0dbb2e0b          	0xdbb2e0b
800038aa:	2e16                	fld	ft8,320(sp)
800038ac:	b07f                	0xb07f
800038ae:	2e56                	fld	ft8,336(sp)
800038b0:	0f7c                	addi	a5,sp,924
800038b2:	2e6a                	fld	ft8,152(sp)
800038b4:	2e6c133b          	0x2e6c133b
800038b8:	078a                	slli	a5,a5,0x2
800038ba:	2e70                	fld	fa2,216(a2)
800038bc:	26e2                	fld	fa3,24(sp)
800038be:	2eb2                	fld	ft9,264(sp)
800038c0:	3bb4                	fld	fa3,112(a5)
800038c2:	2ed0                	fld	fa2,152(a3)
800038c4:	4040                	lw	s0,4(s0)
800038c6:	2ed9                	jal	80003c9c <verify_data+0xf30>
800038c8:	f2c1                	bnez	a3,80003848 <verify_data+0xadc>
800038ca:	2edd                	jal	80003cc0 <verify_data+0xf54>
800038cc:	0df8                	addi	a4,sp,732
800038ce:	2ee2                	fld	ft9,24(sp)
800038d0:	2eea494b          	fnmsub.q	fs2,fs4,fa4,ft5,rmm
800038d4:	def5                	beqz	a3,800038d0 <verify_data+0xb64>
800038d6:	2ef0                	fld	fa2,216(a3)
800038d8:	8746                	mv	a4,a7
800038da:	2ef5                	jal	80003cd6 <verify_data+0xf6a>
800038dc:	9bd8                	0x9bd8
800038de:	2ef6                	fld	ft9,344(sp)
800038e0:	5b1f 2f1a 9f26      	0x9f262f1a5b1f
800038e6:	2f24                	fld	fs1,88(a4)
800038e8:	9259                	srli	a2,a2,0x36
800038ea:	2f28                	fld	fa0,88(a4)
800038ec:	91a6                	add	gp,gp,s1
800038ee:	ef642f2b          	0xef642f2b
800038f2:	b4642f4b          	0xb4642f4b
800038f6:	2f70                	fld	fa2,216(a4)
800038f8:	2c50                	fld	fa2,152(s0)
800038fa:	2f82                	fld	ft11,0(sp)
800038fc:	5026                	0x5026
800038fe:	d1cb2f97          	auipc	t6,0xd1cb2
80003902:	b6d42fa7          	fsw	fa3,-1153(s0)
80003906:	2faa                	fld	ft11,136(sp)
80003908:	2fb80fd7          	0x2fb80fd7
8000390c:	21dc                	fld	fa5,128(a1)
8000390e:	2fb9                	jal	8000406c <verify_data+0x1300>
80003910:	2fbefe13          	andi	t3,t4,763
80003914:	2fc79aeb          	0x2fc79aeb
80003918:	2fcade4f          	fnmadd.q	ft8,fs5,ft8,ft5,unknown
8000391c:	b366                	fsd	fs9,416(sp)
8000391e:	2fd8                	fld	fa4,152(a5)
80003920:	2ff1affb          	0x2ff1affb
80003924:	30107333          	0x30107333
80003928:	301453e7          	0x301453e7
8000392c:	3014dbb7          	lui	s7,0x3014d
80003930:	94ee                	add	s1,s1,s11
80003932:	3041                	jal	800031b2 <verify_data+0x446>
80003934:	86c8                	0x86c8
80003936:	304d                	jal	800031d8 <verify_data+0x46c>
80003938:	81e5                	srli	a1,a1,0x19
8000393a:	93fd304f          	fnmadd.d	ft0,fs10,ft11,fs2,rup
8000393e:	89643067          	0x89643067
80003942:	306a                	fld	ft0,184(sp)
80003944:	2809                	jal	80003956 <verify_data+0xbea>
80003946:	3401306b          	0x3401306b
8000394a:	307d                	jal	800031f8 <verify_data+0x48c>
8000394c:	46b2                	lw	a3,12(sp)
8000394e:	3089                	jal	80003190 <verify_data+0x424>
80003950:	9914                	0x9914
80003952:	3095                	jal	800031b6 <verify_data+0x44a>
80003954:	cd5f 30b8 735e      	0x735e30b8cd5f
8000395a:	30ee                	fld	ft1,248(sp)
8000395c:	d0d4                	sw	a3,36(s1)
8000395e:	30f6                	fld	ft1,376(sp)
80003960:	6af4                	flw	fa3,84(a3)
80003962:	3108                	fld	fa0,32(a0)
80003964:	1d65                	addi	s10,s10,-7
80003966:	3116                	fld	ft2,352(sp)
80003968:	31529973          	csrrw	s2,0x315,t0
8000396c:	3170694b          	fnmsub.s	fs2,ft0,fs7,ft6,unknown
80003970:	31766a3f 3181e05e 	0x3181e05e31766a3f
80003978:	318c2ea3          	sw	s8,797(s8)
8000397c:	318c39e7          	0x318c39e7
80003980:	8c7a                	mv	s8,t5
80003982:	3198                	fld	fa4,32(a1)
80003984:	dfc5                	beqz	a5,8000393c <verify_data+0xbd0>
80003986:	31a6                	fld	ft3,104(sp)
80003988:	31bc1683          	lh	a3,795(s8)
8000398c:	0fec                	addi	a1,sp,988
8000398e:	31c6                	fld	ft3,112(sp)
80003990:	d196                	sw	t0,224(sp)
80003992:	31cc                	fld	fa1,160(a1)
80003994:	0a74                	addi	a3,sp,284
80003996:	31d9                	jal	8000365c <verify_data+0x8f0>
80003998:	58ee                	lw	a7,248(sp)
8000399a:	fa4731e3          	0xfa4731e3
8000399e:	100a31e3          	0x100a31e3
800039a2:	31ec                	fld	fa1,224(a1)
800039a4:	de75                	beqz	a2,800039a0 <verify_data+0xc34>
800039a6:	3209                	jal	800032a8 <verify_data+0x53c>
800039a8:	3213004b          	fnmsub.d	ft0,ft6,ft1,ft6,rne
800039ac:	6e71                	lui	t3,0x1c
800039ae:	324a                	fld	ft4,176(sp)
800039b0:	324f49f7          	0x324f49f7
800039b4:	5676                	lw	a2,124(sp)
800039b6:	3268                	fld	fa0,224(a2)
800039b8:	e084                	fsw	fs1,0(s1)
800039ba:	326e                	fld	ft4,248(sp)
800039bc:	dd86                	sw	ra,248(sp)
800039be:	3276                	fld	ft4,376(sp)
800039c0:	19a6                	slli	s3,s3,0x29
800039c2:	3280                	fld	fs0,32(a3)
800039c4:	9e1e                	add	t3,t3,t2
800039c6:	328d                	jal	80003328 <verify_data+0x5bc>
800039c8:	32919983          	lh	s3,809(gp) # e9c70329 <__global_pointer$+0x69c68dbd>
800039cc:	2dde                	fld	fs11,464(sp)
800039ce:	32a2                	fld	ft5,40(sp)
800039d0:	24ff                	0x24ff
800039d2:	32be                	fld	ft5,488(sp)
800039d4:	29b6                	fld	fs3,328(sp)
800039d6:	32c4                	fld	fs1,160(a3)
800039d8:	a565                	j	80004080 <verify_data+0x1314>
800039da:	32cd                	jal	800033bc <verify_data+0x650>
800039dc:	6a74                	flw	fa3,84(a2)
800039de:	32ce                	fld	ft5,240(sp)
800039e0:	3d32                	fld	fs10,296(sp)
800039e2:	32d5                	jal	800033c6 <verify_data+0x65a>
800039e4:	127e                	slli	tp,tp,0x3f
800039e6:	32e0                	fld	fs0,224(a3)
800039e8:	32ee431b          	0x32ee431b
800039ec:	e815                	bnez	s0,80003a20 <verify_data+0xcb4>
800039ee:	ffd432f7          	0xffd432f7
800039f2:	330e                	fld	ft6,224(sp)
800039f4:	4b8a                	lw	s7,128(sp)
800039f6:	3312                	fld	ft6,288(sp)
800039f8:	33226d3b          	0x33226d3b
800039fc:	bb69                	j	80003796 <verify_data+0xa2a>
800039fe:	3324                	fld	fs1,96(a4)
80003a00:	57fc                	lw	a5,108(a5)
80003a02:	3326                	fld	ft6,104(sp)
80003a04:	3085                	jal	80003264 <verify_data+0x4f8>
80003a06:	3339                	jal	80003714 <verify_data+0x9a8>
80003a08:	a3bc                	fsd	fa5,64(a5)
80003a0a:	333c                	fld	fa5,96(a4)
80003a0c:	3348100b          	0x3348100b
80003a10:	bf5f 3378 37b1      	0x37b13378bf5f
80003a16:	337a                	fld	ft6,440(sp)
80003a18:	9944                	0x9944
80003a1a:	339f 69aa 33a5      	0x33a569aa339f
80003a20:	26c9                	jal	80003de2 <verify_data+0x1076>
80003a22:	d57033ab          	0xd57033ab
80003a26:	33ac                	fld	fa1,96(a5)
80003a28:	f61d                	bnez	a2,80003956 <verify_data+0xbea>
80003a2a:	33b6                	fld	ft7,360(sp)
80003a2c:	e796                	fsw	ft5,204(sp)
80003a2e:	33d8                	fld	fa4,160(a5)
80003a30:	33f842cb          	fnmsub.d	ft5,fa6,ft11,ft6,rmm
80003a34:	34127047          	0x34127047
80003a38:	3417d43b          	0x3417d43b
80003a3c:	86a9                	srai	a3,a3,0xa
80003a3e:	341a                	fld	fs0,416(sp)
80003a40:	342ec987          	flq	fs3,834(t4)
80003a44:	b01d                	j	8000326a <verify_data+0x4fe>
80003a46:	3438                	fld	fa4,104(s0)
80003a48:	c77a                	sw	t5,140(sp)
80003a4a:	345f 935e 3460      	0x3460935e345f
80003a50:	b74e                	fsd	fs3,424(sp)
80003a52:	3462                	fld	fs0,56(sp)
80003a54:	47ff                	0x47ff
80003a56:	346a                	fld	fs0,184(sp)
80003a58:	e798                	fsw	fa4,8(a5)
80003a5a:	346c                	fld	fa1,232(s0)
80003a5c:	e0a8                	fsw	fa0,64(s1)
80003a5e:	3471                	jal	800034ea <verify_data+0x77e>
80003a60:	b34e                	fsd	fs3,416(sp)
80003a62:	347a                	fld	fs0,440(sp)
80003a64:	347e3b97          	auipc	s7,0x347e3
80003a68:	3491fb3f 34968f93 	0x34968f933491fb3f
80003a70:	3499a707          	flw	fa4,841(s3) # 186b5aa7 <buflen.2941+0x186b5a67>
80003a74:	5b28                	lw	a0,112(a4)
80003a76:	34cd                	jal	80003558 <verify_data+0x7ec>
80003a78:	3644                	fld	fs1,168(a2)
80003a7a:	34de                	fld	fs1,496(sp)
80003a7c:	6341                	lui	t1,0x10
80003a7e:	5cce34eb          	0x5cce34eb
80003a82:	6b953513          	sltiu	a0,a0,1721
80003a86:	3526                	fld	fa0,104(sp)
80003a88:	99c5                	andi	a1,a1,-15
80003a8a:	2e883533          	0x2e883533
80003a8e:	3539                	jal	8000389c <verify_data+0xb30>
80003a90:	b79f 353e 36c6      	0x36c6353eb79f
80003a96:	b68b3543          	fmadd.q	fa0,fs6,fs0,fs6,rup
80003a9a:	3548                	fld	fa0,168(a0)
80003a9c:	1a2c                	addi	a1,sp,312
80003a9e:	3555                	jal	80003942 <verify_data+0xbd6>
80003aa0:	a8ed                	j	80003b9a <verify_data+0xe2e>
80003aa2:	d7583557          	0xd7583557
80003aa6:	3559                	jal	8000392c <verify_data+0xbc0>
80003aa8:	3150                	fld	fa2,160(a0)
80003aaa:	3561                	jal	80003932 <verify_data+0xbc6>
80003aac:	05a2                	slli	a1,a1,0x8
80003aae:	3594                	fld	fa3,40(a1)
80003ab0:	35ae                	fld	fa1,232(sp)
80003ab2:	35c0                	fld	fs0,168(a1)
80003ab4:	5411                	li	s0,-28
80003ab6:	35e6                	fld	fa1,120(sp)
80003ab8:	360e2f13          	slti	t5,t3,864
80003abc:	3615d7bf 36182d7f 	0x36182d7f3615d7bf
80003ac4:	69d9                	lui	s3,0x16
80003ac6:	3632                	fld	fa2,296(sp)
80003ac8:	93c9                	srli	a5,a5,0x32
80003aca:	3634                	fld	fa3,104(a2)
80003acc:	d420                	sw	s0,104(s0)
80003ace:	d5de3647          	0xd5de3647
80003ad2:	3661                	jal	8000365a <verify_data+0x8ee>
80003ad4:	5b94                	lw	a3,48(a5)
80003ad6:	3688                	fld	fa0,40(a3)
80003ad8:	42ad                	li	t0,11
80003ada:	3698                	fld	fa4,40(a3)
80003adc:	2b51                	jal	80004070 <verify_data+0x1304>
80003ade:	369a                	fld	fa3,416(sp)
80003ae0:	10ae                	slli	ra,ra,0x2b
80003ae2:	36b0                	fld	fa2,104(a3)
80003ae4:	36bd5793          	0x36bd5793
80003ae8:	36d21197          	auipc	gp,0x36d21
80003aec:	181a                	slli	a6,a6,0x26
80003aee:	36ee                	fld	fa3,248(sp)
80003af0:	712a                	flw	ft2,168(sp)
80003af2:	2af736f7          	0x2af736f7
80003af6:	953f370b          	0x953f370b
80003afa:	6219370f          	0x6219370f
80003afe:	99ac371b          	0x99ac371b
80003b02:	42b9372b          	0x42b9372b
80003b06:	3731                	jal	80003a12 <verify_data+0xca6>
80003b08:	b46e                	fsd	fs11,40(sp)
80003b0a:	3734                	fld	fa3,104(a4)
80003b0c:	f7b8                	fsw	fa4,104(a5)
80003b0e:	98ff373f e5553741 	0xe555374198ff373f
80003b16:	3748                	fld	fa0,168(a4)
80003b18:	3752e6c7          	fmsub.q	fa3,ft5,fs5,ft6,unknown
80003b1c:	375ced43          	fmadd.q	fs10,fs9,fs5,ft6,unknown
80003b20:	c88e                	sw	gp,80(sp)
80003b22:	3764                	fld	fs1,232(a4)
80003b24:	3774479b          	0x3774479b
80003b28:	a8b1                	j	80003b84 <verify_data+0xe18>
80003b2a:	a7273793          	sltiu	a5,a4,-1422
80003b2e:	37a5                	jal	80003a96 <verify_data+0xd2a>
80003b30:	37a6bc03          	0x37a6bc03
80003b34:	74e5                	lui	s1,0xffff9
80003b36:	37ac                	fld	fa1,104(a5)
80003b38:	66c0                	flw	fs0,12(a3)
80003b3a:	37b6                	fld	fa5,360(sp)
80003b3c:	7574                	flw	fa3,108(a0)
80003b3e:	37c2                	fld	fa5,48(sp)
80003b40:	37c3b8f7          	0x37c3b8f7
80003b44:	7da5                	lui	s11,0xfffe9
80003b46:	37c5                	jal	80003b26 <verify_data+0xdba>
80003b48:	37c94eb3          	0x37c94eb3
80003b4c:	b958                	fsd	fa4,176(a0)
80003b4e:	37da                	fld	fa5,432(sp)
80003b50:	626c                	flw	fa1,68(a2)
80003b52:	37e8                	fld	fa0,232(a5)
80003b54:	8c39                	xor	s0,s0,a4
80003b56:	37e8                	fld	fa0,232(a5)
80003b58:	9834                	0x9834
80003b5a:	37ff                	0x37ff
80003b5c:	b6ea                	fsd	fs10,360(sp)
80003b5e:	381d                	jal	80003394 <verify_data+0x628>
80003b60:	b3cd                	j	80003942 <verify_data+0xbd6>
80003b62:	3834                	fld	fa3,112(s0)
80003b64:	578e                	lw	a5,224(sp)
80003b66:	3842                	fld	fa6,48(sp)
80003b68:	20f1                	jal	80003c34 <verify_data+0xec8>
80003b6a:	384a                	fld	fa6,176(sp)
80003b6c:	092d                	addi	s2,s2,11
80003b6e:	3862                	fld	fa6,56(sp)
80003b70:	38679167          	0x38679167
80003b74:	4d02                	lw	s10,0(sp)
80003b76:	3869                	jal	80003410 <verify_data+0x6a4>
80003b78:	386a4a27          	fsq	ft6,916(s4) # 12394 <buflen.2941+0x12354>
80003b7c:	cfc9                	beqz	a5,80003c16 <verify_data+0xeaa>
80003b7e:	c145388b          	0xc145388b
80003b82:	3890                	fld	fa2,48(s1)
80003b84:	3893fc2f          	0x3893fc2f
80003b88:	ffda                	fsw	fs6,252(sp)
80003b8a:	389f 05d1 38b3      	0x38b305d1389f
80003b90:	38b93c73          	csrrc	s8,0x38b,s2
80003b94:	f23d                	bnez	a2,80003afa <verify_data+0xd8e>
80003b96:	38ca                	fld	fa7,176(sp)
80003b98:	7b46                	flw	fs6,112(sp)
80003b9a:	023138d3          	fadd.d	fa7,ft2,ft3,rup
80003b9e:	a07c38db          	0xa07c38db
80003ba2:	db9c38e3          	0xdb9c38e3
80003ba6:	38ea                	fld	fa7,184(sp)
80003ba8:	4292                	lw	t0,4(sp)
80003baa:	3b0338eb          	0x3b0338eb
80003bae:	bd26390b          	0xbd26390b
80003bb2:	3925                	jal	800037ea <verify_data+0xa7e>
80003bb4:	9561                	srai	a0,a0,0x38
80003bb6:	392e                	fld	fs2,232(sp)
80003bb8:	6cd4                	flw	fa3,28(s1)
80003bba:	c9d63947          	fmsub.s	fs2,fa2,ft9,fs9,rup
80003bbe:	397a                	fld	fs2,440(sp)
80003bc0:	35c4                	fld	fs1,168(a1)
80003bc2:	398c                	fld	fa1,48(a1)
80003bc4:	398d5073          	csrwi	0x398,26
80003bc8:	399987cf          	fnmadd.s	fa5,fs3,fs9,ft7,rne
80003bcc:	737c                	flw	fa5,100(a4)
80003bce:	eec339bf 6d6839c2 	0x6d6839c2eec339bf
80003bd6:	39c6                	fld	fs3,112(sp)
80003bd8:	3b7f                	0x3b7f
80003bda:	674339c7          	fmsub.q	fs3,ft6,fs4,fa2,rup
80003bde:	39c9                	jal	800038b0 <verify_data+0xb44>
80003be0:	fdf6                	fsw	ft9,248(sp)
80003be2:	708e39d3          	0x708e39d3
80003be6:	39f0                	fld	fa2,240(a1)
80003be8:	6835                	lui	a6,0xd
80003bea:	3a04                	fld	fs1,48(a2)
80003bec:	493e                	lw	s2,204(sp)
80003bee:	3a06                	fld	fs4,96(sp)
80003bf0:	56e2                	lw	a3,56(sp)
80003bf2:	3a06                	fld	fs4,96(sp)
80003bf4:	3a0a8c2b          	0x3a0a8c2b
80003bf8:	cef4                	sw	a3,92(a3)
80003bfa:	3a2c                	fld	fa1,112(a2)
80003bfc:	8a86                	mv	s5,ra
80003bfe:	3a2d                	jal	80003538 <verify_data+0x7cc>
80003c00:	c658                	sw	a4,12(a2)
80003c02:	3a42                	fld	fs4,48(sp)
80003c04:	3a49aebb          	0x3a49aebb
80003c08:	de5c                	sw	a5,60(a2)
80003c0a:	3a4e                	fld	fs4,240(sp)
80003c0c:	56ec                	lw	a1,108(a3)
80003c0e:	3a74                	fld	fa3,240(a2)
80003c10:	c985                	beqz	a1,80003c40 <verify_data+0xed4>
80003c12:	3a76                	fld	fs4,376(sp)
80003c14:	3a980e8b          	0x3a980e8b
80003c18:	3aba90eb          	0x3aba90eb
80003c1c:	3ac8d43b          	0x3ac8d43b
80003c20:	0afe                	slli	s5,s5,0x1f
80003c22:	3ae0                	fld	fs0,240(a3)
80003c24:	4361                	li	t1,24
80003c26:	3aea                	fld	fs5,184(sp)
80003c28:	3b13e5b7          	lui	a1,0x3b13e
80003c2c:	cef1                	beqz	a3,80003d08 <verify_data+0xf9c>
80003c2e:	3b1e                	fld	fs6,480(sp)
80003c30:	fafd                	bnez	a3,80003c26 <verify_data+0xeba>
80003c32:	3b26                	fld	fs6,104(sp)
80003c34:	fdc5                	bnez	a1,80003bec <verify_data+0xe80>
80003c36:	fc5c3b37          	lui	s6,0xfc5c3
80003c3a:	af763b3b          	0xaf763b3b
80003c3e:	ed023b43          	0xed023b43
80003c42:	3b76                	fld	fs6,376(sp)
80003c44:	7cce                	flw	fs9,240(sp)
80003c46:	3b8a                	fld	fs7,160(sp)
80003c48:	07e4                	addi	s1,sp,972
80003c4a:	d0de3b8f          	0xd0de3b8f
80003c4e:	3b90                	fld	fa2,48(a5)
80003c50:	3b99408f          	0x3b99408f
80003c54:	3eb0                	fld	fa2,120(a3)
80003c56:	3c06                	fld	fs8,96(sp)
80003c58:	e4c1                	bnez	s1,80003ce0 <verify_data+0xf74>
80003c5a:	3c39                	jal	80003678 <verify_data+0x90c>
80003c5c:	02ec                	addi	a1,sp,332
80003c5e:	3c49                	jal	800036f0 <verify_data+0x984>
80003c60:	de19                	beqz	a2,80003b7e <verify_data+0xe12>
80003c62:	3c49                	jal	800036f4 <verify_data+0x988>
80003c64:	bdbd                	j	80003ae2 <verify_data+0xd76>
80003c66:	3a763c4b          	fnmsub.d	fs8,fa2,ft7,ft7,rup
80003c6a:	e86b3c5b          	0xe86b3c5b
80003c6e:	3c6e                	fld	fs8,248(sp)
80003c70:	1752                	slli	a4,a4,0x34
80003c72:	3c96                	fld	fs9,352(sp)
80003c74:	3c985217          	auipc	tp,0x3c985
80003c78:	8b6a                	mv	s6,s10
80003c7a:	3ccc                	fld	fa1,184(s1)
80003c7c:	71b9                	lui	gp,0xfffee
80003c7e:	a1413cdb          	0xa1413cdb
80003c82:	0d013cf7          	0xd013cf7
80003c86:	3d1a                	fld	fs10,416(sp)
80003c88:	bfe5                	j	80003c80 <verify_data+0xf14>
80003c8a:	3d2c                	fld	fa1,120(a0)
80003c8c:	54be                	lw	s1,236(sp)
80003c8e:	3d2d                	jal	80003ac8 <verify_data+0xd5c>
80003c90:	5ae1                	li	s5,-8
80003c92:	3d42                	fld	fs10,48(sp)
80003c94:	3d4262f7          	0x3d4262f7
80003c98:	1d74                	addi	a3,sp,700
80003c9a:	3d4e                	fld	fs10,240(sp)
80003c9c:	8d0c                	0x8d0c
80003c9e:	3d52                	fld	fs10,304(sp)
80003ca0:	56d6                	lw	a3,116(sp)
80003ca2:	3d54                	fld	fa3,184(a0)
80003ca4:	fb3a                	fsw	fa4,180(sp)
80003ca6:	742a3d57          	0x742a3d57
80003caa:	3d5a                	fld	fs10,432(sp)
80003cac:	00fc                	addi	a5,sp,76
80003cae:	3d62                	fld	fs10,56(sp)
80003cb0:	592a                	lw	s2,168(sp)
80003cb2:	3d7d                	jal	80003b70 <verify_data+0xe04>
80003cb4:	7fc4                	flw	fs1,60(a5)
80003cb6:	3d8e                	fld	fs11,224(sp)
80003cb8:	3d9105a3          	sb	s9,971(sp)
80003cbc:	38e6                	fld	fa7,120(sp)
80003cbe:	3da0                	fld	fs0,120(a1)
80003cc0:	ffa0                	fsw	fs0,120(a5)
80003cc2:	3db1                	jal	80003b1e <verify_data+0xdb2>
80003cc4:	3dbf7153          	0x3dbf7153
80003cc8:	50ad                	li	ra,-21
80003cca:	e9283dd7          	0xe9283dd7
80003cce:	3dde                	fld	fs11,496(sp)
80003cd0:	4c2e                	lw	s8,200(sp)
80003cd2:	b7773deb          	0xb7773deb
80003cd6:	0a4d3e27          	fsd	ft4,188(s10)
80003cda:	3e2a                	fld	ft8,168(sp)
80003cdc:	f67f                	0xf67f
80003cde:	3e38                	fld	fa4,120(a2)
80003ce0:	3e3b8743          	fmadd.q	fa4,fs7,ft3,ft7,rne
80003ce4:	3e5303f7          	0x3e5303f7
80003ce8:	79d1                	lui	s3,0xffff4
80003cea:	17143e53          	fmul.q	ft8,fs0,fa7,rup
80003cee:	3e6d                	jal	800038a8 <verify_data+0xb3c>
80003cf0:	99ec                	0x99ec
80003cf2:	3e85                	jal	80003862 <verify_data+0xaf6>
80003cf4:	b8b0                	fsd	fa2,112(s1)
80003cf6:	3e8d                	jal	80003868 <verify_data+0xafc>
80003cf8:	6ce8                	flw	fa0,92(s1)
80003cfa:	8b753e9b          	0x8b753e9b
80003cfe:	3e9d                	jal	80003874 <verify_data+0xb08>
80003d00:	ccad                	beqz	s1,80003d7a <verify_data+0x100e>
80003d02:	c5723ea7          	fsd	fs7,-931(tp) # bc9888d1 <__global_pointer$+0x3c981365>
80003d06:	99263ed3          	0x99263ed3
80003d0a:	3f00                	fld	fs0,56(a4)
80003d0c:	227f                	0x227f
80003d0e:	3f1a                	fld	ft10,416(sp)
80003d10:	1b75                	addi	s6,s6,-3
80003d12:	3f1e                	fld	ft10,480(sp)
80003d14:	c5ee                	sw	s11,200(sp)
80003d16:	3f4a                	fld	ft10,176(sp)
80003d18:	204c                	fld	fa1,128(s0)
80003d1a:	3f66                	fld	ft10,120(sp)
80003d1c:	7168                	flw	fa0,100(a0)
80003d1e:	d17c3f67          	0xd17c3f67
80003d22:	e53c3f67          	0xe53c3f67
80003d26:	3f68                	fld	fa0,248(a4)
80003d28:	b11e                	fsd	ft7,160(sp)
80003d2a:	3f7c                	fld	fa5,248(a4)
80003d2c:	f425                	bnez	s0,80003c94 <verify_data+0xf28>
80003d2e:	3f81                	jal	80003c7e <verify_data+0xf12>
80003d30:	156e                	slli	a0,a0,0x3b
80003d32:	3f8a                	fld	ft11,160(sp)
80003d34:	3f95e34b          	fnmsub.q	ft6,fa1,fs9,ft7,unknown
80003d38:	f67d                	bnez	a2,80003d26 <verify_data+0xfba>
80003d3a:	3fa4                	fld	fs1,120(a5)
80003d3c:	5aa8                	lw	a0,112(a3)
80003d3e:	3fb1                	jal	80003c9a <verify_data+0xf2e>
80003d40:	91b1                	srli	a1,a1,0x2c
80003d42:	3fb4                	fld	fa3,120(a5)
80003d44:	83ba                	mv	t2,a4
80003d46:	3fbe                	fld	ft11,488(sp)
80003d48:	4afd                	li	s5,31
80003d4a:	3fff                	0x3fff
80003d4c:	fa46                	fsw	fa7,52(sp)
80003d4e:	4001                	c.li	zero,0
80003d50:	1229                	addi	tp,tp,-22
80003d52:	d5c84007          	flq	ft0,-676(a6) # cd5c <buflen.2941+0xcd1c>
80003d56:	401e                	0x401e
80003d58:	7e40                	flw	fs0,60(a2)
80003d5a:	4025                	c.li	zero,9
80003d5c:	4043fd5b          	0x4043fd5b
80003d60:	405d5a9b          	0x405d5a9b
80003d64:	a050                	fsd	fa2,128(s0)
80003d66:	4085                	li	ra,1
80003d68:	345c                	fld	fa5,168(s0)
80003d6a:	7651408b          	0x7651408b
80003d6e:	c4ff408b          	0xc4ff408b
80003d72:	40b0                	lw	a2,64(s1)
80003d74:	4885                	li	a7,1
80003d76:	40cd                	li	ra,19
80003d78:	0d2d                	addi	s10,s10,11
80003d7a:	40ce                	lw	ra,208(sp)
80003d7c:	24f2                	fld	fs1,280(sp)
80003d7e:	40ce                	lw	ra,208(sp)
80003d80:	cc41                	beqz	s0,80003e18 <verify_data+0x10ac>
80003d82:	40d2                	lw	ra,20(sp)
80003d84:	a17a                	fsd	ft10,128(sp)
80003d86:	40d5                	li	ra,21
80003d88:	0dea                	slli	s11,s11,0x1a
80003d8a:	a95e40ef          	jal	ra,7ffe881e <buflen.2941+0x7ffe87de>
80003d8e:	ad3840f3          	0xad3840f3
80003d92:	40f9                	li	ra,30
80003d94:	f865                	bnez	s0,80003d84 <verify_data+0x1018>
80003d96:	40fd                	li	ra,31
80003d98:	40fed847          	fmsub.s	fa6,ft9,fa5,fs0,unknown
80003d9c:	411c6f63          	bltu	s8,a7,800041ba <verify_data+0x144e>
80003da0:	41240a87          	0x41240a87
80003da4:	6f6a                	flw	ft10,152(sp)
80003da6:	4139                	li	sp,14
80003da8:	3ab2                	fld	fs5,296(sp)
80003daa:	413d                	li	sp,15
80003dac:	88ae                	mv	a7,a1
80003dae:	414a                	lw	sp,144(sp)
80003db0:	58f0                	lw	a2,116(s1)
80003db2:	418e                	lw	gp,192(sp)
80003db4:	4ba0                	lw	s0,80(a5)
80003db6:	4191                	li	gp,4
80003db8:	07d4                	addi	a3,sp,964
80003dba:	4192                	lw	gp,4(sp)
80003dbc:	41aaf2ef          	jal	t0,800b31d6 <__global_pointer$+0xabc6a>
80003dc0:	2be4                	fld	fs1,208(a5)
80003dc2:	41ae                	lw	gp,200(sp)
80003dc4:	a764                	fsd	fs1,200(a4)
80003dc6:	41b5                	li	gp,13
80003dc8:	65ff                	0x65ff
80003dca:	41b8                	lw	a4,64(a1)
80003dcc:	a514                	fsd	fa3,8(a0)
80003dce:	41be                	lw	gp,204(sp)
80003dd0:	94ba                	add	s1,s1,a4
80003dd2:	41f6                	lw	gp,92(sp)
80003dd4:	422f2997          	auipc	s3,0x422f2
80003dd8:	c726                	sw	s1,140(sp)
80003dda:	a0e2423b          	0xa0e2423b
80003dde:	4248                	lw	a0,4(a2)
80003de0:	f095                	bnez	s1,80003d04 <verify_data+0xf98>
80003de2:	4252                	lw	tp,20(sp)
80003de4:	9e80                	0x9e80
80003de6:	4261                	li	tp,24
80003de8:	8d86                	mv	s11,ra
80003dea:	42d0                	lw	a2,4(a3)
80003dec:	42d7b4a3          	0x42d7b4a3
80003df0:	42dd5013          	srai	zero,s10,0x2d
80003df4:	42dfc0af          	0x42dfc0af
80003df8:	1664                	addi	s1,sp,812
80003dfa:	42ec                	lw	a1,68(a3)
80003dfc:	aca1                	j	80004054 <verify_data+0x12e8>
80003dfe:	42f4                	lw	a3,68(a3)
80003e00:	1936                	slli	s2,s2,0x2d
80003e02:	42f8                	lw	a4,68(a3)
80003e04:	430fbce7          	0x430fbce7
80003e08:	b1f5                	j	80003af4 <verify_data+0xd88>
80003e0a:	431a                	lw	t1,132(sp)
80003e0c:	aba4                	fsd	fs1,80(a5)
80003e0e:	431d                	li	t1,7
80003e10:	4d99                	li	s11,6
80003e12:	8fd1432f          	0x8fd1432f
80003e16:	433a                	lw	t1,140(sp)
80003e18:	9488                	0x9488
80003e1a:	4349                	li	t1,18
80003e1c:	6781                	0x6781
80003e1e:	c7ab4367          	0xc7ab4367
80003e22:	0f3a4373          	0xf3a4373
80003e26:	4382                	lw	t2,0(sp)
80003e28:	7015                	c.lui	zero,0xfffe5
80003e2a:	19f2438f          	0x19f2438f
80003e2e:	4396                	lw	t2,68(sp)
80003e30:	4adc                	lw	a5,20(a3)
80003e32:	439a                	lw	t2,132(sp)
80003e34:	d65f 43b2 0354      	0x35443b2d65f
80003e3a:	43ba                	lw	t2,140(sp)
80003e3c:	6d74                	flw	fa3,92(a0)
80003e3e:	0be443bb          	0xbe443bb
80003e42:	43cd                	li	t2,19
80003e44:	43e409b7          	lui	s3,0x43e40
80003e48:	3234                	fld	fa3,96(a2)
80003e4a:	43e6                	lw	t2,88(sp)
80003e4c:	247f                	0x247f
80003e4e:	22f943f3          	0x22f943f3
80003e52:	43fe                	lw	t2,220(sp)
80003e54:	5c12                	lw	s8,36(sp)
80003e56:	99ca4423          	0x99ca4423
80003e5a:	4428                	lw	a0,72(s0)
80003e5c:	d032                	sw	a2,32(sp)
80003e5e:	442d                	li	s0,11
80003e60:	5118                	lw	a4,32(a0)
80003e62:	4430                	lw	a2,72(s0)
80003e64:	463a                	lw	a2,140(sp)
80003e66:	443a                	lw	s0,140(sp)
80003e68:	44630ba3          	sb	t1,1111(t1) # 10457 <buflen.2941+0x10417>
80003e6c:	ef61                	bnez	a4,80003f44 <verify_data+0x11d8>
80003e6e:	4469                	li	s0,26
80003e70:	4477c207          	flq	ft4,1095(a5) # 1f8b7447 <buflen.2941+0x1f8b7407>
80003e74:	1402                	slli	s0,s0,0x20
80003e76:	447e                	lw	s0,220(sp)
80003e78:	82a8                	0x82a8
80003e7a:	3cf24497          	auipc	s1,0x3cf24
80003e7e:	79ab44af          	0x79ab44af
80003e82:	44b0                	lw	a2,72(s1)
80003e84:	7ed5                	lui	t4,0xffff5
80003e86:	44d5                	li	s1,21
80003e88:	e886                	fsw	ft1,80(sp)
80003e8a:	44de                	lw	s1,212(sp)
80003e8c:	44e034f3          	csrrc	s1,0x44e,zero
80003e90:	be30                	fsd	fa2,120(a2)
80003e92:	980f44f3          	0x980f44f3
80003e96:	4500                	lw	s0,8(a0)
80003e98:	3ef5                	jal	80003a94 <verify_data+0xd28>
80003e9a:	451f 4e25 4520      	0x45204e25451f
80003ea0:	a5a0                	fsd	fs0,72(a1)
80003ea2:	4522                	lw	a0,8(sp)
80003ea4:	bf66                	fsd	fs9,440(sp)
80003ea6:	4524                	lw	s1,72(a0)
80003ea8:	452708a7          	0x452708a7
80003eac:	45288ea3          	sb	s2,1117(a7)
80003eb0:	452947fb          	0x452947fb
80003eb4:	6738                	flw	fa4,72(a4)
80003eb6:	452c                	lw	a1,72(a0)
80003eb8:	4f90                	lw	a2,24(a5)
80003eba:	453c                	lw	a5,72(a0)
80003ebc:	14c2                	slli	s1,s1,0x30
80003ebe:	454d                	li	a0,19
80003ec0:	4f41                	li	t5,16
80003ec2:	39da4577          	0x39da4577
80003ec6:	2dac4583          	lbu	a1,730(s8)
80003eca:	4592                	lw	a1,4(sp)
80003ecc:	45a55e33          	0x45a55e33
80003ed0:	8575                	srai	a0,a0,0x1d
80003ed2:	45b2                	lw	a1,12(sp)
80003ed4:	91ea                	add	gp,gp,s10
80003ed6:	45c4                	lw	s1,12(a1)
80003ed8:	601e                	flw	ft0,196(sp)
80003eda:	45c8                	lw	a0,12(a1)
80003edc:	d378                	sw	a4,100(a4)
80003ede:	45cc                	lw	a1,12(a1)
80003ee0:	45da2b4b          	0x45da2b4b
80003ee4:	45dfbae3          	0x45dfbae3
80003ee8:	60d8                	flw	fa4,4(s1)
80003eea:	22c245f7          	0x22c245f7
80003eee:	45f8                	lw	a4,76(a1)
80003ef0:	c688                	sw	a0,8(a3)
80003ef2:	4602                	lw	a2,0(sp)
80003ef4:	2449                	jal	80004176 <verify_data+0x140a>
80003ef6:	4609                	li	a2,2
80003ef8:	952d                	srai	a0,a0,0x2b
80003efa:	4616                	lw	a2,68(sp)
80003efc:	2b82                	fld	fs7,0(sp)
80003efe:	4638                	lw	a4,72(a2)
80003f00:	d58c                	sw	a1,40(a1)
80003f02:	463a                	lw	a2,140(sp)
80003f04:	20ae                	fld	ft1,200(sp)
80003f06:	464e                	lw	a2,208(sp)
80003f08:	5558                	lw	a4,44(a0)
80003f0a:	4656                	lw	a2,84(sp)
80003f0c:	465d649b          	0x465d649b
80003f10:	8db4                	0x8db4
80003f12:	3a7a4667          	0x3a7a4667
80003f16:	468a                	lw	a3,128(sp)
80003f18:	fa54                	fsw	fa3,52(a2)
80003f1a:	469a                	lw	a3,132(sp)
80003f1c:	42ff                	0x42ff
80003f1e:	46ae                	lw	a3,200(sp)
80003f20:	46d09d13          	0x46d09d13
80003f24:	46dadd13          	0x46dadd13
80003f28:	db78                	sw	a4,116(a4)
80003f2a:	46e0                	lw	s0,76(a3)
80003f2c:	a1b8                	fsd	fa4,64(a1)
80003f2e:	8a9e46e3          	blt	t3,s1,800037da <verify_data+0xa6e>
80003f32:	6c8346fb          	0x6c8346fb
80003f36:	46fe                	lw	a3,220(sp)
80003f38:	0e38                	addi	a4,sp,792
80003f3a:	4705                	li	a4,1
80003f3c:	dae5                	beqz	a3,80003f2c <verify_data+0x11c0>
80003f3e:	470e                	lw	a4,192(sp)
80003f40:	9f7d                	0x9f7d
80003f42:	d0aa472b          	0xd0aa472b
80003f46:	4735                	li	a4,13
80003f48:	47c5                	li	a5,17
80003f4a:	ead3476b          	0xead3476b
80003f4e:	1b49476b          	0x1b49476b
80003f52:	4775                	li	a4,29
80003f54:	229c                	fld	fa5,0(a3)
80003f56:	477c                	lw	a5,76(a4)
80003f58:	4797b60f          	0x4797b60f
80003f5c:	479820a3          	sw	s9,1121(a6)
80003f60:	ddb4                	sw	a3,120(a1)
80003f62:	479f 3740 47a5      	0x47a53740479f
80003f68:	8ad5                	andi	a3,a3,21
80003f6a:	155447a7          	fsq	fs5,335(s0)
80003f6e:	47ba                	lw	a5,140(sp)
80003f70:	0524                	addi	s1,sp,648
80003f72:	47c2                	lw	a5,16(sp)
80003f74:	b8f5                	j	80003870 <verify_data+0xb04>
80003f76:	47d2                	lw	a5,20(sp)
80003f78:	d05f 47da 8286      	0x828647dad05f
80003f7e:	47e0                	lw	s0,76(a5)
80003f80:	b732                	fsd	fa2,424(sp)
80003f82:	47e6                	lw	a5,88(sp)
80003f84:	481bd9f3          	csrrwi	s3,0x481,23
80003f88:	0125                	addi	sp,sp,9
80003f8a:	481f 3db3 4847      	0x48473db3481f
80003f90:	8551                	srai	a0,a0,0x14
80003f92:	484c                	lw	a1,20(s0)
80003f94:	f4ee                	fsw	fs11,104(sp)
80003f96:	4861                	li	a6,24
80003f98:	adb0                	fsd	fa2,88(a1)
80003f9a:	486a                	lw	a6,152(sp)
80003f9c:	6559                	lui	a0,0x16
80003f9e:	486c                	lw	a1,84(s0)
80003fa0:	0341                	addi	t1,t1,16
80003fa2:	486d                	li	a6,27
80003fa4:	4881f2b7          	lui	t0,0x4881f
80003fa8:	36f5                	jal	80003b94 <verify_data+0xe28>
80003faa:	4896                	lw	a7,68(sp)
80003fac:	2d61                	jal	80004644 <verify_data+0x18d8>
80003fae:	48a1                	li	a7,8
80003fb0:	48bfb5ef          	jal	a1,800ffc3a <__global_pointer$+0xf86ce>
80003fb4:	b06d                	j	8000385e <verify_data+0xaf2>
80003fb6:	48c5                	li	a7,17
80003fb8:	a2c4                	fsd	fs1,128(a3)
80003fba:	48c8                	lw	a0,20(s1)
80003fbc:	48d2104f          	fnmadd.s	ft0,ft4,fa3,fs1,rtz
80003fc0:	48deb2b3          	0x48deb2b3
80003fc4:	c11e                	sw	t2,128(sp)
80003fc6:	48ec                	lw	a1,84(s1)
80003fc8:	48ee3bd3          	0x48ee3bd3
80003fcc:	662c                	flw	fa1,72(a2)
80003fce:	48ee                	lw	a7,216(sp)
80003fd0:	493e456f          	jal	a0,800e8c62 <__global_pointer$+0xe16f6>
80003fd4:	2b3c                	fld	fa5,80(a4)
80003fd6:	44f24957          	0x44f24957
80003fda:	4961                	li	s2,24
80003fdc:	d92d                	beqz	a0,80003f4e <verify_data+0x11e2>
80003fde:	4961                	li	s2,24
80003fe0:	49635f53          	0x49635f53
80003fe4:	523d                	li	tp,-17
80003fe6:	4969                	li	s2,26
80003fe8:	ccf5                	beqz	s1,800040e4 <verify_data+0x1378>
80003fea:	496d                	li	s2,27
80003fec:	49777d6b          	0x49777d6b
80003ff0:	f754                	fsw	fa3,44(a4)
80003ff2:	497d                	li	s2,31
80003ff4:	6fb9                	lui	t6,0xe
80003ff6:	497e                	lw	s2,220(sp)
80003ff8:	c139                	beqz	a0,8000403e <verify_data+0x12d2>
80003ffa:	c342498f          	0xc342498f
80003ffe:	cba1499b          	0xcba1499b
80004002:	49b049e3          	bgtz	s11,80004c94 <verify_data+0x1f28>
80004006:	49ed                	li	s3,27
80004008:	4a41b0ab          	0x4a41b0ab
8000400c:	4a5ba023          	sw	t0,1184(s7) # b47e6f04 <__global_pointer$+0x347df998>
80004010:	8c9f 4a73 0635      	0x6354a738c9f
80004016:	4a75                	li	s4,29
80004018:	fd96                	fsw	ft5,248(sp)
8000401a:	4a86                	lw	s5,64(sp)
8000401c:	ca59                	beqz	a2,800040b2 <verify_data+0x1346>
8000401e:	4ad5                	li	s5,21
80004020:	4699                	li	a3,6
80004022:	4add                	li	s5,23
80004024:	5c10                	lw	a2,56(s0)
80004026:	4adf bad6 4ae2      	0x4ae2bad64adf
8000402c:	0a4e                	slli	s4,s4,0x13
8000402e:	4af4                	lw	a3,84(a3)
80004030:	4b27318b          	0x4b27318b
80004034:	af6d                	j	800047ee <verify_data+0x1a82>
80004036:	4b3e                	lw	s6,204(sp)
80004038:	4b8786af          	0x4b8786af
8000403c:	3372                	fld	ft6,312(sp)
8000403e:	4bae                	lw	s7,200(sp)
80004040:	91ec                	0x91ec
80004042:	d9bb4bc7          	fmsub.s	fs7,fs6,fs11,fs11,rmm
80004046:	058c4be3          	blt	s8,s8,8000489c <verify_data+0x1b30>
8000404a:	9b834bef          	jal	s7,7ff38202 <buflen.2941+0x7ff381c2>
8000404e:	4bf2                	lw	s7,28(sp)
80004050:	5c1f 4bf6 040c      	0x40c4bf65c1f
80004056:	4c04                	lw	s1,24(s0)
80004058:	97d2                	add	a5,a5,s4
8000405a:	4c06                	lw	s8,64(sp)
8000405c:	58c2                	lw	a7,48(sp)
8000405e:	4c11                	li	s8,4
80004060:	8cce                	mv	s9,s3
80004062:	4c2d                	li	s8,11
80004064:	4c38983f 4c38dab4 	0x4c38dab44c38983f
8000406c:	4c3ceec7          	0x4c3ceec7
80004070:	f69e                	fsw	ft7,108(sp)
80004072:	4c4a                	lw	s8,144(sp)
80004074:	465f 4c61 7db2      	0x7db24c61465f
8000407a:	e8004c9b          	0xe8004c9b
8000407e:	4cb5                	li	s9,13
80004080:	acda                	fsd	fs6,88(sp)
80004082:	4cb8                	lw	a4,88(s1)
80004084:	4cc2bb0b          	0x4cc2bb0b
80004088:	c236                	sw	a3,4(sp)
8000408a:	47684ccf          	fnmadd.q	fs9,fa6,fs6,fs0,rmm
8000408e:	4cd9                	li	s9,22
80004090:	4ced7143          	0x4ced7143
80004094:	a049                	j	80004116 <verify_data+0x13aa>
80004096:	4cf2                	lw	s9,28(sp)
80004098:	7b64                	flw	fs1,116(a4)
8000409a:	2ba04cf3          	0x2ba04cf3
8000409e:	4cf4                	lw	a3,92(s1)
800040a0:	cad2                	sw	s4,84(sp)
800040a2:	4cf9                	li	s9,30
800040a4:	1e4c                	addi	a1,sp,820
800040a6:	aadb4d03          	lbu	s10,-1363(s6) # fc5c2aad <__global_pointer$+0x7c5bb541>
800040aa:	4d08                	lw	a0,24(a0)
800040ac:	4d130333          	0x4d130333
800040b0:	345f 4d2e 799b      	0x799b4d2e345f
800040b6:	4d4c                	lw	a1,28(a0)
800040b8:	f848                	fsw	fa0,52(s0)
800040ba:	4d60                	lw	s0,92(a0)
800040bc:	5bb8                	lw	a4,112(a5)
800040be:	1a904d77          	0x1a904d77
800040c2:	4d9f fe51 4da5      	0x4da5fe514d9f
800040c8:	6f29                	lui	t5,0xa
800040ca:	4db5                	li	s11,13
800040cc:	cec0                	sw	s0,28(a3)
800040ce:	4dc9                	li	s11,18
800040d0:	4e03cf67          	0x4e03cf67
800040d4:	b8a4                	fsd	fs1,112(s1)
800040d6:	82044e17          	auipc	t3,0x82044
800040da:	4e34                	lw	a3,88(a2)
800040dc:	b850                	fsd	fa2,176(s0)
800040de:	4e3a                	lw	t3,140(sp)
800040e0:	4e448da7          	0x4e448da7
800040e4:	4e4c9107          	0x4e4c9107
800040e8:	1808                	addi	a0,sp,48
800040ea:	4e50                	lw	a2,28(a2)
800040ec:	6961                	lui	s2,0x18
800040ee:	4e72                	lw	t3,28(sp)
800040f0:	0276                	slli	tp,tp,0x1d
800040f2:	4e81                	li	t4,0
800040f4:	e729                	bnez	a4,8000413e <verify_data+0x13d2>
800040f6:	4e82                	lw	t4,0(sp)
800040f8:	94d2                	add	s1,s1,s4
800040fa:	d2144e8f          	0xd2144e8f
800040fe:	4e9c                	lw	a5,24(a3)
80004100:	4eaa874f          	fnmadd.q	fa4,fs5,fa0,fs1,rne
80004104:	8f85                	sub	a5,a5,s1
80004106:	4eca                	lw	t4,144(sp)
80004108:	687e                	flw	fa6,220(sp)
8000410a:	4ed0                	lw	a2,28(a3)
8000410c:	4ed6bee3          	0x4ed6bee3
80004110:	9124                	0x9124
80004112:	85ea4ee7          	0x85ea4ee7
80004116:	4eec                	lw	a1,92(a3)
80004118:	aeb6                	fsd	fa3,344(sp)
8000411a:	4ef5                	li	t4,29
8000411c:	4efa053b          	0x4efa053b
80004120:	2d0a                	fld	fs10,128(sp)
80004122:	6b084efb          	0x6b084efb
80004126:	4f09                	li	t5,2
80004128:	d49f 4f2b 2e2c      	0x2e2c4f2bd49f
8000412e:	4f35                	li	t5,13
80004130:	4c14                	lw	a3,24(s0)
80004132:	82e34f5b          	0x82e34f5b
80004136:	4f5e                	lw	t5,212(sp)
80004138:	7e0c                	flw	fa1,56(a2)
8000413a:	4f6a                	lw	t5,152(sp)
8000413c:	d6f6                	sw	t4,108(sp)
8000413e:	2e644f6b          	0x2e644f6b
80004142:	4f6e                	lw	t5,216(sp)
80004144:	4f730137          	lui	sp,0x4f730
80004148:	0661                	addi	a2,a2,24
8000414a:	4f80                	lw	s0,24(a5)
8000414c:	4e44                	lw	s1,28(a2)
8000414e:	4f90                	lw	a2,24(a5)
80004150:	177e                	slli	a4,a4,0x3f
80004152:	4f96                	lw	t6,68(sp)
80004154:	08d9                	addi	a7,a7,22
80004156:	6eff4f97          	auipc	t6,0x6eff4
8000415a:	4f9c                	lw	a5,24(a5)
8000415c:	9f10                	0x9f10
8000415e:	4f9f 6481 4fa3      	0x4fa364814f9f
80004164:	94c6                	add	s1,s1,a7
80004166:	4fa9                	li	t6,10
80004168:	3271                	jal	80003af4 <verify_data+0xd88>
8000416a:	a3944fb7          	lui	t6,0xa3944
8000416e:	4fc1                	li	t6,16
80004170:	fda0                	fsw	fs0,120(a1)
80004172:	44314fd3          	0x44314fd3
80004176:	4fed                	li	t6,27
80004178:	b9ad                	j	80003df2 <verify_data+0x1086>
8000417a:	501d                	c.li	zero,-25
8000417c:	495f 502b d8ac      	0xd8ac502b495f
80004182:	5030                	lw	a2,96(s0)
80004184:	503866b3          	0x503866b3
80004188:	259f 503a ed35      	0xed35503a259f
8000418e:	504d                	c.li	zero,-13
80004190:	5c0d                	li	s8,-29
80004192:	505e                	0x505e
80004194:	8da5                	xor	a1,a1,s1
80004196:	505e                	0x505e
80004198:	5615                	li	a2,-27
8000419a:	5081                	li	ra,-32
8000419c:	9ad6                	add	s5,s5,s5
8000419e:	50a2                	lw	ra,40(sp)
800041a0:	5896                	lw	a7,100(sp)
800041a2:	636650a7          	0x636650a7
800041a6:	50b4                	lw	a3,96(s1)
800041a8:	fc05                	bnez	s0,800040e0 <verify_data+0x1374>
800041aa:	50c4                	lw	s1,36(s1)
800041ac:	a0ae                	fsd	fa1,64(sp)
800041ae:	50c9                	li	ra,-14
800041b0:	50dfdaef          	jal	s5,80101ebc <__global_pointer$+0xfa950>
800041b4:	67d5                	lui	a5,0x15
800041b6:	511f 6762 5120      	0x51206762511f
800041bc:	b562                	fsd	fs8,168(sp)
800041be:	5162                	lw	sp,56(sp)
800041c0:	eb98                	fsw	fa4,16(a5)
800041c2:	5185                	li	gp,-31
800041c4:	518d9d7b          	0x518d9d7b
800041c8:	9932                	add	s2,s2,a2
800041ca:	51b0                	lw	a2,96(a1)
800041cc:	a63a                	fsd	fa4,264(sp)
800041ce:	51c9                	li	gp,-14
800041d0:	3fa1                	jal	80004128 <verify_data+0x13bc>
800041d2:	51e5                	li	gp,-7
800041d4:	7c82                	flw	fs9,32(sp)
800041d6:	049e51e7          	0x49e51e7
800041da:	51fc                	lw	a5,100(a1)
800041dc:	8b7a                	mv	s6,t5
800041de:	5222                	lw	tp,40(sp)
800041e0:	5235d287          	0x5235d287
800041e4:	e641                	bnez	a2,8000426c <verify_data+0x1500>
800041e6:	5238                	lw	a4,96(a2)
800041e8:	10ed                	addi	ra,ra,-5
800041ea:	5241                	li	tp,-16
800041ec:	34f5                	jal	80003cd8 <verify_data+0xf6c>
800041ee:	5266                	lw	tp,120(sp)
800041f0:	52670823          	sb	t1,1328(a4)
800041f4:	52680fd7          	0x52680fd7
800041f8:	4906                	lw	s2,64(sp)
800041fa:	526d                	li	tp,-5
800041fc:	9a3e                	add	s4,s4,a5
800041fe:	adf35273          	csrrwi	tp,0xadf,6
80004202:	5278                	lw	a4,100(a2)
80004204:	5282f6af          	0x5282f6af
80004208:	b9a9                	j	80003e62 <verify_data+0x10f6>
8000420a:	9ede5297          	auipc	t0,0x9ede5
8000420e:	52a0                	lw	s0,96(a3)
80004210:	47ea                	lw	a5,152(sp)
80004212:	52a2                	lw	t0,40(sp)
80004214:	8c68                	0x8c68
80004216:	52ac                	lw	a1,96(a3)
80004218:	2390                	fld	fa2,0(a5)
8000421a:	52b9                	li	t0,-18
8000421c:	cb54                	sw	a3,20(a4)
8000421e:	52c6                	lw	t0,112(sp)
80004220:	52d6793b          	0x52d6793b
80004224:	52d9061b          	0x52d9061b
80004228:	52da5463          	bge	s4,a3,80004750 <verify_data+0x19e4>
8000422c:	e6d4                	fsw	fa3,12(a3)
8000422e:	52dd                	li	t0,-9
80004230:	6649                	lui	a2,0x12
80004232:	52de                	lw	t0,244(sp)
80004234:	02a1                	addi	t0,t0,8
80004236:	52e1                	li	t0,-8
80004238:	bc78                	fsd	fa4,248(s0)
8000423a:	70bb52e3          	bge	s6,a1,8000513e <input_data+0x3d2>
8000423e:	52ea                	lw	t0,184(sp)
80004240:	9892                	add	a7,a7,tp
80004242:	52f5                	li	t0,-3
80004244:	b766                	fsd	fs9,424(sp)
80004246:	52fa                	lw	t0,188(sp)
80004248:	5324eef7          	0x5324eef7
8000424c:	5328610f          	0x5328610f
80004250:	6e6c                	flw	fa1,92(a2)
80004252:	532a                	lw	t1,168(sp)
80004254:	5f7c                	lw	a5,124(a4)
80004256:	50f6533f 167d536d 	0x167d536d50f6533f
8000425e:	5370                	lw	a2,100(a4)
80004260:	537361cf          	fnmadd.d	ft3,ft6,fs7,fa0,unknown
80004264:	53807c37          	lui	s8,0x53807
80004268:	538275d3          	0x538275d3
8000426c:	8780                	0x8780
8000426e:	5390                	lw	a2,32(a5)
80004270:	099e                	slli	s3,s3,0x7
80004272:	539c                	lw	a5,32(a5)
80004274:	53a33aef          	jal	s5,800377ae <__global_pointer$+0x30242>
80004278:	da66                	sw	s9,52(sp)
8000427a:	70b553ab          	0x70b553ab
8000427e:	53ba                	lw	t2,172(sp)
80004280:	53c8cb9b          	0x53c8cb9b
80004284:	53ca3e2f          	0x53ca3e2f
80004288:	8d40                	0x8d40
8000428a:	53de                	lw	t2,244(sp)
8000428c:	53f8a88b          	0x53f8a88b
80004290:	a9d0                	fsd	fa2,144(a1)
80004292:	a88853fb          	0xa88853fb
80004296:	5431                	li	s0,-20
80004298:	ce4c                	sw	a1,28(a2)
8000429a:	5445                	li	s0,-15
8000429c:	148d                	addi	s1,s1,-29
8000429e:	544a                	lw	s0,176(sp)
800042a0:	6075                	c.lui	zero,0x1d
800042a2:	544a                	lw	s0,176(sp)
800042a4:	2416                	fld	fs0,320(sp)
800042a6:	545d                	li	s0,-9
800042a8:	0c00                	addi	s0,sp,528
800042aa:	547c                	lw	a5,108(s0)
800042ac:	e13c                	fsw	fa5,64(a0)
800042ae:	547e                	lw	s0,252(sp)
800042b0:	d742                	sw	a6,172(sp)
800042b2:	af9c54af          	0xaf9c54af
800042b6:	54ec                	lw	a1,108(s1)
800042b8:	a2b4                	fsd	fa3,64(a3)
800042ba:	54ed                	li	s1,-5
800042bc:	6adf 5506 fc8e      	0xfc8e55066adf
800042c2:	5515                	li	a0,-27
800042c4:	f601                	bnez	a2,800041cc <verify_data+0x1460>
800042c6:	5520                	lw	s0,104(a0)
800042c8:	9b08                	0x9b08
800042ca:	5548                	lw	a0,44(a0)
800042cc:	5552d8af          	0x5552d8af
800042d0:	5557c007          	flq	ft0,1365(a5) # 15555 <buflen.2941+0x15515>
800042d4:	5579cfa7          	fsq	fs7,1375(s3) # 43e4055f <buflen.2941+0x43e4051f>
800042d8:	5582c697          	auipc	a3,0x5582c
800042dc:	7b2e                	flw	fs6,232(sp)
800042de:	5595                	li	a1,-27
800042e0:	1f9c                	addi	a5,sp,1008
800042e2:	55a9                	li	a1,-22
800042e4:	e12a                	fsw	fa0,128(sp)
800042e6:	55d6                	lw	a1,116(sp)
800042e8:	4c62                	lw	s8,24(sp)
800042ea:	55f0                	lw	a2,108(a1)
800042ec:	56126e87          	0x56126e87
800042f0:	ddb0                	sw	a2,120(a1)
800042f2:	5612                	lw	a2,36(sp)
800042f4:	657f                	0x657f
800042f6:	5624                	lw	s1,104(a2)
800042f8:	35e2                	fld	fa1,56(sp)
800042fa:	5625                	li	a2,-23
800042fc:	54c2                	lw	s1,48(sp)
800042fe:	5626                	lw	a2,104(sp)
80004300:	5646a03f 564cd780 	0x564cd7805646a03f
80004308:	dc38                	sw	a4,120(s0)
8000430a:	567a                	lw	a2,188(sp)
8000430c:	5680bd3f 56834290 	0x568342905680bd3f
80004314:	17e6                	slli	a5,a5,0x39
80004316:	56a1                	li	a3,-24
80004318:	56be5ff3          	csrrwi	t6,0x56b,28
8000431c:	16b2                	slli	a3,a3,0x2c
8000431e:	56c5                	li	a3,-15
80004320:	263e                	fld	fa2,456(sp)
80004322:	56df 1c4d 56f8      	0x56f81c4d56df
80004328:	b0b9                	j	80003b76 <verify_data+0xe0a>
8000432a:	56f8                	lw	a4,108(a3)
8000432c:	3468                	fld	fa0,232(s0)
8000432e:	56fe                	lw	a3,252(sp)
80004330:	0bc1                	addi	s7,s7,16
80004332:	5700                	lw	s0,40(a4)
80004334:	4838                	lw	a4,80(s0)
80004336:	02115727          	0x2115727
8000433a:	572c                	lw	a1,104(a4)
8000433c:	3a00                	fld	fs0,48(a2)
8000433e:	5730                	lw	a2,104(a4)
80004340:	6a81                	0x6a81
80004342:	5732                	lw	a4,44(sp)
80004344:	5737b9e3          	0x5737b9e3
80004348:	08ff                	0x8ff
8000434a:	c149576b          	0xc149576b
8000434e:	6483576b          	0x6483576b
80004352:	5776                	lw	a4,124(sp)
80004354:	5511                	li	a0,-28
80004356:	c65d5787          	0xc65d5787
8000435a:	57a2                	lw	a5,40(sp)
8000435c:	b06e                	fsd	fs11,32(sp)
8000435e:	b82b57af          	0xb82b57af
80004362:	57b4                	lw	a3,104(a5)
80004364:	ceb2                	sw	a2,92(sp)
80004366:	57b6                	lw	a5,108(sp)
80004368:	973c                	0x973c
8000436a:	57c5                	li	a5,-15
8000436c:	57cebc73          	csrrc	s8,0x57c,t4
80004370:	6a2e                	flw	fs4,200(sp)
80004372:	73e657d7          	0x73e657d7
80004376:	57f4                	lw	a3,108(a5)
80004378:	2e9a                	fld	ft9,384(sp)
8000437a:	f556583b          	0xf556583b
8000437e:	b0c8583b          	0xb0c8583b
80004382:	583d                	li	a6,-17
80004384:	86a0                	0x86a0
80004386:	5864                	lw	s1,116(s0)
80004388:	9850                	0x9850
8000438a:	588e                	lw	a7,224(sp)
8000438c:	a0ea                	fsd	fs10,64(sp)
8000438e:	4ae3589b          	0x4ae3589b
80004392:	01ab58ab          	0x1ab58ab
80004396:	236f58cb          	fnmsub.d	fa7,ft10,fs6,ft4,unknown
8000439a:	58e6                	lw	a7,120(sp)
8000439c:	3434                	fld	fa3,104(s0)
8000439e:	917d58ef          	jal	a7,7ffd9cb4 <buflen.2941+0x7ffd9c74>
800043a2:	58f5                	li	a7,-3
800043a4:	592c584b          	fnmsub.s	fa6,fs8,fs2,fa1,unknown
800043a8:	62d6                	flw	ft5,84(sp)
800043aa:	ca9b592f          	0xca9b592f
800043ae:	5944                	lw	s1,52(a0)
800043b0:	8add                	andi	a3,a3,23
800043b2:	5948                	lw	a0,52(a0)
800043b4:	1fe2                	slli	t6,t6,0x38
800043b6:	5952                	lw	s2,52(sp)
800043b8:	5969bfbf 597a35f0 	0x597a35f05969bfbf
800043c0:	c412                	sw	tp,8(sp)
800043c2:	598a                	lw	s3,160(sp)
800043c4:	09c4                	addi	s1,sp,212
800043c6:	598e                	lw	s3,224(sp)
800043c8:	359a                	fld	fa1,416(sp)
800043ca:	930e598f          	0x930e598f
800043ce:	59a5                	li	s3,-23
800043d0:	d140                	sw	s0,36(a0)
800043d2:	59b4                	lw	a3,112(a1)
800043d4:	59bbba97          	auipc	s5,0x59bbb
800043d8:	ad26                	fsd	fs1,152(sp)
800043da:	59ce                	lw	s3,240(sp)
800043dc:	9a45                	andi	a2,a2,-15
800043de:	59d9                	li	s3,-10
800043e0:	0492                	slli	s1,s1,0x4
800043e2:	59ed                	li	s3,-5
800043e4:	ce14                	sw	a3,24(a2)
800043e6:	5a02                	lw	s4,32(sp)
800043e8:	5c31                	li	s8,-20
800043ea:	5a21                	li	s4,-24
800043ec:	ca46                	sw	a7,20(sp)
800043ee:	5a21                	li	s4,-24
800043f0:	7271                	lui	tp,0xffffc
800043f2:	5a32                	lw	s4,44(sp)
800043f4:	0f8e                	slli	t6,t6,0x3
800043f6:	5a42                	lw	s4,48(sp)
800043f8:	5a46b2c3          	fmadd.d	ft5,fa3,ft4,fa1,rup
800043fc:	e44c                	fsw	fa1,12(s0)
800043fe:	5a49                	li	s4,-14
80004400:	11fa                	slli	gp,gp,0x3e
80004402:	5a51                	li	s4,-12
80004404:	2220                	fld	fs0,64(a2)
80004406:	5a55                	li	s4,-11
80004408:	50ec                	lw	a1,100(s1)
8000440a:	5d345a5b          	0x5d345a5b
8000440e:	5a8a                	lw	s5,160(sp)
80004410:	8bfd                	andi	a5,a5,31
80004412:	e4a25aa3          	0xe4a25aa3
80004416:	5aa6                	lw	s5,104(sp)
80004418:	5aadf643          	fmadd.d	fa2,fs11,fa0,fa1
8000441c:	b38c                	fsd	fa1,32(a5)
8000441e:	5abc                	lw	a5,112(a3)
80004420:	7ebd                	lui	t4,0xfffef
80004422:	5ad6                	lw	s5,116(sp)
80004424:	e652                	fsw	fs4,12(sp)
80004426:	5add                	li	s5,-9
80004428:	8a1a                	mv	s4,t1
8000442a:	5aec                	lw	a1,116(a3)
8000442c:	8572                	mv	a0,t3
8000442e:	5b04                	lw	s1,48(a4)
80004430:	5b13e84b          	fnmsub.d	fa6,ft7,fa7,fa1,unknown
80004434:	5b668c23          	sb	s6,1464(a3) # d5830890 <__global_pointer$+0x55829324>
80004438:	4e8e                	lw	t4,192(sp)
8000443a:	085b5b67          	0x85b5b67
8000443e:	5b74                	lw	a3,116(a4)
80004440:	c33a                	sw	a4,132(sp)
80004442:	5b90                	lw	a2,48(a5)
80004444:	c554                	sw	a3,12(a0)
80004446:	13985ba3          	0x13985ba3
8000444a:	5bad                	li	s7,-21
8000444c:	fea1                	bnez	a3,800043a4 <verify_data+0x1638>
8000444e:	5bb1                	li	s7,-20
80004450:	5bc3d43b          	0x5bc3d43b
80004454:	5bdbb757          	0x5bdbb757
80004458:	d285                	beqz	a3,80004378 <verify_data+0x160c>
8000445a:	20625bdb          	0x20625bdb
8000445e:	5be2                	lw	s7,56(sp)
80004460:	4fe1                	li	t6,24
80004462:	5c1f f7b7 5c26      	0x5c26f7b75c1f
80004468:	ae74                	fsd	fa3,216(a2)
8000446a:	754a5c27          	0x754a5c27
8000446e:	96b35c3f e1405c4d 	0xe1405c4d96b35c3f
80004476:	5c50                	lw	a2,60(s0)
80004478:	4f7e                	lw	t5,220(sp)
8000447a:	8f185c63          	bge	a6,a7,80003572 <verify_data+0x806>
8000447e:	5c65                	li	s8,-7
80004480:	5c6b23e3          	0x5c6b23e3
80004484:	21b4                	fld	fa3,64(a1)
80004486:	5c6e                	lw	s8,248(sp)
80004488:	5c7c7ae7          	0x5c7c7ae7
8000448c:	4274                	lw	a3,68(a2)
8000448e:	5c99                	li	s9,-26
80004490:	c924                	sw	s1,80(a0)
80004492:	5ca1                	li	s9,-24
80004494:	6251                	lui	tp,0x14
80004496:	5cb4                	lw	a3,120(s1)
80004498:	7dfd                	lui	s11,0xfffff
8000449a:	5cb9                	li	s9,-18
8000449c:	ecf0                	fsw	fa2,92(s1)
8000449e:	5ce0                	lw	s0,124(s1)
800044a0:	cf1d                	beqz	a4,800044de <verify_data+0x1772>
800044a2:	e2f05ce7          	0xe2f05ce7
800044a6:	5cfd                	li	s9,-1
800044a8:	5d0e34db          	0x5d0e34db
800044ac:	cf00                	sw	s0,24(a4)
800044ae:	5d0e                	lw	s10,224(sp)
800044b0:	6bb9                	lui	s7,0xe
800044b2:	5d11                	li	s10,-28
800044b4:	5d161ea7          	0x5d161ea7
800044b8:	5d347033          	0x5d347033
800044bc:	5d39ae3b          	0x5d39ae3b
800044c0:	52b6                	lw	t0,108(sp)
800044c2:	5d51                	li	s10,-12
800044c4:	5d52b08f          	0x5d52b08f
800044c8:	acbd                	j	80004746 <verify_data+0x19da>
800044ca:	5d64                	lw	s1,124(a0)
800044cc:	791e                	flw	fs2,228(sp)
800044ce:	5d78                	lw	a4,124(a0)
800044d0:	d049                	beqz	s0,80004452 <verify_data+0x16e6>
800044d2:	861e5d7b          	0x861e5d7b
800044d6:	5cf85d83          	lhu	s11,1487(a6)
800044da:	5d8c                	lw	a1,56(a1)
800044dc:	2534                	fld	fa3,72(a0)
800044de:	5d9e                	lw	s11,228(sp)
800044e0:	af35                	j	80004c1c <verify_data+0x1eb0>
800044e2:	5dac                	lw	a1,120(a1)
800044e4:	107f                	0x107f
800044e6:	5db6                	lw	s11,108(sp)
800044e8:	6704                	flw	fs1,8(a4)
800044ea:	5de6                	lw	s11,120(sp)
800044ec:	a3b2                	fsd	fa2,448(sp)
800044ee:	5dff                	0x5dff
800044f0:	b1aa                	fsd	fa0,224(sp)
800044f2:	5e0d                	li	t3,-29
800044f4:	b1a2                	fsd	fs0,224(sp)
800044f6:	5e28                	lw	a0,120(a2)
800044f8:	1801                	addi	a6,a6,-32
800044fa:	5e3d                	li	t3,-17
800044fc:	f449                	bnez	s0,80004486 <verify_data+0x171a>
800044fe:	5e3d                	li	t3,-17
80004500:	5f29                	li	t5,-22
80004502:	5e48                	lw	a0,60(a2)
80004504:	2640                	fld	fs0,136(a2)
80004506:	5e70                	lw	a2,124(a2)
80004508:	f286                	fsw	ft1,100(sp)
8000450a:	5e79                	li	t3,-2
8000450c:	58ce                	lw	a7,240(sp)
8000450e:	5eaa                	lw	t4,168(sp)
80004510:	5eb1deab          	0x5eb1deab
80004514:	2f60                	fld	fs0,216(a4)
80004516:	5eb9                	li	t4,-18
80004518:	859f 5ecc 3d98      	0x3d985ecc859f
8000451e:	5ed1                	li	t4,-12
80004520:	babe                	fsd	fa5,368(sp)
80004522:	5ef8                	lw	a4,124(a3)
80004524:	5f000727          	0x5f000727
80004528:	fee2                	fsw	fs8,124(sp)
8000452a:	ae285f0b          	0xae285f0b
8000452e:	5f21                	li	t5,-24
80004530:	5f2d8e87          	0x5f2d8e87
80004534:	0230                	addi	a2,sp,264
80004536:	5f38                	lw	a4,120(a4)
80004538:	3635                	jal	80004064 <verify_data+0x12f8>
8000453a:	5f46                	lw	t5,112(sp)
8000453c:	5f5770ab          	0x5f5770ab
80004540:	2df2                	fld	fs11,280(sp)
80004542:	5f5c                	lw	a5,60(a4)
80004544:	6aa2                	flw	fs5,8(sp)
80004546:	5f5e                	lw	t5,244(sp)
80004548:	9731                	srai	a4,a4,0x2c
8000454a:	5f65                	li	t5,-7
8000454c:	5ea0                	lw	s0,120(a3)
8000454e:	183e5f6f          	jal	t5,800e9ed0 <__global_pointer$+0xe2964>
80004552:	5f71                	li	t5,-4
80004554:	bf85                	j	800044c4 <verify_data+0x1758>
80004556:	5f76                	lw	t5,124(sp)
80004558:	796a                	flw	fs2,184(sp)
8000455a:	5f84                	lw	s1,56(a5)
8000455c:	3495                	jal	80003fc0 <verify_data+0x1254>
8000455e:	5f89                	li	t6,-30
80004560:	5f8b586b          	0x5f8b586b
80004564:	5ed6                	lw	t4,116(sp)
80004566:	5f92                	lw	t6,36(sp)
80004568:	25c2                	fld	fa1,16(sp)
8000456a:	5fa0                	lw	s0,120(a5)
8000456c:	8e1a                	mv	t3,t1
8000456e:	5fa0                	lw	s0,120(a5)
80004570:	5faed877          	0x5faed877
80004574:	5faffcaf          	0x5faffcaf
80004578:	fdc5                	bnez	a1,80004530 <verify_data+0x17c4>
8000457a:	beb65fcb          	fnmsub.q	ft11,fa2,fa1,fs7,unknown
8000457e:	5fd0                	lw	a2,60(a5)
80004580:	7672                	flw	fa2,60(sp)
80004582:	5fd2                	lw	t6,52(sp)
80004584:	378e                	fld	fa5,224(sp)
80004586:	f9555fd3          	0xf9555fd3
8000458a:	5ff5                	li	t6,-3
8000458c:	5ffa6057          	0x5ffa6057
80004590:	e246                	fsw	fa7,4(sp)
80004592:	5ffe                	lw	t6,252(sp)
80004594:	8c4e                	mv	s8,s3
80004596:	600d                	c.lui	zero,0x3
80004598:	6f54                	flw	fa3,28(a4)
8000459a:	600e                	flw	ft0,192(sp)
8000459c:	4a40                	lw	s0,20(a2)
8000459e:	6010                	flw	fa2,0(s0)
800045a0:	3b49                	jal	80004332 <verify_data+0x15c6>
800045a2:	601e                	flw	ft0,196(sp)
800045a4:	601e79bb          	0x601e79bb
800045a8:	9910                	0x9910
800045aa:	f51e603f 804f6064 	0x804f6064f51e603f
800045b2:	6076                	flw	ft0,92(sp)
800045b4:	1c78                	addi	a4,sp,572
800045b6:	6089                	lui	ra,0x2
800045b8:	c63a                	sw	a4,12(sp)
800045ba:	6089                	lui	ra,0x2
800045bc:	d200                	sw	s0,32(a2)
800045be:	7ef86097          	auipc	ra,0x7ef86
800045c2:	540c609b          	0x540c609b
800045c6:	60b8                	flw	fa4,64(s1)
800045c8:	52a1                	li	t0,-24
800045ca:	60b9                	lui	ra,0xe
800045cc:	3d99                	jal	80004422 <verify_data+0x16b6>
800045ce:	60d6                	flw	ft1,84(sp)
800045d0:	7a9e                	flw	fs5,228(sp)
800045d2:	60ff                	0x60ff
800045d4:	3a28                	fld	fa0,112(a2)
800045d6:	407d610f          	0x407d610f
800045da:	3bea610f          	0x3bea610f
800045de:	6122                	flw	ft2,8(sp)
800045e0:	86e0                	0x86e0
800045e2:	6126                	flw	ft2,72(sp)
800045e4:	4ec4                	lw	s1,28(a3)
800045e6:	612c                	flw	fa1,64(a0)
800045e8:	6133ac8b          	0x6133ac8b
800045ec:	4569                	li	a0,26
800045ee:	613d                	addi	sp,sp,480
800045f0:	5b08                	lw	a0,48(a4)
800045f2:	6145                	addi	sp,sp,48
800045f4:	6ca9                	lui	s9,0xa
800045f6:	615d                	addi	sp,sp,432
800045f8:	a80d                	j	8000462a <verify_data+0x18be>
800045fa:	a6ab616b          	0xa6ab616b
800045fe:	6182                	flw	ft3,0(sp)
80004600:	7cc8                	flw	fa0,60(s1)
80004602:	6186                	flw	ft3,64(sp)
80004604:	8322                	mv	t1,s0
80004606:	6190                	flw	fa2,0(a1)
80004608:	f3c1                	bnez	a5,80004588 <verify_data+0x181c>
8000460a:	61ce                	flw	ft3,208(sp)
8000460c:	19ad                	addi	s3,s3,-21
8000460e:	61e4                	flw	fs1,68(a1)
80004610:	6d64                	flw	fs1,92(a0)
80004612:	61ec                	flw	fa1,68(a1)
80004614:	52ca                	lw	t0,176(sp)
80004616:	61fd                	lui	gp,0x1f
80004618:	d948                	sw	a0,52(a0)
8000461a:	6202                	flw	ft4,0(sp)
8000461c:	800e                	c.mv	zero,gp
8000461e:	b61d621b          	0xb61d621b
80004622:	6226                	flw	ft4,72(sp)
80004624:	4380                	lw	s0,0(a5)
80004626:	fe036243          	fmadd.q	ft4,ft6,ft0,ft11,unknown
8000462a:	624e                	flw	ft4,208(sp)
8000462c:	b9e0                	fsd	fs0,240(a1)
8000462e:	bb78624f          	fnmadd.d	ft4,fa6,fs7,fs7,unknown
80004632:	6266                	flw	ft4,88(sp)
80004634:	2af9                	jal	80004812 <verify_data+0x1aa6>
80004636:	6279                	lui	tp,0x1e
80004638:	628bd913          	0x628bd913
8000463c:	62a986eb          	0x62a986eb
80004640:	9932                	add	s2,s2,a2
80004642:	62bc                	flw	fa5,64(a3)
80004644:	62c3d607          	0x62c3d607
80004648:	a545                	j	80004ce8 <verify_data+0x1f7c>
8000464a:	8bab62d3          	0x8bab62d3
8000464e:	6d6f62e3          	bltu	t5,s6,80005512 <input_data+0x7a6>
80004652:	62e4                	flw	fs1,68(a3)
80004654:	f09c                	fsw	fa5,32(s1)
80004656:	e6d262fb          	0xe6d262fb
8000465a:	6320                	flw	fs0,64(a4)
8000465c:	632cf297          	auipc	t0,0x632cf
80004660:	d69d                	beqz	a3,8000458e <verify_data+0x1822>
80004662:	463a634b          	fnmsub.q	ft6,fs4,ft3,fs0,unknown
80004666:	634e                	flw	ft6,208(sp)
80004668:	f658                	fsw	fa4,44(a2)
8000466a:	635d                	lui	t1,0x17
8000466c:	c3dd                	beqz	a5,80004712 <verify_data+0x19a6>
8000466e:	6366                	flw	ft6,88(sp)
80004670:	a131                	j	80004a7c <verify_data+0x1d10>
80004672:	c12363ab          	0xc12363ab
80004676:	63bc                	flw	fa5,64(a5)
80004678:	e759                	bnez	a4,80004706 <verify_data+0x199a>
8000467a:	0cb163c7          	0xcb163c7
8000467e:	032663db          	0x32663db
80004682:	63de                	flw	ft7,212(sp)
80004684:	da45                	beqz	a2,80004634 <verify_data+0x18c8>
80004686:	036f63fb          	0x36f63fb
8000468a:	748b6413          	ori	s0,s6,1864
8000468e:	6418                	flw	fa4,8(s0)
80004690:	5eb2                	lw	t4,44(sp)
80004692:	641f 9a25 6426      	0x64269a25641f
80004698:	4216                	lw	tp,68(sp)
8000469a:	3fdd6427          	0x3fdd6427
8000469e:	f9ef643f 83b4644b 	0x83b4644bf9ef643f
800046a6:	645e                	flw	fs0,212(sp)
800046a8:	1629                	addi	a2,a2,-22
800046aa:	6460                	flw	fs0,76(s0)
800046ac:	6941                	lui	s2,0x10
800046ae:	6474                	flw	fa3,76(s0)
800046b0:	7cc8                	flw	fa0,60(s1)
800046b2:	647c                	flw	fa5,76(s0)
800046b4:	9cdc                	0x9cdc
800046b6:	6481                	0x6481
800046b8:	a0ff                	0xa0ff
800046ba:	6485                	lui	s1,0x1
800046bc:	071f 6487 d2ea      	0xd2ea6487071f
800046c2:	6495                	lui	s1,0x5
800046c4:	f0a0                	fsw	fs0,96(s1)
800046c6:	c97d649b          	0xc97d649b
800046ca:	64a6                	flw	fs1,72(sp)
800046cc:	8b6a                	mv	s6,s10
800046ce:	64ba                	flw	fs1,140(sp)
800046d0:	e9f0                	fsw	fa2,84(a1)
800046d2:	64bd                	lui	s1,0xf
800046d4:	0924                	addi	s1,sp,152
800046d6:	64d2                	flw	fs1,20(sp)
800046d8:	ef6e                	fsw	fs11,156(sp)
800046da:	64d4                	flw	fa3,12(s1)
800046dc:	938e                	add	t2,t2,gp
800046de:	650a                	flw	fa0,128(sp)
800046e0:	1121                	addi	sp,sp,-24
800046e2:	6511                	lui	a0,0x4
800046e4:	a2b8                	fsd	fa4,64(a3)
800046e6:	6530                	flw	fa2,72(a0)
800046e8:	f2a1                	bnez	a3,80004628 <verify_data+0x18bc>
800046ea:	6578                	flw	fa4,76(a0)
800046ec:	8ac2                	mv	s5,a6
800046ee:	6599                	lui	a1,0x6
800046f0:	65a60287          	0x65a60287
800046f4:	0f15                	addi	t5,t5,5
800046f6:	65ae                	flw	fa1,200(sp)
800046f8:	8f02                	jr	t5
800046fa:	0e4c65b7          	lui	a1,0xe4c6
800046fe:	65ce                	flw	fa1,208(sp)
80004700:	a371                	j	80004c8c <verify_data+0x1f20>
80004702:	ef3e65cf          	fnmadd.q	fa1,ft8,fs3,ft9,unknown
80004706:	924f65cf          	fnmadd.d	fa1,ft10,ft4,fs2,unknown
8000470a:	65dd                	lui	a1,0x17
8000470c:	eb55                	bnez	a4,800047c0 <verify_data+0x1a54>
8000470e:	d54865e7          	0xd54865e7
80004712:	65e9                	lui	a1,0x1a
80004714:	31f2                	fld	ft3,312(sp)
80004716:	65f1                	lui	a1,0x1c
80004718:	660479c3          	fmadd.q	fs3,fs0,ft0,fa2
8000471c:	c086                	sw	ra,64(sp)
8000471e:	6606                	flw	fa2,64(sp)
80004720:	66076677          	0x66076677
80004724:	77b2                	flw	fa5,44(sp)
80004726:	27536607          	0x27536607
8000472a:	436d660f          	0x436d660f
8000472e:	6610                	flw	fa2,8(a2)
80004730:	661d2f27          	fsw	ft1,1662(s10)
80004734:	8e36                	mv	t3,a3
80004736:	6621                	lui	a2,0x8
80004738:	12f4                	addi	a3,sp,364
8000473a:	662e                	flw	fa2,200(sp)
8000473c:	160e                	slli	a2,a2,0x23
8000473e:	663d                	lui	a2,0xf
80004740:	9be5                	andi	a5,a5,-7
80004742:	663e                	flw	fa2,204(sp)
80004744:	663ef68b          	0x663ef68b
80004748:	192a                	slli	s2,s2,0x2a
8000474a:	6655                	lui	a2,0x15
8000474c:	02a2                	slli	t0,t0,0x8
8000474e:	6676                	flw	fa2,92(sp)
80004750:	667e9cb3          	0x667e9cb3
80004754:	66a01657          	0x66a01657
80004758:	152e                	slli	a0,a0,0x2b
8000475a:	66b5                	lui	a3,0xd
8000475c:	ac6e                	fsd	fs11,24(sp)
8000475e:	66d9                	lui	a3,0x16
80004760:	bcfc                	fsd	fa5,248(s1)
80004762:	d44c66ef          	jal	a3,7ffcaca6 <buflen.2941+0x7ffcac66>
80004766:	66f8                	flw	fa4,76(a3)
80004768:	ca7a                	sw	t5,20(sp)
8000476a:	6722                	flw	fa4,8(sp)
8000476c:	b5d9                	j	80004632 <verify_data+0x18c6>
8000476e:	6728                	flw	fa0,72(a4)
80004770:	72c2                	flw	ft5,48(sp)
80004772:	a6b0673b          	0xa6b0673b
80004776:	673c                	flw	fa5,72(a4)
80004778:	1266                	slli	tp,tp,0x39
8000477a:	6751                	lui	a4,0x14
8000477c:	79cd                	lui	s3,0xffff3
8000477e:	675a                	flw	fa4,148(sp)
80004780:	6796bc67          	0x6796bc67
80004784:	2ace                	fld	fs5,208(sp)
80004786:	679d                	lui	a5,0x7
80004788:	67b7ceef          	jal	t4,80081602 <__global_pointer$+0x7a096>
8000478c:	2ddd                	jal	80004e82 <input_data+0x116>
8000478e:	67c2                	flw	fa5,16(sp)
80004790:	3ffd                	jal	8000478e <verify_data+0x1a22>
80004792:	67c2                	flw	fa5,16(sp)
80004794:	67d54dcb          	fnmsub.q	fs11,fa0,ft9,fa2,rmm
80004798:	6f8c                	flw	fa1,24(a5)
8000479a:	5d2467db          	0x5d2467db
8000479e:	6806                	flw	fa6,64(sp)
800047a0:	96cd                	srai	a3,a3,0x33
800047a2:	6808                	flw	fa0,16(s0)
800047a4:	680ae06b          	0x680ae06b
800047a8:	68160343          	fmadd.s	ft6,fa2,ft1,fa3,rne
800047ac:	1e9a                	slli	t4,t4,0x26
800047ae:	6819                	lui	a6,0x6
800047b0:	a664                	fsd	fs1,200(a2)
800047b2:	681f 3f29 682e      	0x682e3f29681f
800047b8:	778c                	flw	fa1,40(a5)
800047ba:	684e                	flw	fa6,208(sp)
800047bc:	e6c8                	fsw	fa0,12(a3)
800047be:	6851                	lui	a6,0x14
800047c0:	a4ba                	fsd	fa4,72(sp)
800047c2:	6855                	lui	a6,0x15
800047c4:	685d77c3          	fmadd.s	fa5,fs10,ft5,fa3
800047c8:	686ebe97          	auipc	t4,0x686eb
800047cc:	42d6                	lw	t0,84(sp)
800047ce:	6872                	flw	fa6,28(sp)
800047d0:	86aa                	mv	a3,a0
800047d2:	6876                	flw	fa6,92(sp)
800047d4:	9209                	srli	a2,a2,0x22
800047d6:	687e                	flw	fa6,220(sp)
800047d8:	6892be83          	0x6892be83
800047dc:	4cb0                	lw	a2,88(s1)
800047de:	689e                	flw	fa7,196(sp)
800047e0:	1f5a                	slli	t5,t5,0x36
800047e2:	68ba                	flw	fa7,140(sp)
800047e4:	6041                	c.lui	zero,0x10
800047e6:	68d4                	flw	fa3,20(s1)
800047e8:	68f47697          	auipc	a3,0x68f47
800047ec:	24b9                	jal	80004a3a <verify_data+0x1cce>
800047ee:	3a4f68fb          	0x3a4f68fb
800047f2:	6921                	lui	s2,0x8
800047f4:	29f1                	jal	80004cd0 <verify_data+0x1f64>
800047f6:	2dd1692b          	0x2dd1692b
800047fa:	6939                	lui	s2,0xe
800047fc:	6e7e                	flw	ft8,220(sp)
800047fe:	6940                	flw	fs0,20(a0)
80004800:	1426                	slli	s0,s0,0x29
80004802:	6958                	flw	fa4,20(a0)
80004804:	ac82                	fsd	ft0,88(sp)
80004806:	696d                	lui	s2,0x1b
80004808:	a53a                	fsd	fa4,136(sp)
8000480a:	b03a6987          	0xb03a6987
8000480e:	6998                	flw	fa4,16(a1)
80004810:	6b32                	flw	fs6,12(sp)
80004812:	699d                	lui	s3,0x7
80004814:	2da4                	fld	fs1,88(a1)
80004816:	69aa                	flw	fs3,136(sp)
80004818:	69c06c73          	csrrsi	s8,0x69c,0
8000481c:	0ac0                	addi	s0,sp,340
8000481e:	404869c7          	fmsub.s	fs3,fa6,ft4,fs0,unknown
80004822:	69c9                	lui	s3,0x12
80004824:	679c                	flw	fa5,8(a5)
80004826:	69d1                	lui	s3,0x14
80004828:	a229                	j	80004932 <verify_data+0x1bc6>
8000482a:	69d5                	lui	s3,0x15
8000482c:	a2f9                	j	800049fa <verify_data+0x1c8e>
8000482e:	69d8                	flw	fa4,20(a1)
80004830:	cf72                	sw	t3,156(sp)
80004832:	69e2                	flw	fs3,24(sp)
80004834:	bb2a                	fsd	fa0,432(sp)
80004836:	6e2669e7          	0x6e2669e7
8000483a:	6a02                	flw	fs4,0(sp)
8000483c:	7850                	flw	fa2,52(s0)
8000483e:	809e6a2b          	0x809e6a2b
80004842:	6a35                	lui	s4,0xd
80004844:	fa95                	bnez	a3,80004778 <verify_data+0x1a0c>
80004846:	6a49                	lui	s4,0x12
80004848:	cfe1                	beqz	a5,80004920 <verify_data+0x1bb4>
8000484a:	6a54                	flw	fa3,20(a2)
8000484c:	182e                	slli	a6,a6,0x2b
8000484e:	6a60                	flw	fs0,84(a2)
80004850:	9f9f 6a88 6f2a      	0x6f2a6a889f9f
80004856:	6a89                	lui	s5,0x2
80004858:	6a98a6bb          	0x6a98a6bb
8000485c:	bdbc                	fsd	fa5,120(a1)
8000485e:	6ab9                	lui	s5,0xe
80004860:	4a64                	lw	s1,84(a2)
80004862:	ec2c6adb          	0xec2c6adb
80004866:	6ae1                	lui	s5,0x18
80004868:	6a98                	flw	fa4,16(a3)
8000486a:	6aea                	flw	fs5,152(sp)
8000486c:	d36e                	sw	s11,164(sp)
8000486e:	6b25                	lui	s6,0x9
80004870:	c5fc                	sw	a5,76(a1)
80004872:	6b3d                	lui	s6,0xf
80004874:	a94d                	j	80004d26 <verify_data+0x1fba>
80004876:	6b4c                	flw	fa1,20(a4)
80004878:	6b51cb4f          	fnmadd.d	fs6,ft3,fs5,fa3,rmm
8000487c:	6b6b5947          	fmsub.d	fs2,fs6,fs6,fa3,unknown
80004880:	56e2                	lw	a3,56(sp)
80004882:	6b6d                	lui	s6,0x1b
80004884:	6522                	flw	fa0,8(sp)
80004886:	6b7a                	flw	fs6,156(sp)
80004888:	5071                	c.li	zero,-4
8000488a:	6ba6                	flw	fs7,72(sp)
8000488c:	f150                	fsw	fa2,36(a0)
8000488e:	6bb5                	lui	s7,0xd
80004890:	6bb744cb          	fnmsub.d	fs1,fa4,fs11,fa3,rmm
80004894:	845e                	mv	s0,s7
80004896:	02a06bc7          	fmsub.d	fs7,ft0,fa0,ft0,unknown
8000489a:	f0ee6bf3          	csrrsi	s7,0xf0e,28
8000489e:	6c34                	flw	fa3,88(s0)
800048a0:	6c47c04b          	0x6c47c04b
800048a4:	9a26                	add	s4,s4,s1
800048a6:	4a886c4f          	fnmadd.d	fs8,fa6,fs0,fs1,unknown
800048aa:	6c7f                	0x6c7f
800048ac:	9de8                	0x9de8
800048ae:	6c91                	lui	s9,0x4
800048b0:	cb9d                	beqz	a5,800048e6 <verify_data+0x1b7a>
800048b2:	6c92                	flw	fs9,4(sp)
800048b4:	c854                	sw	a3,20(s0)
800048b6:	6c9d                	lui	s9,0x7
800048b8:	da28                	sw	a0,112(a2)
800048ba:	6ca2                	flw	fs9,8(sp)
800048bc:	9502                	jalr	a0
800048be:	6ca9                	lui	s9,0xa
800048c0:	8e32                	mv	t3,a2
800048c2:	6cdf 2228 6ce0      	0x6ce022286cdf
800048c8:	6ce3fc13          	andi	s8,t2,1742
800048cc:	c129                	beqz	a0,8000490e <verify_data+0x1ba2>
800048ce:	a8146cef          	jal	s9,7ff4b34e <buflen.2941+0x7ff4b30e>
800048d2:	6d49                	lui	s10,0x12
800048d4:	929f 6d4a 14f7      	0x14f76d4a929f
800048da:	82826d53          	0x82826d53
800048de:	6d54                	flw	fa3,28(a0)
800048e0:	6d54fafb          	0x6d54fafb
800048e4:	7909                	lui	s2,0xfffe2
800048e6:	6d55                	lui	s10,0x15
800048e8:	8b9f 6d56 a105      	0xa1056d568b9f
800048ee:	6d5d                	lui	s10,0x17
800048f0:	fa38                	fsw	fa4,112(a2)
800048f2:	6d62                	flw	fs10,24(sp)
800048f4:	003e                	c.slli	zero,0xf
800048f6:	6d6d                	lui	s10,0x1b
800048f8:	ccb2                	sw	a2,88(sp)
800048fa:	6d6e                	flw	fs10,216(sp)
800048fc:	f5ee                	fsw	fs11,232(sp)
800048fe:	6d70                	flw	fa2,92(a0)
80004900:	ac1f 6d82 fbd7      	0xfbd76d82ac1f
80004906:	6d90                	flw	fa2,24(a1)
80004908:	6d9de20f          	0x6d9de20f
8000490c:	6db9d8c7          	0x6db9d8c7
80004910:	f7a0                	fsw	fs0,104(a5)
80004912:	6e10                	flw	fa2,24(a2)
80004914:	6e24d8eb          	0x6e24d8eb
80004918:	a2ea                	fsd	fs10,320(sp)
8000491a:	6e30                	flw	fa2,88(a2)
8000491c:	6e3d0eeb          	0x6e3d0eeb
80004920:	6e3f8a0b          	0x6e3f8a0b
80004924:	d051                	beqz	s0,800048a8 <verify_data+0x1b3c>
80004926:	0dc06e3f 89186e66 	0x89186e660dc06e3f
8000492e:	6e96                	flw	ft9,68(sp)
80004930:	8f2e                	mv	t5,a1
80004932:	6ec8                	flw	fa0,28(a3)
80004934:	1281                	addi	t0,t0,-32
80004936:	6ecd                	lui	t4,0x13
80004938:	82f5                	srli	a3,a3,0x1d
8000493a:	6ed8                	flw	fa4,28(a3)
8000493c:	fea4                	fsw	fs1,120(a3)
8000493e:	28036ee3          	bltu	t1,zero,800053da <input_data+0x66e>
80004942:	6eea                	flw	ft9,152(sp)
80004944:	3c64                	fld	fs1,248(s0)
80004946:	6f09                	lui	t5,0x2
80004948:	ec4e                	fsw	fs3,24(sp)
8000494a:	6f28                	flw	fa0,88(a4)
8000494c:	6f3a5657          	0x6f3a5657
80004950:	bc8d                	j	800043c2 <verify_data+0x1656>
80004952:	6f59                	lui	t5,0x16
80004954:	d541                	beqz	a0,800048dc <verify_data+0x1b70>
80004956:	b5926f5b          	0xb5926f5b
8000495a:	6f6a                	flw	ft10,152(sp)
8000495c:	6f793433          	0x6f793433
80004960:	0ec2                	slli	t4,t4,0x10
80004962:	1d7a6f83          	0x1d7a6f83
80004966:	6f86                	flw	ft11,64(sp)
80004968:	a3d2                	fsd	fs4,448(sp)
8000496a:	73bb6f8f          	0x73bb6f8f
8000496e:	6fb1                	lui	t6,0xc
80004970:	6fb360db          	0x6fb360db
80004974:	6fc00817          	auipc	a6,0x6fc00
80004978:	6241                	lui	tp,0x10
8000497a:	6fd5                	lui	t6,0x15
8000497c:	e188                	fsw	fa0,0(a1)
8000497e:	a4ac6ff3          	csrrsi	t6,0xa4a,24
80004982:	6ff6                	flw	ft11,92(sp)
80004984:	7008f7cb          	fnmsub.s	fa5,fa7,ft0,fa4
80004988:	e7fa                	fsw	ft10,204(sp)
8000498a:	7015                	c.lui	zero,0xfffe5
8000498c:	701755cb          	fnmsub.s	fa1,fa4,ft1,fa4,unknown
80004990:	a7de                	fsd	fs7,456(sp)
80004992:	7021                	c.lui	zero,0xfffe8
80004994:	e0a1                	bnez	s1,800049d4 <verify_data+0x1c68>
80004996:	703e                	flw	ft0,236(sp)
80004998:	8c1c                	0x8c1c
8000499a:	ed6c704b          	0xed6c704b
8000499e:	706e                	flw	ft0,248(sp)
800049a0:	70b4af37          	lui	t5,0x70b4a
800049a4:	6f0e                	flw	ft10,192(sp)
800049a6:	70b5                	lui	ra,0xfffed
800049a8:	fc69                	bnez	s0,80004982 <verify_data+0x1c16>
800049aa:	2dc170bf 482e70c4 	0x482e70c42dc170bf
800049b2:	584070cb          	fnmsub.s	ft1,ft0,ft4,fa1
800049b6:	70d6                	flw	ft1,116(sp)
800049b8:	3381                	jal	800046f8 <verify_data+0x198c>
800049ba:	7111                	addi	sp,sp,-256
800049bc:	711c785b          	0x711c785b
800049c0:	c500                	sw	s0,8(a0)
800049c2:	711f 12ec 712a      	0x712a12ec711f
800049c8:	71422f0f          	0x71422f0f
800049cc:	71490dbf 7157291f 	0x7157291f71490dbf
800049d4:	df4c                	sw	a1,60(a4)
800049d6:	7165                	addi	sp,sp,-400
800049d8:	4d82                	lw	s11,0(sp)
800049da:	74f47167          	0x74f47167
800049de:	7180                	flw	fs0,32(a1)
800049e0:	94e1                	srai	s1,s1,0x38
800049e2:	7184                	flw	fs1,32(a1)
800049e4:	88e1                	andi	s1,s1,24
800049e6:	7185                	lui	gp,0xfffe1
800049e8:	7f30                	flw	fa2,120(a4)
800049ea:	7188                	flw	fa0,32(a1)
800049ec:	420c                	lw	a1,0(a2)
800049ee:	7190                	flw	fa2,32(a1)
800049f0:	86fc                	0x86fc
800049f2:	71a0                	flw	fs0,96(a1)
800049f4:	9e52                	add	t3,t3,s4
800049f6:	71b6                	flw	ft3,108(sp)
800049f8:	328d                	jal	8000435a <verify_data+0x15ee>
800049fa:	6c2a71bb          	0x6c2a71bb
800049fe:	364471d3          	0x364471d3
80004a02:	ceae71e7          	0xceae71e7
80004a06:	887a71f7          	0x887a71f7
80004a0a:	720d                	lui	tp,0xfffe3
80004a0c:	ee24                	fsw	fs1,88(a2)
80004a0e:	720e                	flw	ft4,224(sp)
80004a10:	32b5                	jal	8000437c <verify_data+0x1610>
80004a12:	7214                	flw	fa3,32(a2)
80004a14:	7220fd73          	csrrci	s10,0x722,1
80004a18:	adc9                	j	800050ea <input_data+0x37e>
80004a1a:	7221                	lui	tp,0xfffe8
80004a1c:	3950                	fld	fa2,176(a0)
80004a1e:	06f2722b          	0x6f2722b
80004a22:	723d                	lui	tp,0xfffef
80004a24:	c58d                	beqz	a1,80004a4e <verify_data+0x1ce2>
80004a26:	a9257257          	0xa9257257
80004a2a:	1f647273          	csrrci	tp,0x1f6,8
80004a2e:	5fea72b7          	lui	t0,0x5fea7
80004a32:	496172d7          	0x496172d7
80004a36:	72e1                	lui	t0,0xffff8
80004a38:	ac02                	fsd	ft0,24(sp)
80004a3a:	58a272ef          	jal	t0,8002bfc4 <__global_pointer$+0x24a58>
80004a3e:	90f072f3          	csrrci	t0,0x90f,0
80004a42:	e6287313          	andi	t1,a6,-414
80004a46:	7316                	flw	ft6,100(sp)
80004a48:	0655                	addi	a2,a2,21
80004a4a:	731d                	lui	t1,0xfffe7
80004a4c:	4038                	lw	a4,64(s0)
80004a4e:	7320                	flw	fs0,96(a4)
80004a50:	a425                	j	80004c78 <verify_data+0x1f0c>
80004a52:	7329                	lui	t1,0xfffea
80004a54:	5cd4                	lw	a3,60(s1)
80004a56:	53ad733f e6707345 	0xe670734553ad733f
80004a5e:	7359                	lui	t1,0xffff6
80004a60:	736f35b7          	lui	a1,0x736f3
80004a64:	73877afb          	0x73877afb
80004a68:	739d378b          	0x739d378b
80004a6c:	eeb2                	fsw	fa2,92(sp)
80004a6e:	73c1                	lui	t2,0xffff0
80004a70:	ee10                	fsw	fa2,24(a2)
80004a72:	73d1                	lui	t2,0xffff4
80004a74:	73d9c2c7          	fmsub.d	ft5,fs3,ft9,fa4,rmm
80004a78:	73e9750b          	0x73e9750b
80004a7c:	0760                	addi	s0,sp,908
80004a7e:	73f0                	flw	fa2,100(a5)
80004a80:	aae2                	fsd	fs8,336(sp)
80004a82:	73fd                	lui	t2,0xfffff
80004a84:	fa75                	bnez	a2,80004a78 <verify_data+0x1d0c>
80004a86:	741d                	lui	s0,0xfffe7
80004a88:	1086                	slli	ra,ra,0x21
80004a8a:	7439                	lui	s0,0xfffee
80004a8c:	8909                	andi	a0,a0,2
80004a8e:	743c                	flw	fa5,104(s0)
80004a90:	744d6397          	auipc	t2,0x744d6
80004a94:	dd6a                	sw	s10,184(sp)
80004a96:	b729745b          	0xb729745b
80004a9a:	745e                	flw	fs0,244(sp)
80004a9c:	7465                	lui	s0,0xffff9
80004a9e:	7465                	lui	s0,0xffff9
80004aa0:	4bc0                	lw	s0,20(a5)
80004aa2:	7398746f          	jal	s0,8008c9da <__global_pointer$+0x8546e>
80004aa6:	7476                	flw	fs0,124(sp)
80004aa8:	748d9613          	0x748d9613
80004aac:	8ffa                	mv	t6,t5
80004aae:	74b0                	flw	fa2,104(s1)
80004ab0:	d7c8                	sw	a0,44(a5)
80004ab2:	74b2                	flw	fs1,44(sp)
80004ab4:	74bac3d7          	0x74bac3d7
80004ab8:	5bd8                	lw	a4,52(a5)
80004aba:	6dec74c7          	0x6dec74c7
80004abe:	74c8                	flw	fa0,44(s1)
80004ac0:	f214                	fsw	fa3,32(a2)
80004ac2:	5c8374eb          	0x5c8374eb
80004ac6:	74ec                	flw	fa1,108(s1)
80004ac8:	43cd                	li	t2,19
80004aca:	74fc                	flw	fa5,108(s1)
80004acc:	d010                	sw	a2,32(s0)
80004ace:	7501                	lui	a0,0xfffe0
80004ad0:	ff5d                	bnez	a4,80004a8e <verify_data+0x1d22>
80004ad2:	7524                	flw	fs1,104(a0)
80004ad4:	91ec                	0x91ec
80004ad6:	752c                	flw	fa1,104(a0)
80004ad8:	cea2                	sw	s0,92(sp)
80004ada:	7548                	flw	fa0,44(a0)
80004adc:	7556939b          	0x7556939b
80004ae0:	ce81                	beqz	a3,80004af8 <verify_data+0x1d8c>
80004ae2:	7556                	flw	fa0,116(sp)
80004ae4:	ae6e                	fsd	fs11,280(sp)
80004ae6:	fa5f7567          	0xfa5f7567
80004aea:	76de7577          	0x76de7577
80004aee:	7582                	flw	fa1,32(sp)
80004af0:	10d0                	addi	a2,sp,100
80004af2:	7585                	lui	a1,0xfffe1
80004af4:	d4b4                	sw	a3,104(s1)
80004af6:	803b75e3          	bgeu	s6,gp,80004300 <verify_data+0x1594>
80004afa:	7612                	flw	fa2,36(sp)
80004afc:	01e6                	slli	gp,gp,0x19
80004afe:	f891761b          	0xf891761b
80004b02:	a0507637          	lui	a2,0xa0507
80004b06:	c41b7643          	0xc41b7643
80004b0a:	5c327643          	0x5c327643
80004b0e:	765e                	flw	fa2,244(sp)
80004b10:	039c                	addi	a5,sp,448
80004b12:	766e                	flw	fa2,248(sp)
80004b14:	66c4                	flw	fs1,12(a3)
80004b16:	7691                	lui	a3,0xfffe4
80004b18:	76c9de3b          	0x76c9de3b
80004b1c:	76e02b87          	flw	fs7,1902(zero) # 76e <buflen.2941+0x72e>
80004b20:	770d9d97          	auipc	s11,0x770d9
80004b24:	b4d1                	j	800045e8 <verify_data+0x187c>
80004b26:	7745                	lui	a4,0xffff1
80004b28:	8a60                	0x8a60
80004b2a:	7761                	lui	a4,0xffff8
80004b2c:	c005                	beqz	s0,80004b4c <verify_data+0x1de0>
80004b2e:	777c                	flw	fa5,108(a4)
80004b30:	5dbc                	lw	a5,120(a1)
80004b32:	777e                	flw	fa4,252(sp)
80004b34:	3159                	jal	800047ba <verify_data+0x1a4e>
80004b36:	7782                	flw	fa5,32(sp)
80004b38:	d711                	beqz	a4,80004a44 <verify_data+0x1cd8>
80004b3a:	56c3778b          	0x56c3778b
80004b3e:	778e                	flw	fa5,224(sp)
80004b40:	0736                	slli	a4,a4,0xd
80004b42:	7796                	flw	fa5,100(sp)
80004b44:	779e33eb          	0x779e33eb
80004b48:	a4f9                	j	80004e16 <input_data+0xaa>
80004b4a:	77c2                	flw	fa5,48(sp)
80004b4c:	8b1a                	mv	s6,t1
80004b4e:	77d6                	flw	fa5,116(sp)
80004b50:	0db6                	slli	s11,s11,0xd
80004b52:	77ea                	flw	fa5,184(sp)
80004b54:	96b1                	srai	a3,a3,0x2c
80004b56:	780c                	flw	fa1,48(s0)
80004b58:	2c8c                	fld	fa1,24(s1)
80004b5a:	780d                	lui	a6,0xfffe3
80004b5c:	78276307          	0x78276307
80004b60:	3012                	fld	ft0,288(sp)
80004b62:	782c                	flw	fa1,112(s0)
80004b64:	d041                	beqz	s0,80004ae4 <verify_data+0x1d78>
80004b66:	7830                	flw	fa2,112(s0)
80004b68:	783be667          	0x783be667
80004b6c:	5ebc                	lw	a5,120(a3)
80004b6e:	784d                	lui	a6,0xffff3
80004b70:	b865                	j	80004428 <verify_data+0x16bc>
80004b72:	7889                	lui	a7,0xfffe2
80004b74:	1f55                	addi	t5,t5,-11
80004b76:	7894                	flw	fa3,48(s1)
80004b78:	23fa                	fld	ft7,408(sp)
80004b7a:	789c                	flw	fa5,48(s1)
80004b7c:	d08a                	sw	sp,96(sp)
80004b7e:	78b0                	flw	fa2,112(s1)
80004b80:	5dae                	lw	s11,232(sp)
80004b82:	78d8                	flw	fa4,52(s1)
80004b84:	fd24                	fsw	fs1,120(a0)
80004b86:	78dd                	lui	a7,0xffff7
80004b88:	35aa                	fld	fa1,168(sp)
80004b8a:	78de                	flw	fa7,244(sp)
80004b8c:	7171                	addi	sp,sp,-176
80004b8e:	78df 9a07 78e2      	0x78e29a0778df
80004b94:	78f220af          	0x78f220af
80004b98:	f786                	fsw	ft1,236(sp)
80004b9a:	78fd                	lui	a7,0xfffff
80004b9c:	2c44                	fld	fs1,152(s0)
80004b9e:	792d                	lui	s2,0xfffeb
80004ba0:	c459                	beqz	s0,80004c2e <verify_data+0x1ec2>
80004ba2:	7939                	lui	s2,0xfffee
80004ba4:	1798                	addi	a4,sp,992
80004ba6:	7948                	flw	fa0,52(a0)
80004ba8:	d530                	sw	a2,104(a0)
80004baa:	574d795b          	0x574d795b
80004bae:	7966                	flw	fs2,120(sp)
80004bb0:	ee36                	fsw	fa3,28(sp)
80004bb2:	796c                	flw	fa1,116(a0)
80004bb4:	89e9                	andi	a1,a1,26
80004bb6:	de277987          	0xde277987
80004bba:	7988                	flw	fa0,48(a1)
80004bbc:	79b5933b          	0x79b5933b
80004bc0:	79c39977          	0x79c39977
80004bc4:	35d0                	fld	fa2,168(a1)
80004bc6:	79d5                	lui	s3,0xffff5
80004bc8:	79ea714f          	fnmadd.s	ft2,fs4,ft10,fa5
80004bcc:	c122                	sw	s0,128(sp)
80004bce:	79f0                	flw	fa2,116(a1)
80004bd0:	135a                	slli	t1,t1,0x36
80004bd2:	79ff                	0x79ff
80004bd4:	d7ff                	0xd7ff
80004bd6:	7a02                	flw	fs4,32(sp)
80004bd8:	7a0e7c57          	0x7a0e7c57
80004bdc:	2399                	jal	80005122 <input_data+0x3b6>
80004bde:	7a15                	lui	s4,0xfffe5
80004be0:	8d0d                	sub	a0,a0,a1
80004be2:	7a1a                	flw	fs4,164(sp)
80004be4:	ec61                	bnez	s0,80004cbc <verify_data+0x1f50>
80004be6:	f0f97a2b          	0xf0f97a2b
80004bea:	0e127a53          	fsub.q	fs4,ft4,ft1
80004bee:	7a54                	flw	fa3,52(a2)
80004bf0:	7a54488b          	0x7a54488b
80004bf4:	039a                	slli	t2,t2,0x6
80004bf6:	7a6c                	flw	fa1,116(a2)
80004bf8:	cbd4                	sw	a3,20(a5)
80004bfa:	7a70                	flw	fa2,116(a2)
80004bfc:	c442                	sw	a6,8(sp)
80004bfe:	7a88                	flw	fa0,48(a3)
80004c00:	e546                	fsw	fa7,136(sp)
80004c02:	939c7ad7          	0x939c7ad7
80004c06:	7ada                	flw	fs5,180(sp)
80004c08:	7afd1cd3          	0x7afd1cd3
80004c0c:	5c90                	lw	a2,56(s1)
80004c0e:	7b08                	flw	fa0,48(a4)
80004c10:	d916                	sw	t0,176(sp)
80004c12:	7b0a                	flw	fs6,160(sp)
80004c14:	7b2b5f8b          	0x7b2b5f8b
80004c18:	de31                	beqz	a2,80004b74 <verify_data+0x1e08>
80004c1a:	7b31                	lui	s6,0xfffec
80004c1c:	7b35733f 7b3b8ae9 	0x7b3b8ae97b35733f
80004c24:	69d2                	flw	fs3,20(sp)
80004c26:	7b48                	flw	fa0,52(a4)
80004c28:	84c1                	srai	s1,s1,0x10
80004c2a:	7b4e                	flw	fs6,240(sp)
80004c2c:	26e9                	jal	80004ff6 <input_data+0x28a>
80004c2e:	7b55                	lui	s6,0xffff5
80004c30:	d215                	beqz	a2,80004b54 <verify_data+0x1de8>
80004c32:	7b68                	flw	fa0,116(a4)
80004c34:	7b86eff3          	csrrsi	t6,0x7b8,13
80004c38:	d676                	sw	t4,44(sp)
80004c3a:	7b96                	flw	fs7,100(sp)
80004c3c:	8d3a                	mv	s10,a4
80004c3e:	678e7bab          	0x678e7bab
80004c42:	7bac                	flw	fa1,112(a5)
80004c44:	7bc697fb          	0x7bc697fb
80004c48:	b108                	fsd	fa0,32(a0)
80004c4a:	7bd6                	flw	fs7,116(sp)
80004c4c:	7be3d2d7          	0x7be3d2d7
80004c50:	8a2c                	0x8a2c
80004c52:	7bf2                	flw	fs7,60(sp)
80004c54:	80f5                	srli	s1,s1,0x1d
80004c56:	7c05                	lui	s8,0xfffe1
80004c58:	da01                	beqz	a2,80004b68 <verify_data+0x1dfc>
80004c5a:	7c11                	lui	s8,0xfffe4
80004c5c:	67a4                	flw	fs1,72(a5)
80004c5e:	7c24                	flw	fs1,120(s0)
80004c60:	7c45df3b          	0x7c45df3b
80004c64:	8234                	0x8234
80004c66:	2dab7c4b          	0x2dab7c4b
80004c6a:	27d67c6f          	jal	s8,8006c6e6 <__global_pointer$+0x6517a>
80004c6e:	7c7d                	lui	s8,0xfffff
80004c70:	5be8                	lw	a0,116(a5)
80004c72:	7c80                	flw	fs0,56(s1)
80004c74:	ee66                	fsw	fs9,28(sp)
80004c76:	7c82                	flw	fs9,32(sp)
80004c78:	7c9296e3          	bne	t0,s1,80005c44 <input_data+0xed8>
80004c7c:	7c93425b          	0x7c93425b
80004c80:	29ad                	jal	800050fa <input_data+0x38e>
80004c82:	91207c9b          	0x91207c9b
80004c86:	4ee17c9b          	0x4ee17c9b
80004c8a:	7c9d                	lui	s9,0xfffe7
80004c8c:	ae2c                	fsd	fa1,88(a2)
80004c8e:	da267cab          	0xda267cab
80004c92:	35837cc7          	0x35837cc7
80004c96:	7cd1                	lui	s9,0xffff4
80004c98:	5531                	li	a0,-20
80004c9a:	7cd2                	flw	fs9,52(sp)
80004c9c:	ed64                	fsw	fs1,92(a0)
80004c9e:	7cd8                	flw	fa4,60(s1)
80004ca0:	172d                	addi	a4,a4,-21
80004ca2:	7cdd                	lui	s9,0xffff7
80004ca4:	8ed0                	0x8ed0
80004ca6:	7cfe                	flw	fs9,252(sp)
80004ca8:	7d199933          	0x7d199933
80004cac:	0d94                	addi	a3,sp,720
80004cae:	d9767d33          	0xd9767d33
80004cb2:	7d5c                	flw	fa5,60(a0)
80004cb4:	a826                	fsd	fs1,16(sp)
80004cb6:	7d7c                	flw	fa5,124(a0)
80004cb8:	7dc1                	lui	s11,0xffff0
80004cba:	7d81                	lui	s11,0xfffe0
80004cbc:	b7c8                	fsd	fa0,168(a5)
80004cbe:	7d82                	flw	fs11,32(sp)
80004cc0:	2f96                	fld	ft11,320(sp)
80004cc2:	7d84                	flw	fs1,56(a1)
80004cc4:	3b66                	fld	fs6,120(sp)
80004cc6:	7dac                	flw	fa1,120(a1)
80004cc8:	97d6                	add	a5,a5,s5
80004cca:	7db5                	lui	s11,0xfffed
80004ccc:	7dbce1f7          	0x7dbce1f7
80004cd0:	c751                	beqz	a4,80004d5c <verify_data+0x1ff0>
80004cd2:	7dc1                	lui	s11,0xffff0
80004cd4:	7558                	flw	fa4,44(a0)
80004cd6:	7df8                	flw	fa4,124(a1)
80004cd8:	7e0a0b8f          	0x7e0a0b8f
80004cdc:	7e1723f7          	0x7e1723f7
80004ce0:	287c                	fld	fa5,208(s0)
80004ce2:	48c77e27          	0x48c77e27
80004ce6:	7e3c                	flw	fa5,120(a2)
80004ce8:	3888                	fld	fa0,48(s1)
80004cea:	7e41                	lui	t3,0xffff0
80004cec:	b8ee                	fsd	fs11,112(sp)
80004cee:	7e44                	flw	fs1,60(a2)
80004cf0:	69c4                	flw	fs1,20(a1)
80004cf2:	7e4a                	flw	ft8,176(sp)
80004cf4:	a6bd                	j	80005062 <input_data+0x2f6>
80004cf6:	7e4a                	flw	ft8,176(sp)
80004cf8:	de88                	sw	a0,56(a3)
80004cfa:	282b7e53          	0x282b7e53
80004cfe:	7e7f                	0x7e7f
80004d00:	2a5f 7e88 3314      	0x33147e882a5f
80004d06:	7e90                	flw	fa2,56(a3)
80004d08:	1b69                	addi	s6,s6,-6
80004d0a:	7ea5                	lui	t4,0xfffe9
80004d0c:	8eb9                	xor	a3,a3,a4
80004d0e:	a1f87eb7          	lui	t4,0xa1f87
80004d12:	7eb8                	flw	fa4,120(a3)
80004d14:	8b3e                	mv	s6,a5
80004d16:	7ec6                	flw	ft9,112(sp)
80004d18:	7ec6e397          	auipc	t2,0x7ec6e
80004d1c:	e55e                	fsw	fs7,136(sp)
80004d1e:	50687ed7          	0x50687ed7
80004d22:	cc317ee3          	bgeu	sp,gp,800049fe <verify_data+0x1c92>
80004d26:	7eed                	lui	t4,0xffffb
80004d28:	2954                	fld	fa3,144(a0)
80004d2a:	7ef4                	flw	fa3,124(a3)
80004d2c:	7ef912b7          	lui	t0,0x7ef91
80004d30:	a5cd                	j	80005412 <input_data+0x6a6>
80004d32:	7f02                	flw	ft10,32(sp)
80004d34:	1831                	addi	a6,a6,-20
80004d36:	7f10                	flw	fa2,56(a4)
80004d38:	a605                	j	80005058 <input_data+0x2ec>
80004d3a:	7f10                	flw	fa2,56(a4)
80004d3c:	0434                	addi	a3,sp,520
80004d3e:	7f24                	flw	fs1,120(a4)
80004d40:	c95e                	sw	s7,144(sp)
80004d42:	731f7f4b          	fnmsub.d	ft10,ft10,fa7,fa4
80004d46:	7f8d                	lui	t6,0xfffe3
80004d48:	3385                	jal	80004aa8 <verify_data+0x1d3c>
80004d4a:	58997f8f          	0x58997f8f
80004d4e:	7f99                	lui	t6,0xfffe6
80004d50:	1715                	addi	a4,a4,-27
80004d52:	7fa6                	flw	ft11,104(sp)
80004d54:	c8f2                	sw	t3,80(sp)
80004d56:	7fb1                	lui	t6,0xfffec
80004d58:	8976                	mv	s2,t4
80004d5a:	7fc0                	flw	fs0,60(a5)
80004d5c:	d2d0                	sw	a2,36(a3)
80004d5e:	7fc0                	flw	fs0,60(a5)
80004d60:	5d7f                	0x5d7f
80004d62:	7fca                	flw	ft11,176(sp)
80004d64:	3900                	fld	fs0,48(a0)
80004d66:	4e467fdb          	0x4e467fdb
80004d6a:	7fe8                	flw	fa0,124(a5)

80004d6c <input_data>:
80004d6c:	24a4                	fld	fs1,72(s1)
80004d6e:	0554                	addi	a3,sp,644
80004d70:	cef4                	sw	a3,92(a3)
80004d72:	3a2c                	fld	fa1,112(a2)
80004d74:	4a64                	lw	s1,84(a2)
80004d76:	97196adb          	0x97196adb
80004d7a:	2b01                	jal	8000528a <input_data+0x51e>
80004d7c:	f4ee                	fsw	fs11,104(sp)
80004d7e:	4861                	li	a6,24
80004d80:	0039e5ef          	jal	a1,800a3582 <__global_pointer$+0x9c016>
80004d84:	eeec                	fsw	fa1,92(a3)
80004d86:	1802                	slli	a6,a6,0x20
80004d88:	8b3e                	mv	s6,a5
80004d8a:	7ec6                	flw	ft9,112(sp)
80004d8c:	4a40                	lw	s0,20(a2)
80004d8e:	6010                	flw	fa2,0(s0)
80004d90:	0df8                	addi	a4,sp,732
80004d92:	2ee2                	fld	ft9,24(sp)
80004d94:	6b72                	flw	fs6,28(sp)
80004d96:	2cf4                	fld	fa3,216(s1)
80004d98:	49635f53          	0x49635f53
80004d9c:	8979                	andi	a0,a0,30
80004d9e:	9b6810f7          	0x9b6810f7
80004da2:	0836                	slli	a6,a6,0xd
80004da4:	79b5933b          	0x79b5933b
80004da8:	db86                	sw	ra,244(sp)
80004daa:	ca5913a7          	0xca5913a7
80004dae:	4ad5                	li	s5,21
80004db0:	28d5                	jal	80004ea4 <input_data+0x138>
80004db2:	1bb9                	addi	s7,s7,-18
80004db4:	72c2                	flw	ft5,48(sp)
80004db6:	04bd673b          	0x4bd673b
80004dba:	9f1011fb          	0x9f1011fb
80004dbe:	4f9f 88d5 1afe      	0x1afe88d54f9f
80004dc4:	8b4c                	0x8b4c
80004dc6:	d92d00d7          	0xd92d00d7
80004dca:	4961                	li	s2,24
80004dcc:	8a60                	0x8a60
80004dce:	7761                	lui	a4,0xffff8
80004dd0:	d1e1                	beqz	a1,80004d90 <input_data+0x24>
80004dd2:	ee242b8f          	0xee242b8f
80004dd6:	720e                	flw	ft4,224(sp)
80004dd8:	040c                	addi	a1,sp,512
80004dda:	4c04                	lw	s1,24(s0)
80004ddc:	6e71                	lui	t3,0x1c
80004dde:	324a                	fld	ft4,176(sp)
80004de0:	0655                	addi	a2,a2,21
80004de2:	731d                	lui	t1,0xfffe7
80004de4:	917d                	srli	a0,a0,0x3f
80004de6:	58f5                	li	a7,-3
80004de8:	da5f 1d42 de31      	0xde311d42da5f
80004dee:	7b31                	lui	s6,0xfffec
80004df0:	fa95                	bnez	a3,80004d24 <verify_data+0x1fb8>
80004df2:	018a                	slli	gp,gp,0x2
80004df4:	d8e0                	sw	s0,116(s1)
80004df6:	12ec0e33          	0x12ec0e33
80004dfa:	712a                	flw	ft2,168(sp)
80004dfc:	db66                	sw	s9,180(sp)
80004dfe:	0ef1                	addi	t4,t4,28
80004e00:	3b49                	jal	80004b92 <verify_data+0x1e26>
80004e02:	601e                	flw	ft0,196(sp)
80004e04:	2601eb4f          	fnmadd.q	fs6,ft3,ft0,ft4,unknown
80004e08:	cb54                	sw	a3,20(a4)
80004e0a:	52c6                	lw	t0,112(sp)
80004e0c:	2b51                	jal	800053a0 <input_data+0x634>
80004e0e:	369a                	fld	fa3,416(sp)
80004e10:	d5c8                	sw	a0,44(a1)
80004e12:	401e                	0x401e
80004e14:	10f8                	addi	a4,sp,108
80004e16:	2844                	fld	fs1,144(s0)
80004e18:	8c39                	xor	s0,s0,a4
80004e1a:	37e8                	fld	fa0,232(a5)
80004e1c:	0c00                	addi	s0,sp,528
80004e1e:	547c                	lw	a5,108(s0)
80004e20:	0492                	slli	s1,s1,0x4
80004e22:	59ed                	li	s3,-5
80004e24:	632cf297          	auipc	t0,0x632cf
80004e28:	1e9a                	slli	t4,t4,0x26
80004e2a:	6819                	lui	a6,0x6
80004e2c:	b431                	j	80004838 <verify_data+0x1acc>
80004e2e:	e1f728ef          	jal	a7,7ff77c4c <buflen.2941+0x7ff77c0c>
80004e32:	7dbc                	flw	fa5,120(a1)
80004e34:	3468                	fld	fa0,232(s0)
80004e36:	56fe                	lw	a3,252(sp)
80004e38:	2441                	jal	800050b8 <input_data+0x34c>
80004e3a:	a7de1353          	flt.q	t1,ft8,ft9
80004e3e:	7021                	c.lui	zero,0xfffe8
80004e40:	62d6                	flw	ft5,84(sp)
80004e42:	86c8592f          	0x86c8592f
80004e46:	304d                	jal	800046e8 <verify_data+0x197c>
80004e48:	8551                	srai	a0,a0,0x14
80004e4a:	484c                	lw	a1,20(s0)
80004e4c:	8b6a                	mv	s6,s10
80004e4e:	3ccc                	fld	fa1,184(s1)
80004e50:	fb81                	bnez	a5,80004d60 <verify_data+0x1ff4>
80004e52:	22e0                	fld	fs0,192(a3)
80004e54:	783be667          	0x783be667
80004e58:	2128e503          	0x2128e503
80004e5c:	bf66                	fsd	fs9,440(sp)
80004e5e:	4524                	lw	s1,72(a0)
80004e60:	52ea70bb          	0x52ea70bb
80004e64:	662c                	flw	fa1,72(a2)
80004e66:	48ee                	lw	a7,216(sp)
80004e68:	6f6a                	flw	ft10,152(sp)
80004e6a:	4139                	li	sp,14
80004e6c:	af00                	fsd	fs0,24(a4)
80004e6e:	1a05                	addi	s4,s4,-31
80004e70:	0b5676e3          	bgeu	a2,s5,8000571c <input_data+0x9b0>
80004e74:	7ca6                	flw	fs9,104(sp)
80004e76:	727123f3          	csrrs	t2,0x727,sp
80004e7a:	5a32                	lw	s4,44(sp)
80004e7c:	5b08                	lw	a0,48(a4)
80004e7e:	6145                	addi	sp,sp,48
80004e80:	e12a                	fsw	fa0,128(sp)
80004e82:	55d6                	lw	a1,116(sp)
80004e84:	6f29                	lui	t5,0xa
80004e86:	4db5                	li	s11,13
80004e88:	301453e7          	0x301453e7
80004e8c:	4ba0                	lw	s0,80(a5)
80004e8e:	4191                	li	gp,4
80004e90:	42ff                	0x42ff
80004e92:	46ae                	lw	a3,200(sp)
80004e94:	148d                	addi	s1,s1,-29
80004e96:	544a                	lw	s0,176(sp)
80004e98:	96b1                	srai	a3,a3,0x2c
80004e9a:	780c                	flw	fa1,48(s0)
80004e9c:	b280                	fsd	fs0,32(a3)
80004e9e:	1900                	addi	s0,sp,176
80004ea0:	058c                	addi	a1,sp,704
80004ea2:	c97f4bef          	jal	s7,7fff9b38 <buflen.2941+0x7fff9af8>
80004ea6:	0a79                	addi	s4,s4,30
80004ea8:	c11e                	sw	t2,128(sp)
80004eaa:	48ec                	lw	a1,84(s1)
80004eac:	27e4                	fld	fs1,200(a5)
80004eae:	223a                	fld	ft4,392(sp)
80004eb0:	135a                	slli	t1,t1,0x36
80004eb2:	79ff                	0x79ff
80004eb4:	1082                	slli	ra,ra,0x20
80004eb6:	16571d5b          	0x16571d5b
80004eba:	66a0                	flw	fs0,72(a3)
80004ebc:	0c12                	slli	s8,s8,0x4
80004ebe:	2b48                	fld	fa0,144(a4)
80004ec0:	5c10                	lw	a2,56(s0)
80004ec2:	4adf f786 78fd      	0x78fdf7864adf
80004ec8:	34f5                	jal	800049b4 <verify_data+0x1c48>
80004eca:	5266                	lw	tp,120(sp)
80004ecc:	739d378b          	0x739d378b
80004ed0:	9259                	srli	a2,a2,0x36
80004ed2:	2f28                	fld	fa0,88(a4)
80004ed4:	1ef9fd23          	0x1ef9fd23
80004ed8:	ccad                	beqz	s1,80004f52 <input_data+0x1e6>
80004eda:	43cd3ea7          	fsd	ft8,1085(s10) # 1b43d <buflen.2941+0x1b3fd>
80004ede:	74fc                	flw	fa5,108(s1)
80004ee0:	2a22a5e3          	0x2a22a5e3
80004ee4:	cf72                	sw	t3,156(sp)
80004ee6:	69e2                	flw	fs3,24(sp)
80004ee8:	281bbd27          	fsd	ft1,666(s7) # d29a <buflen.2941+0xd25a>
80004eec:	778e56c3          	fmadd.q	fa3,ft8,fs8,fa4,unknown
80004ef0:	4bf29b83          	lh	s7,1215(t0) # e32d42e3 <__global_pointer$+0x632ccd77>
80004ef4:	de88                	sw	a0,56(a3)
80004ef6:	0fec7e53          	fsub.q	ft8,fs8,ft10
80004efa:	31c6                	fld	ft3,112(sp)
80004efc:	191afacb          	fnmsub.s	fs5,fs5,fa7,ft3
80004f00:	8575                	srai	a0,a0,0x1d
80004f02:	45b2                	lw	a1,12(sp)
80004f04:	5c90                	lw	a2,56(s1)
80004f06:	7b08                	flw	fa0,48(a4)
80004f08:	5f7c                	lw	a5,124(a4)
80004f0a:	2d61533f 7dc148a1 	0x7dc148a12d61533f
80004f12:	7d81                	lui	s11,0xfffe0
80004f14:	e584                	fsw	fs1,8(a1)
80004f16:	2cf4                	fld	fa3,216(s1)
80004f18:	5d7f                	0x5d7f
80004f1a:	7fca                	flw	ft11,176(sp)
80004f1c:	6e6c                	flw	fa1,92(a2)
80004f1e:	532a                	lw	t1,168(sp)
80004f20:	a4ba                	fsd	fa4,72(sp)
80004f22:	6855                	lui	a6,0x15
80004f24:	a888                	fsd	fa0,16(s1)
80004f26:	5431                	li	s0,-20
80004f28:	4a15                	li	s4,5
80004f2a:	0a26                	slli	s4,s4,0x9
80004f2c:	3a26                	fld	fs4,104(sp)
80004f2e:	45a11733          	0x45a11733
80004f32:	1ab8                	addi	a4,sp,376
80004f34:	0e578ce3          	beq	a5,t0,8000582c <input_data+0xac0>
80004f38:	4e46                	lw	t3,80(sp)
80004f3a:	7fe8                	flw	fa0,124(a5)
80004f3c:	f7a0                	fsw	fs0,104(a5)
80004f3e:	6e10                	flw	fa2,24(a2)
80004f40:	6366                	flw	ft6,88(sp)
80004f42:	50b4                	lw	a3,96(s1)
80004f44:	08606c9b          	0x8606c9b
80004f48:	cb9d                	beqz	a5,80004f7e <input_data+0x212>
80004f4a:	6c92                	flw	fs9,4(sp)
80004f4c:	05f9                	addi	a1,a1,30
80004f4e:	24f4                	fld	fa3,200(s1)
80004f50:	0f8e                	slli	t6,t6,0x3
80004f52:	5a42                	lw	s4,48(sp)
80004f54:	2cc21eab          	0x2cc21eab
80004f58:	d2d0                	sw	a2,36(a3)
80004f5a:	7fc0                	flw	fs0,60(a5)
80004f5c:	321c                	fld	fa5,32(a2)
80004f5e:	1225                	addi	tp,tp,-23
80004f60:	0d30                	addi	a2,sp,664
80004f62:	207d                	jal	80005010 <input_data+0x2a4>
80004f64:	aae2                	fsd	fs8,336(sp)
80004f66:	73fd                	lui	t2,0xfffff
80004f68:	1398                	addi	a4,sp,480
80004f6a:	5bad                	li	s7,-21
80004f6c:	7f30                	flw	fa2,120(a4)
80004f6e:	7188                	flw	fa0,32(a1)
80004f70:	6219                	lui	tp,0x6
80004f72:	a15d371b          	0xa15d371b
80004f76:	b79f21d7          	0xb79f21d7
80004f7a:	353e                	fld	fa0,488(sp)
80004f7c:	cba1                	beqz	a5,80004fcc <input_data+0x260>
80004f7e:	980f49e3          	bltz	t5,80004910 <verify_data+0x1ba4>
80004f82:	4500                	lw	s0,8(a0)
80004f84:	2f96                	fld	ft11,320(sp)
80004f86:	7d84                	flw	fs1,56(a1)
80004f88:	59bbba97          	auipc	s5,0x59bbb
80004f8c:	7cc8                	flw	fa0,60(s1)
80004f8e:	6186                	flw	ft3,64(sp)
80004f90:	00949033          	sll	zero,s1,s1
80004f94:	2d32                	fld	fs10,264(sp)
80004f96:	1ee1                	addi	t4,t4,-8
80004f98:	7168                	flw	fa0,100(a0)
80004f9a:	fb3a3f67          	0xfb3a3f67
80004f9e:	ea803d57          	0xea803d57
80004fa2:	0cd0                	addi	a2,sp,596
80004fa4:	fa46                	fsw	fa7,52(sp)
80004fa6:	4001                	c.li	zero,0
80004fa8:	1281                	addi	t0,t0,-32
80004faa:	6ecd                	lui	t4,0x13
80004fac:	69aa                	flw	fs3,136(sp)
80004fae:	33a5                	jal	80004d16 <verify_data+0x1faa>
80004fb0:	58e6236f          	jal	t1,8006753e <__global_pointer$+0x5ffd2>
80004fb4:	a960                	fsd	fs0,208(a0)
80004fb6:	1c74                	addi	a3,sp,572
80004fb8:	3150                	fld	fa2,160(a0)
80004fba:	3561                	jal	80004e42 <input_data+0xd6>
80004fbc:	a07c                	fsd	fa5,192(s0)
80004fbe:	a9bd38e3          	0xa9bd38e3
80004fc2:	2609                	jal	800052c4 <input_data+0x558>
80004fc4:	8f18                	0x8f18
80004fc6:	5c65                	li	s8,-7
80004fc8:	3ecd                	jal	80004bba <verify_data+0x1e4e>
80004fca:	24a2                	fld	fs1,8(sp)
80004fcc:	17e6                	slli	a5,a5,0x39
80004fce:	56a1                	li	a3,-24
80004fd0:	4e44                	lw	s1,28(a2)
80004fd2:	4f90                	lw	a2,24(a5)
80004fd4:	28bdf153          	0x28bdf153
80004fd8:	4130                	lw	a2,64(a0)
80004fda:	0ac50a0f          	0xac50a0f
80004fde:	1cb4                	addi	a3,sp,632
80004fe0:	9006                	c.add	zero,ra
80004fe2:	2d0c                	fld	fa1,24(a0)
80004fe4:	3012                	fld	ft0,288(sp)
80004fe6:	782c                	flw	fa1,112(s0)
80004fe8:	14c2                	slli	s1,s1,0x30
80004fea:	454d                	li	a0,19
80004fec:	bbfa                	fsd	ft10,496(sp)
80004fee:	664924eb          	0x664924eb
80004ff2:	52de                	lw	t0,244(sp)
80004ff4:	61f6                	flw	ft3,92(sp)
80004ff6:	a7d10f4f          	fnmadd.q	ft10,ft2,ft9,fs4,rne
80004ffa:	15c5                	addi	a1,a1,-15
80004ffc:	687e                	flw	fa6,220(sp)
80004ffe:	4ed0                	lw	a2,28(a3)
80005000:	4adc                	lw	a5,20(a3)
80005002:	439a                	lw	t2,132(sp)
80005004:	fe51                	bnez	a2,80004fa0 <input_data+0x234>
80005006:	4da5                	li	s11,9
80005008:	c3bd                	beqz	a5,8000506e <input_data+0x302>
8000500a:	2511                	jal	8000560e <input_data+0x8a2>
8000500c:	100a                	c.slli	zero,0x22
8000500e:	31ec                	fld	fa1,224(a1)
80005010:	66076677          	0x66076677
80005014:	ceea                	sw	s10,92(sp)
80005016:	2cfe                	fld	fs9,472(sp)
80005018:	152e                	slli	a0,a0,0x2b
8000501a:	66b5                	lui	a3,0xd
8000501c:	de5c                	sw	a5,60(a2)
8000501e:	3a4e                	fld	fs4,240(sp)
80005020:	e140                	fsw	fs0,4(a0)
80005022:	5c50                	lw	a2,60(s0)
80005024:	034d                	addi	t1,t1,19
80005026:	23a5                	jal	8000558e <input_data+0x822>
80005028:	4569                	li	a0,26
8000502a:	613d                	addi	sp,sp,480
8000502c:	9f26                	add	t5,t5,s1
8000502e:	2f24                	fld	fs1,88(a4)
80005030:	796a                	flw	fs2,184(sp)
80005032:	5f84                	lw	s1,56(a5)
80005034:	2df3dfcb          	0x2df3dfcb
80005038:	16b9                	addi	a3,a3,-18
8000503a:	0bd0                	addi	a2,sp,468
8000503c:	4699                	li	a3,6
8000503e:	4add                	li	s5,23
80005040:	a1f8                	fsd	fa4,192(a1)
80005042:	7eb8                	flw	fa4,120(a3)
80005044:	2215                	jal	80005168 <input_data+0x3fc>
80005046:	080c                	addi	a1,sp,16
80005048:	9608                	0x9608
8000504a:	22c1                	jal	8000520a <input_data+0x49e>
8000504c:	3888                	fld	fa0,48(s1)
8000504e:	7e41                	lui	t3,0xffff0
80005050:	8b9f 6d56 d570      	0xd5706d568b9f
80005056:	33ac                	fld	fa1,96(a5)
80005058:	938e                	add	t2,t2,gp
8000505a:	650a                	flw	fa0,128(sp)
8000505c:	983d                	andi	s0,s0,-17
8000505e:	2c6a                	fld	fs8,152(sp)
80005060:	99ca                	add	s3,s3,s2
80005062:	4428                	lw	a0,72(s0)
80005064:	f095                	bnez	s1,80004f88 <input_data+0x21c>
80005066:	4252                	lw	tp,20(sp)
80005068:	b4a9                	j	80004ab2 <verify_data+0x1d46>
8000506a:	1c88                	addi	a0,sp,624
8000506c:	8ad5                	andi	a3,a3,21
8000506e:	e5b747a7          	fsq	fs11,-433(a4) # ffff7e4f <__global_pointer$+0x7fff08e3>
80005072:	b7293b13          	sltiu	s6,s2,-1166
80005076:	745e                	flw	fs0,244(sp)
80005078:	1ef490c3          	fmadd.q	ft1,fs1,fa5,ft3,rtz
8000507c:	f658                	fsw	fa4,44(a2)
8000507e:	635d                	lui	t1,0x17
80005080:	2deb91bf 20b378d4 	0x20b378d42deb91bf
80005088:	2a8f6b6f          	jal	s6,800fb330 <__global_pointer$+0xf3dc4>
8000508c:	e759                	bnez	a4,8000511a <input_data+0x3ae>
8000508e:	ceb263c7          	fmsub.q	ft7,ft4,fa1,fs9,unknown
80005092:	57b6                	lw	a5,108(sp)
80005094:	e800                	fsw	fs0,16(s0)
80005096:	4cb5                	li	s9,13
80005098:	3d98                	fld	fa4,56(a1)
8000509a:	5ed1                	li	t4,-12
8000509c:	6746                	flw	fa4,80(sp)
8000509e:	1268                	addi	a0,sp,300
800050a0:	9561                	srai	a0,a0,0x38
800050a2:	392e                	fld	fs2,232(sp)
800050a4:	e231                	bnez	a2,800050e8 <input_data+0x37c>
800050a6:	0456                	slli	s0,s0,0x15
800050a8:	dfd0                	sw	a2,60(a5)
800050aa:	27f8                	fld	fa4,200(a5)
800050ac:	2d4e                	fld	fs10,208(sp)
800050ae:	3635100b          	0x3635100b
800050b2:	5f46                	lw	t5,112(sp)
800050b4:	23fa                	fld	ft7,408(sp)
800050b6:	789c                	flw	fa5,48(s1)
800050b8:	47c5                	li	a5,17
800050ba:	33eb476b          	0x33eb476b
800050be:	779e                	flw	fa5,228(sp)
800050c0:	00fc                	addi	a5,sp,76
800050c2:	3d62                	fld	fs10,56(sp)
800050c4:	02a2                	slli	t0,t0,0x8
800050c6:	6676                	flw	fa2,92(sp)
800050c8:	476bead3          	0x476bead3
800050cc:	46dadd13          	0x46dadd13
800050d0:	66c4                	flw	fs1,12(a3)
800050d2:	7691                	lui	a3,0xfffe4
800050d4:	e555                	bnez	a0,80005180 <input_data+0x414>
800050d6:	3748                	fld	fa0,168(a4)
800050d8:	77b2                	flw	fa5,44(sp)
800050da:	eef76607          	0xeef76607
800050de:	5324                	lw	s1,96(a4)
800050e0:	17e0                	addi	s0,sp,1004
800050e2:	2dd6                	fld	fs11,336(sp)
800050e4:	d7ff                	0xd7ff
800050e6:	7a02                	flw	fs4,32(sp)
800050e8:	3950                	fld	fa2,176(a0)
800050ea:	5376722b          	0x5376722b
800050ee:	24e0                	fld	fs0,200(s1)
800050f0:	5557c007          	flq	ft0,1365(a5) # 7555 <buflen.2941+0x7515>
800050f4:	31ca                	fld	ft3,176(sp)
800050f6:	0281                	addi	t0,t0,0
800050f8:	94ba                	add	s1,s1,a4
800050fa:	41f6                	lw	gp,92(sp)
800050fc:	2422                	fld	fs0,8(sp)
800050fe:	229c0663          	beq	s8,s1,8000532a <input_data+0x5be>
80005102:	477c                	lw	a5,76(a4)
80005104:	0b0fe933          	0xb0fe933
80005108:	6f793433          	0x6f793433
8000510c:	2cec                	fld	fa1,216(s1)
8000510e:	0c38                	addi	a4,sp,536
80005110:	7909                	lui	s2,0xfffe2
80005112:	6d55                	lui	s10,0x15
80005114:	cfc9                	beqz	a5,800051ae <input_data+0x442>
80005116:	9167388b          	0x9167388b
8000511a:	af6d3867          	0xaf6d3867
8000511e:	4b3e                	lw	s6,204(sp)
80005120:	1545                	addi	a0,a0,-15
80005122:	07d5                	addi	a5,a5,21
80005124:	8f85                	sub	a5,a5,s1
80005126:	4eca                	lw	t4,144(sp)
80005128:	b0b9                	j	80004976 <verify_data+0x1c0a>
8000512a:	56f8                	lw	a4,108(a3)
8000512c:	d0d4                	sw	a3,36(s1)
8000512e:	30f6                	fld	ft1,376(sp)
80005130:	6a74                	flw	fa3,84(a2)
80005132:	32ce                	fld	ft5,240(sp)
80005134:	e3c1                	bnez	a5,800051b4 <input_data+0x448>
80005136:	23fe                	fld	ft7,472(sp)
80005138:	ffb9                	bnez	a5,80005096 <input_data+0x32a>
8000513a:	013a                	slli	sp,sp,0xe
8000513c:	6796bc67          	0x6796bc67
80005140:	bdad                	j	80004fba <input_data+0x24e>
80005142:	0236                	slli	tp,tp,0xd
80005144:	27d6                	fld	fa5,336(sp)
80005146:	7c7d                	lui	s8,0xfffff
80005148:	68b2                	flw	fa7,12(sp)
8000514a:	24b915db          	0x24b915db
8000514e:	e0d668fb          	0xe0d668fb
80005152:	f557254f          	0xf557254f
80005156:	cd5f2c2b          	0xcd5f2c2b
8000515a:	30b8                	fld	fa4,96(s1)
8000515c:	6d68                	flw	fa0,92(a0)
8000515e:	39c6                	fld	fs3,112(sp)
80005160:	44b079ab          	0x44b079ab
80005164:	2be4                	fld	fs1,208(a5)
80005166:	41ae                	lw	gp,200(sp)
80005168:	3abd                	jal	80004ae6 <verify_data+0x1d7a>
8000516a:	678e17cf          	fnmadd.q	fa5,ft8,fs8,fa2,rtz
8000516e:	7bac                	flw	fa1,112(a5)
80005170:	76de                	flw	fa3,244(sp)
80005172:	7582                	flw	fa1,32(sp)
80005174:	2c8f5cab          	0x2c8f5cab
80005178:	452947fb          	0x452947fb
8000517c:	2ace                	fld	fs5,208(sp)
8000517e:	679d                	lui	a5,0x7
80005180:	7558                	flw	fa4,44(a0)
80005182:	7df8                	flw	fa4,124(a1)
80005184:	3381                	jal	80004ec4 <input_data+0x158>
80005186:	7111                	addi	sp,sp,-256
80005188:	328d                	jal	80004aea <verify_data+0x1d7e>
8000518a:	34f371bb          	0x34f371bb
8000518e:	44e0                	lw	s0,76(s1)
80005190:	f79f 0704 1798      	0x17980704f79f
80005196:	7948                	flw	fa0,52(a0)
80005198:	6961                	lui	s2,0x18
8000519a:	4e72                	lw	t3,28(sp)
8000519c:	9a45                	andi	a2,a2,-15
8000519e:	59d9                	li	s3,-10
800051a0:	79ea714f          	fnmadd.s	ft2,fs4,ft10,fa5
800051a4:	ddde                	sw	s7,248(sp)
800051a6:	2d9e                	fld	fs11,448(sp)
800051a8:	592a                	lw	s2,168(sp)
800051aa:	3d7d                	jal	80005068 <input_data+0x2fc>
800051ac:	b06d                	j	80004a56 <verify_data+0x1cea>
800051ae:	48c5                	li	a7,17
800051b0:	136948cb          	fnmsub.d	fa7,fs2,fs6,ft2,rmm
800051b4:	06f2                	slli	a3,a3,0x1c
800051b6:	723d                	lui	tp,0xfffef
800051b8:	6bd8                	flw	fa4,20(a5)
800051ba:	00fa                	slli	ra,ra,0x1e
800051bc:	3e02                	fld	ft8,32(sp)
800051be:	02d4                	addi	a3,sp,324
800051c0:	10ed                	addi	ra,ra,-5
800051c2:	5241                	li	tp,-16
800051c4:	a2c4                	fsd	fs1,128(a3)
800051c6:	48c8                	lw	a0,20(s1)
800051c8:	4d28                	lw	a0,88(a0)
800051ca:	2afa                	fld	fs5,408(sp)
800051cc:	5552d8af          	0x5552d8af
800051d0:	5cf8                	lw	a4,124(s1)
800051d2:	5d8c                	lw	a1,56(a1)
800051d4:	93c9                	srli	a5,a5,0x32
800051d6:	3634                	fld	fa3,104(a2)
800051d8:	0c30a657          	0xc30a657
800051dc:	37a6bc03          	0x37a6bc03
800051e0:	5d52b08f          	0x5d52b08f
800051e4:	145d8bd7          	0x145d8bd7
800051e8:	a2f2                	fsd	ft8,320(sp)
800051ea:	02d623ef          	jal	t2,80067a16 <__global_pointer$+0x604aa>
800051ee:	0051                	c.nop	20
800051f0:	2dde                	fld	fs11,464(sp)
800051f2:	32a2                	fld	ft5,40(sp)
800051f4:	0ac3bca3          	0xac3bca3
800051f8:	b0c8                	fsd	fa0,160(s1)
800051fa:	583d                	li	a6,-17
800051fc:	1fbccd53          	fdiv.q	fs10,fs9,fs11,rmm
80005200:	74bac3d7          	0x74bac3d7
80005204:	d5d4                	sw	a3,44(a1)
80005206:	0654                	addi	a3,sp,772
80005208:	0d01                	addi	s10,s10,0
8000520a:	3d1a                	fld	fs10,416(sp)
8000520c:	7da5                	lui	s11,0xfffe9
8000520e:	37c5                	jal	800051ee <input_data+0x482>
80005210:	686ebe97          	auipc	t4,0x686eb
80005214:	8ac2                	mv	s5,a6
80005216:	6599                	lui	a1,0x6
80005218:	d049                	beqz	s0,8000519a <input_data+0x42e>
8000521a:	d5415d7b          	0xd5415d7b
8000521e:	bbe76f5b          	0xbbe76f5b
80005222:	21f8                	fld	fa4,192(a1)
80005224:	79d1                	lui	s3,0xffff4
80005226:	4c253e53          	0x4c253e53
8000522a:	1060                	addi	s0,sp,44
8000522c:	5cce                	lw	s9,240(sp)
8000522e:	25de3513          	sltiu	a0,t3,605
80005232:	1e45                	addi	t3,t3,-15
80005234:	ef64                	fsw	fs1,92(a4)
80005236:	ab662f4b          	fnmsub.d	ft10,fa2,fs6,fs5,rdn
8000523a:	1b78                	addi	a4,sp,444
8000523c:	20ae                	fld	ft1,200(sp)
8000523e:	464e                	lw	a2,208(sp)
80005240:	172d75a3          	0x172d75a3
80005244:	9e80                	0x9e80
80005246:	4261                	li	tp,24
80005248:	00d3e7bb          	0xd3e7bb
8000524c:	6c2a                	flw	fs8,136(sp)
8000524e:	a05071d3          	0xa05071d3
80005252:	4085                	li	ra,1
80005254:	08ff                	0x8ff
80005256:	465f576b          	0x465f576b
8000525a:	4c61                	li	s8,24
8000525c:	cd3e                	sw	a5,152(sp)
8000525e:	247e                	fld	fs0,472(sp)
80005260:	2ff2                	fld	ft11,280(sp)
80005262:	1640                	addi	s0,sp,804
80005264:	f16e                	fsw	fs11,160(sp)
80005266:	21e4                	fld	fs1,192(a1)
80005268:	5278adf3          	csrrs	s11,0x527,a7
8000526c:	4afd                	li	s5,31
8000526e:	3fff                	0x3fff
80005270:	aaad                	j	800053ea <input_data+0x67e>
80005272:	d0832c73          	csrrs	s8,0xd08,t1
80005276:	4768253f 58a24cd9 	0x58a24cd94768253f
8000527e:	09fd72f3          	csrrci	t0,0x9f,26
80005282:	08d4                	addi	a3,sp,84
80005284:	e83e                	fsw	fa5,16(sp)
80005286:	1b94                	addi	a3,sp,496
80005288:	6ce3fc13          	andi	s8,t2,1742
8000528c:	af35                	j	800059c8 <input_data+0xc5c>
8000528e:	5dac                	lw	a1,120(a1)
80005290:	2416                	fld	fs0,320(sp)
80005292:	545d                	li	s0,-9
80005294:	2e9a                	fld	ft9,384(sp)
80005296:	82e3583b          	0x82e3583b
8000529a:	4f5e                	lw	t5,212(sp)
8000529c:	202fd7d7          	0x202fd7d7
800052a0:	096e                	slli	s2,s2,0x1b
800052a2:	e9f00f97          	auipc	t6,0xe9f00
800052a6:	64bd                	lui	s1,0xf
800052a8:	10e4ceaf          	0x10e4ceaf
800052ac:	d0aa                	sw	a0,96(sp)
800052ae:	4735                	li	a4,13
800052b0:	7850                	flw	fa2,52(s0)
800052b2:	78e96a2b          	0x78e96a2b
800052b6:	26ba                	fld	fa3,392(sp)
800052b8:	5579cfa7          	fsq	fs7,1375(s3) # ffff455f <__global_pointer$+0x7ffecff3>
800052bc:	d65f 43b2 a8b1      	0xa8b143b2d65f
800052c2:	601e3793          	sltiu	a5,t3,1537
800052c6:	45c8                	lw	a0,12(a1)
800052c8:	99ec                	0x99ec
800052ca:	3e85                	jal	80004e3a <input_data+0xce>
800052cc:	fc5d                	bnez	s0,8000528a <input_data+0x51e>
800052ce:	d200294b          	fnmsub.d	fs2,ft0,ft0,fs10,rdn
800052d2:	574d6097          	auipc	ra,0x574d6
800052d6:	7966                	flw	fs2,120(sp)
800052d8:	233d                	jal	80005806 <input_data+0xa9a>
800052da:	101e                	c.slli	zero,0x27
800052dc:	24d5dd8b          	0x24d5dd8b
800052e0:	ed35                	bnez	a0,8000535c <input_data+0x5f0>
800052e2:	504d                	c.li	zero,-13
800052e4:	b03a                	fsd	fa4,32(sp)
800052e6:	6998                	flw	fa4,16(a1)
800052e8:	01d8e9c7          	fmsub.s	fs3,fa7,ft9,ft0,unknown
800052ec:	4fba                	lw	t6,140(sp)
800052ee:	2711                	jal	800059f2 <input_data+0xc86>
800052f0:	54ee                	lw	s1,248(sp)
800052f2:	1121015b          	0x1121015b
800052f6:	6511                	lui	a0,0x4
800052f8:	f61d                	bnez	a2,80005226 <input_data+0x4ba>
800052fa:	33b6                	fld	ft7,360(sp)
800052fc:	a3b2                	fsd	fa2,448(sp)
800052fe:	5dff                	0x5dff
80005300:	05ac                	addi	a1,sp,712
80005302:	0d95                	addi	s11,s11,5
80005304:	7afd1cd3          	0x7afd1cd3
80005308:	ca46                	sw	a7,20(sp)
8000530a:	5a21                	li	s4,-24
8000530c:	9bd8                	0x9bd8
8000530e:	2ef6                	fld	ft9,344(sp)
80005310:	6041                	c.lui	zero,0x10
80005312:	68d4                	flw	fa3,20(s1)
80005314:	4274                	lw	a3,68(a2)
80005316:	5c99                	li	s9,-26
80005318:	7b86eff3          	csrrsi	t6,0x7b8,13
8000531c:	e378                	fsw	fa4,68(a4)
8000531e:	25b4                	fld	fa3,72(a1)
80005320:	34127047          	0x34127047
80005324:	8ed0                	0x8ed0
80005326:	7cfe                	flw	fs9,252(sp)
80005328:	7008f7cb          	fnmsub.s	fa5,fa7,ft0,fa4
8000532c:	70b5                	lui	ra,0xfffed
8000532e:	53ba                	lw	t2,172(sp)
80005330:	6db9d8c7          	0x6db9d8c7
80005334:	f955                	bnez	a0,800052e8 <input_data+0x57c>
80005336:	5ff5                	li	t6,-3
80005338:	dbe0                	sw	s0,116(a5)
8000533a:	db0a0b17          	auipc	s6,0xdb0a0
8000533e:	0bb4                	addi	a3,sp,472
80005340:	a8fc                	fsd	fa5,208(s1)
80005342:	46b207bf d7423089 	0xd742308946b207bf
8000534a:	507c54af          	0x507c54af
8000534e:	0d86                	slli	s11,s11,0x1
80005350:	7b2e                	flw	fs6,232(sp)
80005352:	5595                	li	a1,-27
80005354:	3b0a                	fld	fs6,160(sp)
80005356:	0d31                	addi	s10,s10,12
80005358:	e4b2                	fsw	fa2,72(sp)
8000535a:	139c                	addi	a5,sp,480
8000535c:	735e                	flw	ft6,244(sp)
8000535e:	30ee                	fld	ft1,248(sp)
80005360:	0f8b5fbf 538275d3 	0x538275d30f8b5fbf
80005368:	366e                	fld	fa2,248(sp)
8000536a:	0c92                	slli	s9,s9,0x4
8000536c:	0ac0                	addi	s0,sp,340
8000536e:	364469c7          	fmsub.q	fs3,fs0,ft4,ft6,unknown
80005372:	34de                	fld	fs1,496(sp)
80005374:	f150                	fsw	fa2,36(a0)
80005376:	6bb5                	lui	s7,0xd
80005378:	1e48192b          	0x1e48192b
8000537c:	0f76                	slli	t5,t5,0x1d
8000537e:	36cb2dbb          	0x36cb2dbb
80005382:	bfaa0197          	auipc	gp,0xbfaa0
80005386:	12ff                	0x12ff
80005388:	d420                	sw	s0,104(s0)
8000538a:	3fc03647          	fmsub.q	fa2,ft0,ft8,ft7,rup
8000538e:	06fd                	addi	a3,a3,31
80005390:	8d3a                	mv	s10,a4
80005392:	3fa67bab          	0x3fa67bab
80005396:	11f6                	slli	gp,gp,0x3d
80005398:	1bb4383f 7a6c039a 	0x7a6c039a1bb4383f
800053a0:	08d9                	addi	a7,a7,22
800053a2:	a3054f97          	auipc	t6,0xa3054
800053a6:	2bf5                	jal	800059a2 <input_data+0xc36>
800053a8:	b07f                	0xb07f
800053aa:	2e56                	fld	ft8,336(sp)
800053ac:	44630ba3          	sb	t1,1111(t1) # 17457 <buflen.2941+0x17417>
800053b0:	01e6                	slli	gp,gp,0x19
800053b2:	407d761b          	0x407d761b
800053b6:	c554610f          	0xc554610f
800053ba:	b4a35ba3          	0xb4a35ba3
800053be:	b76642d7          	0xb76642d7
800053c2:	52fa                	lw	t0,188(sp)
800053c4:	6b51cb4f          	fnmadd.d	fs6,ft3,fs5,fa3,rmm
800053c8:	2540                	fld	fs0,136(a0)
800053ca:	d9bb2667          	0xd9bb2667
800053ce:	86fc4be3          	blt	s8,a5,80004c44 <verify_data+0x1ed8>
800053d2:	71a0                	flw	fs0,96(a1)
800053d4:	2a85                	jal	80005544 <input_data+0x7d8>
800053d6:	648301af          	0x648301af
800053da:	5776                	lw	a4,124(sp)
800053dc:	5f2d                	li	t5,-21
800053de:	80f21633          	0x80f21633
800053e2:	49ca04ab          	0x49ca04ab
800053e6:	0816                	slli	a6,a6,0x5
800053e8:	c5ee                	sw	s11,200(sp)
800053ea:	3f4a                	fld	ft10,176(sp)
800053ec:	5fc4                	lw	s1,60(a5)
800053ee:	fa540f83          	lb	t6,-91(s0) # ffff8fa5 <__global_pointer$+0x7fff1a39>
800053f2:	469a                	lw	a3,132(sp)
800053f4:	dde6                	sw	s9,248(sp)
800053f6:	1122                	slli	sp,sp,0x28
800053f8:	7ed5                	lui	t4,0xffff5
800053fa:	44d5                	li	s1,21
800053fc:	86e0                	0x86e0
800053fe:	6126                	flw	ft2,72(sp)
80005400:	7c45df3b          	0x7c45df3b
80005404:	b6d4                	fsd	fa3,168(a3)
80005406:	2faa                	fld	ft11,136(sp)
80005408:	52670823          	sb	t1,1328(a4)
8000540c:	c122                	sw	s0,128(sp)
8000540e:	79f0                	flw	fa2,116(a1)
80005410:	37a5a727          	fsw	fs10,878(a1) # 636e <buflen.2941+0x632e>
80005414:	d981                	beqz	a1,80005324 <input_data+0x5b8>
80005416:	2e88050f          	0x2e88050f
8000541a:	3539                	jal	80005228 <input_data+0x4bc>
8000541c:	0db2                	slli	s11,s11,0xc
8000541e:	10a5                	addi	ra,ra,-23
80005420:	ed86                	fsw	ft1,216(sp)
80005422:	26d8                	fld	fa4,136(a3)
80005424:	3b24                	fld	fs1,112(a4)
80005426:	0e38                	addi	a4,sp,792
80005428:	b3cd                	j	8000520a <input_data+0x49e>
8000542a:	3834                	fld	fa3,112(s0)
8000542c:	da28                	sw	a0,112(a2)
8000542e:	6ca2                	flw	fs9,8(sp)
80005430:	d051                	beqz	s0,800053b4 <input_data+0x648>
80005432:	98346e3f 734737ff 	0x734737ff98346e3f
8000543a:	1a06                	slli	s4,s4,0x21
8000543c:	f31d                	bnez	a4,80005362 <input_data+0x5f6>
8000543e:	20bc                	fld	fa5,64(s1)
80005440:	56d6                	lw	a3,116(sp)
80005442:	3d54                	fld	fa3,184(a0)
80005444:	810a                	mv	sp,sp
80005446:	2285                	jal	800055a6 <input_data+0x83a>
80005448:	1b69                	addi	s6,s6,-6
8000544a:	7ea5                	lui	t4,0xfffe9
8000544c:	b34e                	fsd	fs3,416(sp)
8000544e:	347a                	fld	fs0,440(sp)
80005450:	4290                	lw	a2,0(a3)
80005452:	56155683          	lhu	a3,1377(a0) # 4561 <buflen.2941+0x4521>
80005456:	5081                	li	ra,-32
80005458:	ae74                	fsd	fa3,216(a2)
8000545a:	bb695c27          	0xbb695c27
8000545e:	3324                	fld	fs1,96(a4)
80005460:	cc31                	beqz	s0,800054bc <input_data+0x750>
80005462:	7eed                	lui	t4,0xffffb
80005464:	8db4                	0x8db4
80005466:	1c4b4667          	0x1c4b4667
8000546a:	2b5e                	fld	fs6,464(sp)
8000546c:	1c78                	addi	a4,sp,572
8000546e:	6089                	lui	ra,0x2
80005470:	39c2eec3          	fmadd.s	ft9,ft5,ft8,ft7,unknown
80005474:	48473db3          	0x48473db3
80005478:	6762                	flw	fa4,24(sp)
8000547a:	5120                	lw	s0,96(a0)
8000547c:	15f77ee7          	0x15f77ee7
80005480:	13e702e3          	beq	a4,t5,80005da4 <input_data+0x1038>
80005484:	8266                	mv	tp,s9
80005486:	027c                	addi	a5,sp,268
80005488:	e6d4                	fsw	fa3,12(a3)
8000548a:	52dd                	li	t0,-9
8000548c:	5d347033          	0x5d347033
80005490:	3a0a8c2b          	0x3a0a8c2b
80005494:	4043fd5b          	0x4043fd5b
80005498:	36bd5793          	0x36bd5793
8000549c:	a131                	j	800058a8 <input_data+0xb3c>
8000549e:	3ab263ab          	0x3ab263ab
800054a2:	413d                	li	sp,15
800054a4:	058545bf 7eb78eb9 	0x7eb78eb9058545bf
800054ac:	7ef8                	flw	fa4,124(a3)
800054ae:	42ad609b          	0x42ad609b
800054b2:	3698                	fld	fa4,40(a3)
800054b4:	0a6dc44f          	fnmadd.d	fs0,fs11,ft6,ft1,rmm
800054b8:	befe                	fsd	ft11,376(sp)
800054ba:	01a1                	addi	gp,gp,8
800054bc:	306d                	jal	80004d66 <verify_data+0x1ffa>
800054be:	19f1                	addi	s3,s3,-4
800054c0:	4c2e                	lw	s8,200(sp)
800054c2:	14f73deb          	0x14f73deb
800054c6:	63436d53          	0x63436d53
800054ca:	1239                	addi	tp,tp,-18
800054cc:	a26a                	fsd	fs10,256(sp)
800054ce:	13b2                	slli	t2,t2,0x2c
800054d0:	5d0d                	li	s10,-29
800054d2:	2b89                	jal	80005a24 <input_data+0xcb8>
800054d4:	a80d                	j	80005506 <input_data+0x79a>
800054d6:	004b616b          	0x4b616b
800054da:	ec893213          	sltiu	tp,s2,-312
800054de:	2dc4                	fld	fs1,152(a1)
800054e0:	3ee4                	fld	fs1,248(a3)
800054e2:	fd240687          	0xfd240687
800054e6:	78dd                	lui	a7,0xffff7
800054e8:	0f89                	addi	t6,t6,2
800054ea:	15ee                	slli	a1,a1,0x3b
800054ec:	f891                	bnez	s1,80005400 <input_data+0x694>
800054ee:	03337637          	lui	a2,0x3337
800054f2:	718f4d13          	xori	s10,t5,1816
800054f6:	2a12                	fld	fs4,256(sp)
800054f8:	8514                	0x8514
800054fa:	f67d0d83          	lb	s11,-153(s10) # 14f67 <buflen.2941+0x14f27>
800054fe:	3fa4                	fld	fs1,120(a5)
80005500:	67a4                	flw	fs1,72(a5)
80005502:	7c24                	flw	fs1,120(s0)
80005504:	38b93c73          	csrrc	s8,0x38b,s2
80005508:	0f8982b7          	lui	t0,0xf898
8000550c:	c726                	sw	s1,140(sp)
8000550e:	fc69423b          	0xfc69423b
80005512:	d28770bf ea255235 	0xea255235d28770bf
8000551a:	0a7d                	addi	s4,s4,31
8000551c:	278e                	fld	fa5,192(sp)
8000551e:	2374                	fld	fa3,192(a4)
80005520:	0ec2                	slli	t4,t4,0x10
80005522:	8b6a6f83          	0x8b6a6f83
80005526:	64ba                	flw	fs1,140(sp)
80005528:	a049                	j	800055aa <input_data+0x83e>
8000552a:	4cf2                	lw	s9,28(sp)
8000552c:	06c9                	addi	a3,a3,18
8000552e:	0e9a                	slli	t4,t4,0x6
80005530:	4d4c799b          	0x4d4c799b
80005534:	02a0                	addi	s0,sp,328
80005536:	73bb6bf3          	csrrsi	s7,0x73b,22
8000553a:	6fb1                	lui	t6,0xc
8000553c:	1086                	slli	ra,ra,0x21
8000553e:	7439                	lui	s0,0xfffee
80005540:	9e52                	add	t3,t3,s4
80005542:	71b6                	flw	ft3,108(sp)
80005544:	23494e2b          	0x23494e2b
80005548:	b850                	fsd	fa2,176(s0)
8000554a:	4e3a                	lw	t3,140(sp)
8000554c:	1641                	addi	a2,a2,-16
8000554e:	1e62                	slli	t3,t3,0x38
80005550:	e796                	fsw	ft5,204(sp)
80005552:	33d8                	fld	fa4,160(a5)
80005554:	c4c2                	sw	a6,72(sp)
80005556:	0439                	addi	s0,s0,14
80005558:	c9c9                	beqz	a1,800055ea <input_data+0x87e>
8000555a:	1e00                	addi	s0,sp,816
8000555c:	a0ff                	0xa0ff
8000555e:	6485                	lui	s1,0x1
80005560:	5f8b586b          	0x5f8b586b
80005564:	adb0                	fsd	fa2,88(a1)
80005566:	486a                	lw	a6,152(sp)
80005568:	4373c7ab          	0x4373c7ab
8000556c:	95c4                	0x95c4
8000556e:	2dc9                	jal	80005c40 <input_data+0xed4>
80005570:	c94a                	sw	s2,144(sp)
80005572:	234c                	fld	fa1,128(a4)
80005574:	d44c                	sw	a1,44(s0)
80005576:	66f8                	flw	fa4,76(a3)
80005578:	3893fc2f          	0x3893fc2f
8000557c:	68f47697          	auipc	a3,0x68f47
80005580:	9565                	srai	a0,a0,0x39
80005582:	1d14                	addi	a3,sp,688
80005584:	9910                	0x9910
80005586:	804f603f 6a306076 	0x6a306076804f603f
8000558e:	9a0723e7          	0x9a0723e7
80005592:	78e2                	flw	fa7,56(sp)
80005594:	ba5a                	fsd	fs6,304(sp)
80005596:	0af2                	slli	s5,s5,0x1c
80005598:	cf00                	sw	s0,24(a4)
8000559a:	5d0e                	lw	s10,224(sp)
8000559c:	3ac8d43b          	0x3ac8d43b
800055a0:	8a1a                	mv	s4,t1
800055a2:	5aec                	lw	a1,116(a3)
800055a4:	3a49aebb          	0x3a49aebb
800055a8:	1980                	addi	s0,sp,240
800055aa:	19c9                	addi	s3,s3,-14
800055ac:	5b13e84b          	fnmsub.d	fa6,ft7,fa7,fa1,unknown
800055b0:	06f5b7c3          	fmadd.q	fa5,fa1,fa5,ft0,rup
800055b4:	0afe                	slli	s5,s5,0x1f
800055b6:	3ae0                	fld	fs0,240(a3)
800055b8:	4ec4                	lw	s1,28(a3)
800055ba:	612c                	flw	fa1,64(a0)
800055bc:	415f 055e 9628      	0x9628055e415f
800055c2:	06ce                	slli	a3,a3,0x13
800055c4:	0db8                	addi	a4,sp,728
800055c6:	206c                	fld	fa1,192(s0)
800055c8:	e815                	bnez	s0,800055fc <input_data+0x890>
800055ca:	280932f7          	0x280932f7
800055ce:	5552306b          	0x5552306b
800055d2:	0a87054b          	fnmsub.d	fa0,fa4,fs0,ft1,rne
800055d6:	4124                	lw	s1,64(a0)
800055d8:	acb4                	fsd	fa3,88(s1)
800055da:	1220                	addi	s0,sp,296
800055dc:	d140                	sw	s0,36(a0)
800055de:	59b4                	lw	a3,112(a1)
800055e0:	1a2c                	addi	a1,sp,312
800055e2:	3555                	jal	80005486 <input_data+0x71a>
800055e4:	6e3d0eeb          	0x6e3d0eeb
800055e8:	beb6                	fsd	fa3,376(sp)
800055ea:	5fd0                	lw	a2,60(a5)
800055ec:	7fc4                	flw	fs1,60(a5)
800055ee:	3d8e                	fld	fs11,224(sp)
800055f0:	1c2f74ab          	0x1c2f74ab
800055f4:	babe                	fsd	fa5,368(sp)
800055f6:	5ef8                	lw	a4,124(a3)
800055f8:	3d4262f7          	0x3d4262f7
800055fc:	1229                	addi	tp,tp,-22
800055fe:	d6074007          	flq	ft0,-672(a4)
80005602:	e65262c3          	fmadd.q	ft5,ft4,ft5,ft8,unknown
80005606:	5add                	li	s5,-9
80005608:	1621                	addi	a2,a2,-24
8000560a:	1712                	slli	a4,a4,0x24
8000560c:	06622783          	lw	a5,102(tp) # fffef066 <__global_pointer$+0x7ffe7afa>
80005610:	e928                	fsw	fa0,80(a0)
80005612:	3dde                	fld	fs11,496(sp)
80005614:	5026                	0x5026
80005616:	a0ea2f97          	auipc	t6,0xa0ea2
8000561a:	a4ac589b          	0xa4ac589b
8000561e:	6ff6                	flw	ft11,92(sp)
80005620:	cf1d                	beqz	a4,8000565e <input_data+0x8f2>
80005622:	2c445ce7          	0x2c445ce7
80005626:	792d                	lui	s2,0xfffeb
80005628:	fd61                	bnez	a0,80005600 <input_data+0x894>
8000562a:	163e                	slli	a2,a2,0x2f
8000562c:	0434                	addi	a3,sp,520
8000562e:	7f24                	flw	fs1,120(a4)
80005630:	61c6                	flw	ft3,80(sp)
80005632:	0f3a17d7          	0xf3a17d7
80005636:	4382                	lw	t2,0(sp)
80005638:	ff5d                	bnez	a4,800055f6 <input_data+0x88a>
8000563a:	7524                	flw	fs1,104(a0)
8000563c:	5c7c7ae7          	0x5c7c7ae7
80005640:	be92                	fsd	ft4,376(sp)
80005642:	0035                	c.nop	13
80005644:	37c94eb3          	0x37c94eb3
80005648:	d215                	beqz	a2,8000556c <input_data+0x800>
8000564a:	7b68                	flw	fa0,116(a4)
8000564c:	9af5                	andi	a3,a3,-3
8000564e:	1dd8                	addi	a4,sp,756
80005650:	7b61                	lui	s6,0xffff8
80005652:	1fc6                	slli	t6,t6,0x31
80005654:	91b1                	srli	a1,a1,0x2c
80005656:	3fb4                	fld	fa3,120(a5)
80005658:	7cce                	flw	fs9,240(sp)
8000565a:	3b8a                	fld	fs7,160(sp)
8000565c:	5969bfbf 2e70078a 	0x2e70078a5969bfbf
80005664:	ea69                	bnez	a2,80005736 <input_data+0x9ca>
80005666:	c0af03f7          	0xc0af03f7
8000566a:	42df 2c45 2cab      	0x2cab2c4542df
80005670:	daf9                	beqz	a3,80005646 <input_data+0x8da>
80005672:	1df0                	addi	a2,sp,764
80005674:	201f73bb          	0x201f73bb
80005678:	c1b1                	beqz	a1,800056bc <input_data+0x950>
8000567a:	66270f7b          	0x66270f7b
8000567e:	2ce6                	fld	fs9,88(sp)
80005680:	3571                	jal	8000550c <input_data+0x7a0>
80005682:	053d                	addi	a0,a0,15
80005684:	0c4c                	addi	a1,sp,532
80005686:	0cb12027          	fsw	fa1,192(sp) # 4f7300c0 <buflen.2941+0x4f730080>
8000568a:	f75463db          	0xf75463db
8000568e:	497d                	li	s2,31
80005690:	4ff0                	lw	a2,92(a5)
80005692:	190a                	slli	s2,s2,0x22
80005694:	6941                	lui	s2,0x10
80005696:	6474                	flw	fa3,76(s0)
80005698:	14a8aca7          	fsw	fa0,345(a7) # ffff7159 <__global_pointer$+0x7ffefbed>
8000569c:	5ffa6057          	0x5ffa6057
800056a0:	0230                	addi	a2,sp,264
800056a2:	5f38                	lw	a4,120(a4)
800056a4:	405d5a9b          	0x405d5a9b
800056a8:	20f1                	jal	80005774 <input_data+0xa08>
800056aa:	384a                	fld	fa6,176(sp)
800056ac:	a53a                	fsd	fa4,136(sp)
800056ae:	fe496987          	0xfe496987
800056b2:	bb2a2d97          	auipc	s11,0xbb2a2
800056b6:	26c969e7          	0x26c969e7
800056ba:	7f1633ab          	0x7f1633ab
800056be:	15ce                	slli	a1,a1,0x33
800056c0:	e474                	fsw	fa3,76(s0)
800056c2:	1221                	addi	tp,tp,-24
800056c4:	2630                	fld	fa2,72(a2)
800056c6:	148e                	slli	s1,s1,0x23
800056c8:	67d5                	lui	a5,0x15
800056ca:	511f dc38 567a      	0x567adc38511f
800056d0:	90ea                	add	ra,ra,s10
800056d2:	2515                	jal	80005cf6 <input_data+0xf8a>
800056d4:	042c2c93          	slti	s9,s8,66
800056d8:	3fdd                	jal	800056ce <input_data+0x962>
800056da:	f8f2643f 25ea19f1 	0x25ea19f1f8f2643f
800056e2:	2901                	jal	80005af2 <input_data+0xd86>
800056e4:	63be                	flw	ft7,204(sp)
800056e6:	1266                	slli	tp,tp,0x39
800056e8:	eb98                	fsw	fa4,16(a5)
800056ea:	5185                	li	gp,-31
800056ec:	6d54fafb          	0x6d54fafb
800056f0:	73da                	flw	ft7,180(sp)
800056f2:	0f36                	slli	t5,t5,0xd
800056f4:	4814                	lw	a3,16(s0)
800056f6:	0b8e                	slli	s7,s7,0x3
800056f8:	929f 6d4a 9983      	0x99836d4a929f
800056fe:	3291                	jal	80005042 <input_data+0x2d6>
80005700:	8185                	srli	a1,a1,0x1
80005702:	8d110913          	addi	s2,sp,-1839
80005706:	be830dc7          	fmsub.q	fs11,ft6,fs0,fs7,rne
8000570a:	6892                	flw	fa7,4(sp)
8000570c:	6d90fbd7          	0x6d90fbd7
80005710:	31bc1683          	lh	a3,795(s8) # fffff31b <__global_pointer$+0x7fff7daf>
80005714:	1500                	addi	s0,sp,672
80005716:	0db4                	addi	a3,sp,728
80005718:	f0f9                	bnez	s1,800056de <input_data+0x972>
8000571a:	98ae7a53          	0x98ae7a53
8000571e:	142d                	addi	s0,s0,-21
80005720:	49b6                	lw	s3,76(sp)
80005722:	049e                	slli	s1,s1,0x7
80005724:	00c56a53          	fadd.s	fs4,fa0,fa2,unknown
80005728:	2b34                	fld	fa3,80(a4)
8000572a:	800e0223          	sb	zero,-2044(t3) # fffef804 <__global_pointer$+0x7ffe8298>
8000572e:	35f0621b          	0x35f0621b
80005732:	597a                	lw	s2,188(sp)
80005734:	34a2                	fld	fs1,40(sp)
80005736:	1a26                	slli	s4,s4,0x29
80005738:	592c584b          	fnmsub.s	fa6,fs8,fs2,fa1,unknown
8000573c:	19de                	slli	s3,s3,0x37
8000573e:	16b218fb          	0x16b218fb
80005742:	56c5                	li	a3,-15
80005744:	c342                	sw	a6,132(sp)
80005746:	acda499b          	0xacda499b
8000574a:	4cb8                	lw	a4,88(s1)
8000574c:	0309                	addi	t1,t1,2
8000574e:	1c05                	addi	s8,s8,-31
80005750:	71422f0f          	0x71422f0f
80005754:	6781                	0x6781
80005756:	2da44367          	0x2da44367
8000575a:	69aa                	flw	fs3,136(sp)
8000575c:	16be534b          	fnmsub.q	ft6,ft8,fa1,ft2,unknown
80005760:	5faffcaf          	0x5faffcaf
80005764:	f87d                	bnez	s0,8000575a <input_data+0x9ee>
80005766:	1eb0                	addi	a2,sp,888
80005768:	af76                	fsd	ft9,408(sp)
8000576a:	359a3b43          	0x359a3b43
8000576e:	58f0598f          	0x58f0598f
80005772:	418e                	lw	gp,192(sp)
80005774:	7a9e                	flw	fs5,228(sp)
80005776:	60ff                	0x60ff
80005778:	4477c207          	flq	ft4,1095(a5) # 15447 <buflen.2941+0x15407>
8000577c:	5d34                	lw	a3,120(a0)
8000577e:	5a8a                	lw	s5,160(sp)
80005780:	386a4a27          	fsq	ft6,916(s4) # fffe5394 <__global_pointer$+0x7ffdde28>
80005784:	065a84b7          	lui	s1,0x65a8
80005788:	181a                	slli	a6,a6,0x26
8000578a:	36ee                	fld	fa3,248(sp)
8000578c:	8142                	mv	sp,a6
8000578e:	0ad2                	slli	s5,s5,0x14
80005790:	6704                	flw	fs1,8(a4)
80005792:	5de6                	lw	s11,120(sp)
80005794:	667e9cb3          	0x667e9cb3
80005798:	5d161ea7          	0x5d161ea7
8000579c:	a925                	j	80005bd4 <input_data+0xe68>
8000579e:	ce147273          	csrrci	tp,0xce1,8
800057a2:	5a02                	lw	s4,32(sp)
800057a4:	65ff                	0x65ff
800057a6:	41b8                	lw	a4,64(a1)
800057a8:	952d                	srai	a0,a0,0x2b
800057aa:	4616                	lw	a2,68(sp)
800057ac:	b366                	fsd	fs9,416(sp)
800057ae:	2fd8                	fld	fa4,152(a5)
800057b0:	d360                	sw	s0,100(a4)
800057b2:	0b15                	addi	s6,s6,5
800057b4:	1b75                	addi	s6,s6,-3
800057b6:	3f1e                	fld	ft10,480(sp)
800057b8:	192a                	slli	s2,s2,0x2a
800057ba:	6655                	lui	a2,0x15
800057bc:	2134                	fld	fa3,64(a0)
800057be:	01e2                	slli	gp,gp,0x18
800057c0:	a632                	fsd	fa2,264(sp)
800057c2:	1b96                	slli	s7,s7,0x25
800057c4:	6eff                	0x6eff
800057c6:	4f9c                	lw	a5,24(a5)
800057c8:	b6a6                	fsd	fs1,360(sp)
800057ca:	02cd                	addi	t0,t0,19
800057cc:	d099                	beqz	s1,800056d2 <input_data+0x966>
800057ce:	0aa9                	addi	s5,s5,10
800057d0:	50f6                	lw	ra,124(sp)
800057d2:	536d                	li	t1,-5
800057d4:	88d1                	andi	s1,s1,20
800057d6:	afe90d43          	fmadd.q	fs10,fs2,ft10,fs5,rne
800057da:	07a1                	addi	a5,a5,8
800057dc:	ef3e                	fsw	fa5,156(sp)
800057de:	953f65cf          	0x953f65cf
800057e2:	803b370f          	0x803b370f
800057e6:	7612                	flw	fa2,36(sp)
800057e8:	ce4c                	sw	a1,28(a2)
800057ea:	5445                	li	s0,-15
800057ec:	52680fd7          	0x52680fd7
800057f0:	45e2                	lw	a1,24(sp)
800057f2:	0c68                	addi	a0,sp,540
800057f4:	482e                	lw	a6,200(sp)
800057f6:	ae2c70cb          	fnmsub.q	ft1,fs8,ft2,fs5
800057fa:	ec2c7cab          	0xec2c7cab
800057fe:	6ae1                	lui	s5,0x18
80005800:	e13c                	fsw	fa5,64(a0)
80005802:	547e                	lw	s0,252(sp)
80005804:	a950                	fsd	fa2,144(a0)
80005806:	1ebe                	slli	t4,t4,0x2f
80005808:	7bc697fb          	0x7bc697fb
8000580c:	fdc5                	bnez	a1,800057c4 <input_data+0xa58>
8000580e:	4d993b37          	lui	s6,0x4d993
80005812:	83b2432f          	0x83b2432f
80005816:	0e9f 9873 0803      	0x80398730e9f
8000581c:	b732                	fsd	fa2,424(sp)
8000581e:	47e6                	lw	a5,88(sp)
80005820:	b9ad                	j	8000549a <input_data+0x72e>
80005822:	501d                	c.li	zero,-25
80005824:	3234                	fld	fa3,96(a2)
80005826:	43e6                	lw	t2,88(sp)
80005828:	a9e2                	fsd	fs8,208(sp)
8000582a:	26d5                	jal	80005c0e <input_data+0xea2>
8000582c:	c7f5                	beqz	a5,80005918 <input_data+0xbac>
8000582e:	0151                	addi	sp,sp,20
80005830:	c33a                	sw	a4,132(sp)
80005832:	5b90                	lw	a2,48(a5)
80005834:	8976                	mv	s2,t4
80005836:	7fc0                	flw	fs0,60(a5)
80005838:	e0a8                	fsw	fa0,64(s1)
8000583a:	3471                	jal	800052c6 <input_data+0x55a>
8000583c:	73e9750b          	0x73e9750b
80005840:	25d6                	fld	fa1,336(sp)
80005842:	071c                	addi	a5,sp,896
80005844:	8c7a                	mv	s8,t5
80005846:	3198                	fld	fa4,32(a1)
80005848:	acbd                	j	80005ac6 <input_data+0xd5a>
8000584a:	5d64                	lw	s1,124(a0)
8000584c:	b01d                	j	80005072 <input_data+0x306>
8000584e:	3438                	fld	fa4,104(s0)
80005850:	53c2                	lw	t2,48(sp)
80005852:	2728                	fld	fa0,72(a4)
80005854:	90d4                	0x90d4
80005856:	626c0d83          	lb	s11,1574(s8)
8000585a:	37e8                	fld	fa0,232(a5)
8000585c:	3740                	fld	fs0,168(a4)
8000585e:	47a5                	li	a5,9
80005860:	73877afb          	0x73877afb
80005864:	2c8c                	fld	fa1,24(s1)
80005866:	780d                	lui	a6,0xfffe3
80005868:	5c1f 4bf6 a764      	0xa7644bf65c1f
8000586e:	41b5                	li	gp,13
80005870:	9850                	0x9850
80005872:	588e                	lw	a7,224(sp)
80005874:	e798                	fsw	fa4,8(a5)
80005876:	346c                	fld	fa1,232(s0)
80005878:	660f2753          	0x660f2753
8000587c:	0b60                	addi	s0,sp,412
8000587e:	26c6                	fld	fa3,80(sp)
80005880:	5aa8                	lw	a0,112(a3)
80005882:	3fb1                	jal	800057de <input_data+0xa72>
80005884:	4af1                	li	s5,28
80005886:	4eab19eb          	0x4eab19eb
8000588a:	119716cb          	fnmsub.s	fa3,fa4,fs9,ft2,rtz
8000588e:	36d2                	fld	fa3,304(sp)
80005890:	b865                	j	80005148 <input_data+0x3dc>
80005892:	7889                	lui	a7,0xfffe2
80005894:	4eaa874f          	fnmadd.q	fa4,fs5,fa0,fs1,rne
80005898:	731f 7f8d b247      	0xb2477f8d731f
8000589e:	2e04                	fld	fs1,24(a2)
800058a0:	38e6                	fld	fa7,120(sp)
800058a2:	3da0                	fld	fs0,120(a1)
800058a4:	8d86                	mv	s11,ra
800058a6:	42d0                	lw	a2,4(a3)
800058a8:	8655                	srai	a2,a2,0x15
800058aa:	b06e1447          	fmsub.s	fs0,ft8,ft6,fs6,rtz
800058ae:	142657af          	0x142657af
800058b2:	6958                	flw	fa4,20(a0)
800058b4:	127d                	addi	tp,tp,-1
800058b6:	02d4                	addi	a3,sp,324
800058b8:	1808                	addi	a0,sp,48
800058ba:	4e50                	lw	a2,28(a2)
800058bc:	ff59                	bnez	a4,8000585a <input_data+0xaee>
800058be:	17c9                	addi	a5,a5,-14
800058c0:	6a81                	0x6a81
800058c2:	5732                	lw	a4,44(sp)
800058c4:	280b98c7          	fmsub.s	fa7,fs7,ft0,ft5,rtz
800058c8:	c8a5                	beqz	s1,80005938 <input_data+0xbcc>
800058ca:	01e1                	addi	gp,gp,24
800058cc:	b6ca                	fsd	fs2,360(sp)
800058ce:	0dba                	slli	s11,s11,0xe
800058d0:	f698                	fsw	fa4,40(a3)
800058d2:	0e4d                	addi	t3,t3,19
800058d4:	39df 2335 12f4      	0x12f4233539df
800058da:	662e                	flw	fa2,200(sp)
800058dc:	dfc5                	beqz	a5,80005894 <input_data+0xb28>
800058de:	31a6                	fld	ft3,104(sp)
800058e0:	bb4a                	fsd	fs2,432(sp)
800058e2:	17bc                	addi	a5,sp,1000
800058e4:	8905                	andi	a0,a0,1
800058e6:	1f1f bef4 000d      	0xdbef41f1f
800058ec:	3e5303f7          	0x3e5303f7
800058f0:	4fe1                	li	t6,24
800058f2:	5c1f 89af 0d87      	0xd8789af5c1f
800058f8:	6fc0                	flw	fs0,28(a5)
800058fa:	0c6c                	addi	a1,sp,540
800058fc:	09c4                	addi	s1,sp,212
800058fe:	598e                	lw	s3,224(sp)
80005900:	8c4e                	mv	s8,s3
80005902:	600d                	c.lui	zero,0x3
80005904:	53ad                	li	t2,-21
80005906:	7345                	lui	t1,0xffff1
80005908:	5eb1deab          	0x5eb1deab
8000590c:	62a986eb          	0x62a986eb
80005910:	778c                	flw	fa1,40(a5)
80005912:	684e                	flw	fa6,208(sp)
80005914:	9ede                	add	t4,t4,s7
80005916:	52a0                	lw	s0,96(a3)
80005918:	7574                	flw	fa3,108(a0)
8000591a:	37c2                	fld	fa5,48(sp)
8000591c:	53d9                	li	t2,-10
8000591e:	0a5c                	addi	a5,sp,276
80005920:	7a22                	flw	fs4,40(sp)
80005922:	29dd                	jal	80005e18 <input_data+0x10ac>
80005924:	108a                	slli	ra,ra,0x22
80005926:	14c0                	addi	s0,sp,612
80005928:	04da198b          	0x4da198b
8000592c:	342ec987          	flq	fs3,834(t4) # ffffb342 <__global_pointer$+0x7fff3dd6>
80005930:	f6c6                	fsw	fa7,108(sp)
80005932:	0458                	addi	a4,sp,516
80005934:	c459                	beqz	s0,800059c2 <input_data+0xc56>
80005936:	7939                	lui	s2,0xfffee
80005938:	1a90                	addi	a2,sp,368
8000593a:	4d9f b410 03dc      	0x3dcb4104d9f
80005940:	8b1a                	mv	s6,t1
80005942:	77d6                	flw	fa5,116(sp)
80005944:	2af9                	jal	80005b22 <input_data+0xdb6>
80005946:	6279                	lui	tp,0x1e
80005948:	55e0                	lw	s0,108(a1)
8000594a:	0378                	addi	a4,sp,396
8000594c:	a3d2                	fsd	fs4,448(sp)
8000594e:	5a9a6f8f          	0x5a9a6f8f
80005952:	f8480b5b          	0xf8480b5b
80005956:	0e95                	addi	t4,t4,5
80005958:	c145                	beqz	a0,800059f8 <input_data+0xc8c>
8000595a:	3890                	fld	fa2,48(s1)
8000595c:	e741                	bnez	a4,800059e4 <input_data+0xc78>
8000595e:	1314                	addi	a3,sp,416
80005960:	e58d                	bnez	a1,8000598a <input_data+0xc1e>
80005962:	2b7a                	fld	fs6,408(sp)
80005964:	7b38                	flw	fa4,112(a4)
80005966:	07f9                	addi	a5,a5,30
80005968:	aecc                	fsd	fa1,152(a3)
8000596a:	17442c23          	sw	s4,376(s0) # fffee178 <__global_pointer$+0x7ffe6c0c>
8000596e:	12dd                	addi	t0,t0,-9
80005970:	0e38                	addi	a4,sp,792
80005972:	4705                	li	a4,1
80005974:	6b6b5947          	fmsub.d	fs2,fs6,fs6,fa3,unknown
80005978:	3bb4                	fld	fa3,112(a5)
8000597a:	2ed0                	fld	fa2,152(a3)
8000597c:	6c47c04b          	0x6c47c04b
80005980:	0e12                	slli	t3,t3,0x4
80005982:	7a54                	flw	fa3,52(a2)
80005984:	3774479b          	0x3774479b
80005988:	7c82                	flw	fs9,32(sp)
8000598a:	51f651e7          	0x51f651e7
8000598e:	121c                	addi	a5,sp,288
80005990:	3d32                	fld	fs10,296(sp)
80005992:	32d5                	jal	80005376 <input_data+0x60a>
80005994:	fbb4                	fsw	fa3,112(a5)
80005996:	1b14                	addi	a3,sp,432
80005998:	1831                	addi	a6,a6,-20
8000599a:	7f10                	flw	fa2,56(a4)
8000599c:	1f5a                	slli	t5,t5,0x36
8000599e:	68ba                	flw	fa7,140(sp)
800059a0:	adc6                	fsd	fa7,216(sp)
800059a2:	2dd11ff3          	csrrw	t6,0x2dd,sp
800059a6:	6939                	lui	s2,0xe
800059a8:	2488                	fld	fa0,8(s1)
800059aa:	d9f32b53          	0xd9f32b53
800059ae:	bdbc481b          	0xbdbc481b
800059b2:	6ab9                	lui	s5,0xe
800059b4:	26e2                	fld	fa3,24(sp)
800059b6:	2eb2                	fld	ft9,264(sp)
800059b8:	7cd13583          	0x7cd13583
800059bc:	9124                	0x9124
800059be:	e0844ee7          	0xe0844ee7
800059c2:	326e                	fld	ft4,248(sp)
800059c4:	f425                	bnez	s0,8000592c <input_data+0xbc0>
800059c6:	3f81                	jal	80005916 <input_data+0xbaa>
800059c8:	221bb1f3          	csrrc	gp,0x221,s7
800059cc:	680ae06b          	0x680ae06b
800059d0:	02ec                	addi	a1,sp,332
800059d2:	3c49                	jal	80005464 <input_data+0x6f8>
800059d4:	fa5f 7577 9f22      	0x9f227577fa5f
800059da:	2c9d                	jal	80005c50 <input_data+0xee4>
800059dc:	14739627          	0x14739627
800059e0:	0b2a                	slli	s6,s6,0xa
800059e2:	2b1d                	jal	80005f18 <input_data+0x11ac>
800059e4:	42b9                	li	t0,14
800059e6:	3731                	jal	800058f2 <input_data+0xb86>
800059e8:	35ae                	fld	fa1,232(sp)
800059ea:	35c0                	fld	fs0,168(a1)
800059ec:	bcfc                	fsd	fa5,248(s1)
800059ee:	16f966ef          	jal	a3,8009c35c <__global_pointer$+0x94df0>
800059f2:	1ff0                	addi	a2,sp,1020
800059f4:	7b35                	lui	s6,0xfffed
800059f6:	171a                	slli	a4,a4,0x26
800059f8:	1baab177          	0x1baab177
800059fc:	91ea                	add	gp,gp,s10
800059fe:	45c4                	lw	s1,12(a1)
80005a00:	39da                	fld	fs3,432(sp)
80005a02:	44cb4583          	lbu	a1,1100(s6) # fffed44c <__global_pointer$+0x7ffe5ee0>
80005a06:	eeb26bb7          	lui	s7,0xeeb26
80005a0a:	73c1                	lui	t2,0xffff0
80005a0c:	3aba90eb          	0x3aba90eb
80005a10:	518d9d7b          	0x518d9d7b
80005a14:	0924                	addi	s1,sp,152
80005a16:	64d2                	flw	fs1,20(sp)
80005a18:	861e                	mv	a2,t2
80005a1a:	62415d83          	lhu	s11,1572(sp)
80005a1e:	6fd5                	lui	t6,0x15
80005a20:	0635                	addi	a2,a2,13
80005a22:	4a75                	li	s4,29
80005a24:	31f2                	fld	ft3,312(sp)
80005a26:	65f1                	lui	a1,0x1c
80005a28:	69213a4f          	fnmadd.s	fs4,ft2,fs2,fa3,rup
80005a2c:	1266                	slli	tp,tp,0x39
80005a2e:	6751                	lui	a4,0x14
80005a30:	ddb0                	sw	a2,120(a1)
80005a32:	5612                	lw	a2,36(sp)
80005a34:	3bea                	fld	fs7,184(sp)
80005a36:	6122                	flw	ft2,8(sp)
80005a38:	a826                	fsd	fs1,16(sp)
80005a3a:	7d7c                	flw	fa5,124(a0)
80005a3c:	0d6a9e8b          	0xd6a9e8b
80005a40:	05a2                	slli	a1,a1,0x8
80005a42:	3594                	fld	fa3,40(a1)
80005a44:	bf5f 3378 4c62      	0x4c623378bf5f
80005a4a:	55f0                	lw	a2,108(a1)
80005a4c:	7fc9                	lui	t6,0xffff2
80005a4e:	2090                	fld	fa2,0(s1)
80005a50:	d4b4                	sw	a3,104(s1)
80005a52:	287c75e3          	bgeu	s8,t2,800064dc <input_data+0x1770>
80005a56:	104f7e27          	0x104f7e27
80005a5a:	48d2                	lw	a7,20(sp)
80005a5c:	7eec                	flw	fa1,124(a3)
80005a5e:	1178                	addi	a4,sp,172
80005a60:	bf85                	j	800059d0 <input_data+0xc64>
80005a62:	5f76                	lw	t5,124(sp)
80005a64:	791e                	flw	fs2,228(sp)
80005a66:	5d78                	lw	a4,124(a0)
80005a68:	af9c                	fsd	fa5,24(a5)
80005a6a:	54ec                	lw	a1,108(s1)
80005a6c:	bad6                	fsd	fs5,368(sp)
80005a6e:	4ae2                	lw	s5,24(sp)
80005a70:	4fc8                	lw	a0,28(a5)
80005a72:	0e4c11cf          	fnmadd.q	ft3,fs8,ft4,ft1,rtz
80005a76:	65ce                	flw	fa1,208(sp)
80005a78:	3170694b          	fnmsub.s	fs2,ft0,fs7,ft6,unknown
80005a7c:	6b95                	lui	s7,0x5
80005a7e:	3526                	fld	fa0,104(sp)
80005a80:	76e02b87          	flw	fs7,1902(zero) # 76e <buflen.2941+0x72e>
80005a84:	0354                	addi	a3,sp,388
80005a86:	43ba                	lw	t2,140(sp)
80005a88:	8dc1                	or	a1,a1,s0
80005a8a:	1630                	addi	a2,sp,808
80005a8c:	8bfd                	andi	a5,a5,31
80005a8e:	0e8b5aa3          	0xe8b5aa3
80005a92:	3a98                	fld	fa4,48(a3)
80005a94:	46fe6c83          	0x46fe6c83
80005a98:	9bfd                	andi	a5,a5,-1
80005a9a:	288a                	fld	fa7,128(sp)
80005a9c:	3401                	jal	8000549c <input_data+0x730>
80005a9e:	307d                	jal	8000534c <input_data+0x5e0>
80005aa0:	b7d5                	j	80005a84 <input_data+0xd18>
80005aa2:	1790                	addi	a2,sp,992
80005aa4:	4380                	lw	s0,0(a5)
80005aa6:	bfe56243          	fmadd.q	ft4,fa0,ft10,fs7,unknown
80005aaa:	3d2c                	fld	fa1,120(a0)
80005aac:	0d94                	addi	a3,sp,720
80005aae:	ed447d33          	0xed447d33
80005ab2:	7f461927          	0x7f461927
80005ab6:	1e58                	addi	a4,sp,820
80005ab8:	a3bc                	fsd	fa5,64(a5)
80005aba:	333c                	fld	fa5,96(a4)
80005abc:	ee36                	fsw	fa3,28(sp)
80005abe:	796c                	flw	fa1,116(a0)
80005ac0:	d758                	sw	a4,44(a4)
80005ac2:	3559                	jal	80005948 <input_data+0xbdc>
80005ac4:	71bc                	flw	fa5,96(a1)
80005ac6:	a6b01d77          	0xa6b01d77
80005aca:	673c                	flw	fa5,72(a4)
80005acc:	3f1e                	fld	ft10,480(sp)
80005ace:	1532                	slli	a0,a0,0x2c
80005ad0:	1715                	addi	a4,a4,-27
80005ad2:	7fa6                	flw	ft11,104(sp)
80005ad4:	24f2                	fld	fs1,280(sp)
80005ad6:	40ce                	lw	ra,208(sp)
80005ad8:	aa91                	j	80005c2c <input_data+0xec0>
80005ada:	229c                	fld	fa5,0(a3)
80005adc:	0d777e03          	0xd777e03
80005ae0:	1801                	addi	a6,a6,-32
80005ae2:	5e3d                	li	t3,-17
80005ae4:	11fa                	slli	gp,gp,0x3e
80005ae6:	5a51                	li	s4,-12
80005ae8:	5944ca9b          	0x5944ca9b
80005aec:	c086                	sw	ra,64(sp)
80005aee:	6606                	flw	fa2,64(sp)
80005af0:	4048                	lw	a0,4(s0)
80005af2:	69c9                	lui	s3,0x12
80005af4:	2b61                	jal	8000608c <input_data+0x1320>
80005af6:	6d7411fb          	0x6d7411fb
80005afa:	c43f43bb          	0xc43f43bb
80005afe:	26ec                	fld	fa1,200(a3)
80005b00:	c100                	sw	s0,0(a0)
80005b02:	067f                	0x67f
80005b04:	d548                	sw	a0,44(a0)
80005b06:	65e9                	lui	a1,0x1a
80005b08:	4431                	li	s0,12
80005b0a:	4fed                	li	t6,27
80005b0c:	b562                	fsd	fs8,168(sp)
80005b0e:	5162                	lw	sp,56(sp)
80005b10:	e886                	fsw	ft1,80(sp)
80005b12:	44de                	lw	s1,212(sp)
80005b14:	0524                	addi	s1,sp,648
80005b16:	47c2                	lw	a5,16(sp)
80005b18:	e892                	fsw	ft4,80(sp)
80005b1a:	0b34                	addi	a3,sp,408
80005b1c:	760e                	flw	fa2,224(sp)
80005b1e:	0f45                	addi	t5,t5,17
80005b20:	25bbf907          	0x25bbf907
80005b24:	0125630f          	0x125630f
80005b28:	ec4e                	fsw	fs3,24(sp)
80005b2a:	6f28                	flw	fa0,88(a4)
80005b2c:	d032                	sw	a2,32(sp)
80005b2e:	442d                	li	s0,11
80005b30:	0e20a51b          	0xe20a51b
80005b34:	e6c8                	fsw	fa0,12(a3)
80005b36:	6851                	lui	a6,0x14
80005b38:	4b8a                	lw	s7,128(sp)
80005b3a:	3312                	fld	ft6,288(sp)
80005b3c:	9c1c                	0x9c1c
80005b3e:	04c9                	addi	s1,s1,18
80005b40:	6418748b          	0x6418748b
80005b44:	0a4e                	slli	s4,s4,0x13
80005b46:	4af4                	lw	a3,84(a3)
80005b48:	52da5463          	bge	s4,a3,80006070 <input_data+0x1304>
80005b4c:	859f 5ecc 7333      	0x73335ecc859f
80005b52:	3010                	fld	fa2,32(s0)
80005b54:	4c14                	lw	a3,24(s0)
80005b56:	35aa4f5b          	0x35aa4f5b
80005b5a:	78de                	flw	fa7,244(sp)
80005b5c:	b9e0                	fsd	fs0,240(a1)
80005b5e:	ac02624f          	0xac02624f
80005b62:	5ae172ef          	jal	t0,8001d110 <__global_pointer$+0x15ba4>
80005b66:	3d42                	fld	fs10,48(sp)
80005b68:	4b8786af          	0x4b8786af
80005b6c:	076267bf 05b51220 	0x5b51220076267bf
80005b74:	e546                	fsw	fa7,136(sp)
80005b76:	3a367ad7          	0x3a367ad7
80005b7a:	24ec                	fld	fa1,200(s1)
80005b7c:	9cdc                	0x9cdc
80005b7e:	6481                	0x6481
80005b80:	9a26                	add	s4,s4,s1
80005b82:	a6bd6c4f          	fnmadd.q	fs8,fs10,fa1,fs4,unknown
80005b86:	7e4a                	flw	ft8,176(sp)
80005b88:	5f2d8e87          	0x5f2d8e87
80005b8c:	a94d                	j	8000603e <input_data+0x12d2>
80005b8e:	6b4c                	flw	fa1,20(a4)
80005b90:	6591                	lui	a1,0x4
80005b92:	ec5c0caf          	0xec5c0caf
80005b96:	276a                	fld	fa4,152(sp)
80005b98:	aca1                	j	80005df0 <input_data+0x1084>
80005b9a:	42f4                	lw	a3,68(a3)
80005b9c:	08b3d3db          	0x8b3d3db
80005ba0:	0231                	addi	tp,tp,12
80005ba2:	6b3238db          	0x6b3238db
80005ba6:	699d                	lui	s3,0x7
80005ba8:	c88e                	sw	gp,80(sp)
80005baa:	3764                	fld	fs1,232(a4)
80005bac:	c8f2                	sw	t3,80(sp)
80005bae:	7fb1                	lui	t6,0xfffec
80005bb0:	1541dfdb          	0x1541dfdb
80005bb4:	e246                	fsw	fa7,4(sp)
80005bb6:	5ffe                	lw	t6,252(sp)
80005bb8:	b4d1                	j	8000567c <input_data+0x910>
80005bba:	7745                	lui	a4,0xffff1
80005bbc:	15fcce2f          	0x15fcce2f
80005bc0:	3e1f 03b5 a229      	0xa22903b53e1f
80005bc6:	69d5                	lui	s3,0x15
80005bc8:	fafd                	bnez	a3,80005bbe <input_data+0xe52>
80005bca:	3b26                	fld	fs6,104(sp)
80005bcc:	6481                	0x6481
80005bce:	f4324fa3          	0xf4324fa3
80005bd2:	2982                	fld	fs3,0(sp)
80005bd4:	b436                	fsd	fa3,40(sp)
80005bd6:	13e5                	addi	t2,t2,-7
80005bd8:	ab60                	fsd	fs0,208(a4)
80005bda:	22ea                	fld	ft5,152(sp)
80005bdc:	a2f9                	j	80005daa <input_data+0x103e>
80005bde:	69d8                	flw	fa4,20(a1)
80005be0:	94ee                	add	s1,s1,s11
80005be2:	3041                	jal	80005462 <input_data+0x6f6>
80005be4:	058dfb67          	0x58dfb67
80005be8:	35dc                	fld	fa5,168(a1)
80005bea:	2ba8                	fld	fa0,80(a5)
80005bec:	3434                	fld	fa3,104(s0)
80005bee:	90f058ef          	jal	a7,7ff0b4fc <buflen.2941+0x7ff0b4bc>
80005bf2:	48d27313          	andi	t1,tp,1165
80005bf6:	0a60                	addi	s0,sp,284
80005bf8:	bdd6                	fsd	fs5,248(sp)
80005bfa:	144a                	slli	s0,s0,0x32
80005bfc:	8062                	c.mv	zero,s8
80005bfe:	1e46                	slli	t3,t3,0x31
80005c00:	18e0                	addi	s0,sp,124
80005c02:	159f fdc5 5fcb      	0x5fcbfdc5159f
80005c08:	7b46                	flw	fs6,112(sp)
80005c0a:	2df238d3          	0x2df238d3
80005c0e:	5f5c                	lw	a5,60(a4)
80005c10:	a1ce                	fsd	fs3,192(sp)
80005c12:	18d2                	slli	a7,a7,0x34
80005c14:	757d                	lui	a0,0xfffff
80005c16:	2212                	fld	ft4,256(sp)
80005c18:	50dfdaef          	jal	s5,80103924 <__global_pointer$+0xfc3b8>
80005c1c:	c2dc                	sw	a5,4(a3)
80005c1e:	0fec                	addi	a1,sp,988
80005c20:	0db6                	slli	s11,s11,0xd
80005c22:	77ea                	flw	fa5,184(sp)
80005c24:	107f                	0x107f
80005c26:	5db6                	lw	s11,108(sp)
80005c28:	2fa9                	jal	80006382 <input_data+0x1616>
80005c2a:	231c                	fld	fa5,0(a4)
80005c2c:	d08a                	sw	sp,96(sp)
80005c2e:	78b0                	flw	fa2,112(s1)
80005c30:	9a25                	andi	a2,a2,-23
80005c32:	6426                	flw	fs0,72(sp)
80005c34:	5b94                	lw	a3,48(a5)
80005c36:	3688                	fld	fa0,40(a3)
80005c38:	e6da                	fsw	fs6,76(sp)
80005c3a:	17c6                	slli	a5,a5,0x31
80005c3c:	b464                	fsd	fs1,232(s0)
80005c3e:	2f70                	fld	fa2,216(a4)
80005c40:	d6f6                	sw	t4,108(sp)
80005c42:	6c644f6b          	0x6c644f6b
80005c46:	2909                	jal	80006058 <input_data+0x12ec>
80005c48:	25755203          	lhu	tp,599(a0) # fffff257 <__global_pointer$+0x7fff7ceb>
80005c4c:	227f96f7          	0x227f96f7
80005c50:	0736                	slli	a4,a4,0xd
80005c52:	7796                	flw	fa5,100(sp)
80005c54:	2dac                	fld	fa1,88(a1)
80005c56:	4592                	lw	a1,4(sp)
80005c58:	140a3777          	0x140a3777
80005c5c:	f3c1                	bnez	a5,80005bdc <input_data+0xe70>
80005c5e:	61ce                	flw	ft3,208(sp)
80005c60:	6e26                	flw	ft8,72(sp)
80005c62:	6a02                	flw	fs4,0(sp)
80005c64:	f51e                	fsw	ft7,168(sp)
80005c66:	6064                	flw	fs1,68(s0)
80005c68:	7c26                	flw	fs8,104(sp)
80005c6a:	0b5f 939b 7556      	0x7556939b0b5f
80005c70:	2a5f 7e88 5cd7      	0x5cd77e882a5f
80005c76:	589601db          	0x589601db
80005c7a:	83c450a7          	0x83c450a7
80005c7e:	0021                	c.nop	8
80005c80:	5328610f          	0x5328610f
80005c84:	fa75                	bnez	a2,80005c78 <input_data+0xf0c>
80005c86:	741d                	lui	s0,0xfffe7
80005c88:	aaf4                	fsd	fa3,208(a3)
80005c8a:	041e                	slli	s0,s0,0x7
80005c8c:	3385                	jal	800059ec <input_data+0xc80>
80005c8e:	9b627f8f          	0x9b627f8f
80005c92:	0026                	c.slli	zero,0x9
80005c94:	2ddd                	jal	8000638a <input_data+0x161e>
80005c96:	67c2                	flw	fa5,16(sp)
80005c98:	183e                	slli	a6,a6,0x2f
80005c9a:	5f71                	li	t5,-4
80005c9c:	8286                	mv	t0,ra
80005c9e:	47e0                	lw	s0,76(a5)
80005ca0:	57fc                	lw	a5,108(a5)
80005ca2:	3326                	fld	ft6,104(sp)
80005ca4:	e188                	fsw	fa0,0(a1)
80005ca6:	cea26ff3          	csrrsi	t6,0xcea,4
80005caa:	7548                	flw	fa0,44(a0)
80005cac:	29ad                	jal	80006126 <input_data+0x13ba>
80005cae:	f2a17c9b          	0xf2a17c9b
80005cb2:	6578                	flw	fa4,76(a0)
80005cb4:	b685                	j	80005814 <input_data+0xaa8>
80005cb6:	2514                	fld	fa3,8(a0)
80005cb8:	dae5                	beqz	a3,80005ca8 <input_data+0xf3c>
80005cba:	470e                	lw	a4,192(sp)
80005cbc:	88ae                	mv	a7,a1
80005cbe:	414a                	lw	sp,144(sp)
80005cc0:	7e1723f7          	0x7e1723f7
80005cc4:	4797b60f          	0x4797b60f
80005cc8:	22f9                	jal	80005e96 <input_data+0x112a>
80005cca:	43fe                	lw	t2,220(sp)
80005ccc:	8234                	0x8234
80005cce:	7b647c4b          	fnmsub.d	fs8,fs0,fs6,fa5
80005cd2:	42cb4cf3          	0x42cb4cf3
80005cd6:	33f8                	fld	fa4,224(a5)
80005cd8:	37b1                	jal	80005c24 <input_data+0xeb8>
80005cda:	337a                	fld	ft6,440(sp)
80005cdc:	4a41b0ab          	0x4a41b0ab
80005ce0:	5511                	li	a0,-28
80005ce2:	a39e5787          	0xa39e5787
80005ce6:	259c                	fld	fa5,8(a1)
80005ce8:	4f90                	lw	a2,24(a5)
80005cea:	453c                	lw	a5,72(a0)
80005cec:	202edda7          	0x202edda7
80005cf0:	ee10                	fsw	fa2,24(a2)
80005cf2:	73d1                	lui	t2,0xffff4
80005cf4:	2228                	fld	fa0,64(a2)
80005cf6:	6ce0                	flw	fs0,92(s1)
80005cf8:	dcbd                	beqz	s1,80005c76 <input_data+0xf0a>
80005cfa:	45f50f7b          	0x45f50f7b
80005cfe:	108a                	slli	ra,ra,0x22
80005d00:	5899                	li	a7,-26
80005d02:	7f99                	lui	t6,0xfffe6
80005d04:	56e2                	lw	a3,56(sp)
80005d06:	3a06                	fld	fs4,96(sp)
80005d08:	42dd5013          	srai	zero,s10,0x2d
80005d0c:	5bc3d43b          	0x5bc3d43b
80005d10:	3271                	jal	8000569c <input_data+0x930>
80005d12:	dcd04fb7          	lui	t6,0xdcd04
80005d16:	0b18                	addi	a4,sp,400
80005d18:	bb55                	j	80005acc <input_data+0xd60>
80005d1a:	1cc8                	addi	a0,sp,628
80005d1c:	1c4d                	addi	s8,s8,-13
80005d1e:	56f8                	lw	a4,108(a3)
80005d20:	1f64                	addi	s1,sp,956
80005d22:	46e372b7          	lui	t0,0x46e37
80005d26:	174a                	slli	a4,a4,0x32
80005d28:	247f                	0x247f
80005d2a:	811043f3          	0x811043f3
80005d2e:	1edc                	addi	a5,sp,884
80005d30:	29f1                	jal	8000620c <input_data+0x14a0>
80005d32:	d0ed692b          	0xd0ed692b
80005d36:	2b0c                	fld	fa1,16(a4)
80005d38:	53807c37          	lui	s8,0x53807
80005d3c:	8f02                	jr	t5
80005d3e:	4c0565b7          	lui	a1,0x4c056
80005d42:	1cfa                	slli	s9,s9,0x3e
80005d44:	e641                	bnez	a2,80005dcc <input_data+0x1060>
80005d46:	5238                	lw	a4,96(a2)
80005d48:	0c514963          	blt	sp,t0,80005e1a <input_data+0x10ae>
80005d4c:	0030356f          	jal	a0,8000954e <__global_pointer$+0x1fe2>
80005d50:	81de                	mv	gp,s7
80005d52:	37e721af          	0x37e721af
80005d56:	3bd32907          	flw	fs2,957(t1) # ffff13bd <__global_pointer$+0x7ffe9e51>
80005d5a:	48ee                	lw	a7,216(sp)
80005d5c:	7e7f282b          	0x7e7f282b
80005d60:	e911                	bnez	a0,80005d74 <input_data+0x1008>
80005d62:	bc781e93          	0xbc781e93
80005d66:	f81f52e3          	bge	t5,ra,80005cea <input_data+0xf7e>
80005d6a:	1034                	addi	a3,sp,40
80005d6c:	540c                	lw	a1,40(s0)
80005d6e:	60b8                	flw	fa4,64(s1)
80005d70:	4e448da7          	0x4e448da7
80005d74:	939c                	0x939c
80005d76:	7ada                	flw	fs5,180(sp)
80005d78:	8e8d                	sub	a3,a3,a1
80005d7a:	188c                	addi	a1,sp,112
80005d7c:	efe9                	bnez	a5,80005e56 <input_data+0x10ea>
80005d7e:	1a16                	slli	s4,s4,0x25
80005d80:	1e9ca763          	0x1e9ca763
80005d84:	671f 1235 2f27      	0x2f271235671f
80005d8a:	661d                	lui	a2,0x7
80005d8c:	17155447          	fmsub.q	fs0,fa0,fa7,ft2,unknown
80005d90:	291f 7157 83a9      	0x83a97157291f
80005d96:	ccf5266f          	jal	a2,7ff58a64 <buflen.2941+0x7ff58a24>
80005d9a:	496d                	li	s2,27
80005d9c:	63a5                	lui	t2,0x9
80005d9e:	1542                	slli	a0,a0,0x30
80005da0:	a455                	j	80006044 <input_data+0x12d8>
80005da2:	0dd6                	slli	s11,s11,0x15
80005da4:	8322                	mv	t1,s0
80005da6:	6190                	flw	fa2,0(a1)
80005da8:	8242                	mv	tp,a6
80005daa:	ed641203          	lh	tp,-298(s0) # fffe6ed6 <__global_pointer$+0x7ffdf96a>
80005dae:	7cd8                	flw	fa4,60(s1)
80005db0:	a2b8                	fsd	fa4,64(a3)
80005db2:	6530                	flw	fa2,72(a0)
80005db4:	02a1                	addi	t0,t0,8
80005db6:	52e1                	li	t0,-8
80005db8:	a814                	fsd	fa3,16(s0)
80005dba:	6d49                	lui	s10,0x12
80005dbc:	1554                	addi	a3,sp,676
80005dbe:	47ba                	lw	a5,140(sp)
80005dc0:	b802                	fsd	ft0,48(sp)
80005dc2:	0309                	addi	t1,t1,2
80005dc4:	7e0c                	flw	fa1,56(a2)
80005dc6:	4f6a                	lw	t5,152(sp)
80005dc8:	5a46b2c3          	fmadd.d	ft5,fa3,ft4,fa1,rup
80005dcc:	69d9                	lui	s3,0x16
80005dce:	3632                	fld	fa2,296(sp)
80005dd0:	adc9                	j	800064a2 <input_data+0x1736>
80005dd2:	7221                	lui	tp,0xfffe8
80005dd4:	0b52                	slli	s6,s6,0x14
80005dd6:	05a3216b          	0x5a3216b
80005dda:	3d91                	jal	80005c2e <input_data+0xec2>
80005ddc:	4881f2b7          	lui	t0,0x4881f
80005de0:	06c34b8b          	0x6c34b8b
80005de4:	4f41                	li	t5,16
80005de6:	0fd74577          	0xfd74577
80005dea:	2fb8                	fld	fa4,88(a5)
80005dec:	227f                	0x227f
80005dee:	3f1a                	fld	ft10,416(sp)
80005df0:	5cc9                	li	s9,-14
80005df2:	19c1                	addi	s3,s3,-16
80005df4:	a605                	j	80006114 <input_data+0x13a8>
80005df6:	7f10                	flw	fa2,56(a4)
80005df8:	2449                	jal	8000607a <input_data+0x130e>
80005dfa:	4609                	li	a2,2
80005dfc:	3495                	jal	80005860 <input_data+0xaf4>
80005dfe:	5f89                	li	t6,-30
80005e00:	b74e                	fsd	fs3,424(sp)
80005e02:	3462                	fld	fs0,56(sp)
80005e04:	1a9b193f 0f5c9eb7 	0xf5c9eb71a9b193f
80005e0c:	21dc                	fld	fa5,128(a1)
80005e0e:	2fb9                	jal	8000656c <input_data+0x1800>
80005e10:	2390                	fld	fa2,0(a5)
80005e12:	52b9                	li	t0,-18
80005e14:	5dbc                	lw	a5,120(a1)
80005e16:	777e                	flw	fa4,252(sp)
80005e18:	07e4                	addi	s1,sp,972
80005e1a:	f6013b8f          	0xf6013b8f
80005e1e:	5520                	lw	s0,104(a0)
80005e20:	2930                	fld	fa2,80(a0)
80005e22:	b2da0a7b          	0xb2da0a7b
80005e26:	0476                	slli	s0,s0,0x1d
80005e28:	0af0                	addi	a2,sp,348
80005e2a:	ef612593          	slti	a1,sp,-266
80005e2e:	4469                	li	s0,26
80005e30:	e19d                	bnez	a1,80005e56 <input_data+0x10ea>
80005e32:	06b6                	slli	a3,a3,0xd
80005e34:	1d74                	addi	a3,sp,700
80005e36:	3d4e                	fld	fs10,240(sp)
80005e38:	2dc1                	jal	80006508 <input_data+0x179c>
80005e3a:	70c4                	flw	fs1,36(s1)
80005e3c:	7398                	flw	fa4,32(a5)
80005e3e:	7476                	flw	fs0,124(sp)
80005e40:	12d4                	addi	a3,sp,356
80005e42:	1cb4                	addi	a3,sp,632
80005e44:	1886                	slli	a7,a7,0x21
80005e46:	1a04                	addi	s1,sp,304
80005e48:	5ea0                	lw	s0,120(a3)
80005e4a:	82a85f6f          	jal	t5,7ff8ae74 <buflen.2941+0x7ff8ae34>
80005e4e:	f449044f          	0xf449044f
80005e52:	5e3d                	li	t3,-17
80005e54:	1b717563          	bgeu	sp,s7,80005ffe <input_data+0x1292>
80005e58:	88e1                	andi	s1,s1,24
80005e5a:	7185                	lui	gp,0xfffe1
80005e5c:	f2c1                	bnez	a3,80005ddc <input_data+0x1070>
80005e5e:	2edd                	jal	80006254 <input_data+0x14e8>
80005e60:	1fe2                	slli	t6,t6,0x38
80005e62:	1571                	addi	a0,a0,-4
80005e64:	c58d                	beqz	a1,80005e8e <input_data+0x1122>
80005e66:	82bc7257          	0x82bc7257
80005e6a:	003d                	c.nop	15
80005e6c:	5eb2                	lw	t4,44(sp)
80005e6e:	641f 5118 4430      	0x44305118641f
80005e74:	4838                	lw	a4,80(s0)
80005e76:	c6375727          	0xc6375727
80005e7a:	292d                	jal	800062b4 <input_data+0x1548>
80005e7c:	50ec                	lw	a1,100(s1)
80005e7e:	b4405a5b          	0xb4405a5b
80005e82:	15aa                	slli	a1,a1,0x2a
80005e84:	f556                	fsw	fs5,168(sp)
80005e86:	8743583b          	0x8743583b
80005e8a:	d5303e3b          	0xd5303e3b
80005e8e:	a7e9795b          	0xa7e9795b
80005e92:	0d08                	addi	a0,sp,656
80005e94:	e05e                	fsw	fs7,0(sp)
80005e96:	3181                	jal	80005ad6 <input_data+0xd6a>
80005e98:	d8e5                	beqz	s1,80005e88 <input_data+0x111c>
80005e9a:	3ad616c3          	fmadd.d	fa3,fa2,fa3,ft7,rtz
80005e9e:	0675                	addi	a2,a2,29
80005ea0:	f25c                	fsw	fa5,36(a2)
80005ea2:	057f                	0x57f
80005ea4:	cc9f 0cfa b38c      	0xb38c0cfacc9f
80005eaa:	5abc                	lw	a5,112(a3)
80005eac:	71b9                	lui	gp,0xfffee
80005eae:	8d403cdb          	0x8d403cdb
80005eb2:	53de                	lw	t2,244(sp)
80005eb4:	33226d3b          	0x33226d3b
80005eb8:	ce81                	beqz	a3,80005ed0 <input_data+0x1164>
80005eba:	7556                	flw	fa0,116(sp)
80005ebc:	0bc1                	addi	s7,s7,16
80005ebe:	5700                	lw	s0,40(a4)
80005ec0:	495f 502b 6ac2      	0x6ac2502b495f
80005ec6:	2a4c                	fld	fa1,144(a2)
80005ec8:	5e7e                	lw	t3,252(sp)
80005eca:	1f06                	slli	t5,t5,0x21
80005ecc:	8d0d                	sub	a0,a0,a1
80005ece:	7a1a                	flw	fs4,164(sp)
80005ed0:	ac82                	fsd	ft0,88(sp)
80005ed2:	696d                	lui	s2,0x1b
80005ed4:	3c6ee86b          	0x3c6ee86b
80005ed8:	eb55                	bnez	a4,80005f8c <input_data+0x1220>
80005eda:	54be65e7          	0x54be65e7
80005ede:	3d2d                	jal	80005d18 <input_data+0xfac>
80005ee0:	8b7a                	mv	s6,t5
80005ee2:	5222                	lw	tp,40(sp)
80005ee4:	e2f0                	fsw	fa2,68(a3)
80005ee6:	5cfd                	li	s9,-1
80005ee8:	8ed1                	or	a3,a3,a2
80005eea:	085b2057          	0x85b2057
80005eee:	5b74                	lw	a3,116(a4)
80005ef0:	0239                	addi	tp,tp,14
80005ef2:	1f79                	addi	t5,t5,-2
80005ef4:	78276307          	0x78276307
80005ef8:	13640e9b          	0x13640e9b
80005efc:	0be4                	addi	s1,sp,476
80005efe:	43cd                	li	t2,19
80005f00:	8c1c                	0x8c1c
80005f02:	1d7a704b          	0x1d7a704b
80005f06:	6f86                	flw	ft11,64(sp)
80005f08:	6351                	lui	t1,0x14
80005f0a:	2aac                	fld	fa1,80(a3)
80005f0c:	09fe3077          	0x9fe3077
80005f10:	1e4c                	addi	a1,sp,820
80005f12:	bae34d03          	lbu	s10,-1106(t1) # 13bae <buflen.2941+0x13b6e>
80005f16:	45df 5ebc 784d      	0x784d5ebc45df
80005f1c:	744d6397          	auipc	t2,0x744d6
80005f20:	463a                	lw	a2,140(sp)
80005f22:	634e                	flw	ft6,208(sp)
80005f24:	a105                	j	80006344 <input_data+0x15d8>
80005f26:	6d5d                	lui	s10,0x17
80005f28:	32ee431b          	0x32ee431b
80005f2c:	c920                	sw	s0,80(a0)
80005f2e:	1268                	addi	a0,sp,300
80005f30:	6e48                	flw	fa0,28(a2)
80005f32:	1df4                	addi	a3,sp,764
80005f34:	b7c8                	fsd	fa0,168(a5)
80005f36:	7d82                	flw	fs11,32(sp)
80005f38:	3d99                	jal	80005d8e <input_data+0x1022>
80005f3a:	60d6                	flw	ft1,84(sp)
80005f3c:	49c4                	lw	s1,20(a1)
80005f3e:	1ea6                	slli	t4,t4,0x29
80005f40:	8a86                	mv	s5,ra
80005f42:	3a2d                	jal	8000587c <input_data+0xb10>
80005f44:	0d8e43d3          	0xd8e43d3
80005f48:	d5de                	sw	s7,232(sp)
80005f4a:	3661                	jal	80005ad2 <input_data+0xd66>
80005f4c:	4040                	lw	s0,4(s0)
80005f4e:	2ed9                	jal	80006324 <input_data+0x15b8>
80005f50:	8f99                	sub	a5,a5,a4
80005f52:	1ae8                	addi	a0,sp,380
80005f54:	90c0                	0x90c0
80005f56:	84c10ca3          	sb	a2,-1959(sp)
80005f5a:	7b4e                	flw	fs6,240(sp)
80005f5c:	8f21                	xor	a4,a4,s0
80005f5e:	06fd                	addi	a3,a3,31
80005f60:	736f35b7          	lui	a1,0x736f3
80005f64:	c4ff                	0xc4ff
80005f66:	c41b0c8f          	0xc41b0c8f
80005f6a:	092d7643          	fmadd.s	fa2,fs10,fs2,ft1
80005f6e:	3862                	fld	fa6,56(sp)
80005f70:	a9d0                	fsd	fa2,144(a1)
80005f72:	d94853fb          	0xd94853fb
80005f76:	6202                	flw	ft4,0(sp)
80005f78:	43e409b7          	lui	s3,0x43e40
80005f7c:	2870b66f          	jal	a2,80011a02 <__global_pointer$+0xa496>
80005f80:	4c3ceec7          	0x4c3ceec7
80005f84:	4dbe                	lw	s11,204(sp)
80005f86:	2b26                	fld	fs6,72(sp)
80005f88:	3f66                	fld	ft10,120(sp)
80005f8a:	0ba5                	addi	s7,s7,9
80005f8c:	1fe2                	slli	t6,t6,0x38
80005f8e:	5952                	lw	s2,52(sp)
80005f90:	d0de                	sw	s7,96(sp)
80005f92:	3b90                	fld	fa2,48(a5)
80005f94:	d69d                	beqz	a3,80005ec2 <input_data+0x1156>
80005f96:	6a2e634b          	fnmsub.d	ft6,ft8,ft2,fa3,unknown
80005f9a:	6bb957d7          	0x6bb957d7
80005f9e:	5d11                	li	s10,-28
80005fa0:	6d30                	flw	fa2,88(a0)
80005fa2:	0906                	slli	s2,s2,0x1
80005fa4:	daa0                	sw	s0,112(a3)
80005fa6:	52a12997          	auipc	s3,0x52a12
80005faa:	60b9                	lui	ra,0xe
80005fac:	b44a                	fsd	fs2,40(sp)
80005fae:	2439                	jal	800061bc <input_data+0x1450>
80005fb0:	6f58                	flw	fa4,28(a4)
80005fb2:	042a                	slli	s0,s0,0xa
80005fb4:	3cf2                	fld	fs9,312(sp)
80005fb6:	204c44af          	0x204c44af
80005fba:	3f66                	fld	ft10,120(sp)
80005fbc:	a394                	fsd	fa3,0(a5)
80005fbe:	4fc1                	li	t6,16
80005fc0:	472e                	lw	a4,200(sp)
80005fc2:	034e                	slli	t1,t1,0x13
80005fc4:	8cce                	mv	s9,s3
80005fc6:	4c2d                	li	s8,11
80005fc8:	31e3fa47          	fmsub.s	fs4,ft7,ft10,ft6
80005fcc:	7220fd73          	csrrci	s10,0x722,1
80005fd0:	b8b0                	fsd	fa2,112(s1)
80005fd2:	3e8d                	jal	80005b44 <input_data+0xdd8>
80005fd4:	54b6                	lw	s1,108(sp)
80005fd6:	09a0                	addi	s0,sp,216
80005fd8:	deea                	sw	s10,124(sp)
80005fda:	04ca                	slli	s1,s1,0x12
80005fdc:	625f 253c 47ff      	0x47ff253c625f
80005fe2:	346a                	fld	fs0,184(sp)
80005fe4:	3f95e34b          	fnmsub.q	ft6,fa1,fs9,ft7,unknown
80005fe8:	049e                	slli	s1,s1,0x7
80005fea:	51fc                	lw	a5,100(a1)
80005fec:	5d0e34db          	0x5d0e34db
80005ff0:	2382                	fld	ft7,0(sp)
80005ff2:	038a                	slli	t2,t2,0x2
80005ff4:	399987cf          	fnmadd.s	fa5,fs3,fs9,ft7,rne
80005ff8:	35d0                	fld	fa2,168(a1)
80005ffa:	79d5                	lui	s3,0xffff5
80005ffc:	2b82                	fld	fs7,0(sp)
80005ffe:	4638                	lw	a4,72(a2)
80006000:	4e25                	li	t3,9
80006002:	4520                	lw	s0,72(a0)
80006004:	dc36                	sw	a3,56(sp)
80006006:	115c                	addi	a5,sp,164
80006008:	0a50ba03          	0xa50ba03
8000600c:	b9a9                	j	80005c66 <input_data+0xefa>
8000600e:	ebc45297          	auipc	t0,0xebc45
80006012:	26dd                	jal	800063f8 <input_data+0x168c>
80006014:	56e2                	lw	a3,56(sp)
80006016:	6b6d                	lui	s6,0x1b
80006018:	7dfd                	lui	s11,0xfffff
8000601a:	5cb9                	li	s9,-18
8000601c:	18b0                	addi	a2,sp,120
8000601e:	2530                	fld	fa2,72(a0)
80006020:	b1a2                	fsd	fs0,224(sp)
80006022:	5e28                	lw	a0,120(a2)
80006024:	624efe03          	0x624efe03
80006028:	10244d23          	0x10244d23
8000602c:	14df5beb          	0x14df5beb
80006030:	46d09d13          	0x46d09d13
80006034:	3548b68b          	0x3548b68b
80006038:	0dde                	slli	s11,s11,0x17
8000603a:	1fda                	slli	t6,t6,0x36
8000603c:	9926                	add	s2,s2,s1
8000603e:	3f00                	fld	fs0,56(a4)
80006040:	323a                	fld	ft4,424(sp)
80006042:	48c70dbf 133b7e3c 	0x133b7e3c48c70dbf
8000604a:	2e6c                	fld	fa1,216(a2)
8000604c:	cfda                	sw	s6,220(sp)
8000604e:	a4ed0ef3          	0xa4ed0ef3
80006052:	063c                	addi	a5,sp,776
80006054:	d49f 4f2b b592      	0xb5924f2bd49f
8000605a:	6f6a                	flw	ft10,152(sp)
8000605c:	6e24d8eb          	0x6e24d8eb
80006060:	6db5                	lui	s11,0xd
80006062:	0f6b128b          	0xf6b128b
80006066:	1e30                	addi	a2,sp,824
80006068:	845e                	mv	s0,s7
8000606a:	491c6bc7          	fmsub.s	fs7,fs8,fa7,fs1,unknown
8000606e:	2435                	jal	8000629a <input_data+0x152e>
80006070:	ecf0                	fsw	fa2,92(s1)
80006072:	5ce0                	lw	s0,124(s1)
80006074:	493e456f          	jal	a0,800ead06 <__global_pointer$+0xe379a>
80006078:	832c                	0x832c
8000607a:	d0102aef          	jal	s5,7ff08d7a <buflen.2941+0x7ff08d3a>
8000607e:	7501                	lui	a0,0xfffe0
80006080:	de19                	beqz	a2,80005f9e <input_data+0x1232>
80006082:	3c49                	jal	80005b14 <input_data+0xda8>
80006084:	b8f5                	j	80005980 <input_data+0xc14>
80006086:	47d2                	lw	a5,20(sp)
80006088:	21bf03af          	0x21bf03af
8000608c:	3dfe                	fld	fs11,504(sp)
8000608e:	18fa                	slli	a7,a7,0x3e
80006090:	7d20                	flw	fs0,120(a0)
80006092:	99062bf3          	csrrs	s7,0x990,a2
80006096:	ceef1f03          	lh	t5,-786(t5) # 9cee <buflen.2941+0x9cae>
8000609a:	f9ef67b7          	lui	a5,0xf9ef6
8000609e:	5ff3644b          	fnmsub.q	fs0,ft6,ft11,fa1,unknown
800060a2:	56be                	lw	a3,236(sp)
800060a4:	69c4                	flw	fs1,20(a1)
800060a6:	7e4a                	flw	ft8,176(sp)
800060a8:	6fa2                	flw	ft11,8(sp)
800060aa:	52b62b7b          	0x52b62b7b
800060ae:	5d51                	li	s10,-12
800060b0:	261f 2b0e 5867      	0x58672b0e261f
800060b6:	2c15                	jal	800062ea <input_data+0x157e>
800060b8:	34968f93          	addi	t6,a3,841 # e8f4c8c5 <__global_pointer$+0x68f45359>
800060bc:	b46e                	fsd	fs11,40(sp)
800060be:	3734                	fld	fa3,104(a4)
800060c0:	3b99408f          	0x3b99408f
800060c4:	94d2                	add	s1,s1,s4
800060c6:	7a3f4e8f          	0x7a3f4e8f
800060ca:	6ca90747          	0x6ca90747
800060ce:	615d                	addi	sp,sp,432
800060d0:	3372                	fld	ft6,312(sp)
800060d2:	4bae                	lw	s7,200(sp)
800060d4:	6ad2                	flw	fs5,20(sp)
800060d6:	f67f16a7          	0xf67f16a7
800060da:	3e38                	fld	fa4,120(a2)
800060dc:	27ac473b          	0x27ac473b
800060e0:	3417d43b          	0x3417d43b
800060e4:	74f2                	flw	fs1,60(sp)
800060e6:	2aca                	fld	fs5,144(sp)
800060e8:	c95e                	sw	s7,144(sp)
800060ea:	eda17f4b          	0xeda17f4b
800060ee:	2d68                	fld	fa0,216(a0)
800060f0:	25c2                	fld	fa1,16(sp)
800060f2:	5fa0                	lw	s0,120(a5)
800060f4:	e2fd                	bnez	a3,800061da <input_data+0x146e>
800060f6:	540d27bb          	0x540d27bb
800060fa:	1e9c                	addi	a5,sp,880
800060fc:	930e                	add	t1,t1,gp
800060fe:	59a5                	li	s3,-23
80006100:	9488                	0x9488
80006102:	4349                	li	t1,18
80006104:	6e11                	lui	t3,0x4
80006106:	05ee                	slli	a1,a1,0x1b
80006108:	deec                	sw	a1,124(a3)
8000610a:	2b16                	fld	fs6,320(sp)
8000610c:	1714                	addi	a3,sp,928
8000610e:	3e6d                	jal	80005cc8 <input_data+0xf5c>
80006110:	7518                	flw	fa4,40(a0)
80006112:	20d0                	fld	fa2,128(s1)
80006114:	345c                	fld	fa5,168(s0)
80006116:	43c8408b          	0x43c8408b
8000611a:	1144                	addi	s1,sp,164
8000611c:	68ec                	flw	fa1,84(s1)
8000611e:	0ce8                	addi	a0,sp,604
80006120:	c688                	sw	a0,8(a3)
80006122:	4602                	lw	a2,0(sp)
80006124:	5676                	lw	a2,124(sp)
80006126:	3268                	fld	fa0,224(a2)
80006128:	c924                	sw	s1,80(a0)
8000612a:	5ca1                	li	s9,-24
8000612c:	9562                	add	a0,a0,s8
8000612e:	226a                	fld	ft4,152(sp)
80006130:	5b1f 2f1a d05b      	0xd05b2f1a5b1f
80006136:	2845                	jal	800061e6 <input_data+0x147a>
80006138:	78f220af          	0x78f220af
8000613c:	8960                	0x8960
8000613e:	099f a911 0da5      	0xda5a911099f
80006144:	2c54a803          	lw	a6,709(s1) # 65a82c5 <buflen.2941+0x65a8285>
80006148:	9ad6                	add	s5,s5,s5
8000614a:	50a2                	lw	ra,40(sp)
8000614c:	3314                	fld	fa3,32(a4)
8000614e:	7e90                	flw	fa2,56(a3)
80006150:	a565                	j	800067f8 <input_data+0x1a8c>
80006152:	32cd                	jal	80005b34 <input_data+0xdc8>
80006154:	2ba0                	fld	fs0,80(a5)
80006156:	4cf4                	lw	a3,92(s1)
80006158:	c174                	sw	a3,68(a0)
8000615a:	1abe                	slli	s5,s5,0x2f
8000615c:	4bc0                	lw	s0,20(a5)
8000615e:	2af7746f          	jal	s0,8007dc0c <__global_pointer$+0x766a0>
80006162:	9973370b          	0x9973370b
80006166:	3152                	fld	ft2,304(sp)
80006168:	aba4                	fsd	fs1,80(a5)
8000616a:	431d                	li	t1,7
8000616c:	b420                	fsd	fs0,104(s0)
8000616e:	0bcc                	addi	a1,sp,468
80006170:	8f9a                	mv	t6,t1
80006172:	10c4                	addi	s1,sp,100
80006174:	45da2b4b          	0x45da2b4b
80006178:	7cb6                	flw	fs9,108(sp)
8000617a:	ed702d97          	auipc	s11,0xed702
8000617e:	2381                	jal	800066be <input_data+0x1952>
80006180:	2954                	fld	fa3,144(a0)
80006182:	7ef4                	flw	fa3,124(a3)
80006184:	1f9c                	addi	a5,sp,1008
80006186:	55a9                	li	a1,-22
80006188:	5646a03f 2d08d921 	0x2d08d9215646a03f
80006190:	a5cd                	j	80006872 <input_data+0x1b06>
80006192:	7f02                	flw	ft10,32(sp)
80006194:	fa38                	fsw	fa4,112(a2)
80006196:	6d62                	flw	fs10,24(sp)
80006198:	754a                	flw	fa0,176(sp)
8000619a:	89185c3f 35c46e96 	0x35c46e9689185c3f
800061a2:	398c                	fld	fa1,48(a1)
800061a4:	d6ad                	beqz	a3,8000610e <input_data+0x13a2>
800061a6:	2812                	fld	fa6,256(sp)
800061a8:	3aae                	fld	fs5,232(sp)
800061aa:	0ae2                	slli	s5,s5,0x18
800061ac:	8aa1                	andi	a3,a3,8
800061ae:	0ce6                	slli	s9,s9,0x19
800061b0:	aeb6                	fsd	fa3,344(sp)
800061b2:	4ef5                	li	t4,29
800061b4:	463a                	lw	a2,140(sp)
800061b6:	443a                	lw	s0,140(sp)
800061b8:	2e78                	fld	fa4,216(a2)
800061ba:	1b16                	slli	s6,s6,0x25
800061bc:	48bfb5ef          	jal	a1,80101e46 <__global_pointer$+0xfa8da>
800061c0:	e4a2                	fsw	fs0,72(sp)
800061c2:	5aa6                	lw	s5,104(sp)
800061c4:	d36e                	sw	s11,164(sp)
800061c6:	6b25                	lui	s6,0x9
800061c8:	f286                	fsw	ft1,100(sp)
800061ca:	5e79                	li	t3,-2
800061cc:	2c50                	fld	fa2,152(s0)
800061ce:	2f82                	fld	ft11,0(sp)
800061d0:	9de8                	0x9de8
800061d2:	6c91                	lui	s9,0x4
800061d4:	e55e                	fsw	fs7,136(sp)
800061d6:	68357ed7          	0x68357ed7
800061da:	3a04                	fld	fs1,48(a2)
800061dc:	cef1                	beqz	a3,800062b8 <input_data+0x154c>
800061de:	3b1e                	fld	fs6,480(sp)
800061e0:	a34d                	j	80006782 <input_data+0x1a16>
800061e2:	2880                	fld	fs0,16(s1)
800061e4:	74ec5c83          	lhu	s9,1870(s8) # 5380774e <buflen.2941+0x5380770e>
800061e8:	5531                	li	a0,-20
800061ea:	7cd2                	flw	fs9,52(sp)
800061ec:	1753184b          	fnmsub.q	fa6,ft6,fs5,ft2,rtz
800061f0:	8e1a                	mv	t3,t1
800061f2:	5fa0                	lw	s0,120(a5)
800061f4:	e330                	fsw	fa2,64(a4)
800061f6:	2262                	fld	ft4,24(sp)
800061f8:	436d                	li	t1,27
800061fa:	6610                	flw	fa2,8(a2)
800061fc:	e22a                	fsw	fa0,4(sp)
800061fe:	1488                	addi	a0,sp,608
80006200:	1664                	addi	s1,sp,812
80006202:	42ec                	lw	a1,68(a3)
80006204:	62e38bab          	0x62e38bab
80006208:	2e2c                	fld	fa1,88(a2)
8000620a:	4f35                	li	t5,13
8000620c:	4258                	lw	a4,4(a2)
8000620e:	02e8                	addi	a0,sp,332
80006210:	c368                	sw	a0,68(a4)
80006212:	f5ee0ebf ae3b6d70 	0xae3b6d70f5ee0ebf
8000621a:	5d39                	li	s10,-18
8000621c:	47ea                	lw	a5,152(sp)
8000621e:	52a2                	lw	t0,40(sp)
80006220:	000d                	c.nop	3
80006222:	1cf5                	addi	s9,s9,-3
80006224:	d6fc                	sw	a5,108(a3)
80006226:	0234                	addi	a3,sp,264
80006228:	7742                	flw	fa4,48(sp)
8000622a:	1540                	addi	s0,sp,676
8000622c:	0326                	slli	t1,t1,0x9
8000622e:	63de                	flw	ft7,212(sp)
80006230:	19a2b58b          	0x19a2b58b
80006234:	5bd8                	lw	a4,52(a5)
80006236:	182e74c7          	fmsub.s	fs1,ft8,ft2,ft3
8000623a:	6a60                	flw	fs0,84(a2)
8000623c:	6d9de20f          	0x6d9de20f
80006240:	ae28                	fsd	fa0,88(a2)
80006242:	5f21                	li	t5,-24
80006244:	119f8227          	0x119f8227
80006248:	10d2                	slli	ra,ra,0x34
8000624a:	0b8f180b          	0xb8f180b
8000624e:	7e0a                	flw	ft8,160(sp)
80006250:	2220                	fld	fs0,64(a2)
80006252:	5a55                	li	s4,-11
80006254:	2062                	fld	ft0,24(sp)
80006256:	5be2                	lw	s7,56(sp)
80006258:	56126e87          	0x56126e87
8000625c:	0341                	addi	t1,t1,16
8000625e:	486d                	li	a6,27
80006260:	f0a0                	fsw	fs0,96(s1)
80006262:	f7b7649b          	0xf7b7649b
80006266:	5c26                	lw	s8,104(sp)
80006268:	420c                	lw	a1,0(a2)
8000626a:	7190                	flw	fa2,32(a1)
8000626c:	7fd8                	flw	fa4,60(a5)
8000626e:	207a                	fld	ft0,408(sp)
80006270:	26e9                	jal	8000663a <input_data+0x18ce>
80006272:	7b55                	lui	s6,0xffff5
80006274:	c97d                	beqz	a0,8000636a <input_data+0x15fe>
80006276:	64a6                	flw	fs1,72(sp)
80006278:	6075                	c.lui	zero,0x1d
8000627a:	544a                	lw	s0,176(sp)
8000627c:	13ccfe2f          	0x13ccfe2f
80006280:	25aa979b          	0x25aa979b
80006284:	193b0a53          	fdiv.s	fs4,fs6,fs3,rne
80006288:	4f730137          	lui	sp,0x4f730
8000628c:	3aed                	jal	80005c86 <input_data+0xf1a>
8000628e:	2085                	jal	800062ee <input_data+0x1582>
80006290:	6408                	flw	fa0,8(s0)
80006292:	127e                	slli	tp,tp,0x3f
80006294:	6cd4                	flw	fa3,28(s1)
80006296:	eb5f3947          	fmsub.d	fs2,ft10,fs5,ft9,rup
8000629a:	5cd41633          	0x5cd41633
8000629e:	79c3733f 1df96604 	0x1df9660479c3733f
800062a6:	03e500af          	0x3e500af
800062aa:	094a                	slli	s2,s2,0x12
800062ac:	29c439a7          	fsd	ft8,659(s0)
800062b0:	263e                	fld	fa2,456(sp)
800062b2:	56df 2d0a 4efb      	0x4efb2d0a56df
800062b8:	2f1a                	fld	ft10,384(sp)
800062ba:	0a42                	slli	s4,s4,0x10
800062bc:	bfb6                	fsd	fa3,504(sp)
800062be:	2799                	jal	80006a04 <input_data+0x1c98>
800062c0:	65a60287          	0x65a60287
800062c4:	3942                	fld	fs2,48(sp)
800062c6:	1675                	addi	a2,a2,-3
800062c8:	973c                	0x973c
800062ca:	57c5                	li	a5,-15
800062cc:	2e08                	fld	fa0,24(a2)
800062ce:	147c                	addi	a5,sp,556
800062d0:	9932                	add	s2,s2,a2
800062d2:	51b0                	lw	a2,96(a1)
800062d4:	1efe                	slli	t4,t4,0x3f
800062d6:	0fd1                	addi	t6,t6,20
800062d8:	8a2c                	0x8a2c
800062da:	7bf2                	flw	fs7,60(sp)
800062dc:	6522                	flw	fa0,8(sp)
800062de:	6b7a                	flw	fs6,156(sp)
800062e0:	4855                	li	a6,21
800062e2:	1ef2                	slli	t4,t4,0x3c
800062e4:	fea1                	bnez	a3,8000623c <input_data+0x14d0>
800062e6:	5bb1                	li	s7,-20
800062e8:	4038                	lw	a4,64(s0)
800062ea:	7320                	flw	fs0,96(a4)
800062ec:	3a7a                	fld	fs4,440(sp)
800062ee:	468a                	lw	a3,128(sp)
800062f0:	58cb01ab          	0x58cb01ab
800062f4:	9709                	srai	a4,a4,0x22
800062f6:	1d82                	slli	s11,s11,0x20
800062f8:	2fbefe13          	andi	t3,t4,763
800062fc:	5874                	lw	a3,116(s0)
800062fe:	0a8e                	slli	s5,s5,0x3
80006300:	4d08aadb          	0x4d08aadb
80006304:	8da5                	xor	a1,a1,s1
80006306:	505e                	0x505e
80006308:	5c6b23e3          	0x5c6b23e3
8000630c:	d515                	beqz	a0,80006238 <input_data+0x14cc>
8000630e:	2995                	jal	80006782 <input_data+0x1a16>
80006310:	ffd4                	fsw	fa3,60(a5)
80006312:	330e                	fld	ft6,224(sp)
80006314:	76c9de3b          	0x76c9de3b
80006318:	db78                	sw	a4,116(a4)
8000631a:	46e0                	lw	s0,76(a3)
8000631c:	0d36494b          	0xd36494b
80006320:	0957f94f          	fnmadd.s	fs2,fa5,fs5,ft1
80006324:	4c36                	lw	s8,76(sp)
80006326:	024d                	addi	tp,tp,19
80006328:	379a                	fld	fa5,416(sp)
8000632a:	d2d71667          	0xd2d71667
8000632e:	d9767be3          	bgeu	a2,s7,800060c4 <input_data+0x1358>
80006332:	7d5c                	flw	fa5,60(a0)
80006334:	14624fa3          	0x14624fa3
80006338:	29a4b67b          	0x29a4b67b
8000633c:	0ad6                	slli	s5,s5,0x15
8000633e:	20a316b7          	lui	a3,0x20a31
80006342:	4798                	lw	a4,8(a5)
80006344:	97d2                	add	a5,a5,s4
80006346:	4c06                	lw	s8,64(sp)
80006348:	394c                	fld	fa1,176(a0)
8000634a:	17bc                	addi	a5,sp,1000
8000634c:	2fc79aeb          	0x2fc79aeb
80006350:	cc41                	beqz	s0,800063e8 <input_data+0x167c>
80006352:	40d2                	lw	ra,20(sp)
80006354:	dd86                	sw	ra,248(sp)
80006356:	3276                	fld	ft4,376(sp)
80006358:	a2ea                	fsd	fs10,320(sp)
8000635a:	6e30                	flw	fa2,88(a2)
8000635c:	4cc2bb0b          	0x4cc2bb0b
80006360:	537361cf          	fnmadd.d	ft3,ft6,fs7,fa0,unknown
80006364:	5ed6                	lw	t4,116(sp)
80006366:	5f92                	lw	t6,36(sp)
80006368:	6fb9                	lui	t6,0xe
8000636a:	497e                	lw	s2,220(sp)
8000636c:	81e5                	srli	a1,a1,0x19
8000636e:	6803304f          	fnmadd.s	ft0,ft6,ft0,fa3,rup
80006372:	fea4292b          	0xfea4292b
80006376:	b88a6ee3          	bltu	s4,s0,80005f12 <input_data+0x11a6>
8000637a:	2cbd                	jal	800065f8 <input_data+0x188c>
8000637c:	91ec                	0x91ec
8000637e:	100b4bc7          	fmsub.s	fs7,fs6,ft0,ft2,rmm
80006382:	3348                	fld	fa0,160(a4)
80006384:	a1b8                	fsd	fa4,64(a1)
80006386:	32b546e3          	blt	a0,a1,80006eb2 <_tbss_end+0xee>
8000638a:	7214                	flw	fa3,32(a2)
8000638c:	4d02                	lw	s10,0(sp)
8000638e:	3869                	jal	80005c28 <input_data+0xebc>
80006390:	f0ee                	fsw	fs11,96(sp)
80006392:	6c34                	flw	fa3,88(s0)
80006394:	0379                	addi	t1,t1,30
80006396:	2c52                	fld	fs8,272(sp)
80006398:	df4c                	sw	a1,60(a4)
8000639a:	7165                	addi	sp,sp,-400
8000639c:	58c2                	lw	a7,48(sp)
8000639e:	4c11                	li	s8,4
800063a0:	d711                	beqz	a4,800062ac <input_data+0x1540>
800063a2:	dc48778b          	0xdc48778b
800063a6:	253a                	fld	fa0,392(sp)
800063a8:	3b66                	fld	fs6,120(sp)
800063aa:	7dac                	flw	fa1,120(a1)
800063ac:	dd6a                	sw	s10,184(sp)
800063ae:	c9d6745b          	0xc9d6745b
800063b2:	397a                	fld	fs2,440(sp)
800063b4:	d378                	sw	a4,100(a4)
800063b6:	45cc                	lw	a1,12(a1)
800063b8:	7ec6e397          	auipc	t2,0x7ec6e
800063bc:	8964                	0x8964
800063be:	306a                	fld	ft0,184(sp)
800063c0:	895f 0679 56ec      	0x56ec0679895f
800063c6:	3a74                	fld	fa3,240(a2)
800063c8:	bc82                	fsd	ft0,120(sp)
800063ca:	2a95                	jal	8000653e <input_data+0x17d2>
800063cc:	6413036f          	jal	t1,8003720c <__global_pointer$+0x2fca0>
800063d0:	e670                	fsw	fa2,76(a2)
800063d2:	7359                	lui	t1,0xffff6
800063d4:	0e1e124f          	fnmadd.q	ft4,ft8,ft1,ft1,rtz
800063d8:	d285                	beqz	a3,800062f8 <input_data+0x158c>
800063da:	156e5bdb          	0x156e5bdb
800063de:	3f8a                	fld	ft11,160(sp)
800063e0:	7672                	flw	fa2,60(sp)
800063e2:	5fd2                	lw	t6,52(sp)
800063e4:	5fea                	lw	t6,184(sp)
800063e6:	429272d7          	0x429272d7
800063ea:	79cd38eb          	0x79cd38eb
800063ee:	675a                	flw	fa4,148(sp)
800063f0:	4595                	li	a1,5
800063f2:	00d9                	addi	ra,ra,22
800063f4:	ad26                	fsd	fs1,152(sp)
800063f6:	59ce                	lw	s3,240(sp)
800063f8:	9e1e                	add	t3,t3,t2
800063fa:	328d                	jal	80005d5c <input_data+0xff0>
800063fc:	d58c                	sw	a1,40(a1)
800063fe:	463a                	lw	a2,140(sp)
80006400:	490d                	li	s2,3
80006402:	249c                	fld	fa5,8(s1)
80006404:	6ca0                	flw	fs0,88(s1)
80006406:	5c312b9b          	0x5c312b9b
8000640a:	5a21                	li	s4,-24
8000640c:	08ea                	slli	a7,a7,0x1a
8000640e:	03c5                	addi	t2,t2,17
80006410:	737c                	flw	fa5,100(a4)
80006412:	cfe139bf 099e6a54 	0x99e6a54cfe139bf
8000641a:	539c                	lw	a5,32(a5)
8000641c:	a0ae                	fsd	fa1,64(sp)
8000641e:	50c9                	li	ra,-14
80006420:	62e46d6f          	jal	s10,8004ca4e <__global_pointer$+0x454e2>
80006424:	22c2                	fld	ft5,16(sp)
80006426:	45f8                	lw	a4,76(a1)
80006428:	0a4d                	addi	s4,s4,19
8000642a:	3e2a                	fld	ft8,168(sp)
8000642c:	d214                	sw	a3,32(a2)
8000642e:	4e9c                	lw	a5,24(a3)
80006430:	1402                	slli	s0,s0,0x20
80006432:	447e                	lw	s0,220(sp)
80006434:	7c93425b          	0x7c93425b
80006438:	ddb4                	sw	a3,120(a1)
8000643a:	479f 0b53 0ee7      	0xee70b53479f
80006440:	ffa0                	fsw	fs0,120(a5)
80006442:	3db1                	jal	8000629e <input_data+0x1532>
80006444:	49a5                	li	s3,9
80006446:	2835                	jal	80006482 <input_data+0x1716>
80006448:	f865                	bnez	s0,80006438 <input_data+0x16cc>
8000644a:	40fd                	li	ra,31
8000644c:	73d9c2c7          	fmsub.d	ft5,fs3,ft9,fa4,rmm
80006450:	74e5                	lui	s1,0xffff9
80006452:	37ac                	fld	fa1,104(a5)
80006454:	7c6f2dab          	0x7c6f2dab
80006458:	64c0                	flw	fs0,12(s1)
8000645a:	cec02c07          	flw	fs8,-788(zero) # fffffcec <__global_pointer$+0x7fff8780>
8000645e:	4dc9                	li	s11,18
80006460:	41a4                	lw	s1,64(a1)
80006462:	a371056f          	jal	a0,7ff16e98 <buflen.2941+0x7ff16e58>
80006466:	7cc865cf          	0x7cc865cf
8000646a:	647c                	flw	fa5,76(s0)
8000646c:	15bb2fe7          	0x15bb2fe7
80006470:	6eea2803          	lw	a6,1774(s4)
80006474:	4961                	li	s2,24
80006476:	72e1                	lui	t0,0xffff8
80006478:	360e2f13          	slti	t5,t3,864
8000647c:	40fed847          	fmsub.s	fa6,ft9,fa5,fs0,unknown
80006480:	99c5                	andi	a1,a1,-15
80006482:	ae6e3533          	0xae6e3533
80006486:	60db7567          	0x60db7567
8000648a:	98ff6fb3          	0x98ff6fb3
8000648e:	3741                	jal	8000640e <input_data+0x16a2>
80006490:	a5a0                	fsd	fs0,72(a1)
80006492:	4522                	lw	a0,8(sp)
80006494:	70c8                	flw	fa0,36(s1)
80006496:	1f332b87          	flw	fs7,499(t1) # ffff61f3 <__global_pointer$+0x7ffeec87>
8000649a:	14d1                	addi	s1,s1,-12
8000649c:	12f40083          	lb	ra,303(s0)
800064a0:	18cd                	addi	a7,a7,-13
800064a2:	4e3b0d77          	0x4e3b0d77
800064a6:	71531ccf          	fnmadd.s	fs9,ft6,fs5,fa4,rtz
800064aa:	938a3dbf f69e0e65 	0xf69e0e65938a3dbf
800064b2:	4c4a                	lw	s8,144(sp)
800064b4:	4a5ba023          	sw	t0,1184(s7) # 54a0 <buflen.2941+0x5460>
800064b8:	be14                	fsd	fa3,56(a2)
800064ba:	6a980ebf 88496aea 	0x88496aea6a980ebf
800064c2:	2cd8                	fld	fa4,152(s1)
800064c4:	112b5d0f          	0x112b5d0f
800064c8:	d676                	sw	t4,44(sp)
800064ca:	7b96                	flw	fs7,100(sp)
800064cc:	7988de27          	0x7988de27
800064d0:	24d266c3          	0x24d266c3
800064d4:	59f1                	li	s3,-4
800064d6:	19d5                	addi	s3,s3,-11
800064d8:	d75f 1dcb 8b75      	0x8b751dcbd75f
800064de:	3e9d                	jal	80006054 <input_data+0x12e8>
800064e0:	13bf00c7          	fmsub.d	ft1,ft10,fs11,ft2,rne
800064e4:	24ff                	0x24ff
800064e6:	32be                	fld	ft5,488(sp)
800064e8:	345f 4d2e 9be5      	0x9be54d2e345f
800064ee:	663e                	flw	fa2,204(sp)
800064f0:	3ef5                	jal	800060ec <input_data+0x1380>
800064f2:	451f 742a 3d5a      	0x3d5a742a451f
800064f8:	5dae                	lw	s11,232(sp)
800064fa:	78d8                	flw	fa4,52(s1)
800064fc:	628bd913          	0x628bd913
80006500:	6fc00817          	auipc	a6,0x6fc00
80006504:	c139                	beqz	a0,8000654a <input_data+0x17de>
80006506:	9338498f          	0x9338498f
8000650a:	0f89                	addi	t6,t6,2
8000650c:	3e27b777          	0x3e27b777
80006510:	8780                	0x8780
80006512:	5390                	lw	a2,32(a5)
80006514:	4d81                	li	s11,0
80006516:	2b84                	fld	fs1,16(a5)
80006518:	96cd                	srai	a3,a3,0x33
8000651a:	6808                	flw	fa0,16(s0)
8000651c:	21b4                	fld	fa3,64(a1)
8000651e:	5c6e                	lw	s8,248(sp)
80006520:	378e                	fld	fa5,224(sp)
80006522:	67435fd3          	0x67435fd3
80006526:	39c9                	jal	800061f8 <input_data+0x148c>
80006528:	0f7c                	addi	a5,sp,924
8000652a:	2e6a                	fld	ft8,152(sp)
8000652c:	6e7e                	flw	ft8,220(sp)
8000652e:	6940                	flw	fs0,20(a0)
80006530:	d24e                	sw	s3,36(sp)
80006532:	2b9d                	jal	80006aa8 <input_data+0x1d3c>
80006534:	6aa2                	flw	fs5,8(sp)
80006536:	5f5e                	lw	t5,244(sp)
80006538:	8ffa                	mv	t6,t5
8000653a:	74b0                	flw	fa2,104(s1)
8000653c:	000a8b27          	0xa8b27
80006540:	6a3e                	flw	fs4,204(sp)
80006542:	1a7c                	addi	a5,sp,316
80006544:	4c38983f 4969523d 	0x4969523d4c38983f
8000654c:	04c5                	addi	s1,s1,17
8000654e:	239c                	fld	fa5,0(a5)
80006550:	0d2d                	addi	s10,s10,11
80006552:	40ce                	lw	ra,208(sp)
80006554:	0f637b73          	csrrci	s6,0xf6,6
80006558:	da26                	sw	s1,52(sp)
8000655a:	3a007cc7          	fmsub.d	fs9,ft0,ft0,ft7
8000655e:	5730                	lw	a2,104(a4)
80006560:	7b35733f 610f3a28 	0x610f3a287b35733f
80006568:	2d73d15b          	0x2d73d15b
8000656c:	9f7d                	0x9f7d
8000656e:	5c0d472b          	0x5c0d472b
80006572:	505e                	0x505e
80006574:	c854                	sw	a3,20(s0)
80006576:	6c9d                	lui	s9,0x7
80006578:	8e32                	mv	t3,a2
8000657a:	6cdf a0e2 4248      	0x4248a0e26cdf
80006580:	5be8                	lw	a0,116(a5)
80006582:	7c80                	flw	fs0,56(s1)
80006584:	9914                	0x9914
80006586:	3095                	jal	80005dea <input_data+0x107e>
80006588:	d7c8                	sw	a0,44(a5)
8000658a:	74b2                	flw	fs1,44(sp)
8000658c:	4885                	li	a7,1
8000658e:	40cd                	li	ra,19
80006590:	3491fb3f 73f00760 	0x73f007603491fb3f
80006598:	9932                	add	s2,s2,a2
8000659a:	62bc                	flw	fa5,64(a3)
8000659c:	1f8b77b7          	lui	a5,0x1f8b7
800065a0:	082b2a17          	auipc	s4,0x82b2
800065a4:	5071                	c.li	zero,-4
800065a6:	55cb1f23          	sh	t3,1374(s6) # ffff555e <__global_pointer$+0x7ffedff2>
800065aa:	19a67017          	auipc	zero,0x19a67
800065ae:	3280                	fld	fs0,32(a3)
800065b0:	29b6                	fld	fs3,328(sp)
800065b2:	32c4                	fld	fs1,160(a3)
800065b4:	99ac                	0x99ac
800065b6:	50ad372b          	0x50ad372b
800065ba:	5af33dd7          	0x5af33dd7
800065be:	1b82                	slli	s7,s7,0x20
800065c0:	2e64                	fld	fs1,216(a2)
800065c2:	4f6e                	lw	t5,216(sp)
800065c4:	1c49                	addi	s8,s8,-14
800065c6:	1f54                	addi	a3,sp,948
800065c8:	52d6793b          	0x52d6793b
800065cc:	8fd1                	or	a5,a5,a2
800065ce:	433a                	lw	t1,140(sp)
800065d0:	1b49                	addi	s6,s6,-14
800065d2:	4775                	li	a4,29
800065d4:	3085                	jal	80005e34 <input_data+0x10c8>
800065d6:	3339                	jal	800062e4 <input_data+0x1578>
800065d8:	4eda                	lw	t4,148(sp)
800065da:	2a21                	jal	800066f2 <input_data+0x1986>
800065dc:	12d6                	slli	t0,t0,0x35
800065de:	1629                	addi	a2,a2,-22
800065e0:	da71                	beqz	a2,800065b4 <input_data+0x1848>
800065e2:	08ad                	addi	a7,a7,11
800065e4:	9280                	0x9280
800065e6:	270d                	jal	80006d08 <input_data+0x1f9c>
800065e8:	71490dbf 4f800661 	0x4f80066171490dbf
800065f0:	41aaf2ef          	jal	t0,800b5a0a <__global_pointer$+0xae49e>
800065f4:	dab4                	sw	a3,112(a3)
800065f6:	4c38                	lw	a4,88(s0)
800065f8:	7c9296e3          	bne	t0,s1,800075c4 <__global_pointer$+0x58>
800065fc:	82a8                	0x82a8
800065fe:	1f1d4497          	auipc	s1,0x1f1d4
80006602:	00c9                	addi	ra,ra,18
80006604:	c412                	sw	tp,8(sp)
80006606:	598a                	lw	s3,160(sp)
80006608:	a514                	fsd	fa3,8(a0)
8000660a:	41be                	lw	gp,204(sp)
8000660c:	5a5e                	lw	s4,244(sp)
8000660e:	1472                	slli	s0,s0,0x3c
80006610:	c500                	sw	s0,8(a0)
80006612:	711f 79bb 601e      	0x601e79bb711f
80006618:	0125                	addi	sp,sp,9
8000661a:	481f 3ffd 67c2      	0x67c23ffd481f
80006620:	52ca                	lw	t0,176(sp)
80006622:	61fd                	lui	gp,0x1f
80006624:	c658                	sw	a4,12(a2)
80006626:	3a42                	fld	fs4,48(sp)
80006628:	8746                	mv	a4,a7
8000662a:	2ef5                	jal	80006a26 <input_data+0x1cba>
8000662c:	b5b6                	fsd	fa3,232(sp)
8000662e:	09bc                	addi	a5,sp,216
80006630:	a17a                	fsd	ft10,128(sp)
80006632:	40d5                	li	ra,21
80006634:	9f16                	add	t5,t5,t0
80006636:	ef6e0bef          	jal	s7,7ffe6d2c <buflen.2941+0x7ffe6cec>
8000663a:	64d4                	flw	fa3,12(s1)
8000663c:	d1f1                	beqz	a1,80006600 <input_data+0x1894>
8000663e:	157e                	slli	a0,a0,0x3f
80006640:	9f9f 6a88 2442      	0x24426a889f9f
80006646:	021f 6af4 3108      	0x31086af4021f
8000664c:	8282                	jr	t0
8000664e:	6d54                	flw	fa3,28(a0)
80006650:	a63a                	fsd	fa4,264(sp)
80006652:	51c9                	li	gp,-14
80006654:	d17c                	sw	a5,100(a0)
80006656:	493e3f67          	0x493e3f67
8000665a:	3a06                	fld	fs4,96(sp)
8000665c:	2998986b          	0x2998986b
80006660:	f9c1                	bnez	a1,800065f0 <input_data+0x1884>
80006662:	379b0953          	0x379b0953
80006666:	f5910a17          	auipc	s4,0xf5910
8000666a:	0ac2                	slli	s5,s5,0x10
8000666c:	8648                	0x8648
8000666e:	06ad                	addi	a3,a3,11
80006670:	079f193f 0e683a1d 	0xe683a1d079f193f
80006678:	c005                	beqz	s0,80006698 <input_data+0x192c>
8000667a:	777c                	flw	fa5,108(a4)
8000667c:	01635b5b          	0x1635b5b
80006680:	770d9d97          	auipc	s11,0x770d9
80006684:	6a49                	lui	s4,0x12
80006686:	2be5                	jal	80006c7e <input_data+0x1f12>
80006688:	039c                	addi	a5,sp,448
8000668a:	766e                	flw	fa2,248(sp)
8000668c:	2534                	fld	fa3,72(a0)
8000668e:	5d9e                	lw	s11,228(sp)
80006690:	8ae9                	andi	a3,a3,26
80006692:	b9e37b3b          	0xb9e37b3b
80006696:	5b6b5737          	lui	a4,0x5b6b5
8000669a:	08da                	slli	a7,a7,0x16
8000669c:	81fd                	srli	a1,a1,0x1f
8000669e:	24d8                	fld	fa4,136(s1)
800066a0:	160e                	slli	a2,a2,0x23
800066a2:	663d                	lui	a2,0xf
800066a4:	7b2b5f8b          	0x7b2b5f8b
800066a8:	b8ee                	fsd	fs11,112(sp)
800066aa:	7e44                	flw	fs1,60(a2)
800066ac:	cd60                	sw	s0,92(a0)
800066ae:	0bd0                	addi	a2,sp,468
800066b0:	003e                	c.slli	zero,0xf
800066b2:	6d6d                	lui	s10,0x1b
800066b4:	503866b3          	0x503866b3
800066b8:	4d82                	lw	s11,0(sp)
800066ba:	f2147167          	0xf2147167
800066be:	cad274eb          	0xcad274eb
800066c2:	4cf9                	li	s9,30
800066c4:	4efa053b          	0x4efa053b
800066c8:	58ee                	lw	a7,248(sp)
800066ca:	8a0b31e3          	0x8a0b31e3
800066ce:	25246e3f 70ab1dd3 	0x70ab1dd325246e3f
800066d6:	0f155f57          	0xf155f57
800066da:	65ae                	flw	fa1,200(sp)
800066dc:	9731                	srai	a4,a4,0x2c
800066de:	5f65                	li	t5,-7
800066e0:	1692                	slli	a3,a3,0x24
800066e2:	170d                	addi	a4,a4,-29
800066e4:	8d0c                	0x8d0c
800066e6:	3d52                	fld	fs10,304(sp)
800066e8:	e6d2                	fsw	fs4,76(sp)
800066ea:	6320                	flw	fs0,64(a4)
800066ec:	4ed6bee3          	0x4ed6bee3
800066f0:	86a0                	0x86a0
800066f2:	5864                	lw	s1,116(s0)
800066f4:	411c6f63          	bltu	s8,a7,80006b12 <input_data+0x1da6>
800066f8:	c3dd                	beqz	a5,8000679e <input_data+0x1a32>
800066fa:	6366                	flw	ft6,88(sp)
800066fc:	91ec                	0x91ec
800066fe:	752c                	flw	fa1,104(a0)
80006700:	e53c                	fsw	fa5,72(a0)
80006702:	3f68                	fld	fa0,248(a4)
80006704:	67d54dcb          	fnmsub.q	fs11,fa0,ft9,fa2,rmm
80006708:	8de8                	0x8de8
8000670a:	11e4                	addi	s1,sp,236
8000670c:	0b3d                	addi	s6,s6,15
8000670e:	24fc                	fld	fa5,200(s1)
80006710:	d51d                	beqz	a0,8000663e <input_data+0x18d2>
80006712:	1e08                	addi	a0,sp,816
80006714:	172d                	addi	a4,a4,-21
80006716:	7cdd                	lui	s9,0xffff7
80006718:	3752e6c7          	fmsub.q	fa3,ft5,fs5,ft6,unknown
8000671c:	0f29                	addi	t5,t5,10
8000671e:	1091                	addi	ra,ra,-28
80006720:	da45                	beqz	a2,800066d0 <input_data+0x1964>
80006722:	8c9f63fb          	0x8c9f63fb
80006726:	d1cb4a73          	0xd1cb4a73
8000672a:	55582fa7          	fsw	fs5,1375(a6) # efc06a5f <__global_pointer$+0x6fbff4f3>
8000672e:	4656                	lw	a2,84(sp)
80006730:	02e12ea7          	fsw	fa4,61(sp) # 4f73003d <buflen.2941+0x4f72fffd>
80006734:	6f3a5657          	0x6f3a5657
80006738:	53ca3e2f          	0x53ca3e2f
8000673c:	c751                	beqz	a4,800067c8 <input_data+0x1a5c>
8000673e:	7dc1                	lui	s11,0xffff0
80006740:	fee2                	fsw	fs8,124(sp)
80006742:	2e4b5f0b          	0x2e4b5f0b
80006746:	2299                	jal	8000688c <input_data+0x1b20>
80006748:	86aa                	mv	a3,a0
8000674a:	6876                	flw	fa6,92(sp)
8000674c:	fda0                	fsw	fs0,120(a1)
8000674e:	712a4fd3          	0x712a4fd3
80006752:	da6636f7          	0xda6636f7
80006756:	182653ab          	0x182653ab
8000675a:	11da                	slli	gp,gp,0x36
8000675c:	259f 503a f848      	0xf848503a259f
80006762:	4d60                	lw	s0,92(a0)
80006764:	5068                	lw	a0,100(s0)
80006766:	91897ee3          	bgeu	s2,s8,80006082 <input_data+0x1316>
8000676a:	285d                	jal	80006820 <input_data+0x1ab4>
8000676c:	318c39e7          	0x318c39e7
80006770:	94b8                	0x94b8
80006772:	2c2d                	jal	800069ac <input_data+0x1c40>
80006774:	297efd5b          	0x297efd5b
80006778:	ceae                	sw	a1,92(sp)
8000677a:	175271f7          	0x175271f7
8000677e:	3c96                	fld	fs9,352(sp)
80006780:	c5f0                	sw	a2,76(a1)
80006782:	28a6                	fld	fa7,72(sp)
80006784:	caae                	sw	a1,84(sp)
80006786:	1518                	addi	a4,sp,672
80006788:	7078                	flw	fa4,100(s0)
8000678a:	2159                	jal	80006c10 <input_data+0x1ea4>
8000678c:	98ac                	0x98ac
8000678e:	1eb8                	addi	a4,sp,888
80006790:	0dc0                	addi	s0,sp,724
80006792:	6e66                	flw	ft8,88(sp)
80006794:	184e1aef          	jal	s5,800e7918 <__global_pointer$+0xe03ac>
80006798:	93fd                	srli	a5,a5,0x3f
8000679a:	82f53067          	0x82f53067
8000679e:	6ed8                	flw	fa4,28(a3)
800067a0:	07d4                	addi	a3,sp,964
800067a2:	4192                	lw	gp,4(sp)
800067a4:	9829                	andi	s0,s0,-22
800067a6:	1db9                	addi	s11,s11,-18
800067a8:	8add                	andi	a3,a3,23
800067aa:	26f5                	jal	80006b96 <input_data+0x1e2a>
800067ac:	ac55                	j	80006a60 <input_data+0x1cf4>
800067ae:	37572da3          	sw	s5,891(a4) # 5b6b537b <buflen.2941+0x5b6b533b>
800067b2:	08fe                	slli	a7,a7,0x1f
800067b4:	4dd8                	lw	a4,28(a1)
800067b6:	1395                	addi	t2,t2,-27
800067b8:	86b6                	mv	a3,a3
800067ba:	0498                	addi	a4,sp,576
800067bc:	679c                	flw	fa5,8(a5)
800067be:	69d1                	lui	s3,0x14
800067c0:	ccb2                	sw	a2,88(sp)
800067c2:	6d6e                	flw	fs10,216(sp)
800067c4:	2885                	jal	80006834 <input_data+0x1ac8>
800067c6:	2a1a                	fld	fs4,384(sp)
800067c8:	49b0                	lw	a2,80(a1)
800067ca:	49ed                	li	s3,27
800067cc:	de75                	beqz	a2,800067c8 <input_data+0x1a5c>
800067ce:	3209                	jal	800060d0 <input_data+0x1364>
800067d0:	c572                	sw	t3,136(sp)
800067d2:	95023ed3          	0x95023ed3
800067d6:	6ca9                	lui	s9,0xa
800067d8:	29d70e33          	0x29d70e33
800067dc:	a428                	fsd	fa0,72(s0)
800067de:	04f0                	addi	a2,sp,588
800067e0:	e848                	fsw	fa0,20(s0)
800067e2:	26e2                	fld	fa3,24(sp)
800067e4:	9944                	0x9944
800067e6:	339f f7b8 373f      	0x373ff7b8339f
800067ec:	6b08                	flw	fa0,16(a4)
800067ee:	4f09                	li	t5,2
800067f0:	3f29                	jal	8000670a <input_data+0x199e>
800067f2:	682e                	flw	fa6,200(sp)
800067f4:	60d8                	flw	fa4,4(s1)
800067f6:	7ebd45f7          	0x7ebd45f7
800067fa:	5ad6                	lw	s5,116(sp)
800067fc:	6680                	flw	fs0,8(a3)
800067fe:	1a72                	slli	s4,s4,0x3c
80006800:	d196                	sw	t0,224(sp)
80006802:	31cc                	fld	fa1,160(a1)
80006804:	d704                	sw	s1,40(a4)
80006806:	0051                	c.nop	20
80006808:	69d2                	flw	fs3,20(sp)
8000680a:	7b48                	flw	fa0,52(a4)
8000680c:	83b4                	0x83b4
8000680e:	645e                	flw	fs0,212(sp)
80006810:	80f5                	srli	s1,s1,0x1d
80006812:	7c05                	lui	s8,0xfffe1
80006814:	887a                	mv	a6,t5
80006816:	720d                	lui	tp,0xfffe3
80006818:	05d1                	addi	a1,a1,20
8000681a:	42d638b3          	0x42d638b3
8000681e:	6872                	flw	fa6,28(sp)
80006820:	091f 0648 a6bb      	0xa6bb0648091f
80006826:	6a98                	flw	fa4,16(a3)
80006828:	6f2a                	flw	ft10,136(sp)
8000682a:	6a89                	lui	s5,0x2
8000682c:	9b08                	0x9b08
8000682e:	5548                	lw	a0,44(a0)
80006830:	46f4                	lw	a3,76(a3)
80006832:	203e                	fld	ft0,456(sp)
80006834:	3499a707          	flw	fa4,841(s3) # 14349 <buflen.2941+0x14309>
80006838:	de5d                	beqz	a2,800067f6 <input_data+0x1a8a>
8000683a:	292c                	fld	fa1,80(a0)
8000683c:	f2ea                	fsw	fs10,100(sp)
8000683e:	0c11                	addi	s8,s8,4
80006840:	5f000727          	0x5f000727
80006844:	96fd                	srai	a3,a3,0x3f
80006846:	1f98                	addi	a4,sp,1008
80006848:	0981                	addi	s3,s3,0
8000684a:	1700                	addi	s0,sp,928
8000684c:	3615d7bf 1695bf1f 	0x1695bf1f3615d7bf
80006854:	1b1ae0d3          	fdiv.d	ft1,fs5,fa7,unknown
80006858:	cd00                	sw	s0,24(a0)
8000685a:	0efd                	addi	t4,t4,31
8000685c:	5680bd3f 431ab1f5 	0x431ab1f55680bd3f
80006864:	d932                	sw	a2,176(sp)
80006866:	0144                	addi	s1,sp,132
80006868:	6d64                	flw	fs1,92(a0)
8000686a:	61ec                	flw	fa1,68(a1)
8000686c:	2ff1affb          	0x2ff1affb
80006870:	2399                	jal	80006db6 <_end+0x36>
80006872:	7a15                	lui	s4,0xfffe5
80006874:	10ae                	slli	ra,ra,0x2b
80006876:	36b0                	fld	fa2,104(a3)
80006878:	e44c                	fsw	fa1,12(s0)
8000687a:	5a49                	li	s4,-14
8000687c:	8469                	srai	s0,s0,0x1a
8000687e:	0850                	addi	a2,sp,20
80006880:	5c12                	lw	s8,36(sp)
80006882:	02e24423          	0x2e24423
80006886:	ca7a06db          	0xca7a06db
8000688a:	6722                	flw	fa4,8(sp)
8000688c:	6133ac8b          	0x6133ac8b
80006890:	03065ce3          	bge	a2,a6,800070c8 <_tbss_end+0x304>
80006894:	5d24                	lw	s1,120(a0)
80006896:	6806                	flw	fa6,64(sp)
80006898:	4e4c9107          	0x4e4c9107
8000689c:	7e40                	flw	fs0,60(a2)
8000689e:	4025                	c.li	zero,9
800068a0:	4a88                	lw	a0,16(a3)
800068a2:	6c7f                	0x6c7f
800068a4:	b6ea                	fsd	fs10,360(sp)
800068a6:	381d                	jal	800060dc <input_data+0x1370>
800068a8:	3014dbb7          	lui	s7,0x3014d
800068ac:	2b0b5427          	0x2b0b5427
800068b0:	ac1f 6d82 35ba      	0x35ba6d82ac1f
800068b6:	2a0d                	jal	800069e8 <input_data+0x1c7c>
800068b8:	ee66                	fsw	fs9,28(sp)
800068ba:	7c82                	flw	fs9,32(sp)
800068bc:	932c                	0x932c
800068be:	1e6d                	addi	t3,t3,-5
800068c0:	c325                	beqz	a4,80006920 <input_data+0x1bb4>
800068c2:	0314                	addi	a3,sp,384
800068c4:	36c6                	fld	fa3,112(sp)
800068c6:	3fa13543          	fmadd.q	fa0,ft2,fs10,ft7,rup
800068ca:	51e5                	li	gp,-7
800068cc:	3eb0                	fld	fa2,120(a3)
800068ce:	3c06                	fld	fs8,96(sp)
800068d0:	5d55                	li	s10,-11
800068d2:	28d4                	fld	fa3,144(s1)
800068d4:	57b4b82b          	0x57b4b82b
800068d8:	6251                	lui	tp,0x14
800068da:	5cb4                	lw	a3,120(s1)
800068dc:	6559                	lui	a0,0x16
800068de:	486c                	lw	a1,84(s0)
800068e0:	a2b4                	fsd	fa3,64(a3)
800068e2:	54ed                	li	s1,-5
800068e4:	272cdbc7          	fmsub.q	fs7,fs9,fs2,ft4,unknown
800068e8:	9892                	add	a7,a7,tp
800068ea:	52f5                	li	t0,-3
800068ec:	398d5073          	csrwi	0x398,26
800068f0:	240481ab          	0x240481ab
800068f4:	7db2                	flw	fs11,44(sp)
800068f6:	81a24c9b          	0x81a24c9b
800068fa:	145a                	slli	s0,s0,0x36
800068fc:	0002                	c.slli64	zero
800068fe:	1189                	addi	gp,gp,-30
80006900:	7b4a                	flw	fs6,176(sp)
80006902:	25be                	fld	fa1,456(sp)
80006904:	711c785b          	0x711c785b
80006908:	74f4                	flw	fa3,108(s1)
8000690a:	7180                	flw	fs0,32(a1)
8000690c:	1d65                	addi	s10,s10,-7
8000690e:	3116                	fld	ft2,352(sp)
80006910:	b1aa                	fsd	fa0,224(sp)
80006912:	5e0d                	li	t3,-29
80006914:	d041                	beqz	s0,80006894 <input_data+0x1b28>
80006916:	7830                	flw	fa2,112(s0)
80006918:	3c64                	fld	fs1,248(s0)
8000691a:	6f09                	lui	t5,0x2
8000691c:	226a2ea7          	fsw	ft6,573(s4) # fffe523d <__global_pointer$+0x7ffddcd1>
80006920:	3a76                	fld	fs4,376(sp)
80006922:	a14b3c5b          	0xa14b3c5b
80006926:	0ebc                	addi	a5,sp,856
80006928:	ff86                	fsw	ft1,252(sp)
8000692a:	746525ef          	jal	a1,80059070 <__global_pointer$+0x51b04>
8000692e:	7465                	lui	s0,0xffff9
80006930:	d780                	sw	s0,40(a5)
80006932:	564c                	lw	a1,44(a2)
80006934:	47c4                	lw	s1,12(a5)
80006936:	0670                	addi	a2,sp,780
80006938:	3c985217          	auipc	tp,0x3c985
8000693c:	7a0e7c57          	0x7a0e7c57
80006940:	578e                	lw	a5,224(sp)
80006942:	3842                	fld	fa6,48(sp)
80006944:	def5                	beqz	a3,80006940 <input_data+0x1bd4>
80006946:	2ef0                	fld	fa2,216(a3)
80006948:	7796                	flw	fa5,100(sp)
8000694a:	00c2                	slli	ra,ra,0x10
8000694c:	127e                	slli	tp,tp,0x3f
8000694e:	32e0                	fld	fs0,224(a3)
80006950:	0138                	addi	a4,sp,136
80006952:	13e9                	addi	t2,t2,-6
80006954:	cf61                	beqz	a4,80006a2c <input_data+0x1cc0>
80006956:	0dea20fb          	0xdea20fb
8000695a:	daea40ef          	jal	ra,7ffaaf08 <buflen.2941+0x7ffaaec8>
8000695e:	1dac                	addi	a1,sp,760
80006960:	89e9                	andi	a1,a1,26
80006962:	c6977987          	0xc6977987
80006966:	5582                	lw	a1,32(sp)
80006968:	4ced7143          	0x4ced7143
8000696c:	7e24                	flw	fs1,120(a2)
8000696e:	0486                	slli	s1,s1,0x1
80006970:	390b3b03          	0x390b3b03
80006974:	7ef912b7          	lui	t0,0x7ef91
80006978:	4b00                	lw	s0,16(a4)
8000697a:	f23d1c73          	csrrw	s8,0xf23,s10
8000697e:	38ca                	fld	fa7,176(sp)
80006980:	071f 6487 fb86      	0xfb866487071f
80006986:	1b60                	addi	s0,sp,444
80006988:	ddc4                	sw	s1,60(a1)
8000698a:	2cd0                	fld	fa2,152(s1)
8000698c:	0a74                	addi	a3,sp,284
8000698e:	31d9                	jal	80006654 <input_data+0x18e8>
80006990:	7171                	addi	sp,sp,-176
80006992:	78df 5324 01b7      	0x1b7532478df
80006998:	c0ac                	sw	a1,64(s1)
8000699a:	133c                	addi	a5,sp,424
8000699c:	177e                	slli	a4,a4,0x3f
8000699e:	4f96                	lw	t6,68(sp)
800069a0:	2eea494b          	fnmsub.q	fs2,fs4,fa4,ft5,rmm
800069a4:	1870                	addi	a2,sp,60
800069a6:	06c5                	addi	a3,a3,17
800069a8:	db9c                	sw	a5,48(a5)
800069aa:	38ea                	fld	fa7,184(sp)
800069ac:	0276                	slli	tp,tp,0x1d
800069ae:	4e81                	li	t4,0
800069b0:	5bb8                	lw	a4,112(a5)
800069b2:	a4f94d77          	0xa4f94d77
800069b6:	77c2                	flw	fa5,48(sp)
800069b8:	5c4d96b3          	0x5c4d96b3
800069bc:	ec61                	bnez	s0,80006a94 <input_data+0x1d28>
800069be:	5d497a2b          	0x5d497a2b
800069c2:	809e2ba7          	fsw	fs1,-2025(t3) # 3817 <buflen.2941+0x37d7>
800069c6:	6a35                	lui	s4,0xd
800069c8:	4ee1                	li	t4,24
800069ca:	7c9d                	lui	s9,0xfffe7
800069cc:	fc5c                	fsw	fa5,60(s0)
800069ce:	6dec3b3b          	0x6dec3b3b
800069d2:	74c8                	flw	fa0,44(s1)
800069d4:	94c6                	add	s1,s1,a7
800069d6:	4fa9                	li	t6,10
800069d8:	4190                	lw	a2,0(a1)
800069da:	2931                	jal	80006df6 <_tbss_end+0x32>
800069dc:	a664                	fsd	fs1,200(a2)
800069de:	681f b8f7 37c3      	0x37c3b8f7681f
800069e4:	1936                	slli	s2,s2,0x2d
800069e6:	42f8                	lw	a4,68(a3)
800069e8:	417f                	0x417f
800069ea:	0676                	slli	a2,a2,0x1d
800069ec:	54c2                	lw	s1,48(sp)
800069ee:	5626                	lw	a2,104(sp)
800069f0:	d345                	beqz	a4,80006990 <input_data+0x1c24>
800069f2:	0a1d                	addi	s4,s4,7
800069f4:	075a3493          	sltiu	s1,s4,117
800069f8:	6182a6ab          	0x6182a6ab
800069fc:	fe11                	bnez	a2,80006918 <input_data+0x1bac>
800069fe:	2828                	fld	fa0,80(s0)
80006a00:	79c39977          	0x79c39977
80006a04:	2d2aea73          	csrrsi	s4,0x2d2,21
80006a08:	0b6e                	slli	s6,s6,0x1b
80006a0a:	1e8c                	addi	a1,sp,880
80006a0c:	d1ee                	sw	s11,224(sp)
80006a0e:	0721                	addi	a4,a4,8
80006a10:	705c                	flw	fa5,36(s0)
80006a12:	91200377          	0x91200377
80006a16:	88a17c9b          	0x88a17c9b
80006a1a:	1cfa                	slli	s9,s9,0x3e
80006a1c:	c63a                	sw	a4,12(sp)
80006a1e:	6089                	lui	ra,0x2
80006a20:	19cee96b          	0x19cee96b
80006a24:	a8ed                	j	80006b1e <input_data+0x1db2>
80006a26:	42fc3557          	0x42fc3557
80006a2a:	169e                	slli	a3,a3,0x27
80006a2c:	6f0e                	flw	ft10,192(sp)
80006a2e:	70b5                	lui	ra,0xfffed
80006a30:	ed6c                	fsw	fa1,92(a0)
80006a32:	706e                	flw	ft0,248(sp)
80006a34:	8f2e                	mv	t5,a1
80006a36:	6ec8                	flw	fa0,28(a3)
80006a38:	3b7f                	0x3b7f
80006a3a:	2b3c39c7          	fmsub.d	fs3,fs8,fs3,ft5,rup
80006a3e:	af374957          	0xaf374957
80006a42:	70b4                	flw	fa3,96(s1)
80006a44:	26d6                	fld	fa3,336(sp)
80006a46:	750914f7          	0x750914f7
80006a4a:	0ccc                	addi	a1,sp,596
80006a4c:	4f7e                	lw	t5,220(sp)
80006a4e:	c8955c63          	bge	a0,s1,80005ee6 <input_data+0x117a>
80006a52:	30b0125b          	0x30b0125b
80006a56:	0191                	addi	gp,gp,4
80006a58:	040ea107          	flw	ft2,64(t4)
80006a5c:	9a3e                	add	s4,s4,a5
80006a5e:	03435273          	csrrwi	tp,0x34,6
80006a62:	6816                	flw	fa6,68(sp)
80006a64:	ad38                	fsd	fa4,88(a0)
80006a66:	40f9                	li	ra,30
80006a68:	a545                	j	80007108 <_tbss_end+0x344>
80006a6a:	da0162d3          	0xda0162d3
80006a6e:	7c11                	lui	s8,0xfffe4
80006a70:	7015                	c.lui	zero,0xfffe5
80006a72:	4216438f          	0x4216438f
80006a76:	6ce86427          	0x6ce86427
80006a7a:	50713e9b          	0x50713e9b
80006a7e:	6ba6                	flw	fs7,72(sp)
80006a80:	8e36                	mv	t3,a3
80006a82:	6621                	lui	a2,0x8
80006a84:	3d39                	jal	800068a2 <input_data+0x1b36>
80006a86:	1f09                	addi	t5,t5,-30
80006a88:	9675                	srai	a2,a2,0x3d
80006a8a:	fc0518e3          	bnez	a0,80006a5a <input_data+0x1cee>
80006a8e:	50c4                	lw	s1,36(s1)
80006a90:	648d                	lui	s1,0x3
80006a92:	25a2                	fld	fa1,8(sp)
80006a94:	6f8c                	flw	fa1,24(a5)
80006a96:	b10867db          	0xb10867db
80006a9a:	7bd6                	flw	fs7,116(sp)
80006a9c:	65dd924f          	0x65dd924f
80006aa0:	23688f3b          	0x23688f3b
80006aa4:	b958                	fsd	fa4,176(a0)
80006aa6:	37da                	fld	fa5,432(sp)
80006aa8:	2c3cdaab          	0x2c3cdaab
80006aac:	94e1                	srai	s1,s1,0x38
80006aae:	7184                	flw	fs1,32(a1)
80006ab0:	6341                	lui	t1,0x10
80006ab2:	c23634eb          	0xc23634eb
80006ab6:	b1bf4ccf          	fnmadd.s	fs9,ft10,fs11,fs6,rmm
80006aba:	194e                	slli	s2,s2,0x33
80006abc:	8add                	andi	a3,a3,23
80006abe:	5948                	lw	a0,52(a0)
80006ac0:	31766a3f 5282f6af 	0x5282f6af31766a3f
80006ac8:	ab91                	j	8000701c <_tbss_end+0x258>
80006aca:	0ee8                	addi	a0,sp,860
80006acc:	0919                	addi	s2,s2,6
80006ace:	0bed                	addi	s7,s7,27
80006ad0:	29599857          	0x29599857
80006ad4:	8572                	mv	a0,t3
80006ad6:	5b04                	lw	s1,48(a4)
80006ad8:	0211                	addi	tp,tp,4
80006ada:	572c                	lw	a1,104(a4)
80006adc:	d2ea                	sw	s10,100(sp)
80006ade:	6495                	lui	s1,0x5
80006ae0:	be30                	fsd	fa2,120(a2)
80006ae2:	b63144f3          	0xb63144f3
80006ae6:	0e64                	addi	s1,sp,796
80006ae8:	8a9e                	mv	s5,t2
80006aea:	fd9646fb          	0xfd9646fb
80006aee:	4a86                	lw	s5,64(sp)
80006af0:	d916                	sw	t0,176(sp)
80006af2:	7b0a                	flw	fs6,160(sp)
80006af4:	9418                	0x9418
80006af6:	01a4                	addi	s1,sp,200
80006af8:	e7fa                	fsw	ft10,204(sp)
80006afa:	7015                	c.lui	zero,0xfffe5
80006afc:	a050                	fsd	fa2,128(s0)
80006afe:	03407643          	fmadd.d	fa2,ft0,fs4,ft0
80006b02:	063e                	slli	a2,a2,0xf
80006b04:	85ea                	mv	a1,s10
80006b06:	4eec                	lw	a1,92(a3)
80006b08:	a95e                	fsd	fs7,144(sp)
80006b0a:	3aef40f3          	0x3aef40f3
80006b0e:	e62853a3          	0xe62853a3
80006b12:	7316                	flw	ft6,100(sp)
80006b14:	2e160dbb          	0x2e160dbb
80006b18:	452708a7          	0x452708a7
80006b1c:	9d30                	0x9d30
80006b1e:	218e                	fld	ft3,192(sp)
80006b20:	b11e                	fsd	ft7,160(sp)
80006b22:	3f7c                	fld	fa5,248(a4)
80006b24:	8a44                	0x8a44
80006b26:	19ad1def          	jal	s11,800d7cc0 <__global_pointer$+0xd0754>
80006b2a:	61e4                	flw	fs1,68(a1)
80006b2c:	b8a4                	fsd	fs1,112(s1)
80006b2e:	b5d94e17          	auipc	t3,0xb5d94
80006b32:	6728                	flw	fa0,72(a4)
80006b34:	73e6                	flw	ft7,120(sp)
80006b36:	57f4                	lw	a3,108(a5)
80006b38:	5cb5                	li	s9,-19
80006b3a:	673824b3          	0x673824b3
80006b3e:	452c                	lw	a1,72(a0)
80006b40:	375ced43          	fmadd.q	fs10,fs9,fs5,ft6,unknown
80006b44:	2f3e                	fld	ft10,456(sp)
80006b46:	0f22                	slli	t5,t5,0x8
80006b48:	c5fc                	sw	a5,76(a1)
80006b4a:	6b3d                	lui	s6,0xf
80006b4c:	d05f 47da c656      	0xc65647dad05f
80006b52:	189e                	slli	a7,a7,0x27
80006b54:	2f60                	fld	fs0,216(a4)
80006b56:	5eb9                	li	t4,-18
80006b58:	69c06c73          	csrrsi	s8,0x69c,0
80006b5c:	b6de                	fsd	fs7,360(sp)
80006b5e:	029e                	slli	t0,t0,0x7
80006b60:	63bcc123          	0x63bcc123
80006b64:	c1b4                	sw	a3,64(a1)
80006b66:	318b28bb          	0x318b28bb
80006b6a:	99334b27          	fsq	fs3,-1642(t1) # f996 <buflen.2941+0xf956>
80006b6e:	7d19                	lui	s10,0xfffe6
80006b70:	2e0b77ef          	jal	a5,800bde50 <__global_pointer$+0xb68e4>
80006b74:	49777d6b          	0x49777d6b
80006b78:	d426                	sw	s1,40(sp)
80006b7a:	2d30                	fld	fa2,88(a0)
80006b7c:	318c2ea3          	sw	s8,797(s8) # fffe431d <__global_pointer$+0x7ffdcdb1>
80006b80:	5faed877          	0x5faed877
80006b84:	f09c                	fsw	fa5,32(s1)
80006b86:	00ad62fb          	0xad62fb
80006b8a:	0174                	addi	a3,sp,140
80006b8c:	6adf 5506 6f54      	0x6f5455066adf
80006b92:	600e                	flw	ft0,192(sp)
80006b94:	c4ff                	0xc4ff
80006b96:	40b0                	lw	a2,64(s1)
80006b98:	1040                	addi	s0,sp,36
80006b9a:	00c4                	addi	s1,sp,68
80006b9c:	d252                	sw	s4,36(sp)
80006b9e:	c77a1b2b          	0xc77a1b2b
80006ba2:	345f 3644 71e7      	0x71e73644345f
80006ba8:	4906                	lw	s2,64(sp)
80006baa:	526d                	li	tp,-5
80006bac:	8909                	andi	a0,a0,2
80006bae:	743c                	flw	fa5,104(s0)
80006bb0:	ffda                	fsw	fs6,252(sp)
80006bb2:	389f 5411 35e6      	0x35e65411389f
80006bb8:	91a6                	add	gp,gp,s1
80006bba:	26402f2b          	0x26402f2b
80006bbe:	5e70                	lw	a2,124(a2)
80006bc0:	d928                	sw	a0,112(a0)
80006bc2:	0c85                	addi	s9,s9,1
80006bc4:	422f2997          	auipc	s3,0x422f2
80006bc8:	a9d0                	fsd	fa2,144(a1)
80006bca:	f68615bb          	0xf68615bb
80006bce:	0335                	addi	t1,t1,13
80006bd0:	9db6                	add	s11,s11,a3
80006bd2:	84d02e07          	flw	ft8,-1971(zero) # fffff84d <__global_pointer$+0x7fff82e1>
80006bd6:	1c2d                	addi	s8,s8,-21
80006bd8:	19f2                	slli	s3,s3,0x3c
80006bda:	4396                	lw	t2,68(sp)
80006bdc:	663ef68b          	0x663ef68b
80006be0:	657f                	0x657f
80006be2:	5624                	lw	s1,104(a2)
80006be4:	5bdbb757          	0x5bdbb757
80006be8:	2c11                	jal	80006dfc <_tbss_end+0x38>
80006bea:	08e4                	addi	s1,sp,92
80006bec:	708e                	flw	ft1,224(sp)
80006bee:	39f0                	fld	fa2,240(a1)
80006bf0:	5840                	lw	s0,52(s0)
80006bf2:	70d6                	flw	ft1,116(sp)
80006bf4:	58ab4ae3          	blt	s6,a0,80007988 <__global_pointer$+0x41c>
80006bf8:	5fae                	lw	t6,232(sp)
80006bfa:	2632                	fld	fa2,264(sp)
80006bfc:	c65d                	beqz	a2,80006caa <input_data+0x1f3e>
80006bfe:	57a2                	lw	a5,40(sp)
80006c00:	afc1                	j	800073d0 <_tbss_end+0x60c>
80006c02:	4361268b          	0x4361268b
80006c06:	3aea                	fld	fs5,184(sp)
80006c08:	eae5                	bnez	a3,80006cf8 <input_data+0x1f8c>
80006c0a:	29e8                	fld	fa0,208(a1)
80006c0c:	9209                	srli	a2,a2,0x22
80006c0e:	687e                	flw	fa6,220(sp)
80006c10:	5c32                	lw	s8,44(sp)
80006c12:	765e                	flw	fa2,244(sp)
80006c14:	28ae                	fld	fa7,200(sp)
80006c16:	297c                	fld	fa5,208(a0)
80006c18:	fa95                	bnez	a3,80006b4c <input_data+0x1de0>
80006c1a:	6a49                	lui	s4,0x12
80006c1c:	e729                	bnez	a4,80006c66 <input_data+0x1efa>
80006c1e:	4e82                	lw	t4,0(sp)
80006c20:	4cb0                	lw	a2,88(s1)
80006c22:	689e                	flw	fa7,196(sp)
80006c24:	b1ee                	fsd	fs11,224(sp)
80006c26:	83ba1fb7          	lui	t6,0x83ba1
80006c2a:	3fbe                	fld	ft11,488(sp)
80006c2c:	0ee21ec7          	fmsub.q	ft9,ft4,fa4,ft1,rtz
80006c30:	1f407de7          	0x1f407de7
80006c34:	8c8c                	0x8c8c
80006c36:	2d2d                	jal	80007270 <_tbss_end+0x4ac>
80006c38:	97d6                	add	a5,a5,s5
80006c3a:	7db5                	lui	s11,0xfffed
80006c3c:	37ea                	fld	fa5,184(sp)
80006c3e:	10d0240f          	0x10d0240f
80006c42:	7585                	lui	a1,0xfffe1
80006c44:	58ce                	lw	a7,240(sp)
80006c46:	5eaa                	lw	t4,168(sp)
80006c48:	4e8e                	lw	t4,192(sp)
80006c4a:	76c05b67          	0x76c05b67
80006c4e:	252c                	fld	fa1,72(a0)
80006c50:	53c8cb9b          	0x53c8cb9b
80006c54:	748d9613          	0x748d9613
80006c58:	7651                	lui	a2,0xffff4
80006c5a:	8c68408b          	0x8c68408b
80006c5e:	52ac                	lw	a1,96(a3)
80006c60:	86a9                	srai	a3,a3,0xa
80006c62:	341a                	fld	fs0,416(sp)
80006c64:	d8ac                	sw	a1,112(s1)
80006c66:	5030                	lw	a2,96(s0)
80006c68:	45a55e33          	0x45a55e33
80006c6c:	3159                	jal	800068f2 <input_data+0x1b86>
80006c6e:	7782                	flw	fa5,32(sp)
80006c70:	27b1                	jal	800073bc <_tbss_end+0x5f8>
80006c72:	43550df3          	0x43550df3
80006c76:	1c36                	slli	s8,s8,0x2d
80006c78:	2ad8                	fld	fa4,144(a3)
80006c7a:	2709                	jal	8000737c <_tbss_end+0x5b8>
80006c7c:	57cebc73          	csrrc	s8,0x57c,t4
80006c80:	ed02                	fsw	ft0,152(sp)
80006c82:	3b76                	fld	fs6,376(sp)
80006c84:	2fcade4f          	fnmadd.q	ft8,fs5,ft8,ft5,unknown
80006c88:	7a54488b          	0x7a54488b
80006c8c:	e0a1                	bnez	s1,80006ccc <input_data+0x1f60>
80006c8e:	703e                	flw	ft0,236(sp)
80006c90:	eae8                	fsw	fa0,84(a3)
80006c92:	0b10                	addi	a2,sp,400
80006c94:	52d9061b          	0x52d9061b
80006c98:	ac6e                	fsd	fs11,24(sp)
80006c9a:	66d9                	lui	a3,0x16
80006c9c:	5b28                	lw	a0,112(a4)
80006c9e:	34cd                	jal	80006780 <input_data+0x1a14>
80006ca0:	bd26                	fsd	fs1,184(sp)
80006ca2:	3925                	jal	800068da <input_data+0x1b6e>
80006ca4:	cbd4                	sw	a3,20(a5)
80006ca6:	7a70                	flw	fa2,116(a2)
80006ca8:	b6cd                	j	8000688a <input_data+0x1b1e>
80006caa:	fc8e039b          	0xfc8e039b
80006cae:	5515                	li	a0,-27
80006cb0:	45288ea3          	sb	s2,1117(a7) # fffe245d <__global_pointer$+0x7ffdaef1>
80006cb4:	c129                	beqz	a0,80006cf6 <input_data+0x1f8a>
80006cb6:	a88b6cef          	jal	s9,7ffbcf3e <buflen.2941+0x7ffbcefe>
80006cba:	53f8                	lw	a4,100(a5)
80006cbc:	1629                	addi	a2,a2,-22
80006cbe:	6460                	flw	fs0,76(s0)
80006cc0:	b922                	fsd	fs0,176(sp)
80006cc2:	03ad                	addi	t2,t2,11
80006cc4:	324f49f7          	0x324f49f7
80006cc8:	bdbd                	j	80006b46 <input_data+0x1dda>
80006cca:	f6433c4b          	fnmsub.q	fs8,ft6,ft4,ft10,rup
80006cce:	5aad                	li	s5,-21
80006cd0:	5f29                	li	t5,-22
80006cd2:	5e48                	lw	a0,60(a2)
80006cd4:	2d7f                	0x2d7f
80006cd6:	3618                	fld	fa4,40(a2)
80006cd8:	1f55                	addi	t5,t5,-11
80006cda:	7894                	flw	fa3,48(s1)
80006cdc:	430fbce7          	0x430fbce7
80006ce0:	8204                	0x8204
80006ce2:	4e34                	lw	a3,88(a2)
80006ce4:	c149                	beqz	a0,80006d66 <input_data+0x1ffa>
80006ce6:	fdf6576b          	0xfdf6576b
80006cea:	734b39d3          	0x734b39d3
80006cee:	04d2                	slli	s1,s1,0x14
80006cf0:	35e2                	fld	fa1,56(sp)
80006cf2:	5625                	li	a2,-23
80006cf4:	a794                	fsd	fa3,8(a5)
80006cf6:	13fe                	slli	t2,t2,0x3f
80006cf8:	47e8                	lw	a0,76(a5)
80006cfa:	1e6d                	addi	t3,t3,-5
80006cfc:	efda                	fsw	fs6,220(sp)
80006cfe:	0588                	addi	a0,sp,704
80006d00:	b61d                	j	80006826 <input_data+0x1aba>
80006d02:	6226                	flw	ft4,72(sp)
80006d04:	bb78                	fsd	fa4,240(a4)
80006d06:	6266                	flw	ft4,88(sp)
80006d08:	5b668c23          	sb	s6,1464(a3) # 165b8 <buflen.2941+0x16578>
80006d0c:	b0dc                	fsd	fa5,160(s1)
80006d0e:	0ffa                	slli	t6,t6,0x1e
80006d10:	347e3b97          	auipc	s7,0x347e3
80006d14:	465d649b          	0x465d649b
80006d18:	bc8d                	j	8000678a <input_data+0x1a1e>
80006d1a:	6f59                	lui	t5,0x16
80006d1c:	685d77c3          	fmadd.s	fa5,fs10,ft5,fa3
80006d20:	9740                	0x9740
80006d22:	17ed                	addi	a5,a5,-5
80006d24:	2c8c                	fld	fa1,24(s1)
80006d26:	2031                	jal	80006d32 <input_data+0x1fc6>
80006d28:	a141                	j	800071a8 <_tbss_end+0x3e4>
80006d2a:	0f163cf7          	0xf163cf7
80006d2e:	1b81                	addi	s7,s7,-32
80006d30:	48deb2b3          	0x48deb2b3
80006d34:	1b350fbf 05a5ef07 	0x5a5ef071b350fbf
80006d3c:	44f2                	lw	s1,28(sp)
80006d3e:	4961                	li	s2,24
80006d40:	3900                	fld	fs0,48(a0)
80006d42:	a4257fdb          	0xa4257fdb
80006d46:	7329                	lui	t1,0xfffea
80006d48:	12e0                	addi	s0,sp,364
80006d4a:	c44211eb          	0xc44211eb
80006d4e:	7a88                	flw	fa0,48(a3)
80006d50:	c985                	beqz	a1,80006d80 <_end>
80006d52:	3a76                	fld	fs4,376(sp)
80006d54:	4e03cf67          	0x4e03cf67
80006d58:	e4c1                	bnez	s1,80006de0 <_tbss_end+0x1c>
80006d5a:	3c39                	jal	80006778 <input_data+0x1a0c>
80006d5c:	167d                	addi	a2,a2,-1
80006d5e:	5370                	lw	a2,100(a4)
80006d60:	36f5                	jal	8000694c <input_data+0x1be0>
80006d62:	4896                	lw	a7,68(sp)
80006d64:	66c0                	flw	fs0,12(a3)
80006d66:	37b6                	fld	fa5,360(sp)
80006d68:	935e                	add	t1,t1,s7
80006d6a:	3460                	fld	fs0,232(s0)
