
towers.riscv:     ファイル形式 elf32-littleriscv


セクション .text.init の逆アセンブル:

80000000 <_start>:
80000000:	00000093          	li	ra,0
80000004:	00000113          	li	sp,0
80000008:	00000193          	li	gp,0
8000000c:	00000213          	li	tp,0
80000010:	00000293          	li	t0,0
80000014:	00000313          	li	t1,0
80000018:	00000393          	li	t2,0
8000001c:	00000413          	li	s0,0
80000020:	00000493          	li	s1,0
80000024:	00000513          	li	a0,0
80000028:	00000593          	li	a1,0
8000002c:	00000613          	li	a2,0
80000030:	00000693          	li	a3,0
80000034:	00000713          	li	a4,0
80000038:	00000793          	li	a5,0
8000003c:	00000813          	li	a6,0
80000040:	00000893          	li	a7,0
80000044:	00000913          	li	s2,0
80000048:	00000993          	li	s3,0
8000004c:	00000a13          	li	s4,0
80000050:	00000a93          	li	s5,0
80000054:	00000b13          	li	s6,0
80000058:	00000b93          	li	s7,0
8000005c:	00000c13          	li	s8,0
80000060:	00000c93          	li	s9,0
80000064:	00000d13          	li	s10,0
80000068:	00000d93          	li	s11,0
8000006c:	00000e13          	li	t3,0
80000070:	00000e93          	li	t4,0
80000074:	00000f13          	li	t5,0
80000078:	00000f93          	li	t6,0
8000007c:	0001e2b7          	lui	t0,0x1e
80000080:	3002a073          	csrs	mstatus,t0
80000084:	00100293          	li	t0,1
80000088:	01f29293          	slli	t0,t0,0x1f
8000008c:	0002ca63          	bltz	t0,800000a0 <_start+0xa0>
80000090:	00100513          	li	a0,1
80000094:	00001297          	auipc	t0,0x1
80000098:	f6a2a623          	sw	a0,-148(t0) # 80001000 <tohost>
8000009c:	ff5ff06f          	j	80000090 <_start+0x90>
800000a0:	00000297          	auipc	t0,0x0
800000a4:	04028293          	addi	t0,t0,64 # 800000e0 <trap_entry>
800000a8:	30529073          	csrw	mtvec,t0
800000ac:	00003197          	auipc	gp,0x3
800000b0:	78c18193          	addi	gp,gp,1932 # 80003838 <__global_pointer$>
800000b4:	8c718213          	addi	tp,gp,-1849 # 800030ff <_end+0x3f>
800000b8:	fc027213          	andi	tp,tp,-64
800000bc:	f1402573          	csrr	a0,mhartid
800000c0:	00100593          	li	a1,1
800000c4:	00b57063          	bgeu	a0,a1,800000c4 <_start+0xc4>
800000c8:	00150113          	addi	sp,a0,1
800000cc:	01111113          	slli	sp,sp,0x11
800000d0:	00410133          	add	sp,sp,tp
800000d4:	01151613          	slli	a2,a0,0x11
800000d8:	00c20233          	add	tp,tp,a2
800000dc:	4290106f          	j	80001d04 <_init>

800000e0 <trap_entry>:
800000e0:	ef010113          	addi	sp,sp,-272
800000e4:	00112223          	sw	ra,4(sp)
800000e8:	00212423          	sw	sp,8(sp)
800000ec:	00312623          	sw	gp,12(sp)
800000f0:	00412823          	sw	tp,16(sp)
800000f4:	00512a23          	sw	t0,20(sp)
800000f8:	00612c23          	sw	t1,24(sp)
800000fc:	00712e23          	sw	t2,28(sp)
80000100:	02812023          	sw	s0,32(sp)
80000104:	02912223          	sw	s1,36(sp)
80000108:	02a12423          	sw	a0,40(sp)
8000010c:	02b12623          	sw	a1,44(sp)
80000110:	02c12823          	sw	a2,48(sp)
80000114:	02d12a23          	sw	a3,52(sp)
80000118:	02e12c23          	sw	a4,56(sp)
8000011c:	02f12e23          	sw	a5,60(sp)
80000120:	05012023          	sw	a6,64(sp)
80000124:	05112223          	sw	a7,68(sp)
80000128:	05212423          	sw	s2,72(sp)
8000012c:	05312623          	sw	s3,76(sp)
80000130:	05412823          	sw	s4,80(sp)
80000134:	05512a23          	sw	s5,84(sp)
80000138:	05612c23          	sw	s6,88(sp)
8000013c:	05712e23          	sw	s7,92(sp)
80000140:	07812023          	sw	s8,96(sp)
80000144:	07912223          	sw	s9,100(sp)
80000148:	07a12423          	sw	s10,104(sp)
8000014c:	07b12623          	sw	s11,108(sp)
80000150:	07c12823          	sw	t3,112(sp)
80000154:	07d12a23          	sw	t4,116(sp)
80000158:	07e12c23          	sw	t5,120(sp)
8000015c:	07f12e23          	sw	t6,124(sp)
80000160:	34202573          	csrr	a0,mcause
80000164:	341025f3          	csrr	a1,mepc
80000168:	00010613          	mv	a2,sp
8000016c:	129010ef          	jal	ra,80001a94 <handle_trap>
80000170:	34151073          	csrw	mepc,a0
80000174:	000022b7          	lui	t0,0x2
80000178:	80028293          	addi	t0,t0,-2048 # 1800 <buflen.2941+0x17c0>
8000017c:	3002a073          	csrs	mstatus,t0
80000180:	00412083          	lw	ra,4(sp)
80000184:	00812103          	lw	sp,8(sp)
80000188:	00c12183          	lw	gp,12(sp)
8000018c:	01012203          	lw	tp,16(sp)
80000190:	01412283          	lw	t0,20(sp)
80000194:	01812303          	lw	t1,24(sp)
80000198:	01c12383          	lw	t2,28(sp)
8000019c:	02012403          	lw	s0,32(sp)
800001a0:	02412483          	lw	s1,36(sp)
800001a4:	02812503          	lw	a0,40(sp)
800001a8:	02c12583          	lw	a1,44(sp)
800001ac:	03012603          	lw	a2,48(sp)
800001b0:	03412683          	lw	a3,52(sp)
800001b4:	03812703          	lw	a4,56(sp)
800001b8:	03c12783          	lw	a5,60(sp)
800001bc:	04012803          	lw	a6,64(sp)
800001c0:	04412883          	lw	a7,68(sp)
800001c4:	04812903          	lw	s2,72(sp)
800001c8:	04c12983          	lw	s3,76(sp)
800001cc:	05012a03          	lw	s4,80(sp)
800001d0:	05412a83          	lw	s5,84(sp)
800001d4:	05812b03          	lw	s6,88(sp)
800001d8:	05c12b83          	lw	s7,92(sp)
800001dc:	06012c03          	lw	s8,96(sp)
800001e0:	06412c83          	lw	s9,100(sp)
800001e4:	06812d03          	lw	s10,104(sp)
800001e8:	06c12d83          	lw	s11,108(sp)
800001ec:	07012e03          	lw	t3,112(sp)
800001f0:	07412e83          	lw	t4,116(sp)
800001f4:	07812f03          	lw	t5,120(sp)
800001f8:	07c12f83          	lw	t6,124(sp)
800001fc:	11010113          	addi	sp,sp,272
80000200:	30200073          	mret

セクション .text の逆アセンブル:

80001048 <towers_verify.part.0>:
80001048:	00052603          	lw	a2,0(a0)
8000104c:	01852783          	lw	a5,24(a0)
80001050:	02c79863          	bne	a5,a2,80001080 <towers_verify.part.0+0x38>
80001054:	01c52783          	lw	a5,28(a0)
80001058:	02078863          	beqz	a5,80001088 <towers_verify.part.0+0x40>
8000105c:	00000713          	li	a4,0
80001060:	00c0006f          	j	8000106c <towers_verify.part.0+0x24>
80001064:	0047a783          	lw	a5,4(a5)
80001068:	02078063          	beqz	a5,80001088 <towers_verify.part.0+0x40>
8000106c:	0007a683          	lw	a3,0(a5)
80001070:	00170713          	addi	a4,a4,1
80001074:	fed708e3          	beq	a4,a3,80001064 <towers_verify.part.0+0x1c>
80001078:	00500513          	li	a0,5
8000107c:	00008067          	ret
80001080:	00400513          	li	a0,4
80001084:	00008067          	ret
80001088:	00452703          	lw	a4,4(a0)
8000108c:	00100793          	li	a5,1
80001090:	00c79633          	sll	a2,a5,a2
80001094:	fff60613          	addi	a2,a2,-1
80001098:	00000513          	li	a0,0
8000109c:	fec700e3          	beq	a4,a2,8000107c <towers_verify.part.0+0x34>
800010a0:	00600513          	li	a0,6
800010a4:	00008067          	ret

800010a8 <list_getSize>:
800010a8:	00052503          	lw	a0,0(a0)
800010ac:	00008067          	ret

800010b0 <list_init>:
800010b0:	00052023          	sw	zero,0(a0)
800010b4:	00052223          	sw	zero,4(a0)
800010b8:	00008067          	ret

800010bc <list_push>:
800010bc:	00002697          	auipc	a3,0x2
800010c0:	f7c68693          	addi	a3,a3,-132 # 80003038 <g_nodeFreeList>
800010c4:	0046a783          	lw	a5,4(a3)
800010c8:	00052703          	lw	a4,0(a0)
800010cc:	0047a603          	lw	a2,4(a5)
800010d0:	00170713          	addi	a4,a4,1
800010d4:	00c6a223          	sw	a2,4(a3)
800010d8:	00452683          	lw	a3,4(a0)
800010dc:	00d7a223          	sw	a3,4(a5)
800010e0:	00f52223          	sw	a5,4(a0)
800010e4:	00b7a023          	sw	a1,0(a5)
800010e8:	00e52023          	sw	a4,0(a0)
800010ec:	00008067          	ret

800010f0 <list_pop>:
800010f0:	00452703          	lw	a4,4(a0)
800010f4:	00050793          	mv	a5,a0
800010f8:	00052683          	lw	a3,0(a0)
800010fc:	00472583          	lw	a1,4(a4)
80001100:	00072503          	lw	a0,0(a4)
80001104:	00002617          	auipc	a2,0x2
80001108:	f3460613          	addi	a2,a2,-204 # 80003038 <g_nodeFreeList>
8000110c:	00b7a223          	sw	a1,4(a5)
80001110:	00462583          	lw	a1,4(a2)
80001114:	fff68693          	addi	a3,a3,-1
80001118:	00b72223          	sw	a1,4(a4)
8000111c:	00e62223          	sw	a4,4(a2)
80001120:	00d7a023          	sw	a3,0(a5)
80001124:	00008067          	ret

80001128 <list_clear>:
80001128:	00052703          	lw	a4,0(a0)
8000112c:	02e05863          	blez	a4,8000115c <list_clear+0x34>
80001130:	00002697          	auipc	a3,0x2
80001134:	f0868693          	addi	a3,a3,-248 # 80003038 <g_nodeFreeList>
80001138:	00452783          	lw	a5,4(a0)
8000113c:	fff70713          	addi	a4,a4,-1
80001140:	0047a603          	lw	a2,4(a5)
80001144:	00c52223          	sw	a2,4(a0)
80001148:	0046a603          	lw	a2,4(a3)
8000114c:	00c7a223          	sw	a2,4(a5)
80001150:	00f6a223          	sw	a5,4(a3)
80001154:	fe0712e3          	bnez	a4,80001138 <list_clear+0x10>
80001158:	00052023          	sw	zero,0(a0)
8000115c:	00008067          	ret

80001160 <towers_init>:
80001160:	00b52023          	sw	a1,0(a0)
80001164:	00052223          	sw	zero,4(a0)
80001168:	00052423          	sw	zero,8(a0)
8000116c:	00052623          	sw	zero,12(a0)
80001170:	00052823          	sw	zero,16(a0)
80001174:	00052a23          	sw	zero,20(a0)
80001178:	00052c23          	sw	zero,24(a0)
8000117c:	00052e23          	sw	zero,28(a0)
80001180:	04b05263          	blez	a1,800011c4 <towers_init+0x64>
80001184:	00002817          	auipc	a6,0x2
80001188:	eb480813          	addi	a6,a6,-332 # 80003038 <g_nodeFreeList>
8000118c:	00482783          	lw	a5,4(a6)
80001190:	00058713          	mv	a4,a1
80001194:	00000693          	li	a3,0
80001198:	0080006f          	j	800011a0 <towers_init+0x40>
8000119c:	00060793          	mv	a5,a2
800011a0:	0047a603          	lw	a2,4(a5)
800011a4:	00e7a023          	sw	a4,0(a5)
800011a8:	00d7a223          	sw	a3,4(a5)
800011ac:	fff70713          	addi	a4,a4,-1
800011b0:	00078693          	mv	a3,a5
800011b4:	fe0714e3          	bnez	a4,8000119c <towers_init+0x3c>
800011b8:	00c82223          	sw	a2,4(a6)
800011bc:	00f52623          	sw	a5,12(a0)
800011c0:	00b52423          	sw	a1,8(a0)
800011c4:	00008067          	ret

800011c8 <towers_clear>:
800011c8:	00852703          	lw	a4,8(a0)
800011cc:	02e05e63          	blez	a4,80001208 <towers_clear+0x40>
800011d0:	00002597          	auipc	a1,0x2
800011d4:	e6858593          	addi	a1,a1,-408 # 80003038 <g_nodeFreeList>
800011d8:	00c52783          	lw	a5,12(a0)
800011dc:	0045a683          	lw	a3,4(a1)
800011e0:	0080006f          	j	800011e8 <towers_clear+0x20>
800011e4:	00060793          	mv	a5,a2
800011e8:	0047a603          	lw	a2,4(a5)
800011ec:	fff70713          	addi	a4,a4,-1
800011f0:	00d7a223          	sw	a3,4(a5)
800011f4:	00078693          	mv	a3,a5
800011f8:	fe0716e3          	bnez	a4,800011e4 <towers_clear+0x1c>
800011fc:	00f5a223          	sw	a5,4(a1)
80001200:	00c52623          	sw	a2,12(a0)
80001204:	00052423          	sw	zero,8(a0)
80001208:	01052703          	lw	a4,16(a0)
8000120c:	02e05e63          	blez	a4,80001248 <towers_clear+0x80>
80001210:	00002597          	auipc	a1,0x2
80001214:	e2858593          	addi	a1,a1,-472 # 80003038 <g_nodeFreeList>
80001218:	01452783          	lw	a5,20(a0)
8000121c:	0045a683          	lw	a3,4(a1)
80001220:	0080006f          	j	80001228 <towers_clear+0x60>
80001224:	00060793          	mv	a5,a2
80001228:	0047a603          	lw	a2,4(a5)
8000122c:	fff70713          	addi	a4,a4,-1
80001230:	00d7a223          	sw	a3,4(a5)
80001234:	00078693          	mv	a3,a5
80001238:	fe0716e3          	bnez	a4,80001224 <towers_clear+0x5c>
8000123c:	00f5a223          	sw	a5,4(a1)
80001240:	00c52a23          	sw	a2,20(a0)
80001244:	00052823          	sw	zero,16(a0)
80001248:	01852703          	lw	a4,24(a0)
8000124c:	02e05a63          	blez	a4,80001280 <towers_clear+0xb8>
80001250:	00002597          	auipc	a1,0x2
80001254:	de858593          	addi	a1,a1,-536 # 80003038 <g_nodeFreeList>
80001258:	01c52783          	lw	a5,28(a0)
8000125c:	0045a683          	lw	a3,4(a1)
80001260:	0080006f          	j	80001268 <towers_clear+0xa0>
80001264:	00060793          	mv	a5,a2
80001268:	0047a603          	lw	a2,4(a5)
8000126c:	fff70713          	addi	a4,a4,-1
80001270:	00d7a223          	sw	a3,4(a5)
80001274:	00078693          	mv	a3,a5
80001278:	fe0716e3          	bnez	a4,80001264 <towers_clear+0x9c>
8000127c:	00f5a223          	sw	a5,4(a1)
80001280:	00052803          	lw	a6,0(a0)
80001284:	00052223          	sw	zero,4(a0)
80001288:	00052423          	sw	zero,8(a0)
8000128c:	00052623          	sw	zero,12(a0)
80001290:	00052823          	sw	zero,16(a0)
80001294:	00052a23          	sw	zero,20(a0)
80001298:	00052c23          	sw	zero,24(a0)
8000129c:	00052e23          	sw	zero,28(a0)
800012a0:	05005263          	blez	a6,800012e4 <towers_clear+0x11c>
800012a4:	00002597          	auipc	a1,0x2
800012a8:	d9458593          	addi	a1,a1,-620 # 80003038 <g_nodeFreeList>
800012ac:	0045a783          	lw	a5,4(a1)
800012b0:	00080713          	mv	a4,a6
800012b4:	00000693          	li	a3,0
800012b8:	0080006f          	j	800012c0 <towers_clear+0xf8>
800012bc:	00060793          	mv	a5,a2
800012c0:	0047a603          	lw	a2,4(a5)
800012c4:	00e7a023          	sw	a4,0(a5)
800012c8:	00d7a223          	sw	a3,4(a5)
800012cc:	fff70713          	addi	a4,a4,-1
800012d0:	00078693          	mv	a3,a5
800012d4:	fe0714e3          	bnez	a4,800012bc <towers_clear+0xf4>
800012d8:	00c5a223          	sw	a2,4(a1)
800012dc:	00f52623          	sw	a5,12(a0)
800012e0:	01052423          	sw	a6,8(a0)
800012e4:	00008067          	ret

800012e8 <towers_solve_h>:
800012e8:	fe010113          	addi	sp,sp,-32
800012ec:	00812c23          	sw	s0,24(sp)
800012f0:	00912a23          	sw	s1,20(sp)
800012f4:	01212823          	sw	s2,16(sp)
800012f8:	01312623          	sw	s3,12(sp)
800012fc:	01412423          	sw	s4,8(sp)
80001300:	00112e23          	sw	ra,28(sp)
80001304:	00100793          	li	a5,1
80001308:	00050a13          	mv	s4,a0
8000130c:	00060913          	mv	s2,a2
80001310:	00070993          	mv	s3,a4
80001314:	00058493          	mv	s1,a1
80001318:	00068413          	mv	s0,a3
8000131c:	04f58863          	beq	a1,a5,8000136c <towers_solve_h+0x84>
80001320:	fff48493          	addi	s1,s1,-1
80001324:	00048593          	mv	a1,s1
80001328:	000a0513          	mv	a0,s4
8000132c:	00040713          	mv	a4,s0
80001330:	00098693          	mv	a3,s3
80001334:	00090613          	mv	a2,s2
80001338:	fb1ff0ef          	jal	ra,800012e8 <towers_solve_h>
8000133c:	00098713          	mv	a4,s3
80001340:	00040693          	mv	a3,s0
80001344:	00090613          	mv	a2,s2
80001348:	00100593          	li	a1,1
8000134c:	000a0513          	mv	a0,s4
80001350:	f99ff0ef          	jal	ra,800012e8 <towers_solve_h>
80001354:	00100793          	li	a5,1
80001358:	00090713          	mv	a4,s2
8000135c:	00f48a63          	beq	s1,a5,80001370 <towers_solve_h+0x88>
80001360:	00040913          	mv	s2,s0
80001364:	00070413          	mv	s0,a4
80001368:	fb9ff06f          	j	80001320 <towers_solve_h+0x38>
8000136c:	00060413          	mv	s0,a2
80001370:	00442783          	lw	a5,4(s0)
80001374:	00042683          	lw	a3,0(s0)
80001378:	004a2703          	lw	a4,4(s4)
8000137c:	0047a583          	lw	a1,4(a5)
80001380:	0007a603          	lw	a2,0(a5)
80001384:	fff68693          	addi	a3,a3,-1
80001388:	00b42223          	sw	a1,4(s0)
8000138c:	0049a583          	lw	a1,4(s3)
80001390:	00d42023          	sw	a3,0(s0)
80001394:	0009a683          	lw	a3,0(s3)
80001398:	00b7a223          	sw	a1,4(a5)
8000139c:	00f9a223          	sw	a5,4(s3)
800013a0:	00c7a023          	sw	a2,0(a5)
800013a4:	01c12083          	lw	ra,28(sp)
800013a8:	01812403          	lw	s0,24(sp)
800013ac:	00168793          	addi	a5,a3,1
800013b0:	00f9a023          	sw	a5,0(s3)
800013b4:	00170793          	addi	a5,a4,1
800013b8:	00fa2223          	sw	a5,4(s4)
800013bc:	01412483          	lw	s1,20(sp)
800013c0:	01012903          	lw	s2,16(sp)
800013c4:	00c12983          	lw	s3,12(sp)
800013c8:	00812a03          	lw	s4,8(sp)
800013cc:	02010113          	addi	sp,sp,32
800013d0:	00008067          	ret

800013d4 <towers_solve>:
800013d4:	00052583          	lw	a1,0(a0)
800013d8:	01850713          	addi	a4,a0,24
800013dc:	01050693          	addi	a3,a0,16
800013e0:	00850613          	addi	a2,a0,8
800013e4:	f05ff06f          	j	800012e8 <towers_solve_h>

800013e8 <towers_verify>:
800013e8:	00852703          	lw	a4,8(a0)
800013ec:	00071863          	bnez	a4,800013fc <towers_verify+0x14>
800013f0:	01052783          	lw	a5,16(a0)
800013f4:	00079863          	bnez	a5,80001404 <towers_verify+0x1c>
800013f8:	c51ff06f          	j	80001048 <towers_verify.part.0>
800013fc:	00200513          	li	a0,2
80001400:	00008067          	ret
80001404:	00300513          	li	a0,3
80001408:	00008067          	ret

8000140c <vprintfmt>:
8000140c:	eb010113          	addi	sp,sp,-336
80001410:	13912223          	sw	s9,292(sp)
80001414:	40000cb7          	lui	s9,0x40000
80001418:	fffc8793          	addi	a5,s9,-1 # 3fffffff <buflen.2941+0x3fffffbf>
8000141c:	14812423          	sw	s0,328(sp)
80001420:	14912223          	sw	s1,324(sp)
80001424:	15212023          	sw	s2,320(sp)
80001428:	13512a23          	sw	s5,308(sp)
8000142c:	14112623          	sw	ra,332(sp)
80001430:	13312e23          	sw	s3,316(sp)
80001434:	13412c23          	sw	s4,312(sp)
80001438:	13612823          	sw	s6,304(sp)
8000143c:	13712623          	sw	s7,300(sp)
80001440:	13812423          	sw	s8,296(sp)
80001444:	13a12023          	sw	s10,288(sp)
80001448:	11b12e23          	sw	s11,284(sp)
8000144c:	00050913          	mv	s2,a0
80001450:	00058493          	mv	s1,a1
80001454:	00060413          	mv	s0,a2
80001458:	00d12423          	sw	a3,8(sp)
8000145c:	02500a93          	li	s5,37
80001460:	00f12623          	sw	a5,12(sp)
80001464:	0140006f          	j	80001478 <vprintfmt+0x6c>
80001468:	06050463          	beqz	a0,800014d0 <vprintfmt+0xc4>
8000146c:	00048593          	mv	a1,s1
80001470:	00140413          	addi	s0,s0,1
80001474:	000900e7          	jalr	s2
80001478:	00044503          	lbu	a0,0(s0)
8000147c:	ff5516e3          	bne	a0,s5,80001468 <vprintfmt+0x5c>
80001480:	00144683          	lbu	a3,1(s0)
80001484:	00140d93          	addi	s11,s0,1
80001488:	000d8713          	mv	a4,s11
8000148c:	02000b93          	li	s7,32
80001490:	fff00993          	li	s3,-1
80001494:	fff00a13          	li	s4,-1
80001498:	00000593          	li	a1,0
8000149c:	05500613          	li	a2,85
800014a0:	00900513          	li	a0,9
800014a4:	fdd68793          	addi	a5,a3,-35
800014a8:	0ff7f793          	andi	a5,a5,255
800014ac:	00170413          	addi	s0,a4,1
800014b0:	06f66c63          	bltu	a2,a5,80001528 <vprintfmt+0x11c>
800014b4:	00002817          	auipc	a6,0x2
800014b8:	8dc80813          	addi	a6,a6,-1828 # 80002d90 <main+0x1c0>
800014bc:	00279793          	slli	a5,a5,0x2
800014c0:	010787b3          	add	a5,a5,a6
800014c4:	0007a783          	lw	a5,0(a5)
800014c8:	010787b3          	add	a5,a5,a6
800014cc:	00078067          	jr	a5
800014d0:	14c12083          	lw	ra,332(sp)
800014d4:	14812403          	lw	s0,328(sp)
800014d8:	14412483          	lw	s1,324(sp)
800014dc:	14012903          	lw	s2,320(sp)
800014e0:	13c12983          	lw	s3,316(sp)
800014e4:	13812a03          	lw	s4,312(sp)
800014e8:	13412a83          	lw	s5,308(sp)
800014ec:	13012b03          	lw	s6,304(sp)
800014f0:	12c12b83          	lw	s7,300(sp)
800014f4:	12812c03          	lw	s8,296(sp)
800014f8:	12412c83          	lw	s9,292(sp)
800014fc:	12012d03          	lw	s10,288(sp)
80001500:	11c12d83          	lw	s11,284(sp)
80001504:	15010113          	addi	sp,sp,336
80001508:	00008067          	ret
8000150c:	00068b93          	mv	s7,a3
80001510:	00174683          	lbu	a3,1(a4)
80001514:	00040713          	mv	a4,s0
80001518:	00170413          	addi	s0,a4,1
8000151c:	fdd68793          	addi	a5,a3,-35
80001520:	0ff7f793          	andi	a5,a5,255
80001524:	f8f678e3          	bgeu	a2,a5,800014b4 <vprintfmt+0xa8>
80001528:	00048593          	mv	a1,s1
8000152c:	02500513          	li	a0,37
80001530:	000900e7          	jalr	s2
80001534:	000d8413          	mv	s0,s11
80001538:	f41ff06f          	j	80001478 <vprintfmt+0x6c>
8000153c:	00174803          	lbu	a6,1(a4)
80001540:	fd068993          	addi	s3,a3,-48
80001544:	00040713          	mv	a4,s0
80001548:	fd080793          	addi	a5,a6,-48
8000154c:	00080693          	mv	a3,a6
80001550:	02f56663          	bltu	a0,a5,8000157c <vprintfmt+0x170>
80001554:	00299793          	slli	a5,s3,0x2
80001558:	013789b3          	add	s3,a5,s3
8000155c:	00170713          	addi	a4,a4,1
80001560:	00199993          	slli	s3,s3,0x1
80001564:	010989b3          	add	s3,s3,a6
80001568:	00074803          	lbu	a6,0(a4)
8000156c:	fd098993          	addi	s3,s3,-48
80001570:	fd080793          	addi	a5,a6,-48
80001574:	00080693          	mv	a3,a6
80001578:	fcf57ee3          	bgeu	a0,a5,80001554 <vprintfmt+0x148>
8000157c:	f20a54e3          	bgez	s4,800014a4 <vprintfmt+0x98>
80001580:	00098a13          	mv	s4,s3
80001584:	fff00993          	li	s3,-1
80001588:	f1dff06f          	j	800014a4 <vprintfmt+0x98>
8000158c:	00174683          	lbu	a3,1(a4)
80001590:	00040713          	mv	a4,s0
80001594:	f11ff06f          	j	800014a4 <vprintfmt+0x98>
80001598:	00048593          	mv	a1,s1
8000159c:	02500513          	li	a0,37
800015a0:	000900e7          	jalr	s2
800015a4:	ed5ff06f          	j	80001478 <vprintfmt+0x6c>
800015a8:	00812783          	lw	a5,8(sp)
800015ac:	00174683          	lbu	a3,1(a4)
800015b0:	00040713          	mv	a4,s0
800015b4:	0007a983          	lw	s3,0(a5)
800015b8:	00478793          	addi	a5,a5,4
800015bc:	00f12423          	sw	a5,8(sp)
800015c0:	fbdff06f          	j	8000157c <vprintfmt+0x170>
800015c4:	03000513          	li	a0,48
800015c8:	00048593          	mv	a1,s1
800015cc:	000900e7          	jalr	s2
800015d0:	00048593          	mv	a1,s1
800015d4:	07800513          	li	a0,120
800015d8:	000900e7          	jalr	s2
800015dc:	00812783          	lw	a5,8(sp)
800015e0:	01000c13          	li	s8,16
800015e4:	00012223          	sw	zero,4(sp)
800015e8:	00478713          	addi	a4,a5,4
800015ec:	00812783          	lw	a5,8(sp)
800015f0:	00000d93          	li	s11,0
800015f4:	0007a983          	lw	s3,0(a5)
800015f8:	00e12423          	sw	a4,8(sp)
800015fc:	000c0613          	mv	a2,s8
80001600:	00000693          	li	a3,0
80001604:	00098513          	mv	a0,s3
80001608:	000d8593          	mv	a1,s11
8000160c:	1b4010ef          	jal	ra,800027c0 <__umoddi3>
80001610:	00a12823          	sw	a0,16(sp)
80001614:	00000793          	li	a5,0
80001618:	00050c93          	mv	s9,a0
8000161c:	23b78063          	beq	a5,s11,8000183c <vprintfmt+0x430>
80001620:	01410b13          	addi	s6,sp,20
80001624:	00100d13          	li	s10,1
80001628:	000c0613          	mv	a2,s8
8000162c:	00000693          	li	a3,0
80001630:	00098513          	mv	a0,s3
80001634:	000d8593          	mv	a1,s11
80001638:	555000ef          	jal	ra,8000238c <__udivdi3>
8000163c:	000c0613          	mv	a2,s8
80001640:	00000693          	li	a3,0
80001644:	00050993          	mv	s3,a0
80001648:	00058d93          	mv	s11,a1
8000164c:	174010ef          	jal	ra,800027c0 <__umoddi3>
80001650:	00412783          	lw	a5,4(sp)
80001654:	00ab2023          	sw	a0,0(s6)
80001658:	01a12023          	sw	s10,0(sp)
8000165c:	00050c93          	mv	s9,a0
80001660:	004b0b13          	addi	s6,s6,4
80001664:	001d0d13          	addi	s10,s10,1
80001668:	fdb790e3          	bne	a5,s11,80001628 <vprintfmt+0x21c>
8000166c:	fb89fee3          	bgeu	s3,s8,80001628 <vprintfmt+0x21c>
80001670:	014d5c63          	bge	s10,s4,80001688 <vprintfmt+0x27c>
80001674:	fffa0a13          	addi	s4,s4,-1
80001678:	00048593          	mv	a1,s1
8000167c:	000b8513          	mv	a0,s7
80001680:	000900e7          	jalr	s2
80001684:	ff4d48e3          	blt	s10,s4,80001674 <vprintfmt+0x268>
80001688:	00012783          	lw	a5,0(sp)
8000168c:	00c12703          	lw	a4,12(sp)
80001690:	00900993          	li	s3,9
80001694:	00e78a33          	add	s4,a5,a4
80001698:	002a1a13          	slli	s4,s4,0x2
8000169c:	01010793          	addi	a5,sp,16
800016a0:	01478a33          	add	s4,a5,s4
800016a4:	00c0006f          	j	800016b0 <vprintfmt+0x2a4>
800016a8:	000a2c83          	lw	s9,0(s4)
800016ac:	ffca0a13          	addi	s4,s4,-4
800016b0:	0199b7b3          	sltu	a5,s3,s9
800016b4:	40f007b3          	neg	a5,a5
800016b8:	0277f793          	andi	a5,a5,39
800016bc:	03078793          	addi	a5,a5,48
800016c0:	01978533          	add	a0,a5,s9
800016c4:	00048593          	mv	a1,s1
800016c8:	000900e7          	jalr	s2
800016cc:	00c10793          	addi	a5,sp,12
800016d0:	fd479ce3          	bne	a5,s4,800016a8 <vprintfmt+0x29c>
800016d4:	da5ff06f          	j	80001478 <vprintfmt+0x6c>
800016d8:	00100793          	li	a5,1
800016dc:	16b7cc63          	blt	a5,a1,80001854 <vprintfmt+0x448>
800016e0:	00812703          	lw	a4,8(sp)
800016e4:	00470793          	addi	a5,a4,4
800016e8:	18058663          	beqz	a1,80001874 <vprintfmt+0x468>
800016ec:	00072983          	lw	s3,0(a4)
800016f0:	00f12423          	sw	a5,8(sp)
800016f4:	41f9dc13          	srai	s8,s3,0x1f
800016f8:	180c4e63          	bltz	s8,80001894 <vprintfmt+0x488>
800016fc:	000c0d93          	mv	s11,s8
80001700:	00012223          	sw	zero,4(sp)
80001704:	00a00c13          	li	s8,10
80001708:	ef5ff06f          	j	800015fc <vprintfmt+0x1f0>
8000170c:	01000c13          	li	s8,16
80001710:	00012223          	sw	zero,4(sp)
80001714:	00100793          	li	a5,1
80001718:	10b7c263          	blt	a5,a1,8000181c <vprintfmt+0x410>
8000171c:	00812783          	lw	a5,8(sp)
80001720:	00478713          	addi	a4,a5,4
80001724:	ec9ff06f          	j	800015ec <vprintfmt+0x1e0>
80001728:	00812783          	lw	a5,8(sp)
8000172c:	0007ad83          	lw	s11,0(a5)
80001730:	00478b13          	addi	s6,a5,4
80001734:	180d8463          	beqz	s11,800018bc <vprintfmt+0x4b0>
80001738:	09405863          	blez	s4,800017c8 <vprintfmt+0x3bc>
8000173c:	02d00793          	li	a5,45
80001740:	04fb9e63          	bne	s7,a5,8000179c <vprintfmt+0x390>
80001744:	000dc503          	lbu	a0,0(s11)
80001748:	02050863          	beqz	a0,80001778 <vprintfmt+0x36c>
8000174c:	fff00b93          	li	s7,-1
80001750:	0009c663          	bltz	s3,8000175c <vprintfmt+0x350>
80001754:	fff98993          	addi	s3,s3,-1
80001758:	01798e63          	beq	s3,s7,80001774 <vprintfmt+0x368>
8000175c:	00048593          	mv	a1,s1
80001760:	001d8d93          	addi	s11,s11,1
80001764:	000900e7          	jalr	s2
80001768:	000dc503          	lbu	a0,0(s11)
8000176c:	fffa0a13          	addi	s4,s4,-1
80001770:	fe0510e3          	bnez	a0,80001750 <vprintfmt+0x344>
80001774:	01405c63          	blez	s4,8000178c <vprintfmt+0x380>
80001778:	fffa0a13          	addi	s4,s4,-1
8000177c:	00048593          	mv	a1,s1
80001780:	02000513          	li	a0,32
80001784:	000900e7          	jalr	s2
80001788:	fe0a18e3          	bnez	s4,80001778 <vprintfmt+0x36c>
8000178c:	01612423          	sw	s6,8(sp)
80001790:	ce9ff06f          	j	80001478 <vprintfmt+0x6c>
80001794:	00001d97          	auipc	s11,0x1
80001798:	5bcd8d93          	addi	s11,s11,1468 # 80002d50 <main+0x180>
8000179c:	000d8793          	mv	a5,s11
800017a0:	013d86b3          	add	a3,s11,s3
800017a4:	00099863          	bnez	s3,800017b4 <vprintfmt+0x3a8>
800017a8:	1340006f          	j	800018dc <vprintfmt+0x4d0>
800017ac:	00178793          	addi	a5,a5,1
800017b0:	00d78663          	beq	a5,a3,800017bc <vprintfmt+0x3b0>
800017b4:	0007c703          	lbu	a4,0(a5)
800017b8:	fe071ae3          	bnez	a4,800017ac <vprintfmt+0x3a0>
800017bc:	41b787b3          	sub	a5,a5,s11
800017c0:	40fa0a33          	sub	s4,s4,a5
800017c4:	11404c63          	bgtz	s4,800018dc <vprintfmt+0x4d0>
800017c8:	000dc503          	lbu	a0,0(s11)
800017cc:	fc0500e3          	beqz	a0,8000178c <vprintfmt+0x380>
800017d0:	fff00b93          	li	s7,-1
800017d4:	f7dff06f          	j	80001750 <vprintfmt+0x344>
800017d8:	fffa4793          	not	a5,s4
800017dc:	41f7d793          	srai	a5,a5,0x1f
800017e0:	00174683          	lbu	a3,1(a4)
800017e4:	00fa7a33          	and	s4,s4,a5
800017e8:	00040713          	mv	a4,s0
800017ec:	cb9ff06f          	j	800014a4 <vprintfmt+0x98>
800017f0:	00812783          	lw	a5,8(sp)
800017f4:	00048593          	mv	a1,s1
800017f8:	0007a503          	lw	a0,0(a5)
800017fc:	00478b13          	addi	s6,a5,4
80001800:	000900e7          	jalr	s2
80001804:	01612423          	sw	s6,8(sp)
80001808:	c71ff06f          	j	80001478 <vprintfmt+0x6c>
8000180c:	00174683          	lbu	a3,1(a4)
80001810:	00158593          	addi	a1,a1,1
80001814:	00040713          	mv	a4,s0
80001818:	c8dff06f          	j	800014a4 <vprintfmt+0x98>
8000181c:	00812783          	lw	a5,8(sp)
80001820:	00778b13          	addi	s6,a5,7
80001824:	ff8b7b13          	andi	s6,s6,-8
80001828:	008b0793          	addi	a5,s6,8
8000182c:	000b2983          	lw	s3,0(s6)
80001830:	004b2d83          	lw	s11,4(s6)
80001834:	00f12423          	sw	a5,8(sp)
80001838:	dc5ff06f          	j	800015fc <vprintfmt+0x1f0>
8000183c:	df89f2e3          	bgeu	s3,s8,80001620 <vprintfmt+0x214>
80001840:	00100793          	li	a5,1
80001844:	00012023          	sw	zero,0(sp)
80001848:	00100d13          	li	s10,1
8000184c:	e347c4e3          	blt	a5,s4,80001674 <vprintfmt+0x268>
80001850:	e39ff06f          	j	80001688 <vprintfmt+0x27c>
80001854:	00812783          	lw	a5,8(sp)
80001858:	00778b13          	addi	s6,a5,7
8000185c:	ff8b7b13          	andi	s6,s6,-8
80001860:	008b0793          	addi	a5,s6,8
80001864:	000b2983          	lw	s3,0(s6)
80001868:	004b2c03          	lw	s8,4(s6)
8000186c:	00f12423          	sw	a5,8(sp)
80001870:	e89ff06f          	j	800016f8 <vprintfmt+0x2ec>
80001874:	00812703          	lw	a4,8(sp)
80001878:	e75ff06f          	j	800016ec <vprintfmt+0x2e0>
8000187c:	00800c13          	li	s8,8
80001880:	00012223          	sw	zero,4(sp)
80001884:	e91ff06f          	j	80001714 <vprintfmt+0x308>
80001888:	00a00c13          	li	s8,10
8000188c:	00012223          	sw	zero,4(sp)
80001890:	e85ff06f          	j	80001714 <vprintfmt+0x308>
80001894:	00048593          	mv	a1,s1
80001898:	02d00513          	li	a0,45
8000189c:	000900e7          	jalr	s2
800018a0:	01303733          	snez	a4,s3
800018a4:	418007b3          	neg	a5,s8
800018a8:	413009b3          	neg	s3,s3
800018ac:	40e78db3          	sub	s11,a5,a4
800018b0:	00a00c13          	li	s8,10
800018b4:	00012223          	sw	zero,4(sp)
800018b8:	d45ff06f          	j	800015fc <vprintfmt+0x1f0>
800018bc:	01405663          	blez	s4,800018c8 <vprintfmt+0x4bc>
800018c0:	02d00793          	li	a5,45
800018c4:	ecfb98e3          	bne	s7,a5,80001794 <vprintfmt+0x388>
800018c8:	00001d97          	auipc	s11,0x1
800018cc:	488d8d93          	addi	s11,s11,1160 # 80002d50 <main+0x180>
800018d0:	02800513          	li	a0,40
800018d4:	fff00b93          	li	s7,-1
800018d8:	e79ff06f          	j	80001750 <vprintfmt+0x344>
800018dc:	fffa0a13          	addi	s4,s4,-1
800018e0:	00048593          	mv	a1,s1
800018e4:	000b8513          	mv	a0,s7
800018e8:	000900e7          	jalr	s2
800018ec:	ec0a0ee3          	beqz	s4,800017c8 <vprintfmt+0x3bc>
800018f0:	fffa0a13          	addi	s4,s4,-1
800018f4:	00048593          	mv	a1,s1
800018f8:	000b8513          	mv	a0,s7
800018fc:	000900e7          	jalr	s2
80001900:	fc0a1ee3          	bnez	s4,800018dc <vprintfmt+0x4d0>
80001904:	ec5ff06f          	j	800017c8 <vprintfmt+0x3bc>

80001908 <sprintf_putch.3055>:
80001908:	0005a783          	lw	a5,0(a1)
8000190c:	00a78023          	sb	a0,0(a5)
80001910:	0005a783          	lw	a5,0(a1)
80001914:	00178793          	addi	a5,a5,1
80001918:	00f5a023          	sw	a5,0(a1)
8000191c:	00008067          	ret

80001920 <syscall.constprop.0>:
80001920:	f8010113          	addi	sp,sp,-128
80001924:	03f10813          	addi	a6,sp,63
80001928:	fc087813          	andi	a6,a6,-64
8000192c:	04000713          	li	a4,64
80001930:	00e82023          	sw	a4,0(a6)
80001934:	00000793          	li	a5,0
80001938:	00f82223          	sw	a5,4(a6)
8000193c:	00100713          	li	a4,1
80001940:	00e82423          	sw	a4,8(a6)
80001944:	00000793          	li	a5,0
80001948:	00f82623          	sw	a5,12(a6)
8000194c:	00a82823          	sw	a0,16(a6)
80001950:	00b82a23          	sw	a1,20(a6)
80001954:	00c82c23          	sw	a2,24(a6)
80001958:	00d82e23          	sw	a3,28(a6)
8000195c:	0ff0000f          	fence
80001960:	fffff697          	auipc	a3,0xfffff
80001964:	6a068693          	addi	a3,a3,1696 # 80001000 <tohost>
80001968:	0106a023          	sw	a6,0(a3)
8000196c:	00000793          	li	a5,0
80001970:	00f6a223          	sw	a5,4(a3)
80001974:	fffff697          	auipc	a3,0xfffff
80001978:	6cc68693          	addi	a3,a3,1740 # 80001040 <fromhost>
8000197c:	0006a703          	lw	a4,0(a3)
80001980:	0046a783          	lw	a5,4(a3)
80001984:	00f76733          	or	a4,a4,a5
80001988:	fe070ae3          	beqz	a4,8000197c <syscall.constprop.0+0x5c>
8000198c:	00000713          	li	a4,0
80001990:	00e6a023          	sw	a4,0(a3)
80001994:	00000793          	li	a5,0
80001998:	00f6a223          	sw	a5,4(a3)
8000199c:	0ff0000f          	fence
800019a0:	00082503          	lw	a0,0(a6)
800019a4:	00482583          	lw	a1,4(a6)
800019a8:	08010113          	addi	sp,sp,128
800019ac:	00008067          	ret

800019b0 <putchar>:
800019b0:	ff010113          	addi	sp,sp,-16
800019b4:	00812423          	sw	s0,8(sp)
800019b8:	04022583          	lw	a1,64(tp) # 40 <buflen.2941>
800019bc:	00020793          	mv	a5,tp
800019c0:	00112623          	sw	ra,12(sp)
800019c4:	00b787b3          	add	a5,a5,a1
800019c8:	00158613          	addi	a2,a1,1
800019cc:	00a78023          	sb	a0,0(a5)
800019d0:	04c22023          	sw	a2,64(tp) # 40 <buflen.2941>
800019d4:	00a00793          	li	a5,10
800019d8:	02f50063          	beq	a0,a5,800019f8 <putchar+0x48>
800019dc:	04000793          	li	a5,64
800019e0:	00f60c63          	beq	a2,a5,800019f8 <putchar+0x48>
800019e4:	00c12083          	lw	ra,12(sp)
800019e8:	00812403          	lw	s0,8(sp)
800019ec:	00000513          	li	a0,0
800019f0:	01010113          	addi	sp,sp,16
800019f4:	00008067          	ret
800019f8:	41f65693          	srai	a3,a2,0x1f
800019fc:	00020513          	mv	a0,tp
80001a00:	00000593          	li	a1,0
80001a04:	f1dff0ef          	jal	ra,80001920 <syscall.constprop.0>
80001a08:	00c12083          	lw	ra,12(sp)
80001a0c:	04022023          	sw	zero,64(tp) # 40 <buflen.2941>
80001a10:	00812403          	lw	s0,8(sp)
80001a14:	00000513          	li	a0,0
80001a18:	01010113          	addi	sp,sp,16
80001a1c:	00008067          	ret

80001a20 <setStats>:
80001a20:	b0002773          	csrr	a4,mcycle
80001a24:	00001797          	auipc	a5,0x1
80001a28:	62478793          	addi	a5,a5,1572 # 80003048 <counters>
80001a2c:	00051e63          	bnez	a0,80001a48 <setStats+0x28>
80001a30:	0007a683          	lw	a3,0(a5)
80001a34:	00001617          	auipc	a2,0x1
80001a38:	32460613          	addi	a2,a2,804 # 80002d58 <main+0x188>
80001a3c:	00001597          	auipc	a1,0x1
80001a40:	60c5a223          	sw	a2,1540(a1) # 80003040 <counter_names>
80001a44:	40d70733          	sub	a4,a4,a3
80001a48:	00e7a023          	sw	a4,0(a5)
80001a4c:	b0202773          	csrr	a4,minstret
80001a50:	00051e63          	bnez	a0,80001a6c <setStats+0x4c>
80001a54:	0047a683          	lw	a3,4(a5)
80001a58:	00001617          	auipc	a2,0x1
80001a5c:	30860613          	addi	a2,a2,776 # 80002d60 <main+0x190>
80001a60:	00001597          	auipc	a1,0x1
80001a64:	5ec5a223          	sw	a2,1508(a1) # 80003044 <counter_names+0x4>
80001a68:	40d70733          	sub	a4,a4,a3
80001a6c:	00e7a223          	sw	a4,4(a5)
80001a70:	00008067          	ret

80001a74 <tohost_exit>:
80001a74:	00151693          	slli	a3,a0,0x1
80001a78:	0016e713          	ori	a4,a3,1
80001a7c:	fffff697          	auipc	a3,0xfffff
80001a80:	58468693          	addi	a3,a3,1412 # 80001000 <tohost>
80001a84:	00000793          	li	a5,0
80001a88:	00e6a023          	sw	a4,0(a3)
80001a8c:	00f6a223          	sw	a5,4(a3)
80001a90:	0000006f          	j	80001a90 <tohost_exit+0x1c>

80001a94 <handle_trap>:
80001a94:	00001637          	lui	a2,0x1
80001a98:	fffff797          	auipc	a5,0xfffff
80001a9c:	56878793          	addi	a5,a5,1384 # 80001000 <tohost>
80001aa0:	a7360613          	addi	a2,a2,-1421 # a73 <buflen.2941+0xa33>
80001aa4:	00000693          	li	a3,0
80001aa8:	00c7a023          	sw	a2,0(a5)
80001aac:	00d7a223          	sw	a3,4(a5)
80001ab0:	0000006f          	j	80001ab0 <handle_trap+0x1c>

80001ab4 <exit>:
80001ab4:	ff010113          	addi	sp,sp,-16
80001ab8:	00112623          	sw	ra,12(sp)
80001abc:	fb9ff0ef          	jal	ra,80001a74 <tohost_exit>

80001ac0 <abort>:
80001ac0:	fffff797          	auipc	a5,0xfffff
80001ac4:	54078793          	addi	a5,a5,1344 # 80001000 <tohost>
80001ac8:	10d00613          	li	a2,269
80001acc:	00000693          	li	a3,0
80001ad0:	00c7a023          	sw	a2,0(a5)
80001ad4:	00d7a223          	sw	a3,4(a5)
80001ad8:	0000006f          	j	80001ad8 <abort+0x18>

80001adc <printstr>:
80001adc:	00054783          	lbu	a5,0(a0)
80001ae0:	02078263          	beqz	a5,80001b04 <printstr+0x28>
80001ae4:	00050613          	mv	a2,a0
80001ae8:	00164783          	lbu	a5,1(a2)
80001aec:	00160613          	addi	a2,a2,1
80001af0:	fe079ce3          	bnez	a5,80001ae8 <printstr+0xc>
80001af4:	40a60633          	sub	a2,a2,a0
80001af8:	00000693          	li	a3,0
80001afc:	00000593          	li	a1,0
80001b00:	e21ff06f          	j	80001920 <syscall.constprop.0>
80001b04:	00000613          	li	a2,0
80001b08:	00000693          	li	a3,0
80001b0c:	00000593          	li	a1,0
80001b10:	e11ff06f          	j	80001920 <syscall.constprop.0>

80001b14 <thread_entry>:
80001b14:	00051063          	bnez	a0,80001b14 <thread_entry>
80001b18:	00008067          	ret

80001b1c <printhex>:
80001b1c:	fd010113          	addi	sp,sp,-48
80001b20:	00050713          	mv	a4,a0
80001b24:	02112623          	sw	ra,44(sp)
80001b28:	00c10513          	addi	a0,sp,12
80001b2c:	01b10613          	addi	a2,sp,27
80001b30:	00900813          	li	a6,9
80001b34:	0080006f          	j	80001b3c <printhex+0x20>
80001b38:	00078613          	mv	a2,a5
80001b3c:	00f77793          	andi	a5,a4,15
80001b40:	00f837b3          	sltu	a5,a6,a5
80001b44:	40f007b3          	neg	a5,a5
80001b48:	0277f793          	andi	a5,a5,39
80001b4c:	00f77693          	andi	a3,a4,15
80001b50:	03078793          	addi	a5,a5,48
80001b54:	00f687b3          	add	a5,a3,a5
80001b58:	00f60023          	sb	a5,0(a2)
80001b5c:	01c59693          	slli	a3,a1,0x1c
80001b60:	00475713          	srli	a4,a4,0x4
80001b64:	fff60793          	addi	a5,a2,-1
80001b68:	00e6e733          	or	a4,a3,a4
80001b6c:	0045d593          	srli	a1,a1,0x4
80001b70:	fcc514e3          	bne	a0,a2,80001b38 <printhex+0x1c>
80001b74:	00010e23          	sb	zero,28(sp)
80001b78:	f65ff0ef          	jal	ra,80001adc <printstr>
80001b7c:	02c12083          	lw	ra,44(sp)
80001b80:	03010113          	addi	sp,sp,48
80001b84:	00008067          	ret

80001b88 <printf>:
80001b88:	fc010113          	addi	sp,sp,-64
80001b8c:	02410313          	addi	t1,sp,36
80001b90:	00050e13          	mv	t3,a0
80001b94:	02b12223          	sw	a1,36(sp)
80001b98:	02c12423          	sw	a2,40(sp)
80001b9c:	02d12623          	sw	a3,44(sp)
80001ba0:	00000517          	auipc	a0,0x0
80001ba4:	e1050513          	addi	a0,a0,-496 # 800019b0 <putchar>
80001ba8:	00030693          	mv	a3,t1
80001bac:	000e0613          	mv	a2,t3
80001bb0:	00000593          	li	a1,0
80001bb4:	00112e23          	sw	ra,28(sp)
80001bb8:	02e12823          	sw	a4,48(sp)
80001bbc:	02f12a23          	sw	a5,52(sp)
80001bc0:	03012c23          	sw	a6,56(sp)
80001bc4:	03112e23          	sw	a7,60(sp)
80001bc8:	00612623          	sw	t1,12(sp)
80001bcc:	841ff0ef          	jal	ra,8000140c <vprintfmt>
80001bd0:	01c12083          	lw	ra,28(sp)
80001bd4:	00000513          	li	a0,0
80001bd8:	04010113          	addi	sp,sp,64
80001bdc:	00008067          	ret

80001be0 <sprintf>:
80001be0:	fb010113          	addi	sp,sp,-80
80001be4:	03810313          	addi	t1,sp,56
80001be8:	02812423          	sw	s0,40(sp)
80001bec:	00a12623          	sw	a0,12(sp)
80001bf0:	02c12c23          	sw	a2,56(sp)
80001bf4:	02d12e23          	sw	a3,60(sp)
80001bf8:	00050413          	mv	s0,a0
80001bfc:	00058613          	mv	a2,a1
80001c00:	00000517          	auipc	a0,0x0
80001c04:	d0850513          	addi	a0,a0,-760 # 80001908 <sprintf_putch.3055>
80001c08:	00c10593          	addi	a1,sp,12
80001c0c:	00030693          	mv	a3,t1
80001c10:	02112623          	sw	ra,44(sp)
80001c14:	04f12223          	sw	a5,68(sp)
80001c18:	04e12023          	sw	a4,64(sp)
80001c1c:	05012423          	sw	a6,72(sp)
80001c20:	05112623          	sw	a7,76(sp)
80001c24:	00612e23          	sw	t1,28(sp)
80001c28:	fe4ff0ef          	jal	ra,8000140c <vprintfmt>
80001c2c:	00c12783          	lw	a5,12(sp)
80001c30:	00078023          	sb	zero,0(a5)
80001c34:	00c12503          	lw	a0,12(sp)
80001c38:	02c12083          	lw	ra,44(sp)
80001c3c:	40850533          	sub	a0,a0,s0
80001c40:	02812403          	lw	s0,40(sp)
80001c44:	05010113          	addi	sp,sp,80
80001c48:	00008067          	ret

80001c4c <memcpy>:
80001c4c:	00c5e7b3          	or	a5,a1,a2
80001c50:	00f567b3          	or	a5,a0,a5
80001c54:	0037f793          	andi	a5,a5,3
80001c58:	00c506b3          	add	a3,a0,a2
80001c5c:	02078463          	beqz	a5,80001c84 <memcpy+0x38>
80001c60:	00c58633          	add	a2,a1,a2
80001c64:	00050793          	mv	a5,a0
80001c68:	02d57e63          	bgeu	a0,a3,80001ca4 <memcpy+0x58>
80001c6c:	0005c703          	lbu	a4,0(a1)
80001c70:	00158593          	addi	a1,a1,1
80001c74:	00178793          	addi	a5,a5,1
80001c78:	fee78fa3          	sb	a4,-1(a5)
80001c7c:	feb618e3          	bne	a2,a1,80001c6c <memcpy+0x20>
80001c80:	00008067          	ret
80001c84:	fed57ee3          	bgeu	a0,a3,80001c80 <memcpy+0x34>
80001c88:	00050793          	mv	a5,a0
80001c8c:	0005a703          	lw	a4,0(a1)
80001c90:	00478793          	addi	a5,a5,4
80001c94:	00458593          	addi	a1,a1,4
80001c98:	fee7ae23          	sw	a4,-4(a5)
80001c9c:	fed7e8e3          	bltu	a5,a3,80001c8c <memcpy+0x40>
80001ca0:	00008067          	ret
80001ca4:	00008067          	ret

80001ca8 <memset>:
80001ca8:	00c567b3          	or	a5,a0,a2
80001cac:	0037f793          	andi	a5,a5,3
80001cb0:	00c50633          	add	a2,a0,a2
80001cb4:	02078063          	beqz	a5,80001cd4 <memset+0x2c>
80001cb8:	0ff5f593          	andi	a1,a1,255
80001cbc:	00050793          	mv	a5,a0
80001cc0:	04c57063          	bgeu	a0,a2,80001d00 <memset+0x58>
80001cc4:	00178793          	addi	a5,a5,1
80001cc8:	feb78fa3          	sb	a1,-1(a5)
80001ccc:	fef61ce3          	bne	a2,a5,80001cc4 <memset+0x1c>
80001cd0:	00008067          	ret
80001cd4:	0ff5f593          	andi	a1,a1,255
80001cd8:	00859713          	slli	a4,a1,0x8
80001cdc:	00e5e733          	or	a4,a1,a4
80001ce0:	01071793          	slli	a5,a4,0x10
80001ce4:	00f76733          	or	a4,a4,a5
80001ce8:	fec574e3          	bgeu	a0,a2,80001cd0 <memset+0x28>
80001cec:	00050793          	mv	a5,a0
80001cf0:	00478793          	addi	a5,a5,4
80001cf4:	fee7ae23          	sw	a4,-4(a5)
80001cf8:	fec7ece3          	bltu	a5,a2,80001cf0 <memset+0x48>
80001cfc:	00008067          	ret
80001d00:	00008067          	ret

80001d04 <_init>:
80001d04:	f6010113          	addi	sp,sp,-160
80001d08:	85018793          	addi	a5,gp,-1968 # 80003088 <_tdata_begin>
80001d0c:	09412423          	sw	s4,136(sp)
80001d10:	85018a13          	addi	s4,gp,-1968 # 80003088 <_tdata_begin>
80001d14:	09312623          	sw	s3,140(sp)
80001d18:	40fa09b3          	sub	s3,s4,a5
80001d1c:	08912a23          	sw	s1,148(sp)
80001d20:	09212823          	sw	s2,144(sp)
80001d24:	00050493          	mv	s1,a0
80001d28:	00058913          	mv	s2,a1
80001d2c:	00020513          	mv	a0,tp
80001d30:	00078593          	mv	a1,a5
80001d34:	00098613          	mv	a2,s3
80001d38:	08112e23          	sw	ra,156(sp)
80001d3c:	08812c23          	sw	s0,152(sp)
80001d40:	09512223          	sw	s5,132(sp)
80001d44:	00020a93          	mv	s5,tp
80001d48:	f05ff0ef          	jal	ra,80001c4c <memcpy>
80001d4c:	8cc18613          	addi	a2,gp,-1844 # 80003104 <_tbss_end>
80001d50:	41460633          	sub	a2,a2,s4
80001d54:	00000593          	li	a1,0
80001d58:	013a8533          	add	a0,s5,s3
80001d5c:	f4dff0ef          	jal	ra,80001ca8 <memset>
80001d60:	00090593          	mv	a1,s2
80001d64:	00048513          	mv	a0,s1
80001d68:	dadff0ef          	jal	ra,80001b14 <thread_entry>
80001d6c:	00000593          	li	a1,0
80001d70:	00000513          	li	a0,0
80001d74:	65d000ef          	jal	ra,80002bd0 <main>
80001d78:	00001917          	auipc	s2,0x1
80001d7c:	2d090913          	addi	s2,s2,720 # 80003048 <counters>
80001d80:	00092683          	lw	a3,0(s2)
80001d84:	03f10413          	addi	s0,sp,63
80001d88:	fc047413          	andi	s0,s0,-64
80001d8c:	00050493          	mv	s1,a0
80001d90:	04069463          	bnez	a3,80001dd8 <_init+0xd4>
80001d94:	00492683          	lw	a3,4(s2)
80001d98:	00069663          	bnez	a3,80001da4 <_init+0xa0>
80001d9c:	00048513          	mv	a0,s1
80001da0:	cd5ff0ef          	jal	ra,80001a74 <tohost_exit>
80001da4:	00040913          	mv	s2,s0
80001da8:	00001997          	auipc	s3,0x1
80001dac:	29898993          	addi	s3,s3,664 # 80003040 <counter_names>
80001db0:	0049a603          	lw	a2,4(s3)
80001db4:	00090513          	mv	a0,s2
80001db8:	00001597          	auipc	a1,0x1
80001dbc:	fcc58593          	addi	a1,a1,-52 # 80002d84 <main+0x1b4>
80001dc0:	e21ff0ef          	jal	ra,80001be0 <sprintf>
80001dc4:	00a90933          	add	s2,s2,a0
80001dc8:	fd240ae3          	beq	s0,s2,80001d9c <_init+0x98>
80001dcc:	00040513          	mv	a0,s0
80001dd0:	d0dff0ef          	jal	ra,80001adc <printstr>
80001dd4:	fc9ff06f          	j	80001d9c <_init+0x98>
80001dd8:	00001997          	auipc	s3,0x1
80001ddc:	26898993          	addi	s3,s3,616 # 80003040 <counter_names>
80001de0:	0009a603          	lw	a2,0(s3)
80001de4:	00001597          	auipc	a1,0x1
80001de8:	fa058593          	addi	a1,a1,-96 # 80002d84 <main+0x1b4>
80001dec:	00040513          	mv	a0,s0
80001df0:	df1ff0ef          	jal	ra,80001be0 <sprintf>
80001df4:	00492683          	lw	a3,4(s2)
80001df8:	00a40933          	add	s2,s0,a0
80001dfc:	fc0686e3          	beqz	a3,80001dc8 <_init+0xc4>
80001e00:	fb1ff06f          	j	80001db0 <_init+0xac>

80001e04 <strlen>:
80001e04:	00054783          	lbu	a5,0(a0)
80001e08:	00078e63          	beqz	a5,80001e24 <strlen+0x20>
80001e0c:	00050793          	mv	a5,a0
80001e10:	0017c703          	lbu	a4,1(a5)
80001e14:	00178793          	addi	a5,a5,1
80001e18:	fe071ce3          	bnez	a4,80001e10 <strlen+0xc>
80001e1c:	40a78533          	sub	a0,a5,a0
80001e20:	00008067          	ret
80001e24:	00000513          	li	a0,0
80001e28:	00008067          	ret

80001e2c <strnlen>:
80001e2c:	00050613          	mv	a2,a0
80001e30:	00b606b3          	add	a3,a2,a1
80001e34:	00058513          	mv	a0,a1
80001e38:	00060793          	mv	a5,a2
80001e3c:	00059863          	bnez	a1,80001e4c <strnlen+0x20>
80001e40:	01c0006f          	j	80001e5c <strnlen+0x30>
80001e44:	00178793          	addi	a5,a5,1
80001e48:	00f68863          	beq	a3,a5,80001e58 <strnlen+0x2c>
80001e4c:	0007c703          	lbu	a4,0(a5)
80001e50:	fe071ae3          	bnez	a4,80001e44 <strnlen+0x18>
80001e54:	40c78533          	sub	a0,a5,a2
80001e58:	00008067          	ret
80001e5c:	00008067          	ret

80001e60 <strcmp>:
80001e60:	00054783          	lbu	a5,0(a0)
80001e64:	00158593          	addi	a1,a1,1
80001e68:	00150513          	addi	a0,a0,1
80001e6c:	fff5c703          	lbu	a4,-1(a1)
80001e70:	00078863          	beqz	a5,80001e80 <strcmp+0x20>
80001e74:	fee786e3          	beq	a5,a4,80001e60 <strcmp>
80001e78:	40e78533          	sub	a0,a5,a4
80001e7c:	00008067          	ret
80001e80:	00000793          	li	a5,0
80001e84:	ff5ff06f          	j	80001e78 <strcmp+0x18>

80001e88 <strcpy>:
80001e88:	00050793          	mv	a5,a0
80001e8c:	0005c703          	lbu	a4,0(a1)
80001e90:	00178793          	addi	a5,a5,1
80001e94:	00158593          	addi	a1,a1,1
80001e98:	fee78fa3          	sb	a4,-1(a5)
80001e9c:	fe0718e3          	bnez	a4,80001e8c <strcpy+0x4>
80001ea0:	00008067          	ret

80001ea4 <atol>:
80001ea4:	00054703          	lbu	a4,0(a0)
80001ea8:	02000693          	li	a3,32
80001eac:	00050793          	mv	a5,a0
80001eb0:	00d71863          	bne	a4,a3,80001ec0 <atol+0x1c>
80001eb4:	0017c703          	lbu	a4,1(a5)
80001eb8:	00178793          	addi	a5,a5,1
80001ebc:	fed70ce3          	beq	a4,a3,80001eb4 <atol+0x10>
80001ec0:	02d00693          	li	a3,45
80001ec4:	06d70063          	beq	a4,a3,80001f24 <atol+0x80>
80001ec8:	02b00693          	li	a3,43
80001ecc:	04d70063          	beq	a4,a3,80001f0c <atol+0x68>
80001ed0:	0007c683          	lbu	a3,0(a5)
80001ed4:	00000593          	li	a1,0
80001ed8:	04068263          	beqz	a3,80001f1c <atol+0x78>
80001edc:	00000513          	li	a0,0
80001ee0:	00178793          	addi	a5,a5,1
80001ee4:	fd068613          	addi	a2,a3,-48
80001ee8:	00251713          	slli	a4,a0,0x2
80001eec:	0007c683          	lbu	a3,0(a5)
80001ef0:	00a70533          	add	a0,a4,a0
80001ef4:	00151513          	slli	a0,a0,0x1
80001ef8:	00a60533          	add	a0,a2,a0
80001efc:	fe0692e3          	bnez	a3,80001ee0 <atol+0x3c>
80001f00:	02058063          	beqz	a1,80001f20 <atol+0x7c>
80001f04:	40a00533          	neg	a0,a0
80001f08:	00008067          	ret
80001f0c:	0017c683          	lbu	a3,1(a5)
80001f10:	00000593          	li	a1,0
80001f14:	00178793          	addi	a5,a5,1
80001f18:	fc0692e3          	bnez	a3,80001edc <atol+0x38>
80001f1c:	00000513          	li	a0,0
80001f20:	00008067          	ret
80001f24:	0017c683          	lbu	a3,1(a5)
80001f28:	00100593          	li	a1,1
80001f2c:	00178793          	addi	a5,a5,1
80001f30:	fa0696e3          	bnez	a3,80001edc <atol+0x38>
80001f34:	00000513          	li	a0,0
80001f38:	fe9ff06f          	j	80001f20 <atol+0x7c>

80001f3c <__moddi3>:
80001f3c:	00058f13          	mv	t5,a1
80001f40:	00000813          	li	a6,0
80001f44:	0005dc63          	bgez	a1,80001f5c <__moddi3+0x20>
80001f48:	00a037b3          	snez	a5,a0
80001f4c:	40b005b3          	neg	a1,a1
80001f50:	40f58f33          	sub	t5,a1,a5
80001f54:	40a00533          	neg	a0,a0
80001f58:	fff00813          	li	a6,-1
80001f5c:	0006da63          	bgez	a3,80001f70 <__moddi3+0x34>
80001f60:	00c035b3          	snez	a1,a2
80001f64:	40d00733          	neg	a4,a3
80001f68:	40b706b3          	sub	a3,a4,a1
80001f6c:	40c00633          	neg	a2,a2
80001f70:	00060893          	mv	a7,a2
80001f74:	00068713          	mv	a4,a3
80001f78:	00050793          	mv	a5,a0
80001f7c:	000f0593          	mv	a1,t5
80001f80:	24069463          	bnez	a3,800021c8 <__moddi3+0x28c>
80001f84:	800036b7          	lui	a3,0x80003
80001f88:	ee868693          	addi	a3,a3,-280 # 80002ee8 <__global_pointer$+0xfffff6b0>
80001f8c:	0ecf7663          	bgeu	t5,a2,80002078 <__moddi3+0x13c>
80001f90:	00010337          	lui	t1,0x10
80001f94:	0c667863          	bgeu	a2,t1,80002064 <__moddi3+0x128>
80001f98:	0ff00313          	li	t1,255
80001f9c:	00c37463          	bgeu	t1,a2,80001fa4 <__moddi3+0x68>
80001fa0:	00800713          	li	a4,8
80001fa4:	00e65333          	srl	t1,a2,a4
80001fa8:	006686b3          	add	a3,a3,t1
80001fac:	0006ce03          	lbu	t3,0(a3)
80001fb0:	00ee0e33          	add	t3,t3,a4
80001fb4:	02000713          	li	a4,32
80001fb8:	41c70333          	sub	t1,a4,t3
80001fbc:	01c70c63          	beq	a4,t3,80001fd4 <__moddi3+0x98>
80001fc0:	006f15b3          	sll	a1,t5,t1
80001fc4:	01c55e33          	srl	t3,a0,t3
80001fc8:	006618b3          	sll	a7,a2,t1
80001fcc:	00be65b3          	or	a1,t3,a1
80001fd0:	006517b3          	sll	a5,a0,t1
80001fd4:	0108d613          	srli	a2,a7,0x10
80001fd8:	02c5f6b3          	remu	a3,a1,a2
80001fdc:	01089513          	slli	a0,a7,0x10
80001fe0:	01055513          	srli	a0,a0,0x10
80001fe4:	0107d713          	srli	a4,a5,0x10
80001fe8:	02c5d5b3          	divu	a1,a1,a2
80001fec:	01069693          	slli	a3,a3,0x10
80001ff0:	00e6e733          	or	a4,a3,a4
80001ff4:	02b505b3          	mul	a1,a0,a1
80001ff8:	00b77a63          	bgeu	a4,a1,8000200c <__moddi3+0xd0>
80001ffc:	01170733          	add	a4,a4,a7
80002000:	01176663          	bltu	a4,a7,8000200c <__moddi3+0xd0>
80002004:	00b77463          	bgeu	a4,a1,8000200c <__moddi3+0xd0>
80002008:	01170733          	add	a4,a4,a7
8000200c:	40b70733          	sub	a4,a4,a1
80002010:	02c776b3          	remu	a3,a4,a2
80002014:	01079793          	slli	a5,a5,0x10
80002018:	0107d793          	srli	a5,a5,0x10
8000201c:	02c75733          	divu	a4,a4,a2
80002020:	02e50733          	mul	a4,a0,a4
80002024:	01069513          	slli	a0,a3,0x10
80002028:	00f567b3          	or	a5,a0,a5
8000202c:	00e7fa63          	bgeu	a5,a4,80002040 <__moddi3+0x104>
80002030:	011787b3          	add	a5,a5,a7
80002034:	0117e663          	bltu	a5,a7,80002040 <__moddi3+0x104>
80002038:	00e7f463          	bgeu	a5,a4,80002040 <__moddi3+0x104>
8000203c:	011787b3          	add	a5,a5,a7
80002040:	40e787b3          	sub	a5,a5,a4
80002044:	0067d533          	srl	a0,a5,t1
80002048:	00000593          	li	a1,0
8000204c:	00080a63          	beqz	a6,80002060 <__moddi3+0x124>
80002050:	00a037b3          	snez	a5,a0
80002054:	40b006b3          	neg	a3,a1
80002058:	40f685b3          	sub	a1,a3,a5
8000205c:	40a00533          	neg	a0,a0
80002060:	00008067          	ret
80002064:	01000337          	lui	t1,0x1000
80002068:	01000713          	li	a4,16
8000206c:	f2666ce3          	bltu	a2,t1,80001fa4 <__moddi3+0x68>
80002070:	01800713          	li	a4,24
80002074:	f31ff06f          	j	80001fa4 <__moddi3+0x68>
80002078:	00061663          	bnez	a2,80002084 <__moddi3+0x148>
8000207c:	00100893          	li	a7,1
80002080:	02e8d8b3          	divu	a7,a7,a4
80002084:	00010637          	lui	a2,0x10
80002088:	12c8f663          	bgeu	a7,a2,800021b4 <__moddi3+0x278>
8000208c:	0ff00613          	li	a2,255
80002090:	01167463          	bgeu	a2,a7,80002098 <__moddi3+0x15c>
80002094:	00800713          	li	a4,8
80002098:	00e8d633          	srl	a2,a7,a4
8000209c:	00c686b3          	add	a3,a3,a2
800020a0:	0006ce03          	lbu	t3,0(a3)
800020a4:	411f05b3          	sub	a1,t5,a7
800020a8:	00ee0e33          	add	t3,t3,a4
800020ac:	02000713          	li	a4,32
800020b0:	41c70333          	sub	t1,a4,t3
800020b4:	09c70663          	beq	a4,t3,80002140 <__moddi3+0x204>
800020b8:	006898b3          	sll	a7,a7,t1
800020bc:	01cf5eb3          	srl	t4,t5,t3
800020c0:	006517b3          	sll	a5,a0,t1
800020c4:	01c55e33          	srl	t3,a0,t3
800020c8:	0108d513          	srli	a0,a7,0x10
800020cc:	006f15b3          	sll	a1,t5,t1
800020d0:	00be6e33          	or	t3,t3,a1
800020d4:	01089593          	slli	a1,a7,0x10
800020d8:	0105d593          	srli	a1,a1,0x10
800020dc:	010e5613          	srli	a2,t3,0x10
800020e0:	02aed6b3          	divu	a3,t4,a0
800020e4:	02aef733          	remu	a4,t4,a0
800020e8:	02d586b3          	mul	a3,a1,a3
800020ec:	01071713          	slli	a4,a4,0x10
800020f0:	00c76733          	or	a4,a4,a2
800020f4:	00d77a63          	bgeu	a4,a3,80002108 <__moddi3+0x1cc>
800020f8:	01170733          	add	a4,a4,a7
800020fc:	01176663          	bltu	a4,a7,80002108 <__moddi3+0x1cc>
80002100:	00d77463          	bgeu	a4,a3,80002108 <__moddi3+0x1cc>
80002104:	01170733          	add	a4,a4,a7
80002108:	40d70633          	sub	a2,a4,a3
8000210c:	02a67733          	remu	a4,a2,a0
80002110:	010e1e13          	slli	t3,t3,0x10
80002114:	010e5e13          	srli	t3,t3,0x10
80002118:	02a65633          	divu	a2,a2,a0
8000211c:	01071713          	slli	a4,a4,0x10
80002120:	02c58633          	mul	a2,a1,a2
80002124:	01c765b3          	or	a1,a4,t3
80002128:	00c5fa63          	bgeu	a1,a2,8000213c <__moddi3+0x200>
8000212c:	011585b3          	add	a1,a1,a7
80002130:	0115e663          	bltu	a1,a7,8000213c <__moddi3+0x200>
80002134:	00c5f463          	bgeu	a1,a2,8000213c <__moddi3+0x200>
80002138:	011585b3          	add	a1,a1,a7
8000213c:	40c585b3          	sub	a1,a1,a2
80002140:	0108d693          	srli	a3,a7,0x10
80002144:	02d5f733          	remu	a4,a1,a3
80002148:	01089513          	slli	a0,a7,0x10
8000214c:	01055513          	srli	a0,a0,0x10
80002150:	0107d613          	srli	a2,a5,0x10
80002154:	02d5d5b3          	divu	a1,a1,a3
80002158:	01071713          	slli	a4,a4,0x10
8000215c:	00c76733          	or	a4,a4,a2
80002160:	02b505b3          	mul	a1,a0,a1
80002164:	00b77a63          	bgeu	a4,a1,80002178 <__moddi3+0x23c>
80002168:	01170733          	add	a4,a4,a7
8000216c:	01176663          	bltu	a4,a7,80002178 <__moddi3+0x23c>
80002170:	00b77463          	bgeu	a4,a1,80002178 <__moddi3+0x23c>
80002174:	01170733          	add	a4,a4,a7
80002178:	40b705b3          	sub	a1,a4,a1
8000217c:	02d5f733          	remu	a4,a1,a3
80002180:	01079793          	slli	a5,a5,0x10
80002184:	0107d793          	srli	a5,a5,0x10
80002188:	02d5d5b3          	divu	a1,a1,a3
8000218c:	02b505b3          	mul	a1,a0,a1
80002190:	01071513          	slli	a0,a4,0x10
80002194:	00f567b3          	or	a5,a0,a5
80002198:	00b7fa63          	bgeu	a5,a1,800021ac <__moddi3+0x270>
8000219c:	011787b3          	add	a5,a5,a7
800021a0:	0117e663          	bltu	a5,a7,800021ac <__moddi3+0x270>
800021a4:	00b7f463          	bgeu	a5,a1,800021ac <__moddi3+0x270>
800021a8:	011787b3          	add	a5,a5,a7
800021ac:	40b787b3          	sub	a5,a5,a1
800021b0:	e95ff06f          	j	80002044 <__moddi3+0x108>
800021b4:	01000637          	lui	a2,0x1000
800021b8:	01000713          	li	a4,16
800021bc:	ecc8eee3          	bltu	a7,a2,80002098 <__moddi3+0x15c>
800021c0:	01800713          	li	a4,24
800021c4:	ed5ff06f          	j	80002098 <__moddi3+0x15c>
800021c8:	e8df62e3          	bltu	t5,a3,8000204c <__moddi3+0x110>
800021cc:	00010737          	lui	a4,0x10
800021d0:	04e6fa63          	bgeu	a3,a4,80002224 <__moddi3+0x2e8>
800021d4:	0ff00e93          	li	t4,255
800021d8:	00deb733          	sltu	a4,t4,a3
800021dc:	00371713          	slli	a4,a4,0x3
800021e0:	800038b7          	lui	a7,0x80003
800021e4:	00e6d333          	srl	t1,a3,a4
800021e8:	ee888893          	addi	a7,a7,-280 # 80002ee8 <__global_pointer$+0xfffff6b0>
800021ec:	006888b3          	add	a7,a7,t1
800021f0:	0008ce83          	lbu	t4,0(a7)
800021f4:	00ee8eb3          	add	t4,t4,a4
800021f8:	02000713          	li	a4,32
800021fc:	41d70e33          	sub	t3,a4,t4
80002200:	03d71c63          	bne	a4,t4,80002238 <__moddi3+0x2fc>
80002204:	01e6e463          	bltu	a3,t5,8000220c <__moddi3+0x2d0>
80002208:	00c56a63          	bltu	a0,a2,8000221c <__moddi3+0x2e0>
8000220c:	40c507b3          	sub	a5,a0,a2
80002210:	40df05b3          	sub	a1,t5,a3
80002214:	00f53533          	sltu	a0,a0,a5
80002218:	40a585b3          	sub	a1,a1,a0
8000221c:	00078513          	mv	a0,a5
80002220:	e2dff06f          	j	8000204c <__moddi3+0x110>
80002224:	010008b7          	lui	a7,0x1000
80002228:	01000713          	li	a4,16
8000222c:	fb16eae3          	bltu	a3,a7,800021e0 <__moddi3+0x2a4>
80002230:	01800713          	li	a4,24
80002234:	fadff06f          	j	800021e0 <__moddi3+0x2a4>
80002238:	01d65733          	srl	a4,a2,t4
8000223c:	01c696b3          	sll	a3,a3,t3
80002240:	00d76fb3          	or	t6,a4,a3
80002244:	01df57b3          	srl	a5,t5,t4
80002248:	010fd713          	srli	a4,t6,0x10
8000224c:	02e7f333          	remu	t1,a5,a4
80002250:	01cf15b3          	sll	a1,t5,t3
80002254:	01d556b3          	srl	a3,a0,t4
80002258:	00b6e6b3          	or	a3,a3,a1
8000225c:	010f9593          	slli	a1,t6,0x10
80002260:	0105d593          	srli	a1,a1,0x10
80002264:	0106d893          	srli	a7,a3,0x10
80002268:	01c61633          	sll	a2,a2,t3
8000226c:	01c51533          	sll	a0,a0,t3
80002270:	02e7d7b3          	divu	a5,a5,a4
80002274:	01031313          	slli	t1,t1,0x10
80002278:	011368b3          	or	a7,t1,a7
8000227c:	02f58f33          	mul	t5,a1,a5
80002280:	00078313          	mv	t1,a5
80002284:	01e8fe63          	bgeu	a7,t5,800022a0 <__moddi3+0x364>
80002288:	01f888b3          	add	a7,a7,t6
8000228c:	fff78313          	addi	t1,a5,-1
80002290:	01f8e863          	bltu	a7,t6,800022a0 <__moddi3+0x364>
80002294:	01e8f663          	bgeu	a7,t5,800022a0 <__moddi3+0x364>
80002298:	ffe78313          	addi	t1,a5,-2
8000229c:	01f888b3          	add	a7,a7,t6
800022a0:	41e888b3          	sub	a7,a7,t5
800022a4:	02e8ff33          	remu	t5,a7,a4
800022a8:	01069693          	slli	a3,a3,0x10
800022ac:	0106d693          	srli	a3,a3,0x10
800022b0:	02e8d8b3          	divu	a7,a7,a4
800022b4:	010f1f13          	slli	t5,t5,0x10
800022b8:	00df6f33          	or	t5,t5,a3
800022bc:	031585b3          	mul	a1,a1,a7
800022c0:	00088793          	mv	a5,a7
800022c4:	00bf7e63          	bgeu	t5,a1,800022e0 <__moddi3+0x3a4>
800022c8:	01ff0f33          	add	t5,t5,t6
800022cc:	fff88793          	addi	a5,a7,-1 # ffffff <buflen.2941+0xffffbf>
800022d0:	01ff6863          	bltu	t5,t6,800022e0 <__moddi3+0x3a4>
800022d4:	00bf7663          	bgeu	t5,a1,800022e0 <__moddi3+0x3a4>
800022d8:	ffe88793          	addi	a5,a7,-2
800022dc:	01ff0f33          	add	t5,t5,t6
800022e0:	40bf05b3          	sub	a1,t5,a1
800022e4:	01031313          	slli	t1,t1,0x10
800022e8:	00010f37          	lui	t5,0x10
800022ec:	00f36333          	or	t1,t1,a5
800022f0:	ffff0793          	addi	a5,t5,-1 # ffff <buflen.2941+0xffbf>
800022f4:	00f378b3          	and	a7,t1,a5
800022f8:	01065693          	srli	a3,a2,0x10
800022fc:	01035313          	srli	t1,t1,0x10
80002300:	00f677b3          	and	a5,a2,a5
80002304:	02f88733          	mul	a4,a7,a5
80002308:	02f307b3          	mul	a5,t1,a5
8000230c:	02d888b3          	mul	a7,a7,a3
80002310:	02d30333          	mul	t1,t1,a3
80002314:	00f888b3          	add	a7,a7,a5
80002318:	01075693          	srli	a3,a4,0x10
8000231c:	011686b3          	add	a3,a3,a7
80002320:	00f6f463          	bgeu	a3,a5,80002328 <__moddi3+0x3ec>
80002324:	01e30333          	add	t1,t1,t5
80002328:	0106d793          	srli	a5,a3,0x10
8000232c:	00678333          	add	t1,a5,t1
80002330:	000107b7          	lui	a5,0x10
80002334:	fff78793          	addi	a5,a5,-1 # ffff <buflen.2941+0xffbf>
80002338:	00f6f6b3          	and	a3,a3,a5
8000233c:	01069693          	slli	a3,a3,0x10
80002340:	00f77733          	and	a4,a4,a5
80002344:	00e68733          	add	a4,a3,a4
80002348:	0065e663          	bltu	a1,t1,80002354 <__moddi3+0x418>
8000234c:	00659e63          	bne	a1,t1,80002368 <__moddi3+0x42c>
80002350:	00e57c63          	bgeu	a0,a4,80002368 <__moddi3+0x42c>
80002354:	40c70633          	sub	a2,a4,a2
80002358:	00c73733          	sltu	a4,a4,a2
8000235c:	01f70733          	add	a4,a4,t6
80002360:	40e30333          	sub	t1,t1,a4
80002364:	00060713          	mv	a4,a2
80002368:	40e50733          	sub	a4,a0,a4
8000236c:	00e53533          	sltu	a0,a0,a4
80002370:	406585b3          	sub	a1,a1,t1
80002374:	40a585b3          	sub	a1,a1,a0
80002378:	01d597b3          	sll	a5,a1,t4
8000237c:	01c75733          	srl	a4,a4,t3
80002380:	00e7e533          	or	a0,a5,a4
80002384:	01c5d5b3          	srl	a1,a1,t3
80002388:	cc5ff06f          	j	8000204c <__moddi3+0x110>

8000238c <__udivdi3>:
8000238c:	00050893          	mv	a7,a0
80002390:	00058793          	mv	a5,a1
80002394:	00060813          	mv	a6,a2
80002398:	00068513          	mv	a0,a3
8000239c:	00088313          	mv	t1,a7
800023a0:	28069463          	bnez	a3,80002628 <__udivdi3+0x29c>
800023a4:	800036b7          	lui	a3,0x80003
800023a8:	ee868693          	addi	a3,a3,-280 # 80002ee8 <__global_pointer$+0xfffff6b0>
800023ac:	0ec5f663          	bgeu	a1,a2,80002498 <__udivdi3+0x10c>
800023b0:	00010737          	lui	a4,0x10
800023b4:	0ce67863          	bgeu	a2,a4,80002484 <__udivdi3+0xf8>
800023b8:	0ff00713          	li	a4,255
800023bc:	00c73733          	sltu	a4,a4,a2
800023c0:	00371713          	slli	a4,a4,0x3
800023c4:	00e65533          	srl	a0,a2,a4
800023c8:	00a686b3          	add	a3,a3,a0
800023cc:	0006c683          	lbu	a3,0(a3)
800023d0:	02000513          	li	a0,32
800023d4:	00e68733          	add	a4,a3,a4
800023d8:	40e506b3          	sub	a3,a0,a4
800023dc:	00e50c63          	beq	a0,a4,800023f4 <__udivdi3+0x68>
800023e0:	00d797b3          	sll	a5,a5,a3
800023e4:	00e8d733          	srl	a4,a7,a4
800023e8:	00d61833          	sll	a6,a2,a3
800023ec:	00f765b3          	or	a1,a4,a5
800023f0:	00d89333          	sll	t1,a7,a3
800023f4:	01085893          	srli	a7,a6,0x10
800023f8:	0315d7b3          	divu	a5,a1,a7
800023fc:	01081613          	slli	a2,a6,0x10
80002400:	01065613          	srli	a2,a2,0x10
80002404:	01035713          	srli	a4,t1,0x10
80002408:	0315f6b3          	remu	a3,a1,a7
8000240c:	00078513          	mv	a0,a5
80002410:	02f605b3          	mul	a1,a2,a5
80002414:	01069693          	slli	a3,a3,0x10
80002418:	00e6e733          	or	a4,a3,a4
8000241c:	00b77e63          	bgeu	a4,a1,80002438 <__udivdi3+0xac>
80002420:	01070733          	add	a4,a4,a6
80002424:	fff78513          	addi	a0,a5,-1
80002428:	01076863          	bltu	a4,a6,80002438 <__udivdi3+0xac>
8000242c:	00b77663          	bgeu	a4,a1,80002438 <__udivdi3+0xac>
80002430:	ffe78513          	addi	a0,a5,-2
80002434:	01070733          	add	a4,a4,a6
80002438:	40b70733          	sub	a4,a4,a1
8000243c:	031777b3          	remu	a5,a4,a7
80002440:	01031313          	slli	t1,t1,0x10
80002444:	01035313          	srli	t1,t1,0x10
80002448:	03175733          	divu	a4,a4,a7
8000244c:	01079793          	slli	a5,a5,0x10
80002450:	0067e333          	or	t1,a5,t1
80002454:	02e606b3          	mul	a3,a2,a4
80002458:	00070613          	mv	a2,a4
8000245c:	00d37c63          	bgeu	t1,a3,80002474 <__udivdi3+0xe8>
80002460:	00680333          	add	t1,a6,t1
80002464:	fff70613          	addi	a2,a4,-1 # ffff <buflen.2941+0xffbf>
80002468:	01036663          	bltu	t1,a6,80002474 <__udivdi3+0xe8>
8000246c:	00d37463          	bgeu	t1,a3,80002474 <__udivdi3+0xe8>
80002470:	ffe70613          	addi	a2,a4,-2
80002474:	01051513          	slli	a0,a0,0x10
80002478:	00c56533          	or	a0,a0,a2
8000247c:	00000593          	li	a1,0
80002480:	0e40006f          	j	80002564 <__udivdi3+0x1d8>
80002484:	01000537          	lui	a0,0x1000
80002488:	01000713          	li	a4,16
8000248c:	f2a66ce3          	bltu	a2,a0,800023c4 <__udivdi3+0x38>
80002490:	01800713          	li	a4,24
80002494:	f31ff06f          	j	800023c4 <__udivdi3+0x38>
80002498:	00061663          	bnez	a2,800024a4 <__udivdi3+0x118>
8000249c:	00100713          	li	a4,1
800024a0:	02c75833          	divu	a6,a4,a2
800024a4:	00010737          	lui	a4,0x10
800024a8:	0ce87063          	bgeu	a6,a4,80002568 <__udivdi3+0x1dc>
800024ac:	0ff00713          	li	a4,255
800024b0:	01077463          	bgeu	a4,a6,800024b8 <__udivdi3+0x12c>
800024b4:	00800513          	li	a0,8
800024b8:	00a85733          	srl	a4,a6,a0
800024bc:	00e686b3          	add	a3,a3,a4
800024c0:	0006c703          	lbu	a4,0(a3)
800024c4:	02000613          	li	a2,32
800024c8:	00a70733          	add	a4,a4,a0
800024cc:	40e606b3          	sub	a3,a2,a4
800024d0:	0ae61663          	bne	a2,a4,8000257c <__udivdi3+0x1f0>
800024d4:	410787b3          	sub	a5,a5,a6
800024d8:	00100593          	li	a1,1
800024dc:	01085893          	srli	a7,a6,0x10
800024e0:	01081613          	slli	a2,a6,0x10
800024e4:	01065613          	srli	a2,a2,0x10
800024e8:	01035713          	srli	a4,t1,0x10
800024ec:	0317f6b3          	remu	a3,a5,a7
800024f0:	0317d7b3          	divu	a5,a5,a7
800024f4:	01069693          	slli	a3,a3,0x10
800024f8:	00e6e733          	or	a4,a3,a4
800024fc:	02f60e33          	mul	t3,a2,a5
80002500:	00078513          	mv	a0,a5
80002504:	01c77e63          	bgeu	a4,t3,80002520 <__udivdi3+0x194>
80002508:	01070733          	add	a4,a4,a6
8000250c:	fff78513          	addi	a0,a5,-1
80002510:	01076863          	bltu	a4,a6,80002520 <__udivdi3+0x194>
80002514:	01c77663          	bgeu	a4,t3,80002520 <__udivdi3+0x194>
80002518:	ffe78513          	addi	a0,a5,-2
8000251c:	01070733          	add	a4,a4,a6
80002520:	41c70733          	sub	a4,a4,t3
80002524:	031777b3          	remu	a5,a4,a7
80002528:	01031313          	slli	t1,t1,0x10
8000252c:	01035313          	srli	t1,t1,0x10
80002530:	03175733          	divu	a4,a4,a7
80002534:	01079793          	slli	a5,a5,0x10
80002538:	0067e333          	or	t1,a5,t1
8000253c:	02e606b3          	mul	a3,a2,a4
80002540:	00070613          	mv	a2,a4
80002544:	00d37c63          	bgeu	t1,a3,8000255c <__udivdi3+0x1d0>
80002548:	00680333          	add	t1,a6,t1
8000254c:	fff70613          	addi	a2,a4,-1 # ffff <buflen.2941+0xffbf>
80002550:	01036663          	bltu	t1,a6,8000255c <__udivdi3+0x1d0>
80002554:	00d37463          	bgeu	t1,a3,8000255c <__udivdi3+0x1d0>
80002558:	ffe70613          	addi	a2,a4,-2
8000255c:	01051513          	slli	a0,a0,0x10
80002560:	00c56533          	or	a0,a0,a2
80002564:	00008067          	ret
80002568:	01000737          	lui	a4,0x1000
8000256c:	01000513          	li	a0,16
80002570:	f4e864e3          	bltu	a6,a4,800024b8 <__udivdi3+0x12c>
80002574:	01800513          	li	a0,24
80002578:	f41ff06f          	j	800024b8 <__udivdi3+0x12c>
8000257c:	00d81833          	sll	a6,a6,a3
80002580:	00e7d5b3          	srl	a1,a5,a4
80002584:	00d89333          	sll	t1,a7,a3
80002588:	00d797b3          	sll	a5,a5,a3
8000258c:	00e8d733          	srl	a4,a7,a4
80002590:	01085893          	srli	a7,a6,0x10
80002594:	00f76633          	or	a2,a4,a5
80002598:	0315f733          	remu	a4,a1,a7
8000259c:	01081793          	slli	a5,a6,0x10
800025a0:	0107d793          	srli	a5,a5,0x10
800025a4:	01065513          	srli	a0,a2,0x10
800025a8:	0315d5b3          	divu	a1,a1,a7
800025ac:	01071713          	slli	a4,a4,0x10
800025b0:	00a76733          	or	a4,a4,a0
800025b4:	02b786b3          	mul	a3,a5,a1
800025b8:	00058513          	mv	a0,a1
800025bc:	00d77e63          	bgeu	a4,a3,800025d8 <__udivdi3+0x24c>
800025c0:	01070733          	add	a4,a4,a6
800025c4:	fff58513          	addi	a0,a1,-1
800025c8:	01076863          	bltu	a4,a6,800025d8 <__udivdi3+0x24c>
800025cc:	00d77663          	bgeu	a4,a3,800025d8 <__udivdi3+0x24c>
800025d0:	ffe58513          	addi	a0,a1,-2
800025d4:	01070733          	add	a4,a4,a6
800025d8:	40d706b3          	sub	a3,a4,a3
800025dc:	0316f733          	remu	a4,a3,a7
800025e0:	01061613          	slli	a2,a2,0x10
800025e4:	01065613          	srli	a2,a2,0x10
800025e8:	0316d6b3          	divu	a3,a3,a7
800025ec:	01071713          	slli	a4,a4,0x10
800025f0:	02d788b3          	mul	a7,a5,a3
800025f4:	00c767b3          	or	a5,a4,a2
800025f8:	00068713          	mv	a4,a3
800025fc:	0117fe63          	bgeu	a5,a7,80002618 <__udivdi3+0x28c>
80002600:	010787b3          	add	a5,a5,a6
80002604:	fff68713          	addi	a4,a3,-1
80002608:	0107e863          	bltu	a5,a6,80002618 <__udivdi3+0x28c>
8000260c:	0117f663          	bgeu	a5,a7,80002618 <__udivdi3+0x28c>
80002610:	ffe68713          	addi	a4,a3,-2
80002614:	010787b3          	add	a5,a5,a6
80002618:	01051593          	slli	a1,a0,0x10
8000261c:	411787b3          	sub	a5,a5,a7
80002620:	00e5e5b3          	or	a1,a1,a4
80002624:	eb9ff06f          	j	800024dc <__udivdi3+0x150>
80002628:	18d5e663          	bltu	a1,a3,800027b4 <__udivdi3+0x428>
8000262c:	00010737          	lui	a4,0x10
80002630:	04e6f463          	bgeu	a3,a4,80002678 <__udivdi3+0x2ec>
80002634:	0ff00713          	li	a4,255
80002638:	00d735b3          	sltu	a1,a4,a3
8000263c:	00359593          	slli	a1,a1,0x3
80002640:	80003737          	lui	a4,0x80003
80002644:	00b6d533          	srl	a0,a3,a1
80002648:	ee870713          	addi	a4,a4,-280 # 80002ee8 <__global_pointer$+0xfffff6b0>
8000264c:	00a70733          	add	a4,a4,a0
80002650:	00074703          	lbu	a4,0(a4)
80002654:	02000513          	li	a0,32
80002658:	00b70733          	add	a4,a4,a1
8000265c:	40e505b3          	sub	a1,a0,a4
80002660:	02e51663          	bne	a0,a4,8000268c <__udivdi3+0x300>
80002664:	00100513          	li	a0,1
80002668:	eef6eee3          	bltu	a3,a5,80002564 <__udivdi3+0x1d8>
8000266c:	00c8b533          	sltu	a0,a7,a2
80002670:	00154513          	xori	a0,a0,1
80002674:	ef1ff06f          	j	80002564 <__udivdi3+0x1d8>
80002678:	01000737          	lui	a4,0x1000
8000267c:	01000593          	li	a1,16
80002680:	fce6e0e3          	bltu	a3,a4,80002640 <__udivdi3+0x2b4>
80002684:	01800593          	li	a1,24
80002688:	fb9ff06f          	j	80002640 <__udivdi3+0x2b4>
8000268c:	00e65333          	srl	t1,a2,a4
80002690:	00b696b3          	sll	a3,a3,a1
80002694:	00d36333          	or	t1,t1,a3
80002698:	01035513          	srli	a0,t1,0x10
8000269c:	00b61eb3          	sll	t4,a2,a1
800026a0:	00e7d633          	srl	a2,a5,a4
800026a4:	02a676b3          	remu	a3,a2,a0
800026a8:	00b797b3          	sll	a5,a5,a1
800026ac:	00e8d733          	srl	a4,a7,a4
800026b0:	00f76833          	or	a6,a4,a5
800026b4:	01031793          	slli	a5,t1,0x10
800026b8:	0107d793          	srli	a5,a5,0x10
800026bc:	01085713          	srli	a4,a6,0x10
800026c0:	02a65633          	divu	a2,a2,a0
800026c4:	01069693          	slli	a3,a3,0x10
800026c8:	00e6e733          	or	a4,a3,a4
800026cc:	02c78f33          	mul	t5,a5,a2
800026d0:	00060e13          	mv	t3,a2
800026d4:	01e77e63          	bgeu	a4,t5,800026f0 <__udivdi3+0x364>
800026d8:	00670733          	add	a4,a4,t1
800026dc:	fff60e13          	addi	t3,a2,-1 # ffffff <buflen.2941+0xffffbf>
800026e0:	00676863          	bltu	a4,t1,800026f0 <__udivdi3+0x364>
800026e4:	01e77663          	bgeu	a4,t5,800026f0 <__udivdi3+0x364>
800026e8:	ffe60e13          	addi	t3,a2,-2
800026ec:	00670733          	add	a4,a4,t1
800026f0:	41e70733          	sub	a4,a4,t5
800026f4:	02a776b3          	remu	a3,a4,a0
800026f8:	02a75733          	divu	a4,a4,a0
800026fc:	01069693          	slli	a3,a3,0x10
80002700:	02e78633          	mul	a2,a5,a4
80002704:	01081793          	slli	a5,a6,0x10
80002708:	0107d793          	srli	a5,a5,0x10
8000270c:	00f6e7b3          	or	a5,a3,a5
80002710:	00070693          	mv	a3,a4
80002714:	00c7fe63          	bgeu	a5,a2,80002730 <__udivdi3+0x3a4>
80002718:	006787b3          	add	a5,a5,t1
8000271c:	fff70693          	addi	a3,a4,-1 # ffffff <buflen.2941+0xffffbf>
80002720:	0067e863          	bltu	a5,t1,80002730 <__udivdi3+0x3a4>
80002724:	00c7f663          	bgeu	a5,a2,80002730 <__udivdi3+0x3a4>
80002728:	ffe70693          	addi	a3,a4,-2
8000272c:	006787b3          	add	a5,a5,t1
80002730:	010e1513          	slli	a0,t3,0x10
80002734:	00010e37          	lui	t3,0x10
80002738:	00d56533          	or	a0,a0,a3
8000273c:	fffe0693          	addi	a3,t3,-1 # ffff <buflen.2941+0xffbf>
80002740:	00d57833          	and	a6,a0,a3
80002744:	40c787b3          	sub	a5,a5,a2
80002748:	00def6b3          	and	a3,t4,a3
8000274c:	01055613          	srli	a2,a0,0x10
80002750:	010ede93          	srli	t4,t4,0x10
80002754:	02d80333          	mul	t1,a6,a3
80002758:	02d606b3          	mul	a3,a2,a3
8000275c:	01035713          	srli	a4,t1,0x10
80002760:	03d80833          	mul	a6,a6,t4
80002764:	00d80833          	add	a6,a6,a3
80002768:	01070733          	add	a4,a4,a6
8000276c:	03d60633          	mul	a2,a2,t4
80002770:	00d77463          	bgeu	a4,a3,80002778 <__udivdi3+0x3ec>
80002774:	01c60633          	add	a2,a2,t3
80002778:	01075693          	srli	a3,a4,0x10
8000277c:	00c68633          	add	a2,a3,a2
80002780:	02c7e663          	bltu	a5,a2,800027ac <__udivdi3+0x420>
80002784:	cec79ce3          	bne	a5,a2,8000247c <__udivdi3+0xf0>
80002788:	000107b7          	lui	a5,0x10
8000278c:	fff78793          	addi	a5,a5,-1 # ffff <buflen.2941+0xffbf>
80002790:	00f77733          	and	a4,a4,a5
80002794:	01071713          	slli	a4,a4,0x10
80002798:	00f37333          	and	t1,t1,a5
8000279c:	00b898b3          	sll	a7,a7,a1
800027a0:	00670733          	add	a4,a4,t1
800027a4:	00000593          	li	a1,0
800027a8:	dae8fee3          	bgeu	a7,a4,80002564 <__udivdi3+0x1d8>
800027ac:	fff50513          	addi	a0,a0,-1 # ffffff <buflen.2941+0xffffbf>
800027b0:	ccdff06f          	j	8000247c <__udivdi3+0xf0>
800027b4:	00000593          	li	a1,0
800027b8:	00000513          	li	a0,0
800027bc:	da9ff06f          	j	80002564 <__udivdi3+0x1d8>

800027c0 <__umoddi3>:
800027c0:	00060893          	mv	a7,a2
800027c4:	00068713          	mv	a4,a3
800027c8:	00050793          	mv	a5,a0
800027cc:	00058813          	mv	a6,a1
800027d0:	22069c63          	bnez	a3,80002a08 <__umoddi3+0x248>
800027d4:	800036b7          	lui	a3,0x80003
800027d8:	ee868693          	addi	a3,a3,-280 # 80002ee8 <__global_pointer$+0xfffff6b0>
800027dc:	0cc5fc63          	bgeu	a1,a2,800028b4 <__umoddi3+0xf4>
800027e0:	00010337          	lui	t1,0x10
800027e4:	0a667e63          	bgeu	a2,t1,800028a0 <__umoddi3+0xe0>
800027e8:	0ff00313          	li	t1,255
800027ec:	00c37463          	bgeu	t1,a2,800027f4 <__umoddi3+0x34>
800027f0:	00800713          	li	a4,8
800027f4:	00e65333          	srl	t1,a2,a4
800027f8:	006686b3          	add	a3,a3,t1
800027fc:	0006ce03          	lbu	t3,0(a3)
80002800:	00ee0e33          	add	t3,t3,a4
80002804:	02000713          	li	a4,32
80002808:	41c70333          	sub	t1,a4,t3
8000280c:	01c70c63          	beq	a4,t3,80002824 <__umoddi3+0x64>
80002810:	006595b3          	sll	a1,a1,t1
80002814:	01c55e33          	srl	t3,a0,t3
80002818:	006618b3          	sll	a7,a2,t1
8000281c:	00be6833          	or	a6,t3,a1
80002820:	006517b3          	sll	a5,a0,t1
80002824:	0108d613          	srli	a2,a7,0x10
80002828:	02c87733          	remu	a4,a6,a2
8000282c:	01089513          	slli	a0,a7,0x10
80002830:	01055513          	srli	a0,a0,0x10
80002834:	0107d693          	srli	a3,a5,0x10
80002838:	02c85833          	divu	a6,a6,a2
8000283c:	01071713          	slli	a4,a4,0x10
80002840:	00d766b3          	or	a3,a4,a3
80002844:	03050833          	mul	a6,a0,a6
80002848:	0106fa63          	bgeu	a3,a6,8000285c <__umoddi3+0x9c>
8000284c:	011686b3          	add	a3,a3,a7
80002850:	0116e663          	bltu	a3,a7,8000285c <__umoddi3+0x9c>
80002854:	0106f463          	bgeu	a3,a6,8000285c <__umoddi3+0x9c>
80002858:	011686b3          	add	a3,a3,a7
8000285c:	410686b3          	sub	a3,a3,a6
80002860:	02c6f733          	remu	a4,a3,a2
80002864:	01079793          	slli	a5,a5,0x10
80002868:	0107d793          	srli	a5,a5,0x10
8000286c:	02c6d6b3          	divu	a3,a3,a2
80002870:	02d506b3          	mul	a3,a0,a3
80002874:	01071513          	slli	a0,a4,0x10
80002878:	00f567b3          	or	a5,a0,a5
8000287c:	00d7fa63          	bgeu	a5,a3,80002890 <__umoddi3+0xd0>
80002880:	011787b3          	add	a5,a5,a7
80002884:	0117e663          	bltu	a5,a7,80002890 <__umoddi3+0xd0>
80002888:	00d7f463          	bgeu	a5,a3,80002890 <__umoddi3+0xd0>
8000288c:	011787b3          	add	a5,a5,a7
80002890:	40d787b3          	sub	a5,a5,a3
80002894:	0067d533          	srl	a0,a5,t1
80002898:	00000593          	li	a1,0
8000289c:	00008067          	ret
800028a0:	01000337          	lui	t1,0x1000
800028a4:	01000713          	li	a4,16
800028a8:	f46666e3          	bltu	a2,t1,800027f4 <__umoddi3+0x34>
800028ac:	01800713          	li	a4,24
800028b0:	f45ff06f          	j	800027f4 <__umoddi3+0x34>
800028b4:	00061663          	bnez	a2,800028c0 <__umoddi3+0x100>
800028b8:	00100613          	li	a2,1
800028bc:	031658b3          	divu	a7,a2,a7
800028c0:	00010637          	lui	a2,0x10
800028c4:	0ac8f263          	bgeu	a7,a2,80002968 <__umoddi3+0x1a8>
800028c8:	0ff00613          	li	a2,255
800028cc:	01167463          	bgeu	a2,a7,800028d4 <__umoddi3+0x114>
800028d0:	00800713          	li	a4,8
800028d4:	00e8d633          	srl	a2,a7,a4
800028d8:	00c686b3          	add	a3,a3,a2
800028dc:	0006ce03          	lbu	t3,0(a3)
800028e0:	00ee0e33          	add	t3,t3,a4
800028e4:	02000713          	li	a4,32
800028e8:	41c70333          	sub	t1,a4,t3
800028ec:	09c71863          	bne	a4,t3,8000297c <__umoddi3+0x1bc>
800028f0:	411585b3          	sub	a1,a1,a7
800028f4:	0108d713          	srli	a4,a7,0x10
800028f8:	01089513          	slli	a0,a7,0x10
800028fc:	01055513          	srli	a0,a0,0x10
80002900:	0107d613          	srli	a2,a5,0x10
80002904:	02e5f6b3          	remu	a3,a1,a4
80002908:	02e5d5b3          	divu	a1,a1,a4
8000290c:	01069693          	slli	a3,a3,0x10
80002910:	00c6e6b3          	or	a3,a3,a2
80002914:	02b505b3          	mul	a1,a0,a1
80002918:	00b6fa63          	bgeu	a3,a1,8000292c <__umoddi3+0x16c>
8000291c:	011686b3          	add	a3,a3,a7
80002920:	0116e663          	bltu	a3,a7,8000292c <__umoddi3+0x16c>
80002924:	00b6f463          	bgeu	a3,a1,8000292c <__umoddi3+0x16c>
80002928:	011686b3          	add	a3,a3,a7
8000292c:	40b685b3          	sub	a1,a3,a1
80002930:	02e5f6b3          	remu	a3,a1,a4
80002934:	01079793          	slli	a5,a5,0x10
80002938:	0107d793          	srli	a5,a5,0x10
8000293c:	02e5d5b3          	divu	a1,a1,a4
80002940:	02b505b3          	mul	a1,a0,a1
80002944:	01069513          	slli	a0,a3,0x10
80002948:	00f567b3          	or	a5,a0,a5
8000294c:	00b7fa63          	bgeu	a5,a1,80002960 <__umoddi3+0x1a0>
80002950:	011787b3          	add	a5,a5,a7
80002954:	0117e663          	bltu	a5,a7,80002960 <__umoddi3+0x1a0>
80002958:	00b7f463          	bgeu	a5,a1,80002960 <__umoddi3+0x1a0>
8000295c:	011787b3          	add	a5,a5,a7
80002960:	40b787b3          	sub	a5,a5,a1
80002964:	f31ff06f          	j	80002894 <__umoddi3+0xd4>
80002968:	01000637          	lui	a2,0x1000
8000296c:	01000713          	li	a4,16
80002970:	f6c8e2e3          	bltu	a7,a2,800028d4 <__umoddi3+0x114>
80002974:	01800713          	li	a4,24
80002978:	f5dff06f          	j	800028d4 <__umoddi3+0x114>
8000297c:	006898b3          	sll	a7,a7,t1
80002980:	01c5d733          	srl	a4,a1,t3
80002984:	006517b3          	sll	a5,a0,t1
80002988:	01c55e33          	srl	t3,a0,t3
8000298c:	0108d513          	srli	a0,a7,0x10
80002990:	02a776b3          	remu	a3,a4,a0
80002994:	006595b3          	sll	a1,a1,t1
80002998:	00be6e33          	or	t3,t3,a1
8000299c:	01089593          	slli	a1,a7,0x10
800029a0:	0105d593          	srli	a1,a1,0x10
800029a4:	010e5613          	srli	a2,t3,0x10
800029a8:	02a75733          	divu	a4,a4,a0
800029ac:	01069693          	slli	a3,a3,0x10
800029b0:	00c6e6b3          	or	a3,a3,a2
800029b4:	02e58733          	mul	a4,a1,a4
800029b8:	00e6fa63          	bgeu	a3,a4,800029cc <__umoddi3+0x20c>
800029bc:	011686b3          	add	a3,a3,a7
800029c0:	0116e663          	bltu	a3,a7,800029cc <__umoddi3+0x20c>
800029c4:	00e6f463          	bgeu	a3,a4,800029cc <__umoddi3+0x20c>
800029c8:	011686b3          	add	a3,a3,a7
800029cc:	40e68633          	sub	a2,a3,a4
800029d0:	02a676b3          	remu	a3,a2,a0
800029d4:	010e1e13          	slli	t3,t3,0x10
800029d8:	010e5e13          	srli	t3,t3,0x10
800029dc:	02a65633          	divu	a2,a2,a0
800029e0:	01069693          	slli	a3,a3,0x10
800029e4:	02c58633          	mul	a2,a1,a2
800029e8:	01c6e5b3          	or	a1,a3,t3
800029ec:	00c5fa63          	bgeu	a1,a2,80002a00 <__umoddi3+0x240>
800029f0:	011585b3          	add	a1,a1,a7
800029f4:	0115e663          	bltu	a1,a7,80002a00 <__umoddi3+0x240>
800029f8:	00c5f463          	bgeu	a1,a2,80002a00 <__umoddi3+0x240>
800029fc:	011585b3          	add	a1,a1,a7
80002a00:	40c585b3          	sub	a1,a1,a2
80002a04:	ef1ff06f          	j	800028f4 <__umoddi3+0x134>
80002a08:	e8d5eae3          	bltu	a1,a3,8000289c <__umoddi3+0xdc>
80002a0c:	00010737          	lui	a4,0x10
80002a10:	04e6fc63          	bgeu	a3,a4,80002a68 <__umoddi3+0x2a8>
80002a14:	0ff00e13          	li	t3,255
80002a18:	00de3733          	sltu	a4,t3,a3
80002a1c:	00371713          	slli	a4,a4,0x3
80002a20:	800038b7          	lui	a7,0x80003
80002a24:	00e6d333          	srl	t1,a3,a4
80002a28:	ee888893          	addi	a7,a7,-280 # 80002ee8 <__global_pointer$+0xfffff6b0>
80002a2c:	006888b3          	add	a7,a7,t1
80002a30:	0008ce03          	lbu	t3,0(a7)
80002a34:	00ee0e33          	add	t3,t3,a4
80002a38:	02000713          	li	a4,32
80002a3c:	41c70333          	sub	t1,a4,t3
80002a40:	03c71e63          	bne	a4,t3,80002a7c <__umoddi3+0x2bc>
80002a44:	00b6e463          	bltu	a3,a1,80002a4c <__umoddi3+0x28c>
80002a48:	00c56a63          	bltu	a0,a2,80002a5c <__umoddi3+0x29c>
80002a4c:	40c507b3          	sub	a5,a0,a2
80002a50:	40d585b3          	sub	a1,a1,a3
80002a54:	00f53533          	sltu	a0,a0,a5
80002a58:	40a58833          	sub	a6,a1,a0
80002a5c:	00078513          	mv	a0,a5
80002a60:	00080593          	mv	a1,a6
80002a64:	e39ff06f          	j	8000289c <__umoddi3+0xdc>
80002a68:	010008b7          	lui	a7,0x1000
80002a6c:	01000713          	li	a4,16
80002a70:	fb16e8e3          	bltu	a3,a7,80002a20 <__umoddi3+0x260>
80002a74:	01800713          	li	a4,24
80002a78:	fa9ff06f          	j	80002a20 <__umoddi3+0x260>
80002a7c:	01c65733          	srl	a4,a2,t3
80002a80:	006696b3          	sll	a3,a3,t1
80002a84:	00d76f33          	or	t5,a4,a3
80002a88:	01c5d7b3          	srl	a5,a1,t3
80002a8c:	010f5713          	srli	a4,t5,0x10
80002a90:	02e7f8b3          	remu	a7,a5,a4
80002a94:	006595b3          	sll	a1,a1,t1
80002a98:	01c55833          	srl	a6,a0,t3
80002a9c:	00b86833          	or	a6,a6,a1
80002aa0:	010f1593          	slli	a1,t5,0x10
80002aa4:	0105d593          	srli	a1,a1,0x10
80002aa8:	01085693          	srli	a3,a6,0x10
80002aac:	00661633          	sll	a2,a2,t1
80002ab0:	00651533          	sll	a0,a0,t1
80002ab4:	02e7d7b3          	divu	a5,a5,a4
80002ab8:	01089893          	slli	a7,a7,0x10
80002abc:	00d8e6b3          	or	a3,a7,a3
80002ac0:	02f58eb3          	mul	t4,a1,a5
80002ac4:	00078893          	mv	a7,a5
80002ac8:	01d6fe63          	bgeu	a3,t4,80002ae4 <__umoddi3+0x324>
80002acc:	01e686b3          	add	a3,a3,t5
80002ad0:	fff78893          	addi	a7,a5,-1
80002ad4:	01e6e863          	bltu	a3,t5,80002ae4 <__umoddi3+0x324>
80002ad8:	01d6f663          	bgeu	a3,t4,80002ae4 <__umoddi3+0x324>
80002adc:	ffe78893          	addi	a7,a5,-2
80002ae0:	01e686b3          	add	a3,a3,t5
80002ae4:	41d686b3          	sub	a3,a3,t4
80002ae8:	02e6feb3          	remu	t4,a3,a4
80002aec:	01081813          	slli	a6,a6,0x10
80002af0:	01085813          	srli	a6,a6,0x10
80002af4:	02e6d6b3          	divu	a3,a3,a4
80002af8:	010e9e93          	slli	t4,t4,0x10
80002afc:	010eeeb3          	or	t4,t4,a6
80002b00:	02d585b3          	mul	a1,a1,a3
80002b04:	00068793          	mv	a5,a3
80002b08:	00befe63          	bgeu	t4,a1,80002b24 <__umoddi3+0x364>
80002b0c:	01ee8eb3          	add	t4,t4,t5
80002b10:	fff68793          	addi	a5,a3,-1
80002b14:	01eee863          	bltu	t4,t5,80002b24 <__umoddi3+0x364>
80002b18:	00bef663          	bgeu	t4,a1,80002b24 <__umoddi3+0x364>
80002b1c:	ffe68793          	addi	a5,a3,-2
80002b20:	01ee8eb3          	add	t4,t4,t5
80002b24:	40be85b3          	sub	a1,t4,a1
80002b28:	01089893          	slli	a7,a7,0x10
80002b2c:	00010eb7          	lui	t4,0x10
80002b30:	00f8e8b3          	or	a7,a7,a5
80002b34:	fffe8793          	addi	a5,t4,-1 # ffff <buflen.2941+0xffbf>
80002b38:	00f8f833          	and	a6,a7,a5
80002b3c:	01065693          	srli	a3,a2,0x10
80002b40:	0108d893          	srli	a7,a7,0x10
80002b44:	00f677b3          	and	a5,a2,a5
80002b48:	02f80733          	mul	a4,a6,a5
80002b4c:	02f887b3          	mul	a5,a7,a5
80002b50:	02d80833          	mul	a6,a6,a3
80002b54:	02d888b3          	mul	a7,a7,a3
80002b58:	00f80833          	add	a6,a6,a5
80002b5c:	01075693          	srli	a3,a4,0x10
80002b60:	010686b3          	add	a3,a3,a6
80002b64:	00f6f463          	bgeu	a3,a5,80002b6c <__umoddi3+0x3ac>
80002b68:	01d888b3          	add	a7,a7,t4
80002b6c:	000107b7          	lui	a5,0x10
80002b70:	fff78793          	addi	a5,a5,-1 # ffff <buflen.2941+0xffbf>
80002b74:	0106d813          	srli	a6,a3,0x10
80002b78:	00f6f6b3          	and	a3,a3,a5
80002b7c:	01069693          	slli	a3,a3,0x10
80002b80:	00f77733          	and	a4,a4,a5
80002b84:	011808b3          	add	a7,a6,a7
80002b88:	00e68733          	add	a4,a3,a4
80002b8c:	0115e663          	bltu	a1,a7,80002b98 <__umoddi3+0x3d8>
80002b90:	01159e63          	bne	a1,a7,80002bac <__umoddi3+0x3ec>
80002b94:	00e57c63          	bgeu	a0,a4,80002bac <__umoddi3+0x3ec>
80002b98:	40c70633          	sub	a2,a4,a2
80002b9c:	00c73733          	sltu	a4,a4,a2
80002ba0:	01e70733          	add	a4,a4,t5
80002ba4:	40e888b3          	sub	a7,a7,a4
80002ba8:	00060713          	mv	a4,a2
80002bac:	40e50733          	sub	a4,a0,a4
80002bb0:	00e53533          	sltu	a0,a0,a4
80002bb4:	411585b3          	sub	a1,a1,a7
80002bb8:	40a585b3          	sub	a1,a1,a0
80002bbc:	01c597b3          	sll	a5,a1,t3
80002bc0:	00675733          	srl	a4,a4,t1
80002bc4:	00e7e533          	or	a0,a5,a4
80002bc8:	0065d5b3          	srl	a1,a1,t1
80002bcc:	cd1ff06f          	j	8000289c <__umoddi3+0xdc>

セクション .text.startup の逆アセンブル:

80002bd0 <main>:
80002bd0:	fd010113          	addi	sp,sp,-48
80002bd4:	8401a623          	sw	zero,-1972(gp) # 80003084 <g_nodePool+0x34>
80002bd8:	02112623          	sw	ra,44(sp)
80002bdc:	00000797          	auipc	a5,0x0
80002be0:	47478793          	addi	a5,a5,1140 # 80003050 <g_nodePool>
80002be4:	06300693          	li	a3,99
80002be8:	02d7a823          	sw	a3,48(a5)
80002bec:	00000697          	auipc	a3,0x0
80002bf0:	46c68693          	addi	a3,a3,1132 # 80003058 <g_nodePool+0x8>
80002bf4:	00d7a223          	sw	a3,4(a5)
80002bf8:	00000697          	auipc	a3,0x0
80002bfc:	4406ac23          	sw	zero,1112(a3) # 80003050 <g_nodePool>
80002c00:	00000697          	auipc	a3,0x0
80002c04:	46068693          	addi	a3,a3,1120 # 80003060 <g_nodePool+0x10>
80002c08:	00d7a623          	sw	a3,12(a5)
80002c0c:	00100693          	li	a3,1
80002c10:	00d7a423          	sw	a3,8(a5)
80002c14:	00000697          	auipc	a3,0x0
80002c18:	45468693          	addi	a3,a3,1108 # 80003068 <g_nodePool+0x18>
80002c1c:	00d7aa23          	sw	a3,20(a5)
80002c20:	00200693          	li	a3,2
80002c24:	00d7a823          	sw	a3,16(a5)
80002c28:	00000697          	auipc	a3,0x0
80002c2c:	44868693          	addi	a3,a3,1096 # 80003070 <g_nodePool+0x20>
80002c30:	00d7ae23          	sw	a3,28(a5)
80002c34:	00300693          	li	a3,3
80002c38:	00d7ac23          	sw	a3,24(a5)
80002c3c:	84018693          	addi	a3,gp,-1984 # 80003078 <g_nodePool+0x28>
80002c40:	02d7a223          	sw	a3,36(a5)
80002c44:	00400693          	li	a3,4
80002c48:	02d7a023          	sw	a3,32(a5)
80002c4c:	84818693          	addi	a3,gp,-1976 # 80003080 <g_nodePool+0x30>
80002c50:	00700713          	li	a4,7
80002c54:	00000897          	auipc	a7,0x0
80002c58:	3e488893          	addi	a7,a7,996 # 80003038 <g_nodeFreeList>
80002c5c:	02d7a623          	sw	a3,44(a5)
80002c60:	00500693          	li	a3,5
80002c64:	02d7a423          	sw	a3,40(a5)
80002c68:	00e8a023          	sw	a4,0(a7)
80002c6c:	00e12023          	sw	a4,0(sp)
80002c70:	00012223          	sw	zero,4(sp)
80002c74:	00012823          	sw	zero,16(sp)
80002c78:	00012a23          	sw	zero,20(sp)
80002c7c:	00012c23          	sw	zero,24(sp)
80002c80:	00012e23          	sw	zero,28(sp)
80002c84:	00000693          	li	a3,0
80002c88:	0080006f          	j	80002c90 <main+0xc0>
80002c8c:	00080793          	mv	a5,a6
80002c90:	0047a803          	lw	a6,4(a5)
80002c94:	00e7a023          	sw	a4,0(a5)
80002c98:	00d7a223          	sw	a3,4(a5)
80002c9c:	fff70713          	addi	a4,a4,-1 # ffff <buflen.2941+0xffbf>
80002ca0:	00078693          	mv	a3,a5
80002ca4:	fe0714e3          	bnez	a4,80002c8c <main+0xbc>
80002ca8:	00700593          	li	a1,7
80002cac:	01810713          	addi	a4,sp,24
80002cb0:	01010693          	addi	a3,sp,16
80002cb4:	00810613          	addi	a2,sp,8
80002cb8:	00010513          	mv	a0,sp
80002cbc:	00f12623          	sw	a5,12(sp)
80002cc0:	00700793          	li	a5,7
80002cc4:	00f12423          	sw	a5,8(sp)
80002cc8:	0108a223          	sw	a6,4(a7)
80002ccc:	e1cfe0ef          	jal	ra,800012e8 <towers_solve_h>
80002cd0:	00010513          	mv	a0,sp
80002cd4:	cf4fe0ef          	jal	ra,800011c8 <towers_clear>
80002cd8:	00100513          	li	a0,1
80002cdc:	d45fe0ef          	jal	ra,80001a20 <setStats>
80002ce0:	00012583          	lw	a1,0(sp)
80002ce4:	01810713          	addi	a4,sp,24
80002ce8:	01010693          	addi	a3,sp,16
80002cec:	00810613          	addi	a2,sp,8
80002cf0:	00010513          	mv	a0,sp
80002cf4:	df4fe0ef          	jal	ra,800012e8 <towers_solve_h>
80002cf8:	00000513          	li	a0,0
80002cfc:	d25fe0ef          	jal	ra,80001a20 <setStats>
80002d00:	00812783          	lw	a5,8(sp)
80002d04:	00200513          	li	a0,2
80002d08:	00079c63          	bnez	a5,80002d20 <main+0x150>
80002d0c:	01012783          	lw	a5,16(sp)
80002d10:	00300513          	li	a0,3
80002d14:	00079663          	bnez	a5,80002d20 <main+0x150>
80002d18:	00010513          	mv	a0,sp
80002d1c:	b2cfe0ef          	jal	ra,80001048 <towers_verify.part.0>
80002d20:	02c12083          	lw	ra,44(sp)
80002d24:	03010113          	addi	sp,sp,48
80002d28:	00008067          	ret
80002d2c:	ff010113          	addi	sp,sp,-16
80002d30:	00000517          	auipc	a0,0x0
80002d34:	03c50513          	addi	a0,a0,60 # 80002d6c <main+0x19c>
80002d38:	00112623          	sw	ra,12(sp)
80002d3c:	da1fe0ef          	jal	ra,80001adc <printstr>
80002d40:	00c12083          	lw	ra,12(sp)
80002d44:	fff00513          	li	a0,-1
80002d48:	01010113          	addi	sp,sp,16
80002d4c:	00008067          	ret
