
vvadd.riscv:     ファイル形式 elf32-littleriscv


セクション .text.init の逆アセンブル:

80000000 <_start>:
80000000:	00000093          	li	ra,0
80000004:	00000113          	li	sp,0
80000008:	00000193          	li	gp,0
8000000c:	00000213          	li	tp,0
80000010:	00000293          	li	t0,0
80000014:	00000313          	li	t1,0
80000018:	00000393          	li	t2,0
8000001c:	00000413          	li	s0,0
80000020:	00000493          	li	s1,0
80000024:	00000513          	li	a0,0
80000028:	00000593          	li	a1,0
8000002c:	00000613          	li	a2,0
80000030:	00000693          	li	a3,0
80000034:	00000713          	li	a4,0
80000038:	00000793          	li	a5,0
8000003c:	00000813          	li	a6,0
80000040:	00000893          	li	a7,0
80000044:	00000913          	li	s2,0
80000048:	00000993          	li	s3,0
8000004c:	00000a13          	li	s4,0
80000050:	00000a93          	li	s5,0
80000054:	00000b13          	li	s6,0
80000058:	00000b93          	li	s7,0
8000005c:	00000c13          	li	s8,0
80000060:	00000c93          	li	s9,0
80000064:	00000d13          	li	s10,0
80000068:	00000d93          	li	s11,0
8000006c:	00000e13          	li	t3,0
80000070:	00000e93          	li	t4,0
80000074:	00000f13          	li	t5,0
80000078:	00000f93          	li	t6,0
8000007c:	0001e2b7          	lui	t0,0x1e
80000080:	3002a073          	csrs	mstatus,t0
80000084:	00100293          	li	t0,1
80000088:	01f29293          	slli	t0,t0,0x1f
8000008c:	0002ca63          	bltz	t0,800000a0 <_start+0xa0>
80000090:	00100513          	li	a0,1
80000094:	00001297          	auipc	t0,0x1
80000098:	f6a2a623          	sw	a0,-148(t0) # 80001000 <tohost>
8000009c:	ff5ff06f          	j	80000090 <_start+0x90>
800000a0:	00000297          	auipc	t0,0x0
800000a4:	04028293          	addi	t0,t0,64 # 800000e0 <trap_entry>
800000a8:	30529073          	csrw	mtvec,t0
800000ac:	00004197          	auipc	gp,0x4
800000b0:	1a418193          	addi	gp,gp,420 # 80004250 <__global_pointer$>
800000b4:	86f18213          	addi	tp,gp,-1937 # 80003abf <_end+0x3f>
800000b8:	fc027213          	andi	tp,tp,-64
800000bc:	f1402573          	csrr	a0,mhartid
800000c0:	00100593          	li	a1,1
800000c4:	00b57063          	bgeu	a0,a1,800000c4 <_start+0xc4>
800000c8:	00150113          	addi	sp,a0,1
800000cc:	01111113          	slli	sp,sp,0x11
800000d0:	00410133          	add	sp,sp,tp
800000d4:	01151613          	slli	a2,a0,0x11
800000d8:	00c20233          	add	tp,tp,a2
800000dc:	0950106f          	j	80001970 <_init>

800000e0 <trap_entry>:
800000e0:	ef010113          	addi	sp,sp,-272
800000e4:	00112223          	sw	ra,4(sp)
800000e8:	00212423          	sw	sp,8(sp)
800000ec:	00312623          	sw	gp,12(sp)
800000f0:	00412823          	sw	tp,16(sp)
800000f4:	00512a23          	sw	t0,20(sp)
800000f8:	00612c23          	sw	t1,24(sp)
800000fc:	00712e23          	sw	t2,28(sp)
80000100:	02812023          	sw	s0,32(sp)
80000104:	02912223          	sw	s1,36(sp)
80000108:	02a12423          	sw	a0,40(sp)
8000010c:	02b12623          	sw	a1,44(sp)
80000110:	02c12823          	sw	a2,48(sp)
80000114:	02d12a23          	sw	a3,52(sp)
80000118:	02e12c23          	sw	a4,56(sp)
8000011c:	02f12e23          	sw	a5,60(sp)
80000120:	05012023          	sw	a6,64(sp)
80000124:	05112223          	sw	a7,68(sp)
80000128:	05212423          	sw	s2,72(sp)
8000012c:	05312623          	sw	s3,76(sp)
80000130:	05412823          	sw	s4,80(sp)
80000134:	05512a23          	sw	s5,84(sp)
80000138:	05612c23          	sw	s6,88(sp)
8000013c:	05712e23          	sw	s7,92(sp)
80000140:	07812023          	sw	s8,96(sp)
80000144:	07912223          	sw	s9,100(sp)
80000148:	07a12423          	sw	s10,104(sp)
8000014c:	07b12623          	sw	s11,108(sp)
80000150:	07c12823          	sw	t3,112(sp)
80000154:	07d12a23          	sw	t4,116(sp)
80000158:	07e12c23          	sw	t5,120(sp)
8000015c:	07f12e23          	sw	t6,124(sp)
80000160:	34202573          	csrr	a0,mcause
80000164:	341025f3          	csrr	a1,mepc
80000168:	00010613          	mv	a2,sp
8000016c:	594010ef          	jal	ra,80001700 <handle_trap>
80000170:	34151073          	csrw	mepc,a0
80000174:	000022b7          	lui	t0,0x2
80000178:	80028293          	addi	t0,t0,-2048 # 1800 <buflen.2941+0x17c0>
8000017c:	3002a073          	csrs	mstatus,t0
80000180:	00412083          	lw	ra,4(sp)
80000184:	00812103          	lw	sp,8(sp)
80000188:	00c12183          	lw	gp,12(sp)
8000018c:	01012203          	lw	tp,16(sp)
80000190:	01412283          	lw	t0,20(sp)
80000194:	01812303          	lw	t1,24(sp)
80000198:	01c12383          	lw	t2,28(sp)
8000019c:	02012403          	lw	s0,32(sp)
800001a0:	02412483          	lw	s1,36(sp)
800001a4:	02812503          	lw	a0,40(sp)
800001a8:	02c12583          	lw	a1,44(sp)
800001ac:	03012603          	lw	a2,48(sp)
800001b0:	03412683          	lw	a3,52(sp)
800001b4:	03812703          	lw	a4,56(sp)
800001b8:	03c12783          	lw	a5,60(sp)
800001bc:	04012803          	lw	a6,64(sp)
800001c0:	04412883          	lw	a7,68(sp)
800001c4:	04812903          	lw	s2,72(sp)
800001c8:	04c12983          	lw	s3,76(sp)
800001cc:	05012a03          	lw	s4,80(sp)
800001d0:	05412a83          	lw	s5,84(sp)
800001d4:	05812b03          	lw	s6,88(sp)
800001d8:	05c12b83          	lw	s7,92(sp)
800001dc:	06012c03          	lw	s8,96(sp)
800001e0:	06412c83          	lw	s9,100(sp)
800001e4:	06812d03          	lw	s10,104(sp)
800001e8:	06c12d83          	lw	s11,108(sp)
800001ec:	07012e03          	lw	t3,112(sp)
800001f0:	07412e83          	lw	t4,116(sp)
800001f4:	07812f03          	lw	t5,120(sp)
800001f8:	07c12f83          	lw	t6,124(sp)
800001fc:	11010113          	addi	sp,sp,272
80000200:	30200073          	mret

セクション .text の逆アセンブル:

80001048 <vvadd>:
80001048:	02a05663          	blez	a0,80001074 <vvadd+0x2c>
8000104c:	00251513          	slli	a0,a0,0x2
80001050:	00a58533          	add	a0,a1,a0
80001054:	0005a783          	lw	a5,0(a1)
80001058:	00062703          	lw	a4,0(a2)
8000105c:	00458593          	addi	a1,a1,4
80001060:	00460613          	addi	a2,a2,4
80001064:	00e787b3          	add	a5,a5,a4
80001068:	00f6a023          	sw	a5,0(a3)
8000106c:	00468693          	addi	a3,a3,4
80001070:	fea592e3          	bne	a1,a0,80001054 <vvadd+0xc>
80001074:	00008067          	ret

80001078 <vprintfmt>:
80001078:	eb010113          	addi	sp,sp,-336
8000107c:	13912223          	sw	s9,292(sp)
80001080:	40000cb7          	lui	s9,0x40000
80001084:	fffc8793          	addi	a5,s9,-1 # 3fffffff <buflen.2941+0x3fffffbf>
80001088:	14812423          	sw	s0,328(sp)
8000108c:	14912223          	sw	s1,324(sp)
80001090:	15212023          	sw	s2,320(sp)
80001094:	13512a23          	sw	s5,308(sp)
80001098:	14112623          	sw	ra,332(sp)
8000109c:	13312e23          	sw	s3,316(sp)
800010a0:	13412c23          	sw	s4,312(sp)
800010a4:	13612823          	sw	s6,304(sp)
800010a8:	13712623          	sw	s7,300(sp)
800010ac:	13812423          	sw	s8,296(sp)
800010b0:	13a12023          	sw	s10,288(sp)
800010b4:	11b12e23          	sw	s11,284(sp)
800010b8:	00050913          	mv	s2,a0
800010bc:	00058493          	mv	s1,a1
800010c0:	00060413          	mv	s0,a2
800010c4:	00d12423          	sw	a3,8(sp)
800010c8:	02500a93          	li	s5,37
800010cc:	00f12623          	sw	a5,12(sp)
800010d0:	0140006f          	j	800010e4 <vprintfmt+0x6c>
800010d4:	06050463          	beqz	a0,8000113c <vprintfmt+0xc4>
800010d8:	00048593          	mv	a1,s1
800010dc:	00140413          	addi	s0,s0,1
800010e0:	000900e7          	jalr	s2
800010e4:	00044503          	lbu	a0,0(s0)
800010e8:	ff5516e3          	bne	a0,s5,800010d4 <vprintfmt+0x5c>
800010ec:	00144683          	lbu	a3,1(s0)
800010f0:	00140d93          	addi	s11,s0,1
800010f4:	000d8713          	mv	a4,s11
800010f8:	02000b93          	li	s7,32
800010fc:	fff00993          	li	s3,-1
80001100:	fff00a13          	li	s4,-1
80001104:	00000593          	li	a1,0
80001108:	05500613          	li	a2,85
8000110c:	00900513          	li	a0,9
80001110:	fdd68793          	addi	a5,a3,-35
80001114:	0ff7f793          	andi	a5,a5,255
80001118:	00170413          	addi	s0,a4,1
8000111c:	06f66c63          	bltu	a2,a5,80001194 <vprintfmt+0x11c>
80001120:	00002817          	auipc	a6,0x2
80001124:	87880813          	addi	a6,a6,-1928 # 80002998 <main+0x154>
80001128:	00279793          	slli	a5,a5,0x2
8000112c:	010787b3          	add	a5,a5,a6
80001130:	0007a783          	lw	a5,0(a5)
80001134:	010787b3          	add	a5,a5,a6
80001138:	00078067          	jr	a5
8000113c:	14c12083          	lw	ra,332(sp)
80001140:	14812403          	lw	s0,328(sp)
80001144:	14412483          	lw	s1,324(sp)
80001148:	14012903          	lw	s2,320(sp)
8000114c:	13c12983          	lw	s3,316(sp)
80001150:	13812a03          	lw	s4,312(sp)
80001154:	13412a83          	lw	s5,308(sp)
80001158:	13012b03          	lw	s6,304(sp)
8000115c:	12c12b83          	lw	s7,300(sp)
80001160:	12812c03          	lw	s8,296(sp)
80001164:	12412c83          	lw	s9,292(sp)
80001168:	12012d03          	lw	s10,288(sp)
8000116c:	11c12d83          	lw	s11,284(sp)
80001170:	15010113          	addi	sp,sp,336
80001174:	00008067          	ret
80001178:	00068b93          	mv	s7,a3
8000117c:	00174683          	lbu	a3,1(a4)
80001180:	00040713          	mv	a4,s0
80001184:	00170413          	addi	s0,a4,1
80001188:	fdd68793          	addi	a5,a3,-35
8000118c:	0ff7f793          	andi	a5,a5,255
80001190:	f8f678e3          	bgeu	a2,a5,80001120 <vprintfmt+0xa8>
80001194:	00048593          	mv	a1,s1
80001198:	02500513          	li	a0,37
8000119c:	000900e7          	jalr	s2
800011a0:	000d8413          	mv	s0,s11
800011a4:	f41ff06f          	j	800010e4 <vprintfmt+0x6c>
800011a8:	00174803          	lbu	a6,1(a4)
800011ac:	fd068993          	addi	s3,a3,-48
800011b0:	00040713          	mv	a4,s0
800011b4:	fd080793          	addi	a5,a6,-48
800011b8:	00080693          	mv	a3,a6
800011bc:	02f56663          	bltu	a0,a5,800011e8 <vprintfmt+0x170>
800011c0:	00299793          	slli	a5,s3,0x2
800011c4:	013789b3          	add	s3,a5,s3
800011c8:	00170713          	addi	a4,a4,1
800011cc:	00199993          	slli	s3,s3,0x1
800011d0:	010989b3          	add	s3,s3,a6
800011d4:	00074803          	lbu	a6,0(a4)
800011d8:	fd098993          	addi	s3,s3,-48
800011dc:	fd080793          	addi	a5,a6,-48
800011e0:	00080693          	mv	a3,a6
800011e4:	fcf57ee3          	bgeu	a0,a5,800011c0 <vprintfmt+0x148>
800011e8:	f20a54e3          	bgez	s4,80001110 <vprintfmt+0x98>
800011ec:	00098a13          	mv	s4,s3
800011f0:	fff00993          	li	s3,-1
800011f4:	f1dff06f          	j	80001110 <vprintfmt+0x98>
800011f8:	00174683          	lbu	a3,1(a4)
800011fc:	00040713          	mv	a4,s0
80001200:	f11ff06f          	j	80001110 <vprintfmt+0x98>
80001204:	00048593          	mv	a1,s1
80001208:	02500513          	li	a0,37
8000120c:	000900e7          	jalr	s2
80001210:	ed5ff06f          	j	800010e4 <vprintfmt+0x6c>
80001214:	00812783          	lw	a5,8(sp)
80001218:	00174683          	lbu	a3,1(a4)
8000121c:	00040713          	mv	a4,s0
80001220:	0007a983          	lw	s3,0(a5)
80001224:	00478793          	addi	a5,a5,4
80001228:	00f12423          	sw	a5,8(sp)
8000122c:	fbdff06f          	j	800011e8 <vprintfmt+0x170>
80001230:	03000513          	li	a0,48
80001234:	00048593          	mv	a1,s1
80001238:	000900e7          	jalr	s2
8000123c:	00048593          	mv	a1,s1
80001240:	07800513          	li	a0,120
80001244:	000900e7          	jalr	s2
80001248:	00812783          	lw	a5,8(sp)
8000124c:	01000c13          	li	s8,16
80001250:	00012223          	sw	zero,4(sp)
80001254:	00478713          	addi	a4,a5,4
80001258:	00812783          	lw	a5,8(sp)
8000125c:	00000d93          	li	s11,0
80001260:	0007a983          	lw	s3,0(a5)
80001264:	00e12423          	sw	a4,8(sp)
80001268:	000c0613          	mv	a2,s8
8000126c:	00000693          	li	a3,0
80001270:	00098513          	mv	a0,s3
80001274:	000d8593          	mv	a1,s11
80001278:	1bc010ef          	jal	ra,80002434 <__umoddi3>
8000127c:	00a12823          	sw	a0,16(sp)
80001280:	00000793          	li	a5,0
80001284:	00050c93          	mv	s9,a0
80001288:	23b78063          	beq	a5,s11,800014a8 <vprintfmt+0x430>
8000128c:	01410b13          	addi	s6,sp,20
80001290:	00100d13          	li	s10,1
80001294:	000c0613          	mv	a2,s8
80001298:	00000693          	li	a3,0
8000129c:	00098513          	mv	a0,s3
800012a0:	000d8593          	mv	a1,s11
800012a4:	55d000ef          	jal	ra,80002000 <__udivdi3>
800012a8:	000c0613          	mv	a2,s8
800012ac:	00000693          	li	a3,0
800012b0:	00050993          	mv	s3,a0
800012b4:	00058d93          	mv	s11,a1
800012b8:	17c010ef          	jal	ra,80002434 <__umoddi3>
800012bc:	00412783          	lw	a5,4(sp)
800012c0:	00ab2023          	sw	a0,0(s6)
800012c4:	01a12023          	sw	s10,0(sp)
800012c8:	00050c93          	mv	s9,a0
800012cc:	004b0b13          	addi	s6,s6,4
800012d0:	001d0d13          	addi	s10,s10,1
800012d4:	fdb790e3          	bne	a5,s11,80001294 <vprintfmt+0x21c>
800012d8:	fb89fee3          	bgeu	s3,s8,80001294 <vprintfmt+0x21c>
800012dc:	014d5c63          	bge	s10,s4,800012f4 <vprintfmt+0x27c>
800012e0:	fffa0a13          	addi	s4,s4,-1
800012e4:	00048593          	mv	a1,s1
800012e8:	000b8513          	mv	a0,s7
800012ec:	000900e7          	jalr	s2
800012f0:	ff4d48e3          	blt	s10,s4,800012e0 <vprintfmt+0x268>
800012f4:	00012783          	lw	a5,0(sp)
800012f8:	00c12703          	lw	a4,12(sp)
800012fc:	00900993          	li	s3,9
80001300:	00e78a33          	add	s4,a5,a4
80001304:	002a1a13          	slli	s4,s4,0x2
80001308:	01010793          	addi	a5,sp,16
8000130c:	01478a33          	add	s4,a5,s4
80001310:	00c0006f          	j	8000131c <vprintfmt+0x2a4>
80001314:	000a2c83          	lw	s9,0(s4)
80001318:	ffca0a13          	addi	s4,s4,-4
8000131c:	0199b7b3          	sltu	a5,s3,s9
80001320:	40f007b3          	neg	a5,a5
80001324:	0277f793          	andi	a5,a5,39
80001328:	03078793          	addi	a5,a5,48
8000132c:	01978533          	add	a0,a5,s9
80001330:	00048593          	mv	a1,s1
80001334:	000900e7          	jalr	s2
80001338:	00c10793          	addi	a5,sp,12
8000133c:	fd479ce3          	bne	a5,s4,80001314 <vprintfmt+0x29c>
80001340:	da5ff06f          	j	800010e4 <vprintfmt+0x6c>
80001344:	00100793          	li	a5,1
80001348:	16b7cc63          	blt	a5,a1,800014c0 <vprintfmt+0x448>
8000134c:	00812703          	lw	a4,8(sp)
80001350:	00470793          	addi	a5,a4,4
80001354:	18058663          	beqz	a1,800014e0 <vprintfmt+0x468>
80001358:	00072983          	lw	s3,0(a4)
8000135c:	00f12423          	sw	a5,8(sp)
80001360:	41f9dc13          	srai	s8,s3,0x1f
80001364:	180c4e63          	bltz	s8,80001500 <vprintfmt+0x488>
80001368:	000c0d93          	mv	s11,s8
8000136c:	00012223          	sw	zero,4(sp)
80001370:	00a00c13          	li	s8,10
80001374:	ef5ff06f          	j	80001268 <vprintfmt+0x1f0>
80001378:	01000c13          	li	s8,16
8000137c:	00012223          	sw	zero,4(sp)
80001380:	00100793          	li	a5,1
80001384:	10b7c263          	blt	a5,a1,80001488 <vprintfmt+0x410>
80001388:	00812783          	lw	a5,8(sp)
8000138c:	00478713          	addi	a4,a5,4
80001390:	ec9ff06f          	j	80001258 <vprintfmt+0x1e0>
80001394:	00812783          	lw	a5,8(sp)
80001398:	0007ad83          	lw	s11,0(a5)
8000139c:	00478b13          	addi	s6,a5,4
800013a0:	180d8463          	beqz	s11,80001528 <vprintfmt+0x4b0>
800013a4:	09405863          	blez	s4,80001434 <vprintfmt+0x3bc>
800013a8:	02d00793          	li	a5,45
800013ac:	04fb9e63          	bne	s7,a5,80001408 <vprintfmt+0x390>
800013b0:	000dc503          	lbu	a0,0(s11)
800013b4:	02050863          	beqz	a0,800013e4 <vprintfmt+0x36c>
800013b8:	fff00b93          	li	s7,-1
800013bc:	0009c663          	bltz	s3,800013c8 <vprintfmt+0x350>
800013c0:	fff98993          	addi	s3,s3,-1
800013c4:	01798e63          	beq	s3,s7,800013e0 <vprintfmt+0x368>
800013c8:	00048593          	mv	a1,s1
800013cc:	001d8d93          	addi	s11,s11,1
800013d0:	000900e7          	jalr	s2
800013d4:	000dc503          	lbu	a0,0(s11)
800013d8:	fffa0a13          	addi	s4,s4,-1
800013dc:	fe0510e3          	bnez	a0,800013bc <vprintfmt+0x344>
800013e0:	01405c63          	blez	s4,800013f8 <vprintfmt+0x380>
800013e4:	fffa0a13          	addi	s4,s4,-1
800013e8:	00048593          	mv	a1,s1
800013ec:	02000513          	li	a0,32
800013f0:	000900e7          	jalr	s2
800013f4:	fe0a18e3          	bnez	s4,800013e4 <vprintfmt+0x36c>
800013f8:	01612423          	sw	s6,8(sp)
800013fc:	ce9ff06f          	j	800010e4 <vprintfmt+0x6c>
80001400:	00001d97          	auipc	s11,0x1
80001404:	558d8d93          	addi	s11,s11,1368 # 80002958 <main+0x114>
80001408:	000d8793          	mv	a5,s11
8000140c:	013d86b3          	add	a3,s11,s3
80001410:	00099863          	bnez	s3,80001420 <vprintfmt+0x3a8>
80001414:	1340006f          	j	80001548 <vprintfmt+0x4d0>
80001418:	00178793          	addi	a5,a5,1
8000141c:	00d78663          	beq	a5,a3,80001428 <vprintfmt+0x3b0>
80001420:	0007c703          	lbu	a4,0(a5)
80001424:	fe071ae3          	bnez	a4,80001418 <vprintfmt+0x3a0>
80001428:	41b787b3          	sub	a5,a5,s11
8000142c:	40fa0a33          	sub	s4,s4,a5
80001430:	11404c63          	bgtz	s4,80001548 <vprintfmt+0x4d0>
80001434:	000dc503          	lbu	a0,0(s11)
80001438:	fc0500e3          	beqz	a0,800013f8 <vprintfmt+0x380>
8000143c:	fff00b93          	li	s7,-1
80001440:	f7dff06f          	j	800013bc <vprintfmt+0x344>
80001444:	fffa4793          	not	a5,s4
80001448:	41f7d793          	srai	a5,a5,0x1f
8000144c:	00174683          	lbu	a3,1(a4)
80001450:	00fa7a33          	and	s4,s4,a5
80001454:	00040713          	mv	a4,s0
80001458:	cb9ff06f          	j	80001110 <vprintfmt+0x98>
8000145c:	00812783          	lw	a5,8(sp)
80001460:	00048593          	mv	a1,s1
80001464:	0007a503          	lw	a0,0(a5)
80001468:	00478b13          	addi	s6,a5,4
8000146c:	000900e7          	jalr	s2
80001470:	01612423          	sw	s6,8(sp)
80001474:	c71ff06f          	j	800010e4 <vprintfmt+0x6c>
80001478:	00174683          	lbu	a3,1(a4)
8000147c:	00158593          	addi	a1,a1,1
80001480:	00040713          	mv	a4,s0
80001484:	c8dff06f          	j	80001110 <vprintfmt+0x98>
80001488:	00812783          	lw	a5,8(sp)
8000148c:	00778b13          	addi	s6,a5,7
80001490:	ff8b7b13          	andi	s6,s6,-8
80001494:	008b0793          	addi	a5,s6,8
80001498:	000b2983          	lw	s3,0(s6)
8000149c:	004b2d83          	lw	s11,4(s6)
800014a0:	00f12423          	sw	a5,8(sp)
800014a4:	dc5ff06f          	j	80001268 <vprintfmt+0x1f0>
800014a8:	df89f2e3          	bgeu	s3,s8,8000128c <vprintfmt+0x214>
800014ac:	00100793          	li	a5,1
800014b0:	00012023          	sw	zero,0(sp)
800014b4:	00100d13          	li	s10,1
800014b8:	e347c4e3          	blt	a5,s4,800012e0 <vprintfmt+0x268>
800014bc:	e39ff06f          	j	800012f4 <vprintfmt+0x27c>
800014c0:	00812783          	lw	a5,8(sp)
800014c4:	00778b13          	addi	s6,a5,7
800014c8:	ff8b7b13          	andi	s6,s6,-8
800014cc:	008b0793          	addi	a5,s6,8
800014d0:	000b2983          	lw	s3,0(s6)
800014d4:	004b2c03          	lw	s8,4(s6)
800014d8:	00f12423          	sw	a5,8(sp)
800014dc:	e89ff06f          	j	80001364 <vprintfmt+0x2ec>
800014e0:	00812703          	lw	a4,8(sp)
800014e4:	e75ff06f          	j	80001358 <vprintfmt+0x2e0>
800014e8:	00800c13          	li	s8,8
800014ec:	00012223          	sw	zero,4(sp)
800014f0:	e91ff06f          	j	80001380 <vprintfmt+0x308>
800014f4:	00a00c13          	li	s8,10
800014f8:	00012223          	sw	zero,4(sp)
800014fc:	e85ff06f          	j	80001380 <vprintfmt+0x308>
80001500:	00048593          	mv	a1,s1
80001504:	02d00513          	li	a0,45
80001508:	000900e7          	jalr	s2
8000150c:	01303733          	snez	a4,s3
80001510:	418007b3          	neg	a5,s8
80001514:	413009b3          	neg	s3,s3
80001518:	40e78db3          	sub	s11,a5,a4
8000151c:	00a00c13          	li	s8,10
80001520:	00012223          	sw	zero,4(sp)
80001524:	d45ff06f          	j	80001268 <vprintfmt+0x1f0>
80001528:	01405663          	blez	s4,80001534 <vprintfmt+0x4bc>
8000152c:	02d00793          	li	a5,45
80001530:	ecfb98e3          	bne	s7,a5,80001400 <vprintfmt+0x388>
80001534:	00001d97          	auipc	s11,0x1
80001538:	424d8d93          	addi	s11,s11,1060 # 80002958 <main+0x114>
8000153c:	02800513          	li	a0,40
80001540:	fff00b93          	li	s7,-1
80001544:	e79ff06f          	j	800013bc <vprintfmt+0x344>
80001548:	fffa0a13          	addi	s4,s4,-1
8000154c:	00048593          	mv	a1,s1
80001550:	000b8513          	mv	a0,s7
80001554:	000900e7          	jalr	s2
80001558:	ec0a0ee3          	beqz	s4,80001434 <vprintfmt+0x3bc>
8000155c:	fffa0a13          	addi	s4,s4,-1
80001560:	00048593          	mv	a1,s1
80001564:	000b8513          	mv	a0,s7
80001568:	000900e7          	jalr	s2
8000156c:	fc0a1ee3          	bnez	s4,80001548 <vprintfmt+0x4d0>
80001570:	ec5ff06f          	j	80001434 <vprintfmt+0x3bc>

80001574 <sprintf_putch.3055>:
80001574:	0005a783          	lw	a5,0(a1)
80001578:	00a78023          	sb	a0,0(a5)
8000157c:	0005a783          	lw	a5,0(a1)
80001580:	00178793          	addi	a5,a5,1
80001584:	00f5a023          	sw	a5,0(a1)
80001588:	00008067          	ret

8000158c <syscall.constprop.0>:
8000158c:	f8010113          	addi	sp,sp,-128
80001590:	03f10813          	addi	a6,sp,63
80001594:	fc087813          	andi	a6,a6,-64
80001598:	04000713          	li	a4,64
8000159c:	00e82023          	sw	a4,0(a6)
800015a0:	00000793          	li	a5,0
800015a4:	00f82223          	sw	a5,4(a6)
800015a8:	00100713          	li	a4,1
800015ac:	00e82423          	sw	a4,8(a6)
800015b0:	00000793          	li	a5,0
800015b4:	00f82623          	sw	a5,12(a6)
800015b8:	00a82823          	sw	a0,16(a6)
800015bc:	00b82a23          	sw	a1,20(a6)
800015c0:	00c82c23          	sw	a2,24(a6)
800015c4:	00d82e23          	sw	a3,28(a6)
800015c8:	0ff0000f          	fence
800015cc:	00000697          	auipc	a3,0x0
800015d0:	a3468693          	addi	a3,a3,-1484 # 80001000 <tohost>
800015d4:	0106a023          	sw	a6,0(a3)
800015d8:	00000793          	li	a5,0
800015dc:	00f6a223          	sw	a5,4(a3)
800015e0:	00000697          	auipc	a3,0x0
800015e4:	a6068693          	addi	a3,a3,-1440 # 80001040 <fromhost>
800015e8:	0006a703          	lw	a4,0(a3)
800015ec:	0046a783          	lw	a5,4(a3)
800015f0:	00f76733          	or	a4,a4,a5
800015f4:	fe070ae3          	beqz	a4,800015e8 <syscall.constprop.0+0x5c>
800015f8:	00000713          	li	a4,0
800015fc:	00e6a023          	sw	a4,0(a3)
80001600:	00000793          	li	a5,0
80001604:	00f6a223          	sw	a5,4(a3)
80001608:	0ff0000f          	fence
8000160c:	00082503          	lw	a0,0(a6)
80001610:	00482583          	lw	a1,4(a6)
80001614:	08010113          	addi	sp,sp,128
80001618:	00008067          	ret

8000161c <putchar>:
8000161c:	ff010113          	addi	sp,sp,-16
80001620:	00812423          	sw	s0,8(sp)
80001624:	04022583          	lw	a1,64(tp) # 40 <buflen.2941>
80001628:	00020793          	mv	a5,tp
8000162c:	00112623          	sw	ra,12(sp)
80001630:	00b787b3          	add	a5,a5,a1
80001634:	00158613          	addi	a2,a1,1
80001638:	00a78023          	sb	a0,0(a5)
8000163c:	04c22023          	sw	a2,64(tp) # 40 <buflen.2941>
80001640:	00a00793          	li	a5,10
80001644:	02f50063          	beq	a0,a5,80001664 <putchar+0x48>
80001648:	04000793          	li	a5,64
8000164c:	00f60c63          	beq	a2,a5,80001664 <putchar+0x48>
80001650:	00c12083          	lw	ra,12(sp)
80001654:	00812403          	lw	s0,8(sp)
80001658:	00000513          	li	a0,0
8000165c:	01010113          	addi	sp,sp,16
80001660:	00008067          	ret
80001664:	41f65693          	srai	a3,a2,0x1f
80001668:	00020513          	mv	a0,tp
8000166c:	00000593          	li	a1,0
80001670:	f1dff0ef          	jal	ra,8000158c <syscall.constprop.0>
80001674:	00c12083          	lw	ra,12(sp)
80001678:	04022023          	sw	zero,64(tp) # 40 <buflen.2941>
8000167c:	00812403          	lw	s0,8(sp)
80001680:	00000513          	li	a0,0
80001684:	01010113          	addi	sp,sp,16
80001688:	00008067          	ret

8000168c <setStats>:
8000168c:	b0002773          	csrr	a4,mcycle
80001690:	00002797          	auipc	a5,0x2
80001694:	3c878793          	addi	a5,a5,968 # 80003a58 <counters>
80001698:	00051e63          	bnez	a0,800016b4 <setStats+0x28>
8000169c:	0007a683          	lw	a3,0(a5)
800016a0:	00001617          	auipc	a2,0x1
800016a4:	2c060613          	addi	a2,a2,704 # 80002960 <main+0x11c>
800016a8:	00002597          	auipc	a1,0x2
800016ac:	3ac5a423          	sw	a2,936(a1) # 80003a50 <counter_names>
800016b0:	40d70733          	sub	a4,a4,a3
800016b4:	00e7a023          	sw	a4,0(a5)
800016b8:	b0202773          	csrr	a4,minstret
800016bc:	00051e63          	bnez	a0,800016d8 <setStats+0x4c>
800016c0:	0047a683          	lw	a3,4(a5)
800016c4:	00001617          	auipc	a2,0x1
800016c8:	2a460613          	addi	a2,a2,676 # 80002968 <main+0x124>
800016cc:	00002597          	auipc	a1,0x2
800016d0:	38c5a423          	sw	a2,904(a1) # 80003a54 <counter_names+0x4>
800016d4:	40d70733          	sub	a4,a4,a3
800016d8:	00e7a223          	sw	a4,4(a5)
800016dc:	00008067          	ret

800016e0 <tohost_exit>:
800016e0:	00151693          	slli	a3,a0,0x1
800016e4:	0016e713          	ori	a4,a3,1
800016e8:	00000697          	auipc	a3,0x0
800016ec:	91868693          	addi	a3,a3,-1768 # 80001000 <tohost>
800016f0:	00000793          	li	a5,0
800016f4:	00e6a023          	sw	a4,0(a3)
800016f8:	00f6a223          	sw	a5,4(a3)
800016fc:	0000006f          	j	800016fc <tohost_exit+0x1c>

80001700 <handle_trap>:
80001700:	00001637          	lui	a2,0x1
80001704:	00000797          	auipc	a5,0x0
80001708:	8fc78793          	addi	a5,a5,-1796 # 80001000 <tohost>
8000170c:	a7360613          	addi	a2,a2,-1421 # a73 <buflen.2941+0xa33>
80001710:	00000693          	li	a3,0
80001714:	00c7a023          	sw	a2,0(a5)
80001718:	00d7a223          	sw	a3,4(a5)
8000171c:	0000006f          	j	8000171c <handle_trap+0x1c>

80001720 <exit>:
80001720:	ff010113          	addi	sp,sp,-16
80001724:	00112623          	sw	ra,12(sp)
80001728:	fb9ff0ef          	jal	ra,800016e0 <tohost_exit>

8000172c <abort>:
8000172c:	00000797          	auipc	a5,0x0
80001730:	8d478793          	addi	a5,a5,-1836 # 80001000 <tohost>
80001734:	10d00613          	li	a2,269
80001738:	00000693          	li	a3,0
8000173c:	00c7a023          	sw	a2,0(a5)
80001740:	00d7a223          	sw	a3,4(a5)
80001744:	0000006f          	j	80001744 <abort+0x18>

80001748 <printstr>:
80001748:	00054783          	lbu	a5,0(a0)
8000174c:	02078263          	beqz	a5,80001770 <printstr+0x28>
80001750:	00050613          	mv	a2,a0
80001754:	00164783          	lbu	a5,1(a2)
80001758:	00160613          	addi	a2,a2,1
8000175c:	fe079ce3          	bnez	a5,80001754 <printstr+0xc>
80001760:	40a60633          	sub	a2,a2,a0
80001764:	00000693          	li	a3,0
80001768:	00000593          	li	a1,0
8000176c:	e21ff06f          	j	8000158c <syscall.constprop.0>
80001770:	00000613          	li	a2,0
80001774:	00000693          	li	a3,0
80001778:	00000593          	li	a1,0
8000177c:	e11ff06f          	j	8000158c <syscall.constprop.0>

80001780 <thread_entry>:
80001780:	00051063          	bnez	a0,80001780 <thread_entry>
80001784:	00008067          	ret

80001788 <printhex>:
80001788:	fd010113          	addi	sp,sp,-48
8000178c:	00050713          	mv	a4,a0
80001790:	02112623          	sw	ra,44(sp)
80001794:	00c10513          	addi	a0,sp,12
80001798:	01b10613          	addi	a2,sp,27
8000179c:	00900813          	li	a6,9
800017a0:	0080006f          	j	800017a8 <printhex+0x20>
800017a4:	00078613          	mv	a2,a5
800017a8:	00f77793          	andi	a5,a4,15
800017ac:	00f837b3          	sltu	a5,a6,a5
800017b0:	40f007b3          	neg	a5,a5
800017b4:	0277f793          	andi	a5,a5,39
800017b8:	00f77693          	andi	a3,a4,15
800017bc:	03078793          	addi	a5,a5,48
800017c0:	00f687b3          	add	a5,a3,a5
800017c4:	00f60023          	sb	a5,0(a2)
800017c8:	01c59693          	slli	a3,a1,0x1c
800017cc:	00475713          	srli	a4,a4,0x4
800017d0:	fff60793          	addi	a5,a2,-1
800017d4:	00e6e733          	or	a4,a3,a4
800017d8:	0045d593          	srli	a1,a1,0x4
800017dc:	fcc514e3          	bne	a0,a2,800017a4 <printhex+0x1c>
800017e0:	00010e23          	sb	zero,28(sp)
800017e4:	f65ff0ef          	jal	ra,80001748 <printstr>
800017e8:	02c12083          	lw	ra,44(sp)
800017ec:	03010113          	addi	sp,sp,48
800017f0:	00008067          	ret

800017f4 <printf>:
800017f4:	fc010113          	addi	sp,sp,-64
800017f8:	02410313          	addi	t1,sp,36
800017fc:	00050e13          	mv	t3,a0
80001800:	02b12223          	sw	a1,36(sp)
80001804:	02c12423          	sw	a2,40(sp)
80001808:	02d12623          	sw	a3,44(sp)
8000180c:	00000517          	auipc	a0,0x0
80001810:	e1050513          	addi	a0,a0,-496 # 8000161c <putchar>
80001814:	00030693          	mv	a3,t1
80001818:	000e0613          	mv	a2,t3
8000181c:	00000593          	li	a1,0
80001820:	00112e23          	sw	ra,28(sp)
80001824:	02e12823          	sw	a4,48(sp)
80001828:	02f12a23          	sw	a5,52(sp)
8000182c:	03012c23          	sw	a6,56(sp)
80001830:	03112e23          	sw	a7,60(sp)
80001834:	00612623          	sw	t1,12(sp)
80001838:	841ff0ef          	jal	ra,80001078 <vprintfmt>
8000183c:	01c12083          	lw	ra,28(sp)
80001840:	00000513          	li	a0,0
80001844:	04010113          	addi	sp,sp,64
80001848:	00008067          	ret

8000184c <sprintf>:
8000184c:	fb010113          	addi	sp,sp,-80
80001850:	03810313          	addi	t1,sp,56
80001854:	02812423          	sw	s0,40(sp)
80001858:	00a12623          	sw	a0,12(sp)
8000185c:	02c12c23          	sw	a2,56(sp)
80001860:	02d12e23          	sw	a3,60(sp)
80001864:	00050413          	mv	s0,a0
80001868:	00058613          	mv	a2,a1
8000186c:	00000517          	auipc	a0,0x0
80001870:	d0850513          	addi	a0,a0,-760 # 80001574 <sprintf_putch.3055>
80001874:	00c10593          	addi	a1,sp,12
80001878:	00030693          	mv	a3,t1
8000187c:	02112623          	sw	ra,44(sp)
80001880:	04f12223          	sw	a5,68(sp)
80001884:	04e12023          	sw	a4,64(sp)
80001888:	05012423          	sw	a6,72(sp)
8000188c:	05112623          	sw	a7,76(sp)
80001890:	00612e23          	sw	t1,28(sp)
80001894:	fe4ff0ef          	jal	ra,80001078 <vprintfmt>
80001898:	00c12783          	lw	a5,12(sp)
8000189c:	00078023          	sb	zero,0(a5)
800018a0:	00c12503          	lw	a0,12(sp)
800018a4:	02c12083          	lw	ra,44(sp)
800018a8:	40850533          	sub	a0,a0,s0
800018ac:	02812403          	lw	s0,40(sp)
800018b0:	05010113          	addi	sp,sp,80
800018b4:	00008067          	ret

800018b8 <memcpy>:
800018b8:	00c5e7b3          	or	a5,a1,a2
800018bc:	00f567b3          	or	a5,a0,a5
800018c0:	0037f793          	andi	a5,a5,3
800018c4:	00c506b3          	add	a3,a0,a2
800018c8:	02078463          	beqz	a5,800018f0 <memcpy+0x38>
800018cc:	00c58633          	add	a2,a1,a2
800018d0:	00050793          	mv	a5,a0
800018d4:	02d57e63          	bgeu	a0,a3,80001910 <memcpy+0x58>
800018d8:	0005c703          	lbu	a4,0(a1)
800018dc:	00158593          	addi	a1,a1,1
800018e0:	00178793          	addi	a5,a5,1
800018e4:	fee78fa3          	sb	a4,-1(a5)
800018e8:	feb618e3          	bne	a2,a1,800018d8 <memcpy+0x20>
800018ec:	00008067          	ret
800018f0:	fed57ee3          	bgeu	a0,a3,800018ec <memcpy+0x34>
800018f4:	00050793          	mv	a5,a0
800018f8:	0005a703          	lw	a4,0(a1)
800018fc:	00478793          	addi	a5,a5,4
80001900:	00458593          	addi	a1,a1,4
80001904:	fee7ae23          	sw	a4,-4(a5)
80001908:	fed7e8e3          	bltu	a5,a3,800018f8 <memcpy+0x40>
8000190c:	00008067          	ret
80001910:	00008067          	ret

80001914 <memset>:
80001914:	00c567b3          	or	a5,a0,a2
80001918:	0037f793          	andi	a5,a5,3
8000191c:	00c50633          	add	a2,a0,a2
80001920:	02078063          	beqz	a5,80001940 <memset+0x2c>
80001924:	0ff5f593          	andi	a1,a1,255
80001928:	00050793          	mv	a5,a0
8000192c:	04c57063          	bgeu	a0,a2,8000196c <memset+0x58>
80001930:	00178793          	addi	a5,a5,1
80001934:	feb78fa3          	sb	a1,-1(a5)
80001938:	fef61ce3          	bne	a2,a5,80001930 <memset+0x1c>
8000193c:	00008067          	ret
80001940:	0ff5f593          	andi	a1,a1,255
80001944:	00859713          	slli	a4,a1,0x8
80001948:	00e5e733          	or	a4,a1,a4
8000194c:	01071793          	slli	a5,a4,0x10
80001950:	00f76733          	or	a4,a4,a5
80001954:	fec574e3          	bgeu	a0,a2,8000193c <memset+0x28>
80001958:	00050793          	mv	a5,a0
8000195c:	00478793          	addi	a5,a5,4
80001960:	fee7ae23          	sw	a4,-4(a5)
80001964:	fec7ece3          	bltu	a5,a2,8000195c <memset+0x48>
80001968:	00008067          	ret
8000196c:	00008067          	ret

80001970 <_init>:
80001970:	f6010113          	addi	sp,sp,-160
80001974:	00002797          	auipc	a5,0x2
80001978:	0ec78793          	addi	a5,a5,236 # 80003a60 <_tdata_begin>
8000197c:	09412423          	sw	s4,136(sp)
80001980:	00002a17          	auipc	s4,0x2
80001984:	0e0a0a13          	addi	s4,s4,224 # 80003a60 <_tdata_begin>
80001988:	09312623          	sw	s3,140(sp)
8000198c:	40fa09b3          	sub	s3,s4,a5
80001990:	08912a23          	sw	s1,148(sp)
80001994:	09212823          	sw	s2,144(sp)
80001998:	00050493          	mv	s1,a0
8000199c:	00058913          	mv	s2,a1
800019a0:	00020513          	mv	a0,tp
800019a4:	00078593          	mv	a1,a5
800019a8:	00098613          	mv	a2,s3
800019ac:	08112e23          	sw	ra,156(sp)
800019b0:	08812c23          	sw	s0,152(sp)
800019b4:	09512223          	sw	s5,132(sp)
800019b8:	00020a93          	mv	s5,tp
800019bc:	efdff0ef          	jal	ra,800018b8 <memcpy>
800019c0:	87418613          	addi	a2,gp,-1932 # 80003ac4 <_tbss_end>
800019c4:	41460633          	sub	a2,a2,s4
800019c8:	00000593          	li	a1,0
800019cc:	013a8533          	add	a0,s5,s3
800019d0:	f45ff0ef          	jal	ra,80001914 <memset>
800019d4:	00090593          	mv	a1,s2
800019d8:	00048513          	mv	a0,s1
800019dc:	da5ff0ef          	jal	ra,80001780 <thread_entry>
800019e0:	00000593          	li	a1,0
800019e4:	00000513          	li	a0,0
800019e8:	65d000ef          	jal	ra,80002844 <main>
800019ec:	00002917          	auipc	s2,0x2
800019f0:	06c90913          	addi	s2,s2,108 # 80003a58 <counters>
800019f4:	00092683          	lw	a3,0(s2)
800019f8:	03f10413          	addi	s0,sp,63
800019fc:	fc047413          	andi	s0,s0,-64
80001a00:	00050493          	mv	s1,a0
80001a04:	04069463          	bnez	a3,80001a4c <_init+0xdc>
80001a08:	00492683          	lw	a3,4(s2)
80001a0c:	00069663          	bnez	a3,80001a18 <_init+0xa8>
80001a10:	00048513          	mv	a0,s1
80001a14:	ccdff0ef          	jal	ra,800016e0 <tohost_exit>
80001a18:	00040913          	mv	s2,s0
80001a1c:	00002997          	auipc	s3,0x2
80001a20:	03498993          	addi	s3,s3,52 # 80003a50 <counter_names>
80001a24:	0049a603          	lw	a2,4(s3)
80001a28:	00090513          	mv	a0,s2
80001a2c:	00001597          	auipc	a1,0x1
80001a30:	f6058593          	addi	a1,a1,-160 # 8000298c <main+0x148>
80001a34:	e19ff0ef          	jal	ra,8000184c <sprintf>
80001a38:	00a90933          	add	s2,s2,a0
80001a3c:	fd240ae3          	beq	s0,s2,80001a10 <_init+0xa0>
80001a40:	00040513          	mv	a0,s0
80001a44:	d05ff0ef          	jal	ra,80001748 <printstr>
80001a48:	fc9ff06f          	j	80001a10 <_init+0xa0>
80001a4c:	00002997          	auipc	s3,0x2
80001a50:	00498993          	addi	s3,s3,4 # 80003a50 <counter_names>
80001a54:	0009a603          	lw	a2,0(s3)
80001a58:	00001597          	auipc	a1,0x1
80001a5c:	f3458593          	addi	a1,a1,-204 # 8000298c <main+0x148>
80001a60:	00040513          	mv	a0,s0
80001a64:	de9ff0ef          	jal	ra,8000184c <sprintf>
80001a68:	00492683          	lw	a3,4(s2)
80001a6c:	00a40933          	add	s2,s0,a0
80001a70:	fc0686e3          	beqz	a3,80001a3c <_init+0xcc>
80001a74:	fb1ff06f          	j	80001a24 <_init+0xb4>

80001a78 <strlen>:
80001a78:	00054783          	lbu	a5,0(a0)
80001a7c:	00078e63          	beqz	a5,80001a98 <strlen+0x20>
80001a80:	00050793          	mv	a5,a0
80001a84:	0017c703          	lbu	a4,1(a5)
80001a88:	00178793          	addi	a5,a5,1
80001a8c:	fe071ce3          	bnez	a4,80001a84 <strlen+0xc>
80001a90:	40a78533          	sub	a0,a5,a0
80001a94:	00008067          	ret
80001a98:	00000513          	li	a0,0
80001a9c:	00008067          	ret

80001aa0 <strnlen>:
80001aa0:	00050613          	mv	a2,a0
80001aa4:	00b606b3          	add	a3,a2,a1
80001aa8:	00058513          	mv	a0,a1
80001aac:	00060793          	mv	a5,a2
80001ab0:	00059863          	bnez	a1,80001ac0 <strnlen+0x20>
80001ab4:	01c0006f          	j	80001ad0 <strnlen+0x30>
80001ab8:	00178793          	addi	a5,a5,1
80001abc:	00f68863          	beq	a3,a5,80001acc <strnlen+0x2c>
80001ac0:	0007c703          	lbu	a4,0(a5)
80001ac4:	fe071ae3          	bnez	a4,80001ab8 <strnlen+0x18>
80001ac8:	40c78533          	sub	a0,a5,a2
80001acc:	00008067          	ret
80001ad0:	00008067          	ret

80001ad4 <strcmp>:
80001ad4:	00054783          	lbu	a5,0(a0)
80001ad8:	00158593          	addi	a1,a1,1
80001adc:	00150513          	addi	a0,a0,1
80001ae0:	fff5c703          	lbu	a4,-1(a1)
80001ae4:	00078863          	beqz	a5,80001af4 <strcmp+0x20>
80001ae8:	fee786e3          	beq	a5,a4,80001ad4 <strcmp>
80001aec:	40e78533          	sub	a0,a5,a4
80001af0:	00008067          	ret
80001af4:	00000793          	li	a5,0
80001af8:	ff5ff06f          	j	80001aec <strcmp+0x18>

80001afc <strcpy>:
80001afc:	00050793          	mv	a5,a0
80001b00:	0005c703          	lbu	a4,0(a1)
80001b04:	00178793          	addi	a5,a5,1
80001b08:	00158593          	addi	a1,a1,1
80001b0c:	fee78fa3          	sb	a4,-1(a5)
80001b10:	fe0718e3          	bnez	a4,80001b00 <strcpy+0x4>
80001b14:	00008067          	ret

80001b18 <atol>:
80001b18:	00054703          	lbu	a4,0(a0)
80001b1c:	02000693          	li	a3,32
80001b20:	00050793          	mv	a5,a0
80001b24:	00d71863          	bne	a4,a3,80001b34 <atol+0x1c>
80001b28:	0017c703          	lbu	a4,1(a5)
80001b2c:	00178793          	addi	a5,a5,1
80001b30:	fed70ce3          	beq	a4,a3,80001b28 <atol+0x10>
80001b34:	02d00693          	li	a3,45
80001b38:	06d70063          	beq	a4,a3,80001b98 <atol+0x80>
80001b3c:	02b00693          	li	a3,43
80001b40:	04d70063          	beq	a4,a3,80001b80 <atol+0x68>
80001b44:	0007c683          	lbu	a3,0(a5)
80001b48:	00000593          	li	a1,0
80001b4c:	04068263          	beqz	a3,80001b90 <atol+0x78>
80001b50:	00000513          	li	a0,0
80001b54:	00178793          	addi	a5,a5,1
80001b58:	fd068613          	addi	a2,a3,-48
80001b5c:	00251713          	slli	a4,a0,0x2
80001b60:	0007c683          	lbu	a3,0(a5)
80001b64:	00a70533          	add	a0,a4,a0
80001b68:	00151513          	slli	a0,a0,0x1
80001b6c:	00a60533          	add	a0,a2,a0
80001b70:	fe0692e3          	bnez	a3,80001b54 <atol+0x3c>
80001b74:	02058063          	beqz	a1,80001b94 <atol+0x7c>
80001b78:	40a00533          	neg	a0,a0
80001b7c:	00008067          	ret
80001b80:	0017c683          	lbu	a3,1(a5)
80001b84:	00000593          	li	a1,0
80001b88:	00178793          	addi	a5,a5,1
80001b8c:	fc0692e3          	bnez	a3,80001b50 <atol+0x38>
80001b90:	00000513          	li	a0,0
80001b94:	00008067          	ret
80001b98:	0017c683          	lbu	a3,1(a5)
80001b9c:	00100593          	li	a1,1
80001ba0:	00178793          	addi	a5,a5,1
80001ba4:	fa0696e3          	bnez	a3,80001b50 <atol+0x38>
80001ba8:	00000513          	li	a0,0
80001bac:	fe9ff06f          	j	80001b94 <atol+0x7c>

80001bb0 <__moddi3>:
80001bb0:	00058f13          	mv	t5,a1
80001bb4:	00000813          	li	a6,0
80001bb8:	0005dc63          	bgez	a1,80001bd0 <__moddi3+0x20>
80001bbc:	00a037b3          	snez	a5,a0
80001bc0:	40b005b3          	neg	a1,a1
80001bc4:	40f58f33          	sub	t5,a1,a5
80001bc8:	40a00533          	neg	a0,a0
80001bcc:	fff00813          	li	a6,-1
80001bd0:	0006da63          	bgez	a3,80001be4 <__moddi3+0x34>
80001bd4:	00c035b3          	snez	a1,a2
80001bd8:	40d00733          	neg	a4,a3
80001bdc:	40b706b3          	sub	a3,a4,a1
80001be0:	40c00633          	neg	a2,a2
80001be4:	00060893          	mv	a7,a2
80001be8:	00068713          	mv	a4,a3
80001bec:	00050793          	mv	a5,a0
80001bf0:	000f0593          	mv	a1,t5
80001bf4:	24069463          	bnez	a3,80001e3c <__moddi3+0x28c>
80001bf8:	800036b7          	lui	a3,0x80003
80001bfc:	af068693          	addi	a3,a3,-1296 # 80002af0 <__global_pointer$+0xffffe8a0>
80001c00:	0ecf7663          	bgeu	t5,a2,80001cec <__moddi3+0x13c>
80001c04:	00010337          	lui	t1,0x10
80001c08:	0c667863          	bgeu	a2,t1,80001cd8 <__moddi3+0x128>
80001c0c:	0ff00313          	li	t1,255
80001c10:	00c37463          	bgeu	t1,a2,80001c18 <__moddi3+0x68>
80001c14:	00800713          	li	a4,8
80001c18:	00e65333          	srl	t1,a2,a4
80001c1c:	006686b3          	add	a3,a3,t1
80001c20:	0006ce03          	lbu	t3,0(a3)
80001c24:	00ee0e33          	add	t3,t3,a4
80001c28:	02000713          	li	a4,32
80001c2c:	41c70333          	sub	t1,a4,t3
80001c30:	01c70c63          	beq	a4,t3,80001c48 <__moddi3+0x98>
80001c34:	006f15b3          	sll	a1,t5,t1
80001c38:	01c55e33          	srl	t3,a0,t3
80001c3c:	006618b3          	sll	a7,a2,t1
80001c40:	00be65b3          	or	a1,t3,a1
80001c44:	006517b3          	sll	a5,a0,t1
80001c48:	0108d613          	srli	a2,a7,0x10
80001c4c:	02c5f6b3          	remu	a3,a1,a2
80001c50:	01089513          	slli	a0,a7,0x10
80001c54:	01055513          	srli	a0,a0,0x10
80001c58:	0107d713          	srli	a4,a5,0x10
80001c5c:	02c5d5b3          	divu	a1,a1,a2
80001c60:	01069693          	slli	a3,a3,0x10
80001c64:	00e6e733          	or	a4,a3,a4
80001c68:	02b505b3          	mul	a1,a0,a1
80001c6c:	00b77a63          	bgeu	a4,a1,80001c80 <__moddi3+0xd0>
80001c70:	01170733          	add	a4,a4,a7
80001c74:	01176663          	bltu	a4,a7,80001c80 <__moddi3+0xd0>
80001c78:	00b77463          	bgeu	a4,a1,80001c80 <__moddi3+0xd0>
80001c7c:	01170733          	add	a4,a4,a7
80001c80:	40b70733          	sub	a4,a4,a1
80001c84:	02c776b3          	remu	a3,a4,a2
80001c88:	01079793          	slli	a5,a5,0x10
80001c8c:	0107d793          	srli	a5,a5,0x10
80001c90:	02c75733          	divu	a4,a4,a2
80001c94:	02e50733          	mul	a4,a0,a4
80001c98:	01069513          	slli	a0,a3,0x10
80001c9c:	00f567b3          	or	a5,a0,a5
80001ca0:	00e7fa63          	bgeu	a5,a4,80001cb4 <__moddi3+0x104>
80001ca4:	011787b3          	add	a5,a5,a7
80001ca8:	0117e663          	bltu	a5,a7,80001cb4 <__moddi3+0x104>
80001cac:	00e7f463          	bgeu	a5,a4,80001cb4 <__moddi3+0x104>
80001cb0:	011787b3          	add	a5,a5,a7
80001cb4:	40e787b3          	sub	a5,a5,a4
80001cb8:	0067d533          	srl	a0,a5,t1
80001cbc:	00000593          	li	a1,0
80001cc0:	00080a63          	beqz	a6,80001cd4 <__moddi3+0x124>
80001cc4:	00a037b3          	snez	a5,a0
80001cc8:	40b006b3          	neg	a3,a1
80001ccc:	40f685b3          	sub	a1,a3,a5
80001cd0:	40a00533          	neg	a0,a0
80001cd4:	00008067          	ret
80001cd8:	01000337          	lui	t1,0x1000
80001cdc:	01000713          	li	a4,16
80001ce0:	f2666ce3          	bltu	a2,t1,80001c18 <__moddi3+0x68>
80001ce4:	01800713          	li	a4,24
80001ce8:	f31ff06f          	j	80001c18 <__moddi3+0x68>
80001cec:	00061663          	bnez	a2,80001cf8 <__moddi3+0x148>
80001cf0:	00100893          	li	a7,1
80001cf4:	02e8d8b3          	divu	a7,a7,a4
80001cf8:	00010637          	lui	a2,0x10
80001cfc:	12c8f663          	bgeu	a7,a2,80001e28 <__moddi3+0x278>
80001d00:	0ff00613          	li	a2,255
80001d04:	01167463          	bgeu	a2,a7,80001d0c <__moddi3+0x15c>
80001d08:	00800713          	li	a4,8
80001d0c:	00e8d633          	srl	a2,a7,a4
80001d10:	00c686b3          	add	a3,a3,a2
80001d14:	0006ce03          	lbu	t3,0(a3)
80001d18:	411f05b3          	sub	a1,t5,a7
80001d1c:	00ee0e33          	add	t3,t3,a4
80001d20:	02000713          	li	a4,32
80001d24:	41c70333          	sub	t1,a4,t3
80001d28:	09c70663          	beq	a4,t3,80001db4 <__moddi3+0x204>
80001d2c:	006898b3          	sll	a7,a7,t1
80001d30:	01cf5eb3          	srl	t4,t5,t3
80001d34:	006517b3          	sll	a5,a0,t1
80001d38:	01c55e33          	srl	t3,a0,t3
80001d3c:	0108d513          	srli	a0,a7,0x10
80001d40:	006f15b3          	sll	a1,t5,t1
80001d44:	00be6e33          	or	t3,t3,a1
80001d48:	01089593          	slli	a1,a7,0x10
80001d4c:	0105d593          	srli	a1,a1,0x10
80001d50:	010e5613          	srli	a2,t3,0x10
80001d54:	02aed6b3          	divu	a3,t4,a0
80001d58:	02aef733          	remu	a4,t4,a0
80001d5c:	02d586b3          	mul	a3,a1,a3
80001d60:	01071713          	slli	a4,a4,0x10
80001d64:	00c76733          	or	a4,a4,a2
80001d68:	00d77a63          	bgeu	a4,a3,80001d7c <__moddi3+0x1cc>
80001d6c:	01170733          	add	a4,a4,a7
80001d70:	01176663          	bltu	a4,a7,80001d7c <__moddi3+0x1cc>
80001d74:	00d77463          	bgeu	a4,a3,80001d7c <__moddi3+0x1cc>
80001d78:	01170733          	add	a4,a4,a7
80001d7c:	40d70633          	sub	a2,a4,a3
80001d80:	02a67733          	remu	a4,a2,a0
80001d84:	010e1e13          	slli	t3,t3,0x10
80001d88:	010e5e13          	srli	t3,t3,0x10
80001d8c:	02a65633          	divu	a2,a2,a0
80001d90:	01071713          	slli	a4,a4,0x10
80001d94:	02c58633          	mul	a2,a1,a2
80001d98:	01c765b3          	or	a1,a4,t3
80001d9c:	00c5fa63          	bgeu	a1,a2,80001db0 <__moddi3+0x200>
80001da0:	011585b3          	add	a1,a1,a7
80001da4:	0115e663          	bltu	a1,a7,80001db0 <__moddi3+0x200>
80001da8:	00c5f463          	bgeu	a1,a2,80001db0 <__moddi3+0x200>
80001dac:	011585b3          	add	a1,a1,a7
80001db0:	40c585b3          	sub	a1,a1,a2
80001db4:	0108d693          	srli	a3,a7,0x10
80001db8:	02d5f733          	remu	a4,a1,a3
80001dbc:	01089513          	slli	a0,a7,0x10
80001dc0:	01055513          	srli	a0,a0,0x10
80001dc4:	0107d613          	srli	a2,a5,0x10
80001dc8:	02d5d5b3          	divu	a1,a1,a3
80001dcc:	01071713          	slli	a4,a4,0x10
80001dd0:	00c76733          	or	a4,a4,a2
80001dd4:	02b505b3          	mul	a1,a0,a1
80001dd8:	00b77a63          	bgeu	a4,a1,80001dec <__moddi3+0x23c>
80001ddc:	01170733          	add	a4,a4,a7
80001de0:	01176663          	bltu	a4,a7,80001dec <__moddi3+0x23c>
80001de4:	00b77463          	bgeu	a4,a1,80001dec <__moddi3+0x23c>
80001de8:	01170733          	add	a4,a4,a7
80001dec:	40b705b3          	sub	a1,a4,a1
80001df0:	02d5f733          	remu	a4,a1,a3
80001df4:	01079793          	slli	a5,a5,0x10
80001df8:	0107d793          	srli	a5,a5,0x10
80001dfc:	02d5d5b3          	divu	a1,a1,a3
80001e00:	02b505b3          	mul	a1,a0,a1
80001e04:	01071513          	slli	a0,a4,0x10
80001e08:	00f567b3          	or	a5,a0,a5
80001e0c:	00b7fa63          	bgeu	a5,a1,80001e20 <__moddi3+0x270>
80001e10:	011787b3          	add	a5,a5,a7
80001e14:	0117e663          	bltu	a5,a7,80001e20 <__moddi3+0x270>
80001e18:	00b7f463          	bgeu	a5,a1,80001e20 <__moddi3+0x270>
80001e1c:	011787b3          	add	a5,a5,a7
80001e20:	40b787b3          	sub	a5,a5,a1
80001e24:	e95ff06f          	j	80001cb8 <__moddi3+0x108>
80001e28:	01000637          	lui	a2,0x1000
80001e2c:	01000713          	li	a4,16
80001e30:	ecc8eee3          	bltu	a7,a2,80001d0c <__moddi3+0x15c>
80001e34:	01800713          	li	a4,24
80001e38:	ed5ff06f          	j	80001d0c <__moddi3+0x15c>
80001e3c:	e8df62e3          	bltu	t5,a3,80001cc0 <__moddi3+0x110>
80001e40:	00010737          	lui	a4,0x10
80001e44:	04e6fa63          	bgeu	a3,a4,80001e98 <__moddi3+0x2e8>
80001e48:	0ff00e93          	li	t4,255
80001e4c:	00deb733          	sltu	a4,t4,a3
80001e50:	00371713          	slli	a4,a4,0x3
80001e54:	800038b7          	lui	a7,0x80003
80001e58:	00e6d333          	srl	t1,a3,a4
80001e5c:	af088893          	addi	a7,a7,-1296 # 80002af0 <__global_pointer$+0xffffe8a0>
80001e60:	006888b3          	add	a7,a7,t1
80001e64:	0008ce83          	lbu	t4,0(a7)
80001e68:	00ee8eb3          	add	t4,t4,a4
80001e6c:	02000713          	li	a4,32
80001e70:	41d70e33          	sub	t3,a4,t4
80001e74:	03d71c63          	bne	a4,t4,80001eac <__moddi3+0x2fc>
80001e78:	01e6e463          	bltu	a3,t5,80001e80 <__moddi3+0x2d0>
80001e7c:	00c56a63          	bltu	a0,a2,80001e90 <__moddi3+0x2e0>
80001e80:	40c507b3          	sub	a5,a0,a2
80001e84:	40df05b3          	sub	a1,t5,a3
80001e88:	00f53533          	sltu	a0,a0,a5
80001e8c:	40a585b3          	sub	a1,a1,a0
80001e90:	00078513          	mv	a0,a5
80001e94:	e2dff06f          	j	80001cc0 <__moddi3+0x110>
80001e98:	010008b7          	lui	a7,0x1000
80001e9c:	01000713          	li	a4,16
80001ea0:	fb16eae3          	bltu	a3,a7,80001e54 <__moddi3+0x2a4>
80001ea4:	01800713          	li	a4,24
80001ea8:	fadff06f          	j	80001e54 <__moddi3+0x2a4>
80001eac:	01d65733          	srl	a4,a2,t4
80001eb0:	01c696b3          	sll	a3,a3,t3
80001eb4:	00d76fb3          	or	t6,a4,a3
80001eb8:	01df57b3          	srl	a5,t5,t4
80001ebc:	010fd713          	srli	a4,t6,0x10
80001ec0:	02e7f333          	remu	t1,a5,a4
80001ec4:	01cf15b3          	sll	a1,t5,t3
80001ec8:	01d556b3          	srl	a3,a0,t4
80001ecc:	00b6e6b3          	or	a3,a3,a1
80001ed0:	010f9593          	slli	a1,t6,0x10
80001ed4:	0105d593          	srli	a1,a1,0x10
80001ed8:	0106d893          	srli	a7,a3,0x10
80001edc:	01c61633          	sll	a2,a2,t3
80001ee0:	01c51533          	sll	a0,a0,t3
80001ee4:	02e7d7b3          	divu	a5,a5,a4
80001ee8:	01031313          	slli	t1,t1,0x10
80001eec:	011368b3          	or	a7,t1,a7
80001ef0:	02f58f33          	mul	t5,a1,a5
80001ef4:	00078313          	mv	t1,a5
80001ef8:	01e8fe63          	bgeu	a7,t5,80001f14 <__moddi3+0x364>
80001efc:	01f888b3          	add	a7,a7,t6
80001f00:	fff78313          	addi	t1,a5,-1
80001f04:	01f8e863          	bltu	a7,t6,80001f14 <__moddi3+0x364>
80001f08:	01e8f663          	bgeu	a7,t5,80001f14 <__moddi3+0x364>
80001f0c:	ffe78313          	addi	t1,a5,-2
80001f10:	01f888b3          	add	a7,a7,t6
80001f14:	41e888b3          	sub	a7,a7,t5
80001f18:	02e8ff33          	remu	t5,a7,a4
80001f1c:	01069693          	slli	a3,a3,0x10
80001f20:	0106d693          	srli	a3,a3,0x10
80001f24:	02e8d8b3          	divu	a7,a7,a4
80001f28:	010f1f13          	slli	t5,t5,0x10
80001f2c:	00df6f33          	or	t5,t5,a3
80001f30:	031585b3          	mul	a1,a1,a7
80001f34:	00088793          	mv	a5,a7
80001f38:	00bf7e63          	bgeu	t5,a1,80001f54 <__moddi3+0x3a4>
80001f3c:	01ff0f33          	add	t5,t5,t6
80001f40:	fff88793          	addi	a5,a7,-1 # ffffff <buflen.2941+0xffffbf>
80001f44:	01ff6863          	bltu	t5,t6,80001f54 <__moddi3+0x3a4>
80001f48:	00bf7663          	bgeu	t5,a1,80001f54 <__moddi3+0x3a4>
80001f4c:	ffe88793          	addi	a5,a7,-2
80001f50:	01ff0f33          	add	t5,t5,t6
80001f54:	40bf05b3          	sub	a1,t5,a1
80001f58:	01031313          	slli	t1,t1,0x10
80001f5c:	00010f37          	lui	t5,0x10
80001f60:	00f36333          	or	t1,t1,a5
80001f64:	ffff0793          	addi	a5,t5,-1 # ffff <buflen.2941+0xffbf>
80001f68:	00f378b3          	and	a7,t1,a5
80001f6c:	01065693          	srli	a3,a2,0x10
80001f70:	01035313          	srli	t1,t1,0x10
80001f74:	00f677b3          	and	a5,a2,a5
80001f78:	02f88733          	mul	a4,a7,a5
80001f7c:	02f307b3          	mul	a5,t1,a5
80001f80:	02d888b3          	mul	a7,a7,a3
80001f84:	02d30333          	mul	t1,t1,a3
80001f88:	00f888b3          	add	a7,a7,a5
80001f8c:	01075693          	srli	a3,a4,0x10
80001f90:	011686b3          	add	a3,a3,a7
80001f94:	00f6f463          	bgeu	a3,a5,80001f9c <__moddi3+0x3ec>
80001f98:	01e30333          	add	t1,t1,t5
80001f9c:	0106d793          	srli	a5,a3,0x10
80001fa0:	00678333          	add	t1,a5,t1
80001fa4:	000107b7          	lui	a5,0x10
80001fa8:	fff78793          	addi	a5,a5,-1 # ffff <buflen.2941+0xffbf>
80001fac:	00f6f6b3          	and	a3,a3,a5
80001fb0:	01069693          	slli	a3,a3,0x10
80001fb4:	00f77733          	and	a4,a4,a5
80001fb8:	00e68733          	add	a4,a3,a4
80001fbc:	0065e663          	bltu	a1,t1,80001fc8 <__moddi3+0x418>
80001fc0:	00659e63          	bne	a1,t1,80001fdc <__moddi3+0x42c>
80001fc4:	00e57c63          	bgeu	a0,a4,80001fdc <__moddi3+0x42c>
80001fc8:	40c70633          	sub	a2,a4,a2
80001fcc:	00c73733          	sltu	a4,a4,a2
80001fd0:	01f70733          	add	a4,a4,t6
80001fd4:	40e30333          	sub	t1,t1,a4
80001fd8:	00060713          	mv	a4,a2
80001fdc:	40e50733          	sub	a4,a0,a4
80001fe0:	00e53533          	sltu	a0,a0,a4
80001fe4:	406585b3          	sub	a1,a1,t1
80001fe8:	40a585b3          	sub	a1,a1,a0
80001fec:	01d597b3          	sll	a5,a1,t4
80001ff0:	01c75733          	srl	a4,a4,t3
80001ff4:	00e7e533          	or	a0,a5,a4
80001ff8:	01c5d5b3          	srl	a1,a1,t3
80001ffc:	cc5ff06f          	j	80001cc0 <__moddi3+0x110>

80002000 <__udivdi3>:
80002000:	00050893          	mv	a7,a0
80002004:	00058793          	mv	a5,a1
80002008:	00060813          	mv	a6,a2
8000200c:	00068513          	mv	a0,a3
80002010:	00088313          	mv	t1,a7
80002014:	28069463          	bnez	a3,8000229c <__udivdi3+0x29c>
80002018:	800036b7          	lui	a3,0x80003
8000201c:	af068693          	addi	a3,a3,-1296 # 80002af0 <__global_pointer$+0xffffe8a0>
80002020:	0ec5f663          	bgeu	a1,a2,8000210c <__udivdi3+0x10c>
80002024:	00010737          	lui	a4,0x10
80002028:	0ce67863          	bgeu	a2,a4,800020f8 <__udivdi3+0xf8>
8000202c:	0ff00713          	li	a4,255
80002030:	00c73733          	sltu	a4,a4,a2
80002034:	00371713          	slli	a4,a4,0x3
80002038:	00e65533          	srl	a0,a2,a4
8000203c:	00a686b3          	add	a3,a3,a0
80002040:	0006c683          	lbu	a3,0(a3)
80002044:	02000513          	li	a0,32
80002048:	00e68733          	add	a4,a3,a4
8000204c:	40e506b3          	sub	a3,a0,a4
80002050:	00e50c63          	beq	a0,a4,80002068 <__udivdi3+0x68>
80002054:	00d797b3          	sll	a5,a5,a3
80002058:	00e8d733          	srl	a4,a7,a4
8000205c:	00d61833          	sll	a6,a2,a3
80002060:	00f765b3          	or	a1,a4,a5
80002064:	00d89333          	sll	t1,a7,a3
80002068:	01085893          	srli	a7,a6,0x10
8000206c:	0315d7b3          	divu	a5,a1,a7
80002070:	01081613          	slli	a2,a6,0x10
80002074:	01065613          	srli	a2,a2,0x10
80002078:	01035713          	srli	a4,t1,0x10
8000207c:	0315f6b3          	remu	a3,a1,a7
80002080:	00078513          	mv	a0,a5
80002084:	02f605b3          	mul	a1,a2,a5
80002088:	01069693          	slli	a3,a3,0x10
8000208c:	00e6e733          	or	a4,a3,a4
80002090:	00b77e63          	bgeu	a4,a1,800020ac <__udivdi3+0xac>
80002094:	01070733          	add	a4,a4,a6
80002098:	fff78513          	addi	a0,a5,-1
8000209c:	01076863          	bltu	a4,a6,800020ac <__udivdi3+0xac>
800020a0:	00b77663          	bgeu	a4,a1,800020ac <__udivdi3+0xac>
800020a4:	ffe78513          	addi	a0,a5,-2
800020a8:	01070733          	add	a4,a4,a6
800020ac:	40b70733          	sub	a4,a4,a1
800020b0:	031777b3          	remu	a5,a4,a7
800020b4:	01031313          	slli	t1,t1,0x10
800020b8:	01035313          	srli	t1,t1,0x10
800020bc:	03175733          	divu	a4,a4,a7
800020c0:	01079793          	slli	a5,a5,0x10
800020c4:	0067e333          	or	t1,a5,t1
800020c8:	02e606b3          	mul	a3,a2,a4
800020cc:	00070613          	mv	a2,a4
800020d0:	00d37c63          	bgeu	t1,a3,800020e8 <__udivdi3+0xe8>
800020d4:	00680333          	add	t1,a6,t1
800020d8:	fff70613          	addi	a2,a4,-1 # ffff <buflen.2941+0xffbf>
800020dc:	01036663          	bltu	t1,a6,800020e8 <__udivdi3+0xe8>
800020e0:	00d37463          	bgeu	t1,a3,800020e8 <__udivdi3+0xe8>
800020e4:	ffe70613          	addi	a2,a4,-2
800020e8:	01051513          	slli	a0,a0,0x10
800020ec:	00c56533          	or	a0,a0,a2
800020f0:	00000593          	li	a1,0
800020f4:	0e40006f          	j	800021d8 <__udivdi3+0x1d8>
800020f8:	01000537          	lui	a0,0x1000
800020fc:	01000713          	li	a4,16
80002100:	f2a66ce3          	bltu	a2,a0,80002038 <__udivdi3+0x38>
80002104:	01800713          	li	a4,24
80002108:	f31ff06f          	j	80002038 <__udivdi3+0x38>
8000210c:	00061663          	bnez	a2,80002118 <__udivdi3+0x118>
80002110:	00100713          	li	a4,1
80002114:	02c75833          	divu	a6,a4,a2
80002118:	00010737          	lui	a4,0x10
8000211c:	0ce87063          	bgeu	a6,a4,800021dc <__udivdi3+0x1dc>
80002120:	0ff00713          	li	a4,255
80002124:	01077463          	bgeu	a4,a6,8000212c <__udivdi3+0x12c>
80002128:	00800513          	li	a0,8
8000212c:	00a85733          	srl	a4,a6,a0
80002130:	00e686b3          	add	a3,a3,a4
80002134:	0006c703          	lbu	a4,0(a3)
80002138:	02000613          	li	a2,32
8000213c:	00a70733          	add	a4,a4,a0
80002140:	40e606b3          	sub	a3,a2,a4
80002144:	0ae61663          	bne	a2,a4,800021f0 <__udivdi3+0x1f0>
80002148:	410787b3          	sub	a5,a5,a6
8000214c:	00100593          	li	a1,1
80002150:	01085893          	srli	a7,a6,0x10
80002154:	01081613          	slli	a2,a6,0x10
80002158:	01065613          	srli	a2,a2,0x10
8000215c:	01035713          	srli	a4,t1,0x10
80002160:	0317f6b3          	remu	a3,a5,a7
80002164:	0317d7b3          	divu	a5,a5,a7
80002168:	01069693          	slli	a3,a3,0x10
8000216c:	00e6e733          	or	a4,a3,a4
80002170:	02f60e33          	mul	t3,a2,a5
80002174:	00078513          	mv	a0,a5
80002178:	01c77e63          	bgeu	a4,t3,80002194 <__udivdi3+0x194>
8000217c:	01070733          	add	a4,a4,a6
80002180:	fff78513          	addi	a0,a5,-1
80002184:	01076863          	bltu	a4,a6,80002194 <__udivdi3+0x194>
80002188:	01c77663          	bgeu	a4,t3,80002194 <__udivdi3+0x194>
8000218c:	ffe78513          	addi	a0,a5,-2
80002190:	01070733          	add	a4,a4,a6
80002194:	41c70733          	sub	a4,a4,t3
80002198:	031777b3          	remu	a5,a4,a7
8000219c:	01031313          	slli	t1,t1,0x10
800021a0:	01035313          	srli	t1,t1,0x10
800021a4:	03175733          	divu	a4,a4,a7
800021a8:	01079793          	slli	a5,a5,0x10
800021ac:	0067e333          	or	t1,a5,t1
800021b0:	02e606b3          	mul	a3,a2,a4
800021b4:	00070613          	mv	a2,a4
800021b8:	00d37c63          	bgeu	t1,a3,800021d0 <__udivdi3+0x1d0>
800021bc:	00680333          	add	t1,a6,t1
800021c0:	fff70613          	addi	a2,a4,-1 # ffff <buflen.2941+0xffbf>
800021c4:	01036663          	bltu	t1,a6,800021d0 <__udivdi3+0x1d0>
800021c8:	00d37463          	bgeu	t1,a3,800021d0 <__udivdi3+0x1d0>
800021cc:	ffe70613          	addi	a2,a4,-2
800021d0:	01051513          	slli	a0,a0,0x10
800021d4:	00c56533          	or	a0,a0,a2
800021d8:	00008067          	ret
800021dc:	01000737          	lui	a4,0x1000
800021e0:	01000513          	li	a0,16
800021e4:	f4e864e3          	bltu	a6,a4,8000212c <__udivdi3+0x12c>
800021e8:	01800513          	li	a0,24
800021ec:	f41ff06f          	j	8000212c <__udivdi3+0x12c>
800021f0:	00d81833          	sll	a6,a6,a3
800021f4:	00e7d5b3          	srl	a1,a5,a4
800021f8:	00d89333          	sll	t1,a7,a3
800021fc:	00d797b3          	sll	a5,a5,a3
80002200:	00e8d733          	srl	a4,a7,a4
80002204:	01085893          	srli	a7,a6,0x10
80002208:	00f76633          	or	a2,a4,a5
8000220c:	0315f733          	remu	a4,a1,a7
80002210:	01081793          	slli	a5,a6,0x10
80002214:	0107d793          	srli	a5,a5,0x10
80002218:	01065513          	srli	a0,a2,0x10
8000221c:	0315d5b3          	divu	a1,a1,a7
80002220:	01071713          	slli	a4,a4,0x10
80002224:	00a76733          	or	a4,a4,a0
80002228:	02b786b3          	mul	a3,a5,a1
8000222c:	00058513          	mv	a0,a1
80002230:	00d77e63          	bgeu	a4,a3,8000224c <__udivdi3+0x24c>
80002234:	01070733          	add	a4,a4,a6
80002238:	fff58513          	addi	a0,a1,-1
8000223c:	01076863          	bltu	a4,a6,8000224c <__udivdi3+0x24c>
80002240:	00d77663          	bgeu	a4,a3,8000224c <__udivdi3+0x24c>
80002244:	ffe58513          	addi	a0,a1,-2
80002248:	01070733          	add	a4,a4,a6
8000224c:	40d706b3          	sub	a3,a4,a3
80002250:	0316f733          	remu	a4,a3,a7
80002254:	01061613          	slli	a2,a2,0x10
80002258:	01065613          	srli	a2,a2,0x10
8000225c:	0316d6b3          	divu	a3,a3,a7
80002260:	01071713          	slli	a4,a4,0x10
80002264:	02d788b3          	mul	a7,a5,a3
80002268:	00c767b3          	or	a5,a4,a2
8000226c:	00068713          	mv	a4,a3
80002270:	0117fe63          	bgeu	a5,a7,8000228c <__udivdi3+0x28c>
80002274:	010787b3          	add	a5,a5,a6
80002278:	fff68713          	addi	a4,a3,-1
8000227c:	0107e863          	bltu	a5,a6,8000228c <__udivdi3+0x28c>
80002280:	0117f663          	bgeu	a5,a7,8000228c <__udivdi3+0x28c>
80002284:	ffe68713          	addi	a4,a3,-2
80002288:	010787b3          	add	a5,a5,a6
8000228c:	01051593          	slli	a1,a0,0x10
80002290:	411787b3          	sub	a5,a5,a7
80002294:	00e5e5b3          	or	a1,a1,a4
80002298:	eb9ff06f          	j	80002150 <__udivdi3+0x150>
8000229c:	18d5e663          	bltu	a1,a3,80002428 <__udivdi3+0x428>
800022a0:	00010737          	lui	a4,0x10
800022a4:	04e6f463          	bgeu	a3,a4,800022ec <__udivdi3+0x2ec>
800022a8:	0ff00713          	li	a4,255
800022ac:	00d735b3          	sltu	a1,a4,a3
800022b0:	00359593          	slli	a1,a1,0x3
800022b4:	80003737          	lui	a4,0x80003
800022b8:	00b6d533          	srl	a0,a3,a1
800022bc:	af070713          	addi	a4,a4,-1296 # 80002af0 <__global_pointer$+0xffffe8a0>
800022c0:	00a70733          	add	a4,a4,a0
800022c4:	00074703          	lbu	a4,0(a4)
800022c8:	02000513          	li	a0,32
800022cc:	00b70733          	add	a4,a4,a1
800022d0:	40e505b3          	sub	a1,a0,a4
800022d4:	02e51663          	bne	a0,a4,80002300 <__udivdi3+0x300>
800022d8:	00100513          	li	a0,1
800022dc:	eef6eee3          	bltu	a3,a5,800021d8 <__udivdi3+0x1d8>
800022e0:	00c8b533          	sltu	a0,a7,a2
800022e4:	00154513          	xori	a0,a0,1
800022e8:	ef1ff06f          	j	800021d8 <__udivdi3+0x1d8>
800022ec:	01000737          	lui	a4,0x1000
800022f0:	01000593          	li	a1,16
800022f4:	fce6e0e3          	bltu	a3,a4,800022b4 <__udivdi3+0x2b4>
800022f8:	01800593          	li	a1,24
800022fc:	fb9ff06f          	j	800022b4 <__udivdi3+0x2b4>
80002300:	00e65333          	srl	t1,a2,a4
80002304:	00b696b3          	sll	a3,a3,a1
80002308:	00d36333          	or	t1,t1,a3
8000230c:	01035513          	srli	a0,t1,0x10
80002310:	00b61eb3          	sll	t4,a2,a1
80002314:	00e7d633          	srl	a2,a5,a4
80002318:	02a676b3          	remu	a3,a2,a0
8000231c:	00b797b3          	sll	a5,a5,a1
80002320:	00e8d733          	srl	a4,a7,a4
80002324:	00f76833          	or	a6,a4,a5
80002328:	01031793          	slli	a5,t1,0x10
8000232c:	0107d793          	srli	a5,a5,0x10
80002330:	01085713          	srli	a4,a6,0x10
80002334:	02a65633          	divu	a2,a2,a0
80002338:	01069693          	slli	a3,a3,0x10
8000233c:	00e6e733          	or	a4,a3,a4
80002340:	02c78f33          	mul	t5,a5,a2
80002344:	00060e13          	mv	t3,a2
80002348:	01e77e63          	bgeu	a4,t5,80002364 <__udivdi3+0x364>
8000234c:	00670733          	add	a4,a4,t1
80002350:	fff60e13          	addi	t3,a2,-1 # ffffff <buflen.2941+0xffffbf>
80002354:	00676863          	bltu	a4,t1,80002364 <__udivdi3+0x364>
80002358:	01e77663          	bgeu	a4,t5,80002364 <__udivdi3+0x364>
8000235c:	ffe60e13          	addi	t3,a2,-2
80002360:	00670733          	add	a4,a4,t1
80002364:	41e70733          	sub	a4,a4,t5
80002368:	02a776b3          	remu	a3,a4,a0
8000236c:	02a75733          	divu	a4,a4,a0
80002370:	01069693          	slli	a3,a3,0x10
80002374:	02e78633          	mul	a2,a5,a4
80002378:	01081793          	slli	a5,a6,0x10
8000237c:	0107d793          	srli	a5,a5,0x10
80002380:	00f6e7b3          	or	a5,a3,a5
80002384:	00070693          	mv	a3,a4
80002388:	00c7fe63          	bgeu	a5,a2,800023a4 <__udivdi3+0x3a4>
8000238c:	006787b3          	add	a5,a5,t1
80002390:	fff70693          	addi	a3,a4,-1 # ffffff <buflen.2941+0xffffbf>
80002394:	0067e863          	bltu	a5,t1,800023a4 <__udivdi3+0x3a4>
80002398:	00c7f663          	bgeu	a5,a2,800023a4 <__udivdi3+0x3a4>
8000239c:	ffe70693          	addi	a3,a4,-2
800023a0:	006787b3          	add	a5,a5,t1
800023a4:	010e1513          	slli	a0,t3,0x10
800023a8:	00010e37          	lui	t3,0x10
800023ac:	00d56533          	or	a0,a0,a3
800023b0:	fffe0693          	addi	a3,t3,-1 # ffff <buflen.2941+0xffbf>
800023b4:	00d57833          	and	a6,a0,a3
800023b8:	40c787b3          	sub	a5,a5,a2
800023bc:	00def6b3          	and	a3,t4,a3
800023c0:	01055613          	srli	a2,a0,0x10
800023c4:	010ede93          	srli	t4,t4,0x10
800023c8:	02d80333          	mul	t1,a6,a3
800023cc:	02d606b3          	mul	a3,a2,a3
800023d0:	01035713          	srli	a4,t1,0x10
800023d4:	03d80833          	mul	a6,a6,t4
800023d8:	00d80833          	add	a6,a6,a3
800023dc:	01070733          	add	a4,a4,a6
800023e0:	03d60633          	mul	a2,a2,t4
800023e4:	00d77463          	bgeu	a4,a3,800023ec <__udivdi3+0x3ec>
800023e8:	01c60633          	add	a2,a2,t3
800023ec:	01075693          	srli	a3,a4,0x10
800023f0:	00c68633          	add	a2,a3,a2
800023f4:	02c7e663          	bltu	a5,a2,80002420 <__udivdi3+0x420>
800023f8:	cec79ce3          	bne	a5,a2,800020f0 <__udivdi3+0xf0>
800023fc:	000107b7          	lui	a5,0x10
80002400:	fff78793          	addi	a5,a5,-1 # ffff <buflen.2941+0xffbf>
80002404:	00f77733          	and	a4,a4,a5
80002408:	01071713          	slli	a4,a4,0x10
8000240c:	00f37333          	and	t1,t1,a5
80002410:	00b898b3          	sll	a7,a7,a1
80002414:	00670733          	add	a4,a4,t1
80002418:	00000593          	li	a1,0
8000241c:	dae8fee3          	bgeu	a7,a4,800021d8 <__udivdi3+0x1d8>
80002420:	fff50513          	addi	a0,a0,-1 # ffffff <buflen.2941+0xffffbf>
80002424:	ccdff06f          	j	800020f0 <__udivdi3+0xf0>
80002428:	00000593          	li	a1,0
8000242c:	00000513          	li	a0,0
80002430:	da9ff06f          	j	800021d8 <__udivdi3+0x1d8>

80002434 <__umoddi3>:
80002434:	00060893          	mv	a7,a2
80002438:	00068713          	mv	a4,a3
8000243c:	00050793          	mv	a5,a0
80002440:	00058813          	mv	a6,a1
80002444:	22069c63          	bnez	a3,8000267c <__umoddi3+0x248>
80002448:	800036b7          	lui	a3,0x80003
8000244c:	af068693          	addi	a3,a3,-1296 # 80002af0 <__global_pointer$+0xffffe8a0>
80002450:	0cc5fc63          	bgeu	a1,a2,80002528 <__umoddi3+0xf4>
80002454:	00010337          	lui	t1,0x10
80002458:	0a667e63          	bgeu	a2,t1,80002514 <__umoddi3+0xe0>
8000245c:	0ff00313          	li	t1,255
80002460:	00c37463          	bgeu	t1,a2,80002468 <__umoddi3+0x34>
80002464:	00800713          	li	a4,8
80002468:	00e65333          	srl	t1,a2,a4
8000246c:	006686b3          	add	a3,a3,t1
80002470:	0006ce03          	lbu	t3,0(a3)
80002474:	00ee0e33          	add	t3,t3,a4
80002478:	02000713          	li	a4,32
8000247c:	41c70333          	sub	t1,a4,t3
80002480:	01c70c63          	beq	a4,t3,80002498 <__umoddi3+0x64>
80002484:	006595b3          	sll	a1,a1,t1
80002488:	01c55e33          	srl	t3,a0,t3
8000248c:	006618b3          	sll	a7,a2,t1
80002490:	00be6833          	or	a6,t3,a1
80002494:	006517b3          	sll	a5,a0,t1
80002498:	0108d613          	srli	a2,a7,0x10
8000249c:	02c87733          	remu	a4,a6,a2
800024a0:	01089513          	slli	a0,a7,0x10
800024a4:	01055513          	srli	a0,a0,0x10
800024a8:	0107d693          	srli	a3,a5,0x10
800024ac:	02c85833          	divu	a6,a6,a2
800024b0:	01071713          	slli	a4,a4,0x10
800024b4:	00d766b3          	or	a3,a4,a3
800024b8:	03050833          	mul	a6,a0,a6
800024bc:	0106fa63          	bgeu	a3,a6,800024d0 <__umoddi3+0x9c>
800024c0:	011686b3          	add	a3,a3,a7
800024c4:	0116e663          	bltu	a3,a7,800024d0 <__umoddi3+0x9c>
800024c8:	0106f463          	bgeu	a3,a6,800024d0 <__umoddi3+0x9c>
800024cc:	011686b3          	add	a3,a3,a7
800024d0:	410686b3          	sub	a3,a3,a6
800024d4:	02c6f733          	remu	a4,a3,a2
800024d8:	01079793          	slli	a5,a5,0x10
800024dc:	0107d793          	srli	a5,a5,0x10
800024e0:	02c6d6b3          	divu	a3,a3,a2
800024e4:	02d506b3          	mul	a3,a0,a3
800024e8:	01071513          	slli	a0,a4,0x10
800024ec:	00f567b3          	or	a5,a0,a5
800024f0:	00d7fa63          	bgeu	a5,a3,80002504 <__umoddi3+0xd0>
800024f4:	011787b3          	add	a5,a5,a7
800024f8:	0117e663          	bltu	a5,a7,80002504 <__umoddi3+0xd0>
800024fc:	00d7f463          	bgeu	a5,a3,80002504 <__umoddi3+0xd0>
80002500:	011787b3          	add	a5,a5,a7
80002504:	40d787b3          	sub	a5,a5,a3
80002508:	0067d533          	srl	a0,a5,t1
8000250c:	00000593          	li	a1,0
80002510:	00008067          	ret
80002514:	01000337          	lui	t1,0x1000
80002518:	01000713          	li	a4,16
8000251c:	f46666e3          	bltu	a2,t1,80002468 <__umoddi3+0x34>
80002520:	01800713          	li	a4,24
80002524:	f45ff06f          	j	80002468 <__umoddi3+0x34>
80002528:	00061663          	bnez	a2,80002534 <__umoddi3+0x100>
8000252c:	00100613          	li	a2,1
80002530:	031658b3          	divu	a7,a2,a7
80002534:	00010637          	lui	a2,0x10
80002538:	0ac8f263          	bgeu	a7,a2,800025dc <__umoddi3+0x1a8>
8000253c:	0ff00613          	li	a2,255
80002540:	01167463          	bgeu	a2,a7,80002548 <__umoddi3+0x114>
80002544:	00800713          	li	a4,8
80002548:	00e8d633          	srl	a2,a7,a4
8000254c:	00c686b3          	add	a3,a3,a2
80002550:	0006ce03          	lbu	t3,0(a3)
80002554:	00ee0e33          	add	t3,t3,a4
80002558:	02000713          	li	a4,32
8000255c:	41c70333          	sub	t1,a4,t3
80002560:	09c71863          	bne	a4,t3,800025f0 <__umoddi3+0x1bc>
80002564:	411585b3          	sub	a1,a1,a7
80002568:	0108d713          	srli	a4,a7,0x10
8000256c:	01089513          	slli	a0,a7,0x10
80002570:	01055513          	srli	a0,a0,0x10
80002574:	0107d613          	srli	a2,a5,0x10
80002578:	02e5f6b3          	remu	a3,a1,a4
8000257c:	02e5d5b3          	divu	a1,a1,a4
80002580:	01069693          	slli	a3,a3,0x10
80002584:	00c6e6b3          	or	a3,a3,a2
80002588:	02b505b3          	mul	a1,a0,a1
8000258c:	00b6fa63          	bgeu	a3,a1,800025a0 <__umoddi3+0x16c>
80002590:	011686b3          	add	a3,a3,a7
80002594:	0116e663          	bltu	a3,a7,800025a0 <__umoddi3+0x16c>
80002598:	00b6f463          	bgeu	a3,a1,800025a0 <__umoddi3+0x16c>
8000259c:	011686b3          	add	a3,a3,a7
800025a0:	40b685b3          	sub	a1,a3,a1
800025a4:	02e5f6b3          	remu	a3,a1,a4
800025a8:	01079793          	slli	a5,a5,0x10
800025ac:	0107d793          	srli	a5,a5,0x10
800025b0:	02e5d5b3          	divu	a1,a1,a4
800025b4:	02b505b3          	mul	a1,a0,a1
800025b8:	01069513          	slli	a0,a3,0x10
800025bc:	00f567b3          	or	a5,a0,a5
800025c0:	00b7fa63          	bgeu	a5,a1,800025d4 <__umoddi3+0x1a0>
800025c4:	011787b3          	add	a5,a5,a7
800025c8:	0117e663          	bltu	a5,a7,800025d4 <__umoddi3+0x1a0>
800025cc:	00b7f463          	bgeu	a5,a1,800025d4 <__umoddi3+0x1a0>
800025d0:	011787b3          	add	a5,a5,a7
800025d4:	40b787b3          	sub	a5,a5,a1
800025d8:	f31ff06f          	j	80002508 <__umoddi3+0xd4>
800025dc:	01000637          	lui	a2,0x1000
800025e0:	01000713          	li	a4,16
800025e4:	f6c8e2e3          	bltu	a7,a2,80002548 <__umoddi3+0x114>
800025e8:	01800713          	li	a4,24
800025ec:	f5dff06f          	j	80002548 <__umoddi3+0x114>
800025f0:	006898b3          	sll	a7,a7,t1
800025f4:	01c5d733          	srl	a4,a1,t3
800025f8:	006517b3          	sll	a5,a0,t1
800025fc:	01c55e33          	srl	t3,a0,t3
80002600:	0108d513          	srli	a0,a7,0x10
80002604:	02a776b3          	remu	a3,a4,a0
80002608:	006595b3          	sll	a1,a1,t1
8000260c:	00be6e33          	or	t3,t3,a1
80002610:	01089593          	slli	a1,a7,0x10
80002614:	0105d593          	srli	a1,a1,0x10
80002618:	010e5613          	srli	a2,t3,0x10
8000261c:	02a75733          	divu	a4,a4,a0
80002620:	01069693          	slli	a3,a3,0x10
80002624:	00c6e6b3          	or	a3,a3,a2
80002628:	02e58733          	mul	a4,a1,a4
8000262c:	00e6fa63          	bgeu	a3,a4,80002640 <__umoddi3+0x20c>
80002630:	011686b3          	add	a3,a3,a7
80002634:	0116e663          	bltu	a3,a7,80002640 <__umoddi3+0x20c>
80002638:	00e6f463          	bgeu	a3,a4,80002640 <__umoddi3+0x20c>
8000263c:	011686b3          	add	a3,a3,a7
80002640:	40e68633          	sub	a2,a3,a4
80002644:	02a676b3          	remu	a3,a2,a0
80002648:	010e1e13          	slli	t3,t3,0x10
8000264c:	010e5e13          	srli	t3,t3,0x10
80002650:	02a65633          	divu	a2,a2,a0
80002654:	01069693          	slli	a3,a3,0x10
80002658:	02c58633          	mul	a2,a1,a2
8000265c:	01c6e5b3          	or	a1,a3,t3
80002660:	00c5fa63          	bgeu	a1,a2,80002674 <__umoddi3+0x240>
80002664:	011585b3          	add	a1,a1,a7
80002668:	0115e663          	bltu	a1,a7,80002674 <__umoddi3+0x240>
8000266c:	00c5f463          	bgeu	a1,a2,80002674 <__umoddi3+0x240>
80002670:	011585b3          	add	a1,a1,a7
80002674:	40c585b3          	sub	a1,a1,a2
80002678:	ef1ff06f          	j	80002568 <__umoddi3+0x134>
8000267c:	e8d5eae3          	bltu	a1,a3,80002510 <__umoddi3+0xdc>
80002680:	00010737          	lui	a4,0x10
80002684:	04e6fc63          	bgeu	a3,a4,800026dc <__umoddi3+0x2a8>
80002688:	0ff00e13          	li	t3,255
8000268c:	00de3733          	sltu	a4,t3,a3
80002690:	00371713          	slli	a4,a4,0x3
80002694:	800038b7          	lui	a7,0x80003
80002698:	00e6d333          	srl	t1,a3,a4
8000269c:	af088893          	addi	a7,a7,-1296 # 80002af0 <__global_pointer$+0xffffe8a0>
800026a0:	006888b3          	add	a7,a7,t1
800026a4:	0008ce03          	lbu	t3,0(a7)
800026a8:	00ee0e33          	add	t3,t3,a4
800026ac:	02000713          	li	a4,32
800026b0:	41c70333          	sub	t1,a4,t3
800026b4:	03c71e63          	bne	a4,t3,800026f0 <__umoddi3+0x2bc>
800026b8:	00b6e463          	bltu	a3,a1,800026c0 <__umoddi3+0x28c>
800026bc:	00c56a63          	bltu	a0,a2,800026d0 <__umoddi3+0x29c>
800026c0:	40c507b3          	sub	a5,a0,a2
800026c4:	40d585b3          	sub	a1,a1,a3
800026c8:	00f53533          	sltu	a0,a0,a5
800026cc:	40a58833          	sub	a6,a1,a0
800026d0:	00078513          	mv	a0,a5
800026d4:	00080593          	mv	a1,a6
800026d8:	e39ff06f          	j	80002510 <__umoddi3+0xdc>
800026dc:	010008b7          	lui	a7,0x1000
800026e0:	01000713          	li	a4,16
800026e4:	fb16e8e3          	bltu	a3,a7,80002694 <__umoddi3+0x260>
800026e8:	01800713          	li	a4,24
800026ec:	fa9ff06f          	j	80002694 <__umoddi3+0x260>
800026f0:	01c65733          	srl	a4,a2,t3
800026f4:	006696b3          	sll	a3,a3,t1
800026f8:	00d76f33          	or	t5,a4,a3
800026fc:	01c5d7b3          	srl	a5,a1,t3
80002700:	010f5713          	srli	a4,t5,0x10
80002704:	02e7f8b3          	remu	a7,a5,a4
80002708:	006595b3          	sll	a1,a1,t1
8000270c:	01c55833          	srl	a6,a0,t3
80002710:	00b86833          	or	a6,a6,a1
80002714:	010f1593          	slli	a1,t5,0x10
80002718:	0105d593          	srli	a1,a1,0x10
8000271c:	01085693          	srli	a3,a6,0x10
80002720:	00661633          	sll	a2,a2,t1
80002724:	00651533          	sll	a0,a0,t1
80002728:	02e7d7b3          	divu	a5,a5,a4
8000272c:	01089893          	slli	a7,a7,0x10
80002730:	00d8e6b3          	or	a3,a7,a3
80002734:	02f58eb3          	mul	t4,a1,a5
80002738:	00078893          	mv	a7,a5
8000273c:	01d6fe63          	bgeu	a3,t4,80002758 <__umoddi3+0x324>
80002740:	01e686b3          	add	a3,a3,t5
80002744:	fff78893          	addi	a7,a5,-1
80002748:	01e6e863          	bltu	a3,t5,80002758 <__umoddi3+0x324>
8000274c:	01d6f663          	bgeu	a3,t4,80002758 <__umoddi3+0x324>
80002750:	ffe78893          	addi	a7,a5,-2
80002754:	01e686b3          	add	a3,a3,t5
80002758:	41d686b3          	sub	a3,a3,t4
8000275c:	02e6feb3          	remu	t4,a3,a4
80002760:	01081813          	slli	a6,a6,0x10
80002764:	01085813          	srli	a6,a6,0x10
80002768:	02e6d6b3          	divu	a3,a3,a4
8000276c:	010e9e93          	slli	t4,t4,0x10
80002770:	010eeeb3          	or	t4,t4,a6
80002774:	02d585b3          	mul	a1,a1,a3
80002778:	00068793          	mv	a5,a3
8000277c:	00befe63          	bgeu	t4,a1,80002798 <__umoddi3+0x364>
80002780:	01ee8eb3          	add	t4,t4,t5
80002784:	fff68793          	addi	a5,a3,-1
80002788:	01eee863          	bltu	t4,t5,80002798 <__umoddi3+0x364>
8000278c:	00bef663          	bgeu	t4,a1,80002798 <__umoddi3+0x364>
80002790:	ffe68793          	addi	a5,a3,-2
80002794:	01ee8eb3          	add	t4,t4,t5
80002798:	40be85b3          	sub	a1,t4,a1
8000279c:	01089893          	slli	a7,a7,0x10
800027a0:	00010eb7          	lui	t4,0x10
800027a4:	00f8e8b3          	or	a7,a7,a5
800027a8:	fffe8793          	addi	a5,t4,-1 # ffff <buflen.2941+0xffbf>
800027ac:	00f8f833          	and	a6,a7,a5
800027b0:	01065693          	srli	a3,a2,0x10
800027b4:	0108d893          	srli	a7,a7,0x10
800027b8:	00f677b3          	and	a5,a2,a5
800027bc:	02f80733          	mul	a4,a6,a5
800027c0:	02f887b3          	mul	a5,a7,a5
800027c4:	02d80833          	mul	a6,a6,a3
800027c8:	02d888b3          	mul	a7,a7,a3
800027cc:	00f80833          	add	a6,a6,a5
800027d0:	01075693          	srli	a3,a4,0x10
800027d4:	010686b3          	add	a3,a3,a6
800027d8:	00f6f463          	bgeu	a3,a5,800027e0 <__umoddi3+0x3ac>
800027dc:	01d888b3          	add	a7,a7,t4
800027e0:	000107b7          	lui	a5,0x10
800027e4:	fff78793          	addi	a5,a5,-1 # ffff <buflen.2941+0xffbf>
800027e8:	0106d813          	srli	a6,a3,0x10
800027ec:	00f6f6b3          	and	a3,a3,a5
800027f0:	01069693          	slli	a3,a3,0x10
800027f4:	00f77733          	and	a4,a4,a5
800027f8:	011808b3          	add	a7,a6,a7
800027fc:	00e68733          	add	a4,a3,a4
80002800:	0115e663          	bltu	a1,a7,8000280c <__umoddi3+0x3d8>
80002804:	01159e63          	bne	a1,a7,80002820 <__umoddi3+0x3ec>
80002808:	00e57c63          	bgeu	a0,a4,80002820 <__umoddi3+0x3ec>
8000280c:	40c70633          	sub	a2,a4,a2
80002810:	00c73733          	sltu	a4,a4,a2
80002814:	01e70733          	add	a4,a4,t5
80002818:	40e888b3          	sub	a7,a7,a4
8000281c:	00060713          	mv	a4,a2
80002820:	40e50733          	sub	a4,a0,a4
80002824:	00e53533          	sltu	a0,a0,a4
80002828:	411585b3          	sub	a1,a1,a7
8000282c:	40a585b3          	sub	a1,a1,a0
80002830:	01c597b3          	sll	a5,a1,t3
80002834:	00675733          	srl	a4,a4,t1
80002838:	00e7e533          	or	a0,a5,a4
8000283c:	0065d5b3          	srl	a1,a1,t1
80002840:	cd1ff06f          	j	80002510 <__umoddi3+0xdc>

セクション .text.startup の逆アセンブル:

80002844 <main>:
80002844:	b3010113          	addi	sp,sp,-1232
80002848:	4c812423          	sw	s0,1224(sp)
8000284c:	4c912223          	sw	s1,1220(sp)
80002850:	4d212023          	sw	s2,1216(sp)
80002854:	00000497          	auipc	s1,0x0
80002858:	3ec48493          	addi	s1,s1,1004 # 80002c40 <input1_data>
8000285c:	00001917          	auipc	s2,0x1
80002860:	89490913          	addi	s2,s2,-1900 # 800030f0 <input2_data>
80002864:	00010413          	mv	s0,sp
80002868:	4b312e23          	sw	s3,1212(sp)
8000286c:	4c112623          	sw	ra,1228(sp)
80002870:	00090993          	mv	s3,s2
80002874:	00040613          	mv	a2,s0
80002878:	00090693          	mv	a3,s2
8000287c:	00048793          	mv	a5,s1
80002880:	0007a703          	lw	a4,0(a5)
80002884:	0006a583          	lw	a1,0(a3)
80002888:	00478793          	addi	a5,a5,4
8000288c:	00468693          	addi	a3,a3,4
80002890:	00b70733          	add	a4,a4,a1
80002894:	00e62023          	sw	a4,0(a2) # 1000000 <buflen.2941+0xffffc0>
80002898:	00460613          	addi	a2,a2,4
8000289c:	ff3792e3          	bne	a5,s3,80002880 <main+0x3c>
800028a0:	00100513          	li	a0,1
800028a4:	de9fe0ef          	jal	ra,8000168c <setStats>
800028a8:	00040713          	mv	a4,s0
800028ac:	0004a783          	lw	a5,0(s1)
800028b0:	00092683          	lw	a3,0(s2)
800028b4:	00448493          	addi	s1,s1,4
800028b8:	00490913          	addi	s2,s2,4
800028bc:	00d787b3          	add	a5,a5,a3
800028c0:	00f72023          	sw	a5,0(a4) # 10000 <buflen.2941+0xffc0>
800028c4:	00470713          	addi	a4,a4,4
800028c8:	ff3492e3          	bne	s1,s3,800028ac <main+0x68>
800028cc:	00000513          	li	a0,0
800028d0:	dbdfe0ef          	jal	ra,8000168c <setStats>
800028d4:	00001797          	auipc	a5,0x1
800028d8:	ccc78793          	addi	a5,a5,-820 # 800035a0 <verify_data>
800028dc:	00000513          	li	a0,0
800028e0:	12c00813          	li	a6,300
800028e4:	00042683          	lw	a3,0(s0)
800028e8:	0007a703          	lw	a4,0(a5)
800028ec:	00442583          	lw	a1,4(s0)
800028f0:	0047a603          	lw	a2,4(a5)
800028f4:	02e69c63          	bne	a3,a4,8000292c <main+0xe8>
800028f8:	00250513          	addi	a0,a0,2
800028fc:	00c59a63          	bne	a1,a2,80002910 <main+0xcc>
80002900:	00840413          	addi	s0,s0,8
80002904:	00878793          	addi	a5,a5,8
80002908:	fd051ee3          	bne	a0,a6,800028e4 <main+0xa0>
8000290c:	00000513          	li	a0,0
80002910:	4cc12083          	lw	ra,1228(sp)
80002914:	4c812403          	lw	s0,1224(sp)
80002918:	4c412483          	lw	s1,1220(sp)
8000291c:	4c012903          	lw	s2,1216(sp)
80002920:	4bc12983          	lw	s3,1212(sp)
80002924:	4d010113          	addi	sp,sp,1232
80002928:	00008067          	ret
8000292c:	00150513          	addi	a0,a0,1
80002930:	fe1ff06f          	j	80002910 <main+0xcc>
80002934:	ff010113          	addi	sp,sp,-16
80002938:	00000517          	auipc	a0,0x0
8000293c:	03c50513          	addi	a0,a0,60 # 80002974 <main+0x130>
80002940:	00112623          	sw	ra,12(sp)
80002944:	e05fe0ef          	jal	ra,80001748 <printstr>
80002948:	00c12083          	lw	ra,12(sp)
8000294c:	fff00513          	li	a0,-1
80002950:	01010113          	addi	sp,sp,16
80002954:	00008067          	ret

セクション .data の逆アセンブル:

80002c40 <input1_data>:
80002c40:	0029                	c.nop	10
80002c42:	0000                	unimp
80002c44:	0341                	addi	t1,t1,16
80002c46:	0000                	unimp
80002c48:	0234                	addi	a3,sp,264
80002c4a:	0000                	unimp
80002c4c:	000000bb          	0xbb
80002c50:	02ed                	addi	t0,t0,27
80002c52:	0000                	unimp
80002c54:	015e                	slli	sp,sp,0x17
80002c56:	0000                	unimp
80002c58:	0084                	addi	s1,sp,64
80002c5a:	0000                	unimp
80002c5c:	03b5                	addi	t2,t2,13
80002c5e:	0000                	unimp
80002c60:	0248                	addi	a0,sp,260
80002c62:	0000                	unimp
80002c64:	0325                	addi	t1,t1,9
80002c66:	0000                	unimp
80002c68:	026d                	addi	tp,tp,27
80002c6a:	0000                	unimp
80002c6c:	0006                	c.slli	zero,0x1
80002c6e:	0000                	unimp
80002c70:	000003a3          	sb	zero,7(zero) # 7 <buf.2940+0x7>
80002c74:	037a                	slli	t1,t1,0x1e
80002c76:	0000                	unimp
80002c78:	0188                	addi	a0,sp,192
80002c7a:	0000                	unimp
80002c7c:	02b6                	slli	t0,t0,0xd
80002c7e:	0000                	unimp
80002c80:	03c1                	addi	t2,t2,16
80002c82:	0000                	unimp
80002c84:	006e                	c.slli	zero,0x1b
80002c86:	0000                	unimp
80002c88:	0074                	addi	a3,sp,12
80002c8a:	0000                	unimp
80002c8c:	0128                	addi	a0,sp,136
80002c8e:	0000                	unimp
80002c90:	01aa                	slli	gp,gp,0xa
80002c92:	0000                	unimp
80002c94:	013a                	slli	sp,sp,0xe
80002c96:	0000                	unimp
80002c98:	00000293          	li	t0,0
80002c9c:	0306                	slli	t1,t1,0x1
80002c9e:	0000                	unimp
80002ca0:	0000013f 000002a6 	0x2a60000013f
80002ca8:	0000036b          	0x36b
80002cac:	0178                	addi	a4,sp,140
80002cae:	0000                	unimp
80002cb0:	01da                	slli	gp,gp,0x16
80002cb2:	0000                	unimp
80002cb4:	03aa                	slli	t2,t2,0xa
80002cb6:	0000                	unimp
80002cb8:	0000021b          	0x21b
80002cbc:	0239                	addi	tp,tp,14
80002cbe:	0000                	unimp
80002cc0:	000000cb          	fnmsub.s	ft1,ft0,ft0,ft0,rne
80002cc4:	0118                	addi	a4,sp,128
80002cc6:	0000                	unimp
80002cc8:	000002f7          	0x2f7
80002ccc:	025e                	slli	tp,tp,0x17
80002cce:	0000                	unimp
80002cd0:	01ff                	0x1ff
80002cd2:	0000                	unimp
80002cd4:	0291                	addi	t0,t0,4
80002cd6:	0000                	unimp
80002cd8:	000000c3          	fmadd.s	ft1,ft0,ft0,ft0,rne
80002cdc:	0051                	c.nop	20
80002cde:	0000                	unimp
80002ce0:	0000010b          	0x10b
80002ce4:	00e5                	addi	ra,ra,25
80002ce6:	0000                	unimp
80002ce8:	0151                	addi	sp,sp,20
80002cea:	0000                	unimp
80002cec:	03b0                	addi	a2,sp,456
80002cee:	0000                	unimp
80002cf0:	0386                	slli	t2,t2,0x1
80002cf2:	0000                	unimp
80002cf4:	00f1                	addi	ra,ra,28
80002cf6:	0000                	unimp
80002cf8:	0391                	addi	t2,t2,4
80002cfa:	0000                	unimp
80002cfc:	033a                	slli	t1,t1,0xe
80002cfe:	0000                	unimp
80002d00:	03a5                	addi	t2,t2,9
80002d02:	0000                	unimp
80002d04:	03d9                	addi	t2,t2,22
80002d06:	0000                	unimp
80002d08:	000000c3          	fmadd.s	ft1,ft0,ft0,ft0,rne
80002d0c:	03c0                	addi	s0,sp,452
80002d0e:	0000                	unimp
80002d10:	0236                	slli	tp,tp,0xd
80002d12:	0000                	unimp
80002d14:	015e                	slli	sp,sp,0x17
80002d16:	0000                	unimp
80002d18:	0289                	addi	t0,t0,2
80002d1a:	0000                	unimp
80002d1c:	0291                	addi	t0,t0,4
80002d1e:	0000                	unimp
80002d20:	00b5                	addi	ra,ra,13
80002d22:	0000                	unimp
80002d24:	0000006f          	j	80002d24 <input1_data+0xe4>
80002d28:	0000035b          	0x35b
80002d2c:	0041                	c.nop	16
80002d2e:	0000                	unimp
80002d30:	0120                	addi	s0,sp,136
80002d32:	0000                	unimp
80002d34:	015d                	addi	sp,sp,23
80002d36:	0000                	unimp
80002d38:	008d                	addi	ra,ra,3
80002d3a:	0000                	unimp
80002d3c:	0389                	addi	t2,t2,2
80002d3e:	0000                	unimp
80002d40:	0376                	slli	t1,t1,0x1d
80002d42:	0000                	unimp
80002d44:	0108                	addi	a0,sp,128
80002d46:	0000                	unimp
80002d48:	0240                	addi	s0,sp,260
80002d4a:	0000                	unimp
80002d4c:	000003d3          	fadd.s	ft7,ft0,ft0,rne
80002d50:	02f9                	addi	t0,t0,30
80002d52:	0000                	unimp
80002d54:	00f1                	addi	ra,ra,28
80002d56:	0000                	unimp
80002d58:	01de                	slli	gp,gp,0x17
80002d5a:	0000                	unimp
80002d5c:	000001f3          	0x1f3
80002d60:	00000193          	li	gp,0
80002d64:	00de                	slli	ra,ra,0x17
80002d66:	0000                	unimp
80002d68:	01bc                	addi	a5,sp,200
80002d6a:	0000                	unimp
80002d6c:	02d1                	addi	t0,t0,20
80002d6e:	0000                	unimp
80002d70:	02a4                	addi	s1,sp,328
80002d72:	0000                	unimp
80002d74:	013d                	addi	sp,sp,15
80002d76:	0000                	unimp
80002d78:	00e0                	addi	s0,sp,76
80002d7a:	0000                	unimp
80002d7c:	03a9                	addi	t2,t2,10
80002d7e:	0000                	unimp
80002d80:	0120                	addi	s0,sp,136
80002d82:	0000                	unimp
80002d84:	00000077          	0x77
80002d88:	00000267          	jalr	tp,zero # 0 <buf.2940>
80002d8c:	025e                	slli	tp,tp,0x17
80002d8e:	0000                	unimp
80002d90:	0185                	addi	gp,gp,1
80002d92:	0000                	unimp
80002d94:	015f 0000 01c7      	0x1c70000015f
80002d9a:	0000                	unimp
80002d9c:	0116                	slli	sp,sp,0x5
80002d9e:	0000                	unimp
80002da0:	0000016f          	jal	sp,80002da0 <input1_data+0x160>
80002da4:	0166                	slli	sp,sp,0x19
80002da6:	0000                	unimp
80002da8:	0248                	addi	a0,sp,260
80002daa:	0000                	unimp
80002dac:	003e                	c.slli	zero,0xf
80002dae:	0000                	unimp
80002db0:	03d9                	addi	t2,t2,22
80002db2:	0000                	unimp
80002db4:	00000193          	li	gp,0
80002db8:	015a                	slli	sp,sp,0x16
80002dba:	0000                	unimp
80002dbc:	0205                	addi	tp,tp,1
80002dbe:	0000                	unimp
80002dc0:	0000022f          	0x22f
80002dc4:	038c                	addi	a1,sp,448
80002dc6:	0000                	unimp
80002dc8:	00000307          	0x307
80002dcc:	00ff                	0xff
80002dce:	0000                	unimp
80002dd0:	030a                	slli	t1,t1,0x2
80002dd2:	0000                	unimp
80002dd4:	0256                	slli	tp,tp,0x15
80002dd6:	0000                	unimp
80002dd8:	0000008f          	0x8f
80002ddc:	0021                	c.nop	8
80002dde:	0000                	unimp
80002de0:	007d                	c.nop	31
80002de2:	0000                	unimp
80002de4:	03ad                	addi	t2,t2,11
80002de6:	0000                	unimp
80002de8:	03a5                	addi	t2,t2,9
80002dea:	0000                	unimp
80002dec:	031f 0000 0229      	0x2290000031f
80002df2:	0000                	unimp
80002df4:	000001af          	0x1af
80002df8:	0288                	addi	a0,sp,320
80002dfa:	0000                	unimp
80002dfc:	03b8                	addi	a4,sp,456
80002dfe:	0000                	unimp
80002e00:	011f 0000 0013      	0x130000011f
80002e06:	0000                	unimp
80002e08:	0031                	c.nop	12
80002e0a:	0000                	unimp
80002e0c:	0056                	c.slli	zero,0x15
80002e0e:	0000                	unimp
80002e10:	005f 0000 01b9      	0x1b90000005f
80002e16:	0000                	unimp
80002e18:	0000024b          	fnmsub.s	ft4,ft0,ft0,ft0,rne
80002e1c:	0266                	slli	tp,tp,0x19
80002e1e:	0000                	unimp
80002e20:	017e                	slli	sp,sp,0x1f
80002e22:	0000                	unimp
80002e24:	0118                	addi	a4,sp,128
80002e26:	0000                	unimp
80002e28:	0328                	addi	a0,sp,392
80002e2a:	0000                	unimp
80002e2c:	000003cb          	fnmsub.s	ft7,ft0,ft0,ft0,rne
80002e30:	00000333          	add	t1,zero,zero
80002e34:	0158                	addi	a4,sp,132
80002e36:	0000                	unimp
80002e38:	01c2                	slli	gp,gp,0x10
80002e3a:	0000                	unimp
80002e3c:	0200                	addi	s0,sp,256
80002e3e:	0000                	unimp
80002e40:	03c5                	addi	t2,t2,17
80002e42:	0000                	unimp
80002e44:	0000015b          	0x15b
80002e48:	0328                	addi	a0,sp,392
80002e4a:	0000                	unimp
80002e4c:	0372                	slli	t1,t1,0x1c
80002e4e:	0000                	unimp
80002e50:	0219                	addi	tp,tp,6
80002e52:	0000                	unimp
80002e54:	03b2                	slli	t2,t2,0xc
80002e56:	0000                	unimp
80002e58:	02bd                	addi	t0,t0,15
80002e5a:	0000                	unimp
80002e5c:	0164                	addi	s1,sp,140
80002e5e:	0000                	unimp
80002e60:	00000237          	lui	tp,0x0
80002e64:	0000037b          	0x37b
80002e68:	0016                	c.slli	zero,0x5
80002e6a:	0000                	unimp
80002e6c:	0238                	addi	a4,sp,264
80002e6e:	0000                	unimp
80002e70:	0299                	addi	t0,t0,6
80002e72:	0000                	unimp
80002e74:	000001a7          	0x1a7
80002e78:	01b2                	slli	gp,gp,0xc
80002e7a:	0000                	unimp
80002e7c:	009e                	slli	ra,ra,0x7
80002e7e:	0000                	unimp
80002e80:	0002                	c.slli64	zero
80002e82:	0000                	unimp
80002e84:	0054                	addi	a3,sp,4
80002e86:	0000                	unimp
80002e88:	000000f7          	0xf7
80002e8c:	0031                	c.nop	12
80002e8e:	0000                	unimp
80002e90:	000001b3          	add	gp,zero,zero
80002e94:	0318                	addi	a4,sp,384
80002e96:	0000                	unimp
80002e98:	0365                	addi	t1,t1,25
80002e9a:	0000                	unimp
80002e9c:	01e6                	slli	gp,gp,0x19
80002e9e:	0000                	unimp
80002ea0:	019e                	slli	gp,gp,0x7
80002ea2:	0000                	unimp
80002ea4:	0171                	addi	sp,sp,28
80002ea6:	0000                	unimp
80002ea8:	0224                	addi	s1,sp,264
80002eaa:	0000                	unimp
80002eac:	0206                	slli	tp,tp,0x1
80002eae:	0000                	unimp
80002eb0:	0378                	addi	a4,sp,396
80002eb2:	0000                	unimp
80002eb4:	02aa                	slli	t0,t0,0xa
80002eb6:	0000                	unimp
80002eb8:	011c                	addi	a5,sp,128
80002eba:	0000                	unimp
80002ebc:	0108                	addi	a0,sp,128
80002ebe:	0000                	unimp
80002ec0:	000001f3          	0x1f3
80002ec4:	0122                	slli	sp,sp,0x8
80002ec6:	0000                	unimp
80002ec8:	0381                	addi	t2,t2,0
80002eca:	0000                	unimp
80002ecc:	000000d7          	0xd7
80002ed0:	000002db          	0x2db
80002ed4:	02b0                	addi	a2,sp,328
80002ed6:	0000                	unimp
80002ed8:	000000fb          	0xfb
80002edc:	0312                	slli	t1,t1,0x4
80002ede:	0000                	unimp
80002ee0:	0000022b          	0x22b
80002ee4:	012e                	slli	sp,sp,0xb
80002ee6:	0000                	unimp
80002ee8:	0210                	addi	a2,sp,256
80002eea:	0000                	unimp
80002eec:	0220                	addi	s0,sp,264
80002eee:	0000                	unimp
80002ef0:	0142                	slli	sp,sp,0x10
80002ef2:	0000                	unimp
80002ef4:	000003b3          	add	t2,zero,zero
80002ef8:	011f 0000 0338      	0x3380000011f
80002efe:	0000                	unimp
80002f00:	0130                	addi	a2,sp,136
80002f02:	0000                	unimp
80002f04:	0314                	addi	a3,sp,384
80002f06:	0000                	unimp
80002f08:	02dd                	addi	t0,t0,23
80002f0a:	0000                	unimp
80002f0c:	000003bf 0000016e 	0x16e000003bf
80002f14:	02d2                	slli	t0,t0,0x14
80002f16:	0000                	unimp
80002f18:	0126                	slli	sp,sp,0x9
80002f1a:	0000                	unimp
80002f1c:	000003cf          	fnmadd.s	ft7,ft0,ft0,ft0,rne
80002f20:	028d                	addi	t0,t0,3
80002f22:	0000                	unimp
80002f24:	02ec                	addi	a1,sp,332
80002f26:	0000                	unimp
80002f28:	0000005b          	0x5b
80002f2c:	017a                	slli	sp,sp,0x1e
80002f2e:	0000                	unimp
80002f30:	0069                	c.nop	26
80002f32:	0000                	unimp
80002f34:	0066                	c.slli	zero,0x19
80002f36:	0000                	unimp
80002f38:	017d                	addi	sp,sp,31
80002f3a:	0000                	unimp
80002f3c:	0000028b          	0x28b
80002f40:	0339                	addi	t1,t1,14
80002f42:	0000                	unimp
80002f44:	0348                	addi	a0,sp,388
80002f46:	0000                	unimp
80002f48:	0164                	addi	s1,sp,140
80002f4a:	0000                	unimp
80002f4c:	0094                	addi	a3,sp,64
80002f4e:	0000                	unimp
80002f50:	0036                	c.slli	zero,0xd
80002f52:	0000                	unimp
80002f54:	008c                	addi	a1,sp,64
80002f56:	0000                	unimp
80002f58:	000003bb          	0x3bb
80002f5c:	00000157          	0x157
80002f60:	0215                	addi	tp,tp,5
80002f62:	0000                	unimp
80002f64:	02f5                	addi	t0,t0,29
80002f66:	0000                	unimp
80002f68:	0209                	addi	tp,tp,2
80002f6a:	0000                	unimp
80002f6c:	0345                	addi	t1,t1,17
80002f6e:	0000                	unimp
80002f70:	0250                	addi	a2,sp,260
80002f72:	0000                	unimp
80002f74:	000d                	c.nop	3
80002f76:	0000                	unimp
80002f78:	00ad                	addi	ra,ra,11
80002f7a:	0000                	unimp
80002f7c:	0000003f 00000079 	0x790000003f
80002f84:	0085                	addi	ra,ra,1
80002f86:	0000                	unimp
80002f88:	02f6                	slli	t0,t0,0x1d
80002f8a:	0000                	unimp
80002f8c:	0174                	addi	a3,sp,140
80002f8e:	0000                	unimp
80002f90:	000003b7          	lui	t2,0x0
80002f94:	00000027          	0x27
80002f98:	0081                	addi	ra,ra,0
80002f9a:	0000                	unimp
80002f9c:	006e                	c.slli	zero,0x1b
80002f9e:	0000                	unimp
80002fa0:	0000034f          	fnmadd.s	ft6,ft0,ft0,ft0,rne
80002fa4:	01b5                	addi	gp,gp,13
80002fa6:	0000                	unimp
80002fa8:	00ff                	0xff
80002faa:	0000                	unimp
80002fac:	010d                	addi	sp,sp,3
80002fae:	0000                	unimp
80002fb0:	0199                	addi	gp,gp,6
80002fb2:	0000                	unimp
80002fb4:	0274                	addi	a3,sp,268
80002fb6:	0000                	unimp
80002fb8:	0000018f          	0x18f
80002fbc:	0225                	addi	tp,tp,9
80002fbe:	0000                	unimp
80002fc0:	02f1                	addi	t0,t0,28
80002fc2:	0000                	unimp
80002fc4:	0234                	addi	a3,sp,264
80002fc6:	0000                	unimp
80002fc8:	000000ab          	0xab
80002fcc:	00000013          	nop
80002fd0:	000002d7          	0x2d7
80002fd4:	01f5                	addi	gp,gp,29
80002fd6:	0000                	unimp
80002fd8:	0309                	addi	t1,t1,2
80002fda:	0000                	unimp
80002fdc:	0000002b          	0x2b
80002fe0:	02f1                	addi	t0,t0,28
80002fe2:	0000                	unimp
80002fe4:	0051                	c.nop	20
80002fe6:	0000                	unimp
80002fe8:	00ca                	slli	ra,ra,0x12
80002fea:	0000                	unimp
80002fec:	0355                	addi	t1,t1,21
80002fee:	0000                	unimp
80002ff0:	0099                	addi	ra,ra,6
80002ff2:	0000                	unimp
80002ff4:	02f8                	addi	a4,sp,332
80002ff6:	0000                	unimp
80002ff8:	0165                	addi	sp,sp,25
80002ffa:	0000                	unimp
80002ffc:	000003af          	0x3af
80003000:	039a                	slli	t2,t2,0x6
80003002:	0000                	unimp
80003004:	0148                	addi	a0,sp,132
80003006:	0000                	unimp
80003008:	01f0                	addi	a2,sp,204
8000300a:	0000                	unimp
8000300c:	01ba                	slli	gp,gp,0xe
8000300e:	0000                	unimp
80003010:	0204                	addi	s1,sp,256
80003012:	0000                	unimp
80003014:	0281                	addi	t0,t0,0
80003016:	0000                	unimp
80003018:	0114                	addi	a3,sp,128
8000301a:	0000                	unimp
8000301c:	0312                	slli	t1,t1,0x4
8000301e:	0000                	unimp
80003020:	0071                	c.nop	28
80003022:	0000                	unimp
80003024:	034a                	slli	t1,t1,0x12
80003026:	0000                	unimp
80003028:	0000038b          	0x38b
8000302c:	00000113          	li	sp,0
80003030:	00ed                	addi	ra,ra,27
80003032:	0000                	unimp
80003034:	0020                	addi	s0,sp,8
80003036:	0000                	unimp
80003038:	0310                	addi	a2,sp,384
8000303a:	0000                	unimp
8000303c:	0235                	addi	tp,tp,13
8000303e:	0000                	unimp
80003040:	0165                	addi	sp,sp,25
80003042:	0000                	unimp
80003044:	00000323          	sb	zero,6(zero) # 6 <buf.2940+0x6>
80003048:	00000333          	add	t1,zero,zero
8000304c:	000002ef          	jal	t0,8000304c <input1_data+0x40c>
80003050:	0118                	addi	a4,sp,128
80003052:	0000                	unimp
80003054:	0055                	c.nop	21
80003056:	0000                	unimp
80003058:	01ca                	slli	gp,gp,0x12
8000305a:	0000                	unimp
8000305c:	01c6                	slli	gp,gp,0x11
8000305e:	0000                	unimp
80003060:	02c6                	slli	t0,t0,0x11
80003062:	0000                	unimp
80003064:	000001cb          	fnmsub.s	ft3,ft0,ft0,ft0,rne
80003068:	0029                	c.nop	10
8000306a:	0000                	unimp
8000306c:	00fd                	addi	ra,ra,31
8000306e:	0000                	unimp
80003070:	0179                	addi	sp,sp,30
80003072:	0000                	unimp
80003074:	01fc                	addi	a5,sp,204
80003076:	0000                	unimp
80003078:	02bc                	addi	a5,sp,328
8000307a:	0000                	unimp
8000307c:	035c                	addi	a5,sp,388
8000307e:	0000                	unimp
80003080:	01e0                	addi	s0,sp,204
80003082:	0000                	unimp
80003084:	02e5                	addi	t0,t0,25
80003086:	0000                	unimp
80003088:	000001f3          	0x1f3
8000308c:	02c5                	addi	t0,t0,17
8000308e:	0000                	unimp
80003090:	0031                	c.nop	12
80003092:	0000                	unimp
80003094:	00000173          	0x173
80003098:	0369                	addi	t1,t1,26
8000309a:	0000                	unimp
8000309c:	03b1                	addi	t2,t2,12
8000309e:	0000                	unimp
800030a0:	03e0                	addi	s0,sp,460
800030a2:	0000                	unimp
800030a4:	020e                	slli	tp,tp,0x3
800030a6:	0000                	unimp
800030a8:	02d1                	addi	t0,t0,20
800030aa:	0000                	unimp
800030ac:	000001b3          	add	gp,zero,zero
800030b0:	00e8                	addi	a0,sp,76
800030b2:	0000                	unimp
800030b4:	01f1                	addi	gp,gp,28
800030b6:	0000                	unimp
800030b8:	02b9                	addi	t0,t0,14
800030ba:	0000                	unimp
800030bc:	001e                	c.slli	zero,0x7
800030be:	0000                	unimp
800030c0:	015c                	addi	a5,sp,132
800030c2:	0000                	unimp
800030c4:	00fa                	slli	ra,ra,0x1e
800030c6:	0000                	unimp
800030c8:	015e                	slli	sp,sp,0x17
800030ca:	0000                	unimp
800030cc:	00fa                	slli	ra,ra,0x1e
800030ce:	0000                	unimp
800030d0:	023d                	addi	tp,tp,15
800030d2:	0000                	unimp
800030d4:	0310                	addi	a2,sp,384
800030d6:	0000                	unimp
800030d8:	02ed                	addi	t0,t0,27
800030da:	0000                	unimp
800030dc:	01f6                	slli	gp,gp,0x1d
800030de:	0000                	unimp
800030e0:	00000337          	lui	t1,0x0
800030e4:	033a                	slli	t1,t1,0xe
800030e6:	0000                	unimp
800030e8:	00aa                	slli	ra,ra,0xa
800030ea:	0000                	unimp
800030ec:	00a0                	addi	s0,sp,72
800030ee:	0000                	unimp

800030f0 <input2_data>:
800030f0:	01c6                	slli	gp,gp,0x11
800030f2:	0000                	unimp
800030f4:	0000014f          	fnmadd.s	ft2,ft0,ft0,ft0,rne
800030f8:	0001                	nop
800030fa:	0000                	unimp
800030fc:	03dd                	addi	t2,t2,23
800030fe:	0000                	unimp
80003100:	016d                	addi	sp,sp,27
80003102:	0000                	unimp
80003104:	023c                	addi	a5,sp,264
80003106:	0000                	unimp
80003108:	0040                	addi	s0,sp,4
8000310a:	0000                	unimp
8000310c:	0099                	addi	ra,ra,6
8000310e:	0000                	unimp
80003110:	00d8                	addi	a4,sp,68
80003112:	0000                	unimp
80003114:	008c                	addi	a1,sp,64
80003116:	0000                	unimp
80003118:	00d2                	slli	ra,ra,0x14
8000311a:	0000                	unimp
8000311c:	023c                	addi	a5,sp,264
8000311e:	0000                	unimp
80003120:	00000153          	fadd.s	ft2,ft0,ft0,rne
80003124:	0251                	addi	tp,tp,20
80003126:	0000                	unimp
80003128:	0382                	c.slli64	t2
8000312a:	0000                	unimp
8000312c:	00e4                	addi	s1,sp,76
8000312e:	0000                	unimp
80003130:	000c                	0xc
80003132:	0000                	unimp
80003134:	00000373          	0x373
80003138:	02ee                	slli	t0,t0,0x1b
8000313a:	0000                	unimp
8000313c:	0286                	slli	t0,t0,0x1
8000313e:	0000                	unimp
80003140:	01f4                	addi	a3,sp,204
80003142:	0000                	unimp
80003144:	01b4                	addi	a3,sp,200
80003146:	0000                	unimp
80003148:	02bd                	addi	t0,t0,15
8000314a:	0000                	unimp
8000314c:	032c                	addi	a1,sp,392
8000314e:	0000                	unimp
80003150:	03d5                	addi	t2,t2,21
80003152:	0000                	unimp
80003154:	0096                	slli	ra,ra,0x5
80003156:	0000                	unimp
80003158:	02b8                	addi	a4,sp,328
8000315a:	0000                	unimp
8000315c:	0234                	addi	a3,sp,264
8000315e:	0000                	unimp
80003160:	0110                	addi	a2,sp,128
80003162:	0000                	unimp
80003164:	0102                	c.slli64	sp
80003166:	0000                	unimp
80003168:	00000287          	0x287
8000316c:	01fd                	addi	gp,gp,31
8000316e:	0000                	unimp
80003170:	0058                	addi	a4,sp,4
80003172:	0000                	unimp
80003174:	000002bf 0000029d 	0x29d000002bf
8000317c:	00000177          	0x177
80003180:	00000227          	0x227
80003184:	03a8                	addi	a0,sp,456
80003186:	0000                	unimp
80003188:	0250                	addi	a2,sp,260
8000318a:	0000                	unimp
8000318c:	0239                	addi	tp,tp,14
8000318e:	0000                	unimp
80003190:	03b8                	addi	a4,sp,456
80003192:	0000                	unimp
80003194:	0320                	addi	s0,sp,392
80003196:	0000                	unimp
80003198:	0248                	addi	a0,sp,260
8000319a:	0000                	unimp
8000319c:	00000283          	lb	t0,0(zero) # 0 <buf.2940>
800031a0:	0170                	addi	a2,sp,140
800031a2:	0000                	unimp
800031a4:	01e9                	addi	gp,gp,26
800031a6:	0000                	unimp
800031a8:	0148                	addi	a0,sp,132
800031aa:	0000                	unimp
800031ac:	0139                	addi	sp,sp,14
800031ae:	0000                	unimp
800031b0:	0250                	addi	a2,sp,260
800031b2:	0000                	unimp
800031b4:	0184                	addi	s1,sp,192
800031b6:	0000                	unimp
800031b8:	021f 0000 0289      	0x2890000021f
800031be:	0000                	unimp
800031c0:	000003d3          	fadd.s	ft7,ft0,ft0,rne
800031c4:	03e5                	addi	t2,t2,25
800031c6:	0000                	unimp
800031c8:	032e                	slli	t1,t1,0xb
800031ca:	0000                	unimp
800031cc:	0000004f          	fnmadd.s	ft0,ft0,ft0,ft0,rne
800031d0:	00d0                	addi	a2,sp,68
800031d2:	0000                	unimp
800031d4:	03e6                	slli	t2,t2,0x19
800031d6:	0000                	unimp
800031d8:	0275                	addi	tp,tp,29
800031da:	0000                	unimp
800031dc:	0000034f          	fnmadd.s	ft6,ft0,ft0,ft0,rne
800031e0:	02c0                	addi	s0,sp,324
800031e2:	0000                	unimp
800031e4:	03e5                	addi	t2,t2,25
800031e6:	0000                	unimp
800031e8:	00fd                	addi	ra,ra,31
800031ea:	0000                	unimp
800031ec:	000002cb          	fnmsub.s	ft5,ft0,ft0,ft0,rne
800031f0:	01ae                	slli	gp,gp,0xb
800031f2:	0000                	unimp
800031f4:	019f 0000 021a      	0x21a0000019f
800031fa:	0000                	unimp
800031fc:	02bc                	addi	a5,sp,328
800031fe:	0000                	unimp
80003200:	0004                	0x4
80003202:	0000                	unimp
80003204:	01ee                	slli	gp,gp,0x1b
80003206:	0000                	unimp
80003208:	0064                	addi	s1,sp,12
8000320a:	0000                	unimp
8000320c:	0360                	addi	s0,sp,396
8000320e:	0000                	unimp
80003210:	02b5                	addi	t0,t0,13
80003212:	0000                	unimp
80003214:	01a0                	addi	s0,sp,200
80003216:	0000                	unimp
80003218:	0128                	addi	a0,sp,136
8000321a:	0000                	unimp
8000321c:	011d                	addi	sp,sp,7
8000321e:	0000                	unimp
80003220:	026c                	addi	a1,sp,268
80003222:	0000                	unimp
80003224:	004e                	c.slli	zero,0x13
80003226:	0000                	unimp
80003228:	015f 0000 021c      	0x21c0000015f
8000322e:	0000                	unimp
80003230:	0286                	slli	t0,t0,0x1
80003232:	0000                	unimp
80003234:	00a9                	addi	ra,ra,10
80003236:	0000                	unimp
80003238:	0000020f          	0x20f
8000323c:	0121                	addi	sp,sp,8
8000323e:	0000                	unimp
80003240:	031c                	addi	a5,sp,384
80003242:	0000                	unimp
80003244:	0321                	addi	t1,t1,8
80003246:	0000                	unimp
80003248:	02d0                	addi	a2,sp,324
8000324a:	0000                	unimp
8000324c:	02f6                	slli	t0,t0,0x1d
8000324e:	0000                	unimp
80003250:	02e9                	addi	t0,t0,26
80003252:	0000                	unimp
80003254:	005c                	addi	a5,sp,4
80003256:	0000                	unimp
80003258:	03dd                	addi	t2,t2,23
8000325a:	0000                	unimp
8000325c:	0000010f          	0x10f
80003260:	0355                	addi	t1,t1,21
80003262:	0000                	unimp
80003264:	0314                	addi	a3,sp,384
80003266:	0000                	unimp
80003268:	00000213          	li	tp,0
8000326c:	00de                	slli	ra,ra,0x17
8000326e:	0000                	unimp
80003270:	01cd                	addi	gp,gp,19
80003272:	0000                	unimp
80003274:	00f1                	addi	ra,ra,28
80003276:	0000                	unimp
80003278:	0166                	slli	sp,sp,0x19
8000327a:	0000                	unimp
8000327c:	014c                	addi	a1,sp,132
8000327e:	0000                	unimp
80003280:	02ac                	addi	a1,sp,328
80003282:	0000                	unimp
80003284:	02e4                	addi	s1,sp,332
80003286:	0000                	unimp
80003288:	01be                	slli	gp,gp,0xf
8000328a:	0000                	unimp
8000328c:	00000137          	lui	sp,0x0
80003290:	000002e7          	jalr	t0,zero # 0 <buf.2940>
80003294:	022d                	addi	tp,tp,11
80003296:	0000                	unimp
80003298:	01df 0000 022d      	0x22d000001df
8000329e:	0000                	unimp
800032a0:	039d                	addi	t2,t2,7
800032a2:	0000                	unimp
800032a4:	031c                	addi	a5,sp,384
800032a6:	0000                	unimp
800032a8:	0165                	addi	sp,sp,25
800032aa:	0000                	unimp
800032ac:	0000037b          	0x37b
800032b0:	029a                	slli	t0,t0,0x6
800032b2:	0000                	unimp
800032b4:	0202                	c.slli64	tp
800032b6:	0000                	unimp
800032b8:	022d                	addi	tp,tp,11
800032ba:	0000                	unimp
800032bc:	0366                	slli	t1,t1,0x19
800032be:	0000                	unimp
800032c0:	0355                	addi	t1,t1,21
800032c2:	0000                	unimp
800032c4:	01b8                	addi	a4,sp,200
800032c6:	0000                	unimp
800032c8:	003d                	c.nop	15
800032ca:	0000                	unimp
800032cc:	02a6                	slli	t0,t0,0x9
800032ce:	0000                	unimp
800032d0:	018c                	addi	a1,sp,192
800032d2:	0000                	unimp
800032d4:	0009                	c.nop	2
800032d6:	0000                	unimp
800032d8:	0011                	c.nop	4
800032da:	0000                	unimp
800032dc:	00aa                	slli	ra,ra,0xa
800032de:	0000                	unimp
800032e0:	00000123          	sb	zero,2(zero) # 2 <buf.2940+0x2>
800032e4:	017c                	addi	a5,sp,140
800032e6:	0000                	unimp
800032e8:	0218                	addi	a4,sp,256
800032ea:	0000                	unimp
800032ec:	00b9                	addi	ra,ra,14
800032ee:	0000                	unimp
800032f0:	0395                	addi	t2,t2,5
800032f2:	0000                	unimp
800032f4:	0000021b          	0x21b
800032f8:	000003d7          	0x3d7
800032fc:	00000377          	0x377
80003300:	0036                	c.slli	zero,0xd
80003302:	0000                	unimp
80003304:	0264                	addi	s1,sp,268
80003306:	0000                	unimp
80003308:	000003b7          	lui	t2,0x0
8000330c:	01df 0000 0097      	0x97000001df
80003312:	0000                	unimp
80003314:	00000007          	0x7
80003318:	0281                	addi	t0,t0,0
8000331a:	0000                	unimp
8000331c:	0000014f          	fnmadd.s	ft2,ft0,ft0,ft0,rne
80003320:	02da                	slli	t0,t0,0x16
80003322:	0000                	unimp
80003324:	005f 0000 02d8      	0x2d80000005f
8000332a:	0000                	unimp
8000332c:	0118                	addi	a4,sp,128
8000332e:	0000                	unimp
80003330:	0000018b          	0x18b
80003334:	02b0                	addi	a2,sp,328
80003336:	0000                	unimp
80003338:	0000038f          	0x38f
8000333c:	01dc                	addi	a5,sp,196
8000333e:	0000                	unimp
80003340:	0000032f          	0x32f
80003344:	02d9                	addi	t0,t0,22
80003346:	0000                	unimp
80003348:	0109                	addi	sp,sp,2
8000334a:	0000                	unimp
8000334c:	007f                	0x7f
8000334e:	0000                	unimp
80003350:	00ec                	addi	a1,sp,76
80003352:	0000                	unimp
80003354:	00d6                	slli	ra,ra,0x15
80003356:	0000                	unimp
80003358:	00b4                	addi	a3,sp,72
8000335a:	0000                	unimp
8000335c:	0006                	c.slli	zero,0x1
8000335e:	0000                	unimp
80003360:	000001f7          	0x1f7
80003364:	0254                	addi	a3,sp,260
80003366:	0000                	unimp
80003368:	00ad                	addi	ra,ra,11
8000336a:	0000                	unimp
8000336c:	00000283          	lb	t0,0(zero) # 0 <buf.2940>
80003370:	015a                	slli	sp,sp,0x16
80003372:	0000                	unimp
80003374:	00000257          	0x257
80003378:	0044                	addi	s1,sp,4
8000337a:	0000                	unimp
8000337c:	0351                	addi	t1,t1,20
8000337e:	0000                	unimp
80003380:	0292                	slli	t0,t0,0x4
80003382:	0000                	unimp
80003384:	0000026b          	0x26b
80003388:	0079                	c.nop	30
8000338a:	0000                	unimp
8000338c:	00000083          	lb	ra,0(zero) # 0 <buf.2940>
80003390:	033c                	addi	a5,sp,392
80003392:	0000                	unimp
80003394:	0000029b          	0x29b
80003398:	01b1                	addi	gp,gp,12
8000339a:	0000                	unimp
8000339c:	000001e7          	jalr	gp,zero # 0 <buf.2940>
800033a0:	02f1                	addi	t0,t0,28
800033a2:	0000                	unimp
800033a4:	007d                	c.nop	31
800033a6:	0000                	unimp
800033a8:	0272                	slli	tp,tp,0x1c
800033aa:	0000                	unimp
800033ac:	000e                	c.slli	zero,0x3
800033ae:	0000                	unimp
800033b0:	000a                	c.slli	zero,0x2
800033b2:	0000                	unimp
800033b4:	00000193          	li	gp,0
800033b8:	006a                	c.slli	zero,0x1a
800033ba:	0000                	unimp
800033bc:	000002bf 00000332 	0x332000002bf
800033c4:	03c4                	addi	s1,sp,452
800033c6:	0000                	unimp
800033c8:	0196                	slli	gp,gp,0x5
800033ca:	0000                	unimp
800033cc:	036a                	slli	t1,t1,0x1a
800033ce:	0000                	unimp
800033d0:	0358                	addi	a4,sp,388
800033d2:	0000                	unimp
800033d4:	0056                	c.slli	zero,0x15
800033d6:	0000                	unimp
800033d8:	003c                	addi	a5,sp,8
800033da:	0000                	unimp
800033dc:	0294                	addi	a3,sp,320
800033de:	0000                	unimp
800033e0:	0000029b          	0x29b
800033e4:	0099                	addi	ra,ra,6
800033e6:	0000                	unimp
800033e8:	0079                	c.nop	30
800033ea:	0000                	unimp
800033ec:	0062                	c.slli	zero,0x18
800033ee:	0000                	unimp
800033f0:	019c                	addi	a5,sp,192
800033f2:	0000                	unimp
800033f4:	00ec                	addi	a1,sp,76
800033f6:	0000                	unimp
800033f8:	000c                	0xc
800033fa:	0000                	unimp
800033fc:	000001a7          	0x1a7
80003400:	03c5                	addi	t2,t2,17
80003402:	0000                	unimp
80003404:	00d8                	addi	a4,sp,68
80003406:	0000                	unimp
80003408:	026d                	addi	tp,tp,27
8000340a:	0000                	unimp
8000340c:	0169                	addi	sp,sp,26
8000340e:	0000                	unimp
80003410:	0399                	addi	t2,t2,6
80003412:	0000                	unimp
80003414:	000002cb          	fnmsub.s	ft5,ft0,ft0,ft0,rne
80003418:	00000287          	0x287
8000341c:	0000012b          	0x12b
80003420:	0376                	slli	t1,t1,0x1d
80003422:	0000                	unimp
80003424:	02aa                	slli	t0,t0,0xa
80003426:	0000                	unimp
80003428:	0024                	addi	s1,sp,8
8000342a:	0000                	unimp
8000342c:	01ed                	addi	gp,gp,27
8000342e:	0000                	unimp
80003430:	00000227          	0x227
80003434:	0219                	addi	tp,tp,6
80003436:	0000                	unimp
80003438:	03c9                	addi	t2,t2,18
8000343a:	0000                	unimp
8000343c:	00000283          	lb	t0,0(zero) # 0 <buf.2940>
80003440:	01b2                	slli	gp,gp,0xc
80003442:	0000                	unimp
80003444:	019f 0000 012f      	0x12f0000019f
8000344a:	0000                	unimp
8000344c:	01b6                	slli	gp,gp,0xd
8000344e:	0000                	unimp
80003450:	035c                	addi	a5,sp,388
80003452:	0000                	unimp
80003454:	000000cb          	fnmsub.s	ft1,ft0,ft0,ft0,rne
80003458:	01de                	slli	gp,gp,0x17
8000345a:	0000                	unimp
8000345c:	03dc                	addi	a5,sp,452
8000345e:	0000                	unimp
80003460:	000002a3          	sb	zero,5(zero) # 5 <buf.2940+0x5>
80003464:	000002cf          	fnmadd.s	ft5,ft0,ft0,ft0,rne
80003468:	03de                	slli	t2,t2,0x17
8000346a:	0000                	unimp
8000346c:	0152                	slli	sp,sp,0x14
8000346e:	0000                	unimp
80003470:	01c2                	slli	gp,gp,0x10
80003472:	0000                	unimp
80003474:	0279                	addi	tp,tp,30
80003476:	0000                	unimp
80003478:	0000009b          	0x9b
8000347c:	0286                	slli	t0,t0,0x1
8000347e:	0000                	unimp
80003480:	01c4                	addi	s1,sp,196
80003482:	0000                	unimp
80003484:	000001ab          	0x1ab
80003488:	01fd                	addi	gp,gp,31
8000348a:	0000                	unimp
8000348c:	03dc                	addi	a5,sp,452
8000348e:	0000                	unimp
80003490:	01aa                	slli	gp,gp,0xa
80003492:	0000                	unimp
80003494:	000c                	0xc
80003496:	0000                	unimp
80003498:	000001e3          	beqz	zero,80003c9a <_tbss_end+0x1d6>
8000349c:	008e                	slli	ra,ra,0x3
8000349e:	0000                	unimp
800034a0:	00000153          	fadd.s	ft2,ft0,ft0,rne
800034a4:	0186                	slli	gp,gp,0x1
800034a6:	0000                	unimp
800034a8:	0032                	c.slli	zero,0xc
800034aa:	0000                	unimp
800034ac:	000000ab          	0xab
800034b0:	0259                	addi	tp,tp,22
800034b2:	0000                	unimp
800034b4:	0069                	c.nop	26
800034b6:	0000                	unimp
800034b8:	03c8                	addi	a0,sp,452
800034ba:	0000                	unimp
800034bc:	0079                	c.nop	30
800034be:	0000                	unimp
800034c0:	0000036f          	jal	t1,800034c0 <input2_data+0x3d0>
800034c4:	0051                	c.nop	20
800034c6:	0000                	unimp
800034c8:	0366                	slli	t1,t1,0x19
800034ca:	0000                	unimp
800034cc:	0258                	addi	a4,sp,260
800034ce:	0000                	unimp
800034d0:	0000025b          	0x25b
800034d4:	00000367          	jalr	t1,zero # 0 <buf.2940>
800034d8:	00000377          	0x377
800034dc:	0262                	slli	tp,tp,0x18
800034de:	0000                	unimp
800034e0:	0194                	addi	a3,sp,192
800034e2:	0000                	unimp
800034e4:	00ea                	slli	ra,ra,0x1a
800034e6:	0000                	unimp
800034e8:	02e9                	addi	t0,t0,26
800034ea:	0000                	unimp
800034ec:	020e                	slli	tp,tp,0x3
800034ee:	0000                	unimp
800034f0:	00000113          	li	sp,0
800034f4:	01b9                	addi	gp,gp,14
800034f6:	0000                	unimp
800034f8:	00e2                	slli	ra,ra,0x18
800034fa:	0000                	unimp
800034fc:	02f0                	addi	a2,sp,332
800034fe:	0000                	unimp
80003500:	000003af          	0x3af
80003504:	02d6                	slli	t0,t0,0x15
80003506:	0000                	unimp
80003508:	02c5                	addi	t0,t0,17
8000350a:	0000                	unimp
8000350c:	00c9                	addi	ra,ra,18
8000350e:	0000                	unimp
80003510:	0036                	c.slli	zero,0xd
80003512:	0000                	unimp
80003514:	02f6                	slli	t0,t0,0x1d
80003516:	0000                	unimp
80003518:	0035                	c.nop	13
8000351a:	0000                	unimp
8000351c:	018d                	addi	gp,gp,3
8000351e:	0000                	unimp
80003520:	0029                	c.nop	10
80003522:	0000                	unimp
80003524:	008d                	addi	ra,ra,3
80003526:	0000                	unimp
80003528:	01a0                	addi	s0,sp,200
8000352a:	0000                	unimp
8000352c:	000002eb          	0x2eb
80003530:	000000db          	0xdb
80003534:	01de                	slli	gp,gp,0x17
80003536:	0000                	unimp
80003538:	0302                	c.slli64	t1
8000353a:	0000                	unimp
8000353c:	00b4                	addi	a3,sp,72
8000353e:	0000                	unimp
80003540:	01e2                	slli	gp,gp,0x18
80003542:	0000                	unimp
80003544:	000002b3          	add	t0,zero,zero
80003548:	02d5                	addi	t0,t0,21
8000354a:	0000                	unimp
8000354c:	00ad                	addi	ra,ra,11
8000354e:	0000                	unimp
80003550:	00ba                	slli	ra,ra,0xe
80003552:	0000                	unimp
80003554:	0392                	slli	t2,t2,0x4
80003556:	0000                	unimp
80003558:	0001                	nop
8000355a:	0000                	unimp
8000355c:	000003c3          	fmadd.s	ft7,ft0,ft0,ft0,rne
80003560:	000000f7          	0xf7
80003564:	01d0                	addi	a2,sp,196
80003566:	0000                	unimp
80003568:	016a                	slli	sp,sp,0x1a
8000356a:	0000                	unimp
8000356c:	0209                	addi	tp,tp,2
8000356e:	0000                	unimp
80003570:	00e9                	addi	ra,ra,26
80003572:	0000                	unimp
80003574:	0078                	addi	a4,sp,12
80003576:	0000                	unimp
80003578:	0028                	addi	a0,sp,8
8000357a:	0000                	unimp
8000357c:	0000030b          	0x30b
80003580:	000000c3          	fmadd.s	ft1,ft0,ft0,ft0,rne
80003584:	00a1                	addi	ra,ra,8
80003586:	0000                	unimp
80003588:	000002e7          	jalr	t0,zero # 0 <buf.2940>
8000358c:	000001b7          	lui	gp,0x0
80003590:	00000163          	beqz	zero,80003592 <input2_data+0x4a2>
80003594:	00000193          	li	gp,0
80003598:	008d                	addi	ra,ra,3
8000359a:	0000                	unimp
8000359c:	0279                	addi	tp,tp,30
8000359e:	0000                	unimp

800035a0 <verify_data>:
800035a0:	000001ef          	jal	gp,800035a0 <verify_data>
800035a4:	0490                	addi	a2,sp,576
800035a6:	0000                	unimp
800035a8:	0235                	addi	tp,tp,13
800035aa:	0000                	unimp
800035ac:	0498                	addi	a4,sp,576
800035ae:	0000                	unimp
800035b0:	045a                	slli	s0,s0,0x16
800035b2:	0000                	unimp
800035b4:	039a                	slli	t2,t2,0x6
800035b6:	0000                	unimp
800035b8:	00c4                	addi	s1,sp,68
800035ba:	0000                	unimp
800035bc:	044e                	slli	s0,s0,0x13
800035be:	0000                	unimp
800035c0:	0320                	addi	s0,sp,392
800035c2:	0000                	unimp
800035c4:	03b1                	addi	t2,t2,12
800035c6:	0000                	unimp
800035c8:	0000033f 00000242 	0x2420000033f
800035d0:	04f6                	slli	s1,s1,0x1d
800035d2:	0000                	unimp
800035d4:	000005cb          	fnmsub.s	fa1,ft0,ft0,ft0,rne
800035d8:	050a                	slli	a0,a0,0x2
800035da:	0000                	unimp
800035dc:	039a                	slli	t2,t2,0x6
800035de:	0000                	unimp
800035e0:	03cd                	addi	t2,t2,19
800035e2:	0000                	unimp
800035e4:	03e1                	addi	t2,t2,24
800035e6:	0000                	unimp
800035e8:	0362                	slli	t1,t1,0x18
800035ea:	0000                	unimp
800035ec:	03ae                	slli	t2,t2,0xb
800035ee:	0000                	unimp
800035f0:	039e                	slli	t2,t2,0x7
800035f2:	0000                	unimp
800035f4:	02ee                	slli	t0,t0,0x1b
800035f6:	0000                	unimp
800035f8:	0550                	addi	a2,sp,644
800035fa:	0000                	unimp
800035fc:	0632                	slli	a2,a2,0xc
800035fe:	0000                	unimp
80003600:	0514                	addi	a3,sp,640
80003602:	0000                	unimp
80003604:	033c                	addi	a5,sp,392
80003606:	0000                	unimp
80003608:	00000623          	sb	zero,12(zero) # c <buf.2940+0xc>
8000360c:	03ac                	addi	a1,sp,456
8000360e:	0000                	unimp
80003610:	02ea                	slli	t0,t0,0x1a
80003612:	0000                	unimp
80003614:	04ac                	addi	a1,sp,584
80003616:	0000                	unimp
80003618:	04a2                	slli	s1,s1,0x8
8000361a:	0000                	unimp
8000361c:	0436                	slli	s0,s0,0xd
8000361e:	0000                	unimp
80003620:	00000123          	sb	zero,2(zero) # 2 <buf.2940+0x2>
80003624:	000003d7          	0x3d7
80003628:	0594                	addi	a3,sp,704
8000362a:	0000                	unimp
8000362c:	03d5                	addi	t2,t2,21
8000362e:	0000                	unimp
80003630:	0426                	slli	s0,s0,0x9
80003632:	0000                	unimp
80003634:	0639                	addi	a2,a2,14
80003636:	0000                	unimp
80003638:	00000313          	li	t1,0
8000363c:	028a                	slli	t0,t0,0x2
8000363e:	0000                	unimp
80003640:	000004c3          	fmadd.s	fs1,ft0,ft0,ft0,rne
80003644:	0405                	addi	s0,s0,1
80003646:	0000                	unimp
80003648:	0399                	addi	t2,t2,6
8000364a:	0000                	unimp
8000364c:	00000633          	add	a2,zero,zero
80003650:	04f6                	slli	s1,s1,0x1d
80003652:	0000                	unimp
80003654:	02da                	slli	t0,t0,0x16
80003656:	0000                	unimp
80003658:	04d9                	addi	s1,s1,22
8000365a:	0000                	unimp
8000365c:	00000473          	0x473
80003660:	05f5                	addi	a1,a1,29
80003662:	0000                	unimp
80003664:	055d                	addi	a0,a0,23
80003666:	0000                	unimp
80003668:	02e2                	slli	t0,t0,0x18
8000366a:	0000                	unimp
8000366c:	0649                	addi	a2,a2,18
8000366e:	0000                	unimp
80003670:	0609                	addi	a2,a2,2
80003672:	0000                	unimp
80003674:	00000543          	fmadd.s	fa0,ft0,ft0,ft0,rne
80003678:	000005b7          	lui	a1,0x0
8000367c:	02e0                	addi	s0,sp,332
8000367e:	0000                	unimp
80003680:	0185                	addi	gp,gp,1
80003682:	0000                	unimp
80003684:	0455                	addi	s0,s0,21
80003686:	0000                	unimp
80003688:	05d0                	addi	a2,sp,708
8000368a:	0000                	unimp
8000368c:	0390                	addi	a2,sp,448
8000368e:	0000                	unimp
80003690:	03e0                	addi	s0,sp,460
80003692:	0000                	unimp
80003694:	0542                	slli	a0,a0,0x10
80003696:	0000                	unimp
80003698:	018a                	slli	gp,gp,0x2
8000369a:	0000                	unimp
8000369c:	0654                	addi	a3,sp,772
8000369e:	0000                	unimp
800036a0:	0524                	addi	s1,sp,648
800036a2:	0000                	unimp
800036a4:	000002a7          	0x2a7
800036a8:	045a                	slli	s0,s0,0x16
800036aa:	0000                	unimp
800036ac:	0000068f          	0x68f
800036b0:	02fd                	addi	t0,t0,31
800036b2:	0000                	unimp
800036b4:	02df 0000 0242      	0x242000002df
800036ba:	0000                	unimp
800036bc:	00000553          	fadd.s	fa0,ft0,ft0,rne
800036c0:	0448                	addi	a0,sp,516
800036c2:	0000                	unimp
800036c4:	027e                	slli	tp,tp,0x1f
800036c6:	0000                	unimp
800036c8:	02e4                	addi	s1,sp,332
800036ca:	0000                	unimp
800036cc:	03ee                	slli	t2,t2,0x1b
800036ce:	0000                	unimp
800036d0:	0510                	addi	a2,sp,640
800036d2:	0000                	unimp
800036d4:	0000018b          	0x18b
800036d8:	0000023f 000005c5 	0x5c50000023f
800036e0:	03a6                	slli	t2,t2,0x9
800036e2:	0000                	unimp
800036e4:	0120                	addi	s0,sp,136
800036e6:	0000                	unimp
800036e8:	0476                	slli	s0,s0,0x1d
800036ea:	0000                	unimp
800036ec:	037f                	0x37f
800036ee:	0000                	unimp
800036f0:	04a1                	addi	s1,s1,8
800036f2:	0000                	unimp
800036f4:	0480                	addi	s0,sp,576
800036f6:	0000                	unimp
800036f8:	00000497          	auipc	s1,0x0
800036fc:	040c                	addi	a1,sp,512
800036fe:	0000                	unimp
80003700:	0458                	addi	a4,sp,516
80003702:	0000                	unimp
80003704:	01c2                	slli	gp,gp,0x10
80003706:	0000                	unimp
80003708:	0625                	addi	a2,a2,9
8000370a:	0000                	unimp
8000370c:	014d                	addi	sp,sp,19
8000370e:	0000                	unimp
80003710:	072e                	slli	a4,a4,0xb
80003712:	0000                	unimp
80003714:	000004a7          	0x4a7
80003718:	036d                	addi	t1,t1,27
8000371a:	0000                	unimp
8000371c:	000002e3          	beqz	zero,80003f20 <_tbss_end+0x45c>
80003720:	03fc                	addi	a5,sp,460
80003722:	0000                	unimp
80003724:	047d                	addi	s0,s0,31
80003726:	0000                	unimp
80003728:	046d                	addi	s0,s0,27
8000372a:	0000                	unimp
8000372c:	0000024b          	fnmsub.s	ft4,ft0,ft0,ft0,rne
80003730:	05b6                	slli	a1,a1,0xd
80003732:	0000                	unimp
80003734:	053a                	slli	a0,a0,0xe
80003736:	0000                	unimp
80003738:	024d                	addi	tp,tp,19
8000373a:	0000                	unimp
8000373c:	0158                	addi	a4,sp,132
8000373e:	0000                	unimp
80003740:	0364                	addi	s1,sp,396
80003742:	0000                	unimp
80003744:	05da                	slli	a1,a1,0x16
80003746:	0000                	unimp
80003748:	0584                	addi	s1,sp,704
8000374a:	0000                	unimp
8000374c:	054c                	addi	a1,sp,644
8000374e:	0000                	unimp
80003750:	05c6                	slli	a1,a1,0x11
80003752:	0000                	unimp
80003754:	000004cb          	fnmsub.s	fs1,ft0,ft0,ft0,rne
80003758:	03ed                	addi	t2,t2,27
8000375a:	0000                	unimp
8000375c:	00000733          	add	a4,zero,zero
80003760:	03b9                	addi	t2,t2,14
80003762:	0000                	unimp
80003764:	0215                	addi	tp,tp,5
80003766:	0000                	unimp
80003768:	025e                	slli	tp,tp,0x17
8000376a:	0000                	unimp
8000376c:	03bc                	addi	a5,sp,456
8000376e:	0000                	unimp
80003770:	03b4                	addi	a3,sp,456
80003772:	0000                	unimp
80003774:	0371                	addi	t1,t1,28
80003776:	0000                	unimp
80003778:	0288                	addi	a0,sp,320
8000377a:	0000                	unimp
8000377c:	050c                	addi	a1,sp,640
8000377e:	0000                	unimp
80003780:	030a                	slli	t1,t1,0x2
80003782:	0000                	unimp
80003784:	0121                	addi	sp,sp,8
80003786:	0000                	unimp
80003788:	0339                	addi	t1,t1,14
8000378a:	0000                	unimp
8000378c:	0475                	addi	s0,s0,29
8000378e:	0000                	unimp
80003790:	0456                	slli	s0,s0,0x15
80003792:	0000                	unimp
80003794:	02d4                	addi	a3,sp,324
80003796:	0000                	unimp
80003798:	03da                	slli	t2,t2,0x16
8000379a:	0000                	unimp
8000379c:	02b9                	addi	t0,t0,14
8000379e:	0000                	unimp
800037a0:	075a                	slli	a4,a4,0x16
800037a2:	0000                	unimp
800037a4:	0376                	slli	t1,t1,0x1d
800037a6:	0000                	unimp
800037a8:	06ff                	0x6ff
800037aa:	0000                	unimp
800037ac:	06e9                	addi	a3,a3,26
800037ae:	0000                	unimp
800037b0:	0000024f          	fnmadd.s	ft4,ft0,ft0,ft0,rne
800037b4:	0616                	slli	a2,a2,0x5
800037b6:	0000                	unimp
800037b8:	0674                	addi	a3,sp,780
800037ba:	0000                	unimp
800037bc:	00000343          	fmadd.s	ft6,ft0,ft0,ft0,rne
800037c0:	02ce                	slli	t0,t0,0x13
800037c2:	0000                	unimp
800037c4:	0382                	c.slli64	t2
800037c6:	0000                	unimp
800037c8:	00000297          	auipc	t0,0x0
800037cc:	00000387          	0x387
800037d0:	00000573          	0x573
800037d4:	0206                	slli	tp,tp,0x1
800037d6:	0000                	unimp
800037d8:	048a                	slli	s1,s1,0x2
800037da:	0000                	unimp
800037dc:	01b6                	slli	gp,gp,0xd
800037de:	0000                	unimp
800037e0:	018d                	addi	gp,gp,3
800037e2:	0000                	unimp
800037e4:	0304                	addi	s1,sp,384
800037e6:	0000                	unimp
800037e8:	0486                	slli	s1,s1,0x1
800037ea:	0000                	unimp
800037ec:	020d                	addi	tp,tp,3
800037ee:	0000                	unimp
800037f0:	04e2                	slli	s1,s1,0x18
800037f2:	0000                	unimp
800037f4:	05f1                	addi	a1,a1,28
800037f6:	0000                	unimp
800037f8:	046e                	slli	s0,s0,0x1b
800037fa:	0000                	unimp
800037fc:	0265                	addi	tp,tp,25
800037fe:	0000                	unimp
80003800:	028a                	slli	t0,t0,0x2
80003802:	0000                	unimp
80003804:	00000247          	fmsub.s	ft4,ft0,ft0,ft0,rne
80003808:	02d8                	addi	a4,sp,324
8000380a:	0000                	unimp
8000380c:	020c                	addi	a1,sp,256
8000380e:	0000                	unimp
80003810:	0000056f          	jal	a0,80003810 <verify_data+0x270>
80003814:	04fe                	slli	s1,s1,0x1f
80003816:	0000                	unimp
80003818:	01c9                	addi	gp,gp,18
8000381a:	0000                	unimp
8000381c:	0000038b          	0x38b
80003820:	034d                	addi	t1,t1,19
80003822:	0000                	unimp
80003824:	0379                	addi	t1,t1,30
80003826:	0000                	unimp
80003828:	03c5                	addi	t2,t2,17
8000382a:	0000                	unimp
8000382c:	0428                	addi	a0,sp,520
8000382e:	0000                	unimp
80003830:	056d                	addi	a0,a0,27
80003832:	0000                	unimp
80003834:	0000051b          	0x51b
80003838:	0174                	addi	a3,sp,140
8000383a:	0000                	unimp
8000383c:	0395                	addi	t2,t2,5
8000383e:	0000                	unimp
80003840:	00000567          	jalr	a0,zero # 0 <buf.2940>
80003844:	03c9                	addi	t2,t2,18
80003846:	0000                	unimp
80003848:	03c1                	addi	t2,t2,16
8000384a:	0000                	unimp
8000384c:	00000407          	0x407
80003850:	00000433          	add	s0,zero,zero
80003854:	0430                	addi	a2,sp,520
80003856:	0000                	unimp
80003858:	0391                	addi	t2,t2,4
8000385a:	0000                	unimp
8000385c:	0346                	slli	t1,t1,0x11
8000385e:	0000                	unimp
80003860:	013a                	slli	sp,sp,0xe
80003862:	0000                	unimp
80003864:	000004a7          	0x4a7
80003868:	00000347          	fmsub.s	ft6,ft0,ft0,ft0,rne
8000386c:	067e                	slli	a2,a2,0x1f
8000386e:	0000                	unimp
80003870:	04a0                	addi	s0,sp,584
80003872:	0000                	unimp
80003874:	0696                	slli	a3,a3,0x5
80003876:	0000                	unimp
80003878:	02bc                	addi	a5,sp,328
8000387a:	0000                	unimp
8000387c:	0739                	addi	a4,a4,14
8000387e:	0000                	unimp
80003880:	05e5                	addi	a1,a1,25
80003882:	0000                	unimp
80003884:	0342                	slli	t1,t1,0x10
80003886:	0000                	unimp
80003888:	00000097          	auipc	ra,0x0
8000388c:	040e                	slli	s0,s0,0x3
8000388e:	0000                	unimp
80003890:	0304                	addi	s1,sp,384
80003892:	0000                	unimp
80003894:	00ff                	0xff
80003896:	0000                	unimp
80003898:	01f6                	slli	gp,gp,0x1d
8000389a:	0000                	unimp
8000389c:	02ed                	addi	t0,t0,27
8000389e:	0000                	unimp
800038a0:	04d5                	addi	s1,s1,21
800038a2:	0000                	unimp
800038a4:	0434                	addi	a3,sp,520
800038a6:	0000                	unimp
800038a8:	0170                	addi	a2,sp,140
800038aa:	0000                	unimp
800038ac:	0000023b          	0x23b
800038b0:	000003fb          	0x3fb
800038b4:	0164                	addi	s1,sp,140
800038b6:	0000                	unimp
800038b8:	0628                	addi	a0,sp,776
800038ba:	0000                	unimp
800038bc:	02c0                	addi	s0,sp,324
800038be:	0000                	unimp
800038c0:	05ae                	slli	a1,a1,0xb
800038c2:	0000                	unimp
800038c4:	05c0                	addi	s0,sp,708
800038c6:	0000                	unimp
800038c8:	0490                	addi	a2,sp,576
800038ca:	0000                	unimp
800038cc:	0470                	addi	a2,sp,524
800038ce:	0000                	unimp
800038d0:	05c6                	slli	a1,a1,0x11
800038d2:	0000                	unimp
800038d4:	000002b7          	lui	t0,0x0
800038d8:	00d1                	addi	ra,ra,20
800038da:	0000                	unimp
800038dc:	022c                	addi	a1,sp,264
800038de:	0000                	unimp
800038e0:	02a0                	addi	s0,sp,328
800038e2:	0000                	unimp
800038e4:	029e                	slli	t0,t0,0x7
800038e6:	0000                	unimp
800038e8:	000006bf 000003f7 	0x3f7000006bf
800038f0:	0569                	addi	a0,a0,26
800038f2:	0000                	unimp
800038f4:	01c6                	slli	gp,gp,0x11
800038f6:	0000                	unimp
800038f8:	01b0                	addi	a2,sp,200
800038fa:	0000                	unimp
800038fc:	0224                	addi	s1,sp,264
800038fe:	0000                	unimp
80003900:	000006ab          	0x6ab
80003904:	0280                	addi	s0,sp,320
80003906:	0000                	unimp
80003908:	02dd                	addi	t0,t0,23
8000390a:	0000                	unimp
8000390c:	04e9                	addi	s1,s1,26
8000390e:	0000                	unimp
80003910:	043c                	addi	a5,sp,520
80003912:	0000                	unimp
80003914:	00000543          	fmadd.s	fa0,ft0,ft0,ft0,rne
80003918:	056d                	addi	a0,a0,27
8000391a:	0000                	unimp
8000391c:	00000377          	0x377
80003920:	000004b3          	add	s1,zero,zero
80003924:	04ad                	addi	s1,s1,11
80003926:	0000                	unimp
80003928:	0146                	slli	sp,sp,0x11
8000392a:	0000                	unimp
8000392c:	0299                	addi	t0,t0,6
8000392e:	0000                	unimp
80003930:	0000049b          	0x49b
80003934:	03a0                	addi	s0,sp,456
80003936:	0000                	unimp
80003938:	0506                	slli	a0,a0,0x1
8000393a:	0000                	unimp
8000393c:	00000407          	0x407
80003940:	0000049b          	0x49b
80003944:	005d                	c.nop	23
80003946:	0000                	unimp
80003948:	02ad                	addi	t0,t0,11
8000394a:	0000                	unimp
8000394c:	000003e3          	beqz	zero,80004152 <_tbss_end+0x68e>
80003950:	01ec                	addi	a1,sp,204
80003952:	0000                	unimp
80003954:	047e                	slli	s0,s0,0x1f
80003956:	0000                	unimp
80003958:	00000197          	auipc	gp,0x0
8000395c:	045a                	slli	s0,s0,0x16
8000395e:	0000                	unimp
80003960:	000005f3          	0x5f3
80003964:	01b1                	addi	gp,gp,12
80003966:	0000                	unimp
80003968:	05b8                	addi	a4,sp,712
8000396a:	0000                	unimp
8000396c:	00000233          	add	tp,zero,zero
80003970:	00000573          	0x573
80003974:	02d2                	slli	t0,t0,0x14
80003976:	0000                	unimp
80003978:	047a                	slli	s0,s0,0x1e
8000397a:	0000                	unimp
8000397c:	056a                	slli	a0,a0,0x1a
8000397e:	0000                	unimp
80003980:	02cc                	addi	a1,sp,324
80003982:	0000                	unimp
80003984:	06b1                	addi	a3,a3,12
80003986:	0000                	unimp
80003988:	0702                	c.slli64	a4
8000398a:	0000                	unimp
8000398c:	0375                	addi	t1,t1,29
8000398e:	0000                	unimp
80003990:	0281                	addi	t0,t0,0
80003992:	0000                	unimp
80003994:	010a                	slli	sp,sp,0x2
80003996:	0000                	unimp
80003998:	05f9                	addi	a1,a1,30
8000399a:	0000                	unimp
8000399c:	00000443          	fmadd.s	fs0,ft0,ft0,ft0,rne
800039a0:	0278                	addi	a4,sp,268
800039a2:	0000                	unimp
800039a4:	04dc                	addi	a5,sp,580
800039a6:	0000                	unimp
800039a8:	0415                	addi	s0,s0,5
800039aa:	0000                	unimp
800039ac:	05df 0000 04c7      	0x4c7000005df
800039b2:	0000                	unimp
800039b4:	0000032b          	0x32b
800039b8:	0000048f          	0x48f
800039bc:	0000028f          	0x28f
800039c0:	02fc                	addi	a5,sp,332
800039c2:	0000                	unimp
800039c4:	04c1                	addi	s1,s1,16
800039c6:	0000                	unimp
800039c8:	005e                	c.slli	zero,0x17
800039ca:	0000                	unimp
800039cc:	028a                	slli	t0,t0,0x2
800039ce:	0000                	unimp
800039d0:	01a2                	slli	gp,gp,0x8
800039d2:	0000                	unimp
800039d4:	0289                	addi	t0,t0,2
800039d6:	0000                	unimp
800039d8:	045c                	addi	a5,sp,516
800039da:	0000                	unimp
800039dc:	00000647          	fmsub.s	fa2,ft0,ft0,ft0,rne
800039e0:	000002bb          	0x2bb
800039e4:	000004c3          	fmadd.s	fs1,ft0,ft0,ft0,rne
800039e8:	04f5                	addi	s1,s1,29
800039ea:	0000                	unimp
800039ec:	0379                	addi	t1,t1,30
800039ee:	0000                	unimp
800039f0:	00000213          	li	tp,0
800039f4:	0426                	slli	s0,s0,0x9
800039f6:	0000                	unimp
800039f8:	063e                	slli	a2,a2,0xf
800039fa:	0000                	unimp
800039fc:	045e                	slli	s0,s0,0x17
800039fe:	0000                	unimp
80003a00:	049a                	slli	s1,s1,0x6
80003a02:	0000                	unimp
80003a04:	05a0                	addi	s0,sp,712
80003a06:	0000                	unimp
80003a08:	02d2                	slli	t0,t0,0x14
80003a0a:	0000                	unimp
80003a0c:	0576                	slli	a0,a0,0x1d
80003a0e:	0000                	unimp
80003a10:	01df 0000 03c1      	0x3c1000001df
80003a16:	0000                	unimp
80003a18:	00000423          	sb	zero,8(zero) # 8 <buf.2940+0x8>
80003a1c:	00000227          	0x227
80003a20:	0245                	addi	tp,tp,17
80003a22:	0000                	unimp
80003a24:	0172                	slli	sp,sp,0x1c
80003a26:	0000                	unimp
80003a28:	0186                	slli	gp,gp,0x1
80003a2a:	0000                	unimp
80003a2c:	0405                	addi	s0,s0,1
80003a2e:	0000                	unimp
80003a30:	0300                	addi	s0,sp,384
80003a32:	0000                	unimp
80003a34:	03b1                	addi	t2,t2,12
80003a36:	0000                	unimp
80003a38:	05d4                	addi	a3,sp,708
80003a3a:	0000                	unimp
80003a3c:	03ad                	addi	t2,t2,11
80003a3e:	0000                	unimp
80003a40:	049a                	slli	s1,s1,0x6
80003a42:	0000                	unimp
80003a44:	04cd                	addi	s1,s1,19
80003a46:	0000                	unimp
80003a48:	00000137          	lui	sp,0x0
80003a4c:	0319                	addi	t1,t1,6
80003a4e:	0000                	unimp
