
mt-matmul.riscv:     ファイル形式 elf32-littleriscv


セクション .text.init の逆アセンブル:

80000000 <_start>:
80000000:	00000093          	li	ra,0
80000004:	00000113          	li	sp,0
80000008:	00000193          	li	gp,0
8000000c:	00000213          	li	tp,0
80000010:	00000293          	li	t0,0
80000014:	00000313          	li	t1,0
80000018:	00000393          	li	t2,0
8000001c:	00000413          	li	s0,0
80000020:	00000493          	li	s1,0
80000024:	00000513          	li	a0,0
80000028:	00000593          	li	a1,0
8000002c:	00000613          	li	a2,0
80000030:	00000693          	li	a3,0
80000034:	00000713          	li	a4,0
80000038:	00000793          	li	a5,0
8000003c:	00000813          	li	a6,0
80000040:	00000893          	li	a7,0
80000044:	00000913          	li	s2,0
80000048:	00000993          	li	s3,0
8000004c:	00000a13          	li	s4,0
80000050:	00000a93          	li	s5,0
80000054:	00000b13          	li	s6,0
80000058:	00000b93          	li	s7,0
8000005c:	00000c13          	li	s8,0
80000060:	00000c93          	li	s9,0
80000064:	00000d13          	li	s10,0
80000068:	00000d93          	li	s11,0
8000006c:	00000e13          	li	t3,0
80000070:	00000e93          	li	t4,0
80000074:	00000f13          	li	t5,0
80000078:	00000f93          	li	t6,0
8000007c:	0001e2b7          	lui	t0,0x1e
80000080:	3002a073          	csrs	mstatus,t0
80000084:	00100293          	li	t0,1
80000088:	01f29293          	slli	t0,t0,0x1f
8000008c:	0002ca63          	bltz	t0,800000a0 <_start+0xa0>
80000090:	00100513          	li	a0,1
80000094:	00001297          	auipc	t0,0x1
80000098:	f6a2a623          	sw	a0,-148(t0) # 80001000 <tohost>
8000009c:	ff5ff06f          	j	80000090 <_start+0x90>
800000a0:	00000297          	auipc	t0,0x0
800000a4:	04028293          	addi	t0,t0,64 # 800000e0 <trap_entry>
800000a8:	30529073          	csrw	mtvec,t0
800000ac:	00004197          	auipc	gp,0x4
800000b0:	2b018193          	addi	gp,gp,688 # 8000435c <__global_pointer$>
800000b4:	c6318213          	addi	tp,gp,-925 # 80003fbf <_end+0x3f>
800000b8:	fc027213          	andi	tp,tp,-64
800000bc:	f1402573          	csrr	a0,mhartid
800000c0:	00100593          	li	a1,1
800000c4:	00b57063          	bgeu	a0,a1,800000c4 <_start+0xc4>
800000c8:	01151613          	slli	a2,a0,0x11
800000cc:	00c20233          	add	tp,tp,a2
800000d0:	00150113          	addi	sp,a0,1
800000d4:	01111113          	slli	sp,sp,0x11
800000d8:	00410133          	add	sp,sp,tp
800000dc:	4210106f          	j	80001cfc <_init>

800000e0 <trap_entry>:
800000e0:	ef010113          	addi	sp,sp,-272
800000e4:	00112223          	sw	ra,4(sp)
800000e8:	00212423          	sw	sp,8(sp)
800000ec:	00312623          	sw	gp,12(sp)
800000f0:	00412823          	sw	tp,16(sp)
800000f4:	00512a23          	sw	t0,20(sp)
800000f8:	00612c23          	sw	t1,24(sp)
800000fc:	00712e23          	sw	t2,28(sp)
80000100:	02812023          	sw	s0,32(sp)
80000104:	02912223          	sw	s1,36(sp)
80000108:	02a12423          	sw	a0,40(sp)
8000010c:	02b12623          	sw	a1,44(sp)
80000110:	02c12823          	sw	a2,48(sp)
80000114:	02d12a23          	sw	a3,52(sp)
80000118:	02e12c23          	sw	a4,56(sp)
8000011c:	02f12e23          	sw	a5,60(sp)
80000120:	05012023          	sw	a6,64(sp)
80000124:	05112223          	sw	a7,68(sp)
80000128:	05212423          	sw	s2,72(sp)
8000012c:	05312623          	sw	s3,76(sp)
80000130:	05412823          	sw	s4,80(sp)
80000134:	05512a23          	sw	s5,84(sp)
80000138:	05612c23          	sw	s6,88(sp)
8000013c:	05712e23          	sw	s7,92(sp)
80000140:	07812023          	sw	s8,96(sp)
80000144:	07912223          	sw	s9,100(sp)
80000148:	07a12423          	sw	s10,104(sp)
8000014c:	07b12623          	sw	s11,108(sp)
80000150:	07c12823          	sw	t3,112(sp)
80000154:	07d12a23          	sw	t4,116(sp)
80000158:	07e12c23          	sw	t5,120(sp)
8000015c:	07f12e23          	sw	t6,124(sp)
80000160:	34202573          	csrr	a0,mcause
80000164:	341025f3          	csrr	a1,mepc
80000168:	00010613          	mv	a2,sp
8000016c:	125010ef          	jal	ra,80001a90 <handle_trap>
80000170:	34151073          	csrw	mepc,a0
80000174:	000022b7          	lui	t0,0x2
80000178:	80028293          	addi	t0,t0,-2048 # 1800 <buflen.2990+0x1780>
8000017c:	3002a073          	csrs	mstatus,t0
80000180:	00412083          	lw	ra,4(sp)
80000184:	00812103          	lw	sp,8(sp)
80000188:	00c12183          	lw	gp,12(sp)
8000018c:	01012203          	lw	tp,16(sp)
80000190:	01412283          	lw	t0,20(sp)
80000194:	01812303          	lw	t1,24(sp)
80000198:	01c12383          	lw	t2,28(sp)
8000019c:	02012403          	lw	s0,32(sp)
800001a0:	02412483          	lw	s1,36(sp)
800001a4:	02812503          	lw	a0,40(sp)
800001a8:	02c12583          	lw	a1,44(sp)
800001ac:	03012603          	lw	a2,48(sp)
800001b0:	03412683          	lw	a3,52(sp)
800001b4:	03812703          	lw	a4,56(sp)
800001b8:	03c12783          	lw	a5,60(sp)
800001bc:	04012803          	lw	a6,64(sp)
800001c0:	04412883          	lw	a7,68(sp)
800001c4:	04812903          	lw	s2,72(sp)
800001c8:	04c12983          	lw	s3,76(sp)
800001cc:	05012a03          	lw	s4,80(sp)
800001d0:	05412a83          	lw	s5,84(sp)
800001d4:	05812b03          	lw	s6,88(sp)
800001d8:	05c12b83          	lw	s7,92(sp)
800001dc:	06012c03          	lw	s8,96(sp)
800001e0:	06412c83          	lw	s9,100(sp)
800001e4:	06812d03          	lw	s10,104(sp)
800001e8:	06c12d83          	lw	s11,108(sp)
800001ec:	07012e03          	lw	t3,112(sp)
800001f0:	07412e83          	lw	t4,116(sp)
800001f4:	07812f03          	lw	t5,120(sp)
800001f8:	07c12f83          	lw	t6,124(sp)
800001fc:	11010113          	addi	sp,sp,272
80000200:	30200073          	mret

セクション .text の逆アセンブル:

80001048 <barrier>:
80001048:	0ff0000f          	fence
8000104c:	00022683          	lw	a3,0(tp) # 0 <threadsense.3208>
80001050:	00003717          	auipc	a4,0x3
80001054:	b1070713          	addi	a4,a4,-1264 # 80003b60 <count.3207>
80001058:	00100613          	li	a2,1
8000105c:	0016b693          	seqz	a3,a3
80001060:	00d22023          	sw	a3,0(tp) # 0 <threadsense.3208>
80001064:	0f50000f          	fence	iorw,ow
80001068:	04c726af          	amoadd.w.aq	a3,a2,(a4)
8000106c:	fff50513          	addi	a0,a0,-1
80001070:	02a68063          	beq	a3,a0,80001090 <barrier+0x48>
80001074:	00022683          	lw	a3,0(tp) # 0 <threadsense.3208>
80001078:	00003717          	auipc	a4,0x3
8000107c:	ae470713          	addi	a4,a4,-1308 # 80003b5c <sense.3206>
80001080:	00072783          	lw	a5,0(a4)
80001084:	fed79ee3          	bne	a5,a3,80001080 <barrier+0x38>
80001088:	0ff0000f          	fence
8000108c:	00008067          	ret
80001090:	00022783          	lw	a5,0(tp) # 0 <threadsense.3208>
80001094:	00003717          	auipc	a4,0x3
80001098:	ac072623          	sw	zero,-1332(a4) # 80003b60 <count.3207>
8000109c:	00003717          	auipc	a4,0x3
800010a0:	acf72023          	sw	a5,-1344(a4) # 80003b5c <sense.3206>
800010a4:	fe5ff06f          	j	80001088 <barrier+0x40>

800010a8 <thread_entry>:
800010a8:	fe010113          	addi	sp,sp,-32
800010ac:	00812c23          	sw	s0,24(sp)
800010b0:	00912a23          	sw	s1,20(sp)
800010b4:	00112e23          	sw	ra,28(sp)
800010b8:	01212823          	sw	s2,16(sp)
800010bc:	01312623          	sw	s3,12(sp)
800010c0:	00050413          	mv	s0,a0
800010c4:	00058493          	mv	s1,a1
800010c8:	b00029f3          	csrr	s3,mcycle
800010cc:	b0202973          	csrr	s2,minstret
800010d0:	00003797          	auipc	a5,0x3
800010d4:	aa478793          	addi	a5,a5,-1372 # 80003b74 <results_data.3230>
800010d8:	00002717          	auipc	a4,0x2
800010dc:	e8470713          	addi	a4,a4,-380 # 80002f5c <input2_data>
800010e0:	00002697          	auipc	a3,0x2
800010e4:	27c68693          	addi	a3,a3,636 # 8000335c <input1_data>
800010e8:	01000613          	li	a2,16
800010ec:	0ac000ef          	jal	ra,80001198 <matmul>
800010f0:	00048513          	mv	a0,s1
800010f4:	f55ff0ef          	jal	ra,80001048 <barrier>
800010f8:	b00028f3          	csrr	a7,mcycle
800010fc:	b02027f3          	csrr	a5,minstret
80001100:	04040a63          	beqz	s0,80001154 <thread_entry+0xac>
80001104:	00003717          	auipc	a4,0x3
80001108:	a7070713          	addi	a4,a4,-1424 # 80003b74 <results_data.3230>
8000110c:	00002797          	auipc	a5,0x2
80001110:	65078793          	addi	a5,a5,1616 # 8000375c <verify_data>
80001114:	00000513          	li	a0,0
80001118:	10000693          	li	a3,256
8000111c:	00072883          	lw	a7,0(a4)
80001120:	0007a803          	lw	a6,0(a5)
80001124:	00472583          	lw	a1,4(a4)
80001128:	0047a603          	lw	a2,4(a5)
8000112c:	03089063          	bne	a7,a6,8000114c <thread_entry+0xa4>
80001130:	00250513          	addi	a0,a0,2
80001134:	00c59a63          	bne	a1,a2,80001148 <thread_entry+0xa0>
80001138:	00870713          	addi	a4,a4,8
8000113c:	00878793          	addi	a5,a5,8
80001140:	fcd51ee3          	bne	a0,a3,8000111c <thread_entry+0x74>
80001144:	00000513          	li	a0,0
80001148:	169000ef          	jal	ra,80001ab0 <exit>
8000114c:	00150513          	addi	a0,a0,1
80001150:	ff9ff06f          	j	80001148 <thread_entry+0xa0>
80001154:	413888b3          	sub	a7,a7,s3
80001158:	00a00713          	li	a4,10
8000115c:	02e88333          	mul	t1,a7,a4
80001160:	412787b3          	sub	a5,a5,s2
80001164:	00c8d693          	srli	a3,a7,0xc
80001168:	00088613          	mv	a2,a7
8000116c:	00002597          	auipc	a1,0x2
80001170:	a8858593          	addi	a1,a1,-1400 # 80002bf4 <main+0x24>
80001174:	00002517          	auipc	a0,0x2
80001178:	acc50513          	addi	a0,a0,-1332 # 80002c40 <main+0x70>
8000117c:	02f35833          	divu	a6,t1,a5
80001180:	00c35313          	srli	t1,t1,0xc
80001184:	02e87833          	remu	a6,a6,a4
80001188:	02f8d7b3          	divu	a5,a7,a5
8000118c:	02e37733          	remu	a4,t1,a4
80001190:	1f5000ef          	jal	ra,80001b84 <printf>
80001194:	f71ff06f          	j	80001104 <thread_entry+0x5c>

80001198 <matmul>:
80001198:	02b655b3          	divu	a1,a2,a1
8000119c:	fe010113          	addi	sp,sp,-32
800011a0:	01212a23          	sw	s2,20(sp)
800011a4:	00812e23          	sw	s0,28(sp)
800011a8:	00912c23          	sw	s1,24(sp)
800011ac:	01312823          	sw	s3,16(sp)
800011b0:	01412623          	sw	s4,12(sp)
800011b4:	02a58933          	mul	s2,a1,a0
800011b8:	20060863          	beqz	a2,800013c8 <matmul+0x230>
800011bc:	00261313          	slli	t1,a2,0x2
800011c0:	00190813          	addi	a6,s2,1
800011c4:	00070393          	mv	t2,a4
800011c8:	01258533          	add	a0,a1,s2
800011cc:	00000493          	li	s1,0
800011d0:	02690a33          	mul	s4,s2,t1
800011d4:	02680733          	mul	a4,a6,t1
800011d8:	01478433          	add	s0,a5,s4
800011dc:	01468a33          	add	s4,a3,s4
800011e0:	00e689b3          	add	s3,a3,a4
800011e4:	1ca97a63          	bgeu	s2,a0,800013b8 <matmul+0x220>
800011e8:	00098e93          	mv	t4,s3
800011ec:	000a0f13          	mv	t5,s4
800011f0:	00040293          	mv	t0,s0
800011f4:	00090f93          	mv	t6,s2
800011f8:	41ee86b3          	sub	a3,t4,t5
800011fc:	ffc68693          	addi	a3,a3,-4
80001200:	0026d693          	srli	a3,a3,0x2
80001204:	00168693          	addi	a3,a3,1
80001208:	0076f693          	andi	a3,a3,7
8000120c:	00038793          	mv	a5,t2
80001210:	000f0893          	mv	a7,t5
80001214:	00000713          	li	a4,0
80001218:	0c068e63          	beqz	a3,800012f4 <matmul+0x15c>
8000121c:	00100593          	li	a1,1
80001220:	0ab68c63          	beq	a3,a1,800012d8 <matmul+0x140>
80001224:	00200593          	li	a1,2
80001228:	08b68c63          	beq	a3,a1,800012c0 <matmul+0x128>
8000122c:	00300593          	li	a1,3
80001230:	06b68c63          	beq	a3,a1,800012a8 <matmul+0x110>
80001234:	00400593          	li	a1,4
80001238:	04b68c63          	beq	a3,a1,80001290 <matmul+0xf8>
8000123c:	00500593          	li	a1,5
80001240:	02b68c63          	beq	a3,a1,80001278 <matmul+0xe0>
80001244:	00600593          	li	a1,6
80001248:	00b68c63          	beq	a3,a1,80001260 <matmul+0xc8>
8000124c:	000f2583          	lw	a1,0(t5)
80001250:	0003a683          	lw	a3,0(t2)
80001254:	004f0893          	addi	a7,t5,4
80001258:	006387b3          	add	a5,t2,t1
8000125c:	02d58733          	mul	a4,a1,a3
80001260:	0008a583          	lw	a1,0(a7)
80001264:	0007a683          	lw	a3,0(a5)
80001268:	00488893          	addi	a7,a7,4
8000126c:	006787b3          	add	a5,a5,t1
80001270:	02d58833          	mul	a6,a1,a3
80001274:	01070733          	add	a4,a4,a6
80001278:	0008a583          	lw	a1,0(a7)
8000127c:	0007a683          	lw	a3,0(a5)
80001280:	00488893          	addi	a7,a7,4
80001284:	006787b3          	add	a5,a5,t1
80001288:	02d58833          	mul	a6,a1,a3
8000128c:	01070733          	add	a4,a4,a6
80001290:	0008a583          	lw	a1,0(a7)
80001294:	0007a683          	lw	a3,0(a5)
80001298:	00488893          	addi	a7,a7,4
8000129c:	006787b3          	add	a5,a5,t1
800012a0:	02d58833          	mul	a6,a1,a3
800012a4:	01070733          	add	a4,a4,a6
800012a8:	0008a583          	lw	a1,0(a7)
800012ac:	0007a683          	lw	a3,0(a5)
800012b0:	00488893          	addi	a7,a7,4
800012b4:	006787b3          	add	a5,a5,t1
800012b8:	02d58833          	mul	a6,a1,a3
800012bc:	01070733          	add	a4,a4,a6
800012c0:	0008a583          	lw	a1,0(a7)
800012c4:	0007a683          	lw	a3,0(a5)
800012c8:	00488893          	addi	a7,a7,4
800012cc:	006787b3          	add	a5,a5,t1
800012d0:	02d58833          	mul	a6,a1,a3
800012d4:	01070733          	add	a4,a4,a6
800012d8:	0008a583          	lw	a1,0(a7)
800012dc:	0007a683          	lw	a3,0(a5)
800012e0:	00488893          	addi	a7,a7,4
800012e4:	006787b3          	add	a5,a5,t1
800012e8:	02d58833          	mul	a6,a1,a3
800012ec:	01070733          	add	a4,a4,a6
800012f0:	0bd88863          	beq	a7,t4,800013a0 <matmul+0x208>
800012f4:	0008a583          	lw	a1,0(a7)
800012f8:	0007a683          	lw	a3,0(a5)
800012fc:	006787b3          	add	a5,a5,t1
80001300:	00488e13          	addi	t3,a7,4
80001304:	02d58833          	mul	a6,a1,a3
80001308:	0048a583          	lw	a1,4(a7)
8000130c:	0007a683          	lw	a3,0(a5)
80001310:	006787b3          	add	a5,a5,t1
80001314:	02088893          	addi	a7,a7,32
80001318:	01070733          	add	a4,a4,a6
8000131c:	02d58833          	mul	a6,a1,a3
80001320:	fe88a583          	lw	a1,-24(a7)
80001324:	0007a683          	lw	a3,0(a5)
80001328:	006787b3          	add	a5,a5,t1
8000132c:	01070733          	add	a4,a4,a6
80001330:	02d58833          	mul	a6,a1,a3
80001334:	0007a683          	lw	a3,0(a5)
80001338:	008e2583          	lw	a1,8(t3)
8000133c:	006787b3          	add	a5,a5,t1
80001340:	01070733          	add	a4,a4,a6
80001344:	02d58833          	mul	a6,a1,a3
80001348:	0007a683          	lw	a3,0(a5)
8000134c:	00ce2583          	lw	a1,12(t3)
80001350:	006787b3          	add	a5,a5,t1
80001354:	01070733          	add	a4,a4,a6
80001358:	02d58833          	mul	a6,a1,a3
8000135c:	0007a683          	lw	a3,0(a5)
80001360:	010e2583          	lw	a1,16(t3)
80001364:	006787b3          	add	a5,a5,t1
80001368:	01070733          	add	a4,a4,a6
8000136c:	02d58833          	mul	a6,a1,a3
80001370:	0007a683          	lw	a3,0(a5)
80001374:	014e2583          	lw	a1,20(t3)
80001378:	006787b3          	add	a5,a5,t1
8000137c:	01070733          	add	a4,a4,a6
80001380:	02d58833          	mul	a6,a1,a3
80001384:	0007a683          	lw	a3,0(a5)
80001388:	018e2583          	lw	a1,24(t3)
8000138c:	006787b3          	add	a5,a5,t1
80001390:	01070733          	add	a4,a4,a6
80001394:	02d58833          	mul	a6,a1,a3
80001398:	01070733          	add	a4,a4,a6
8000139c:	f5d89ce3          	bne	a7,t4,800012f4 <matmul+0x15c>
800013a0:	00e2a023          	sw	a4,0(t0)
800013a4:	001f8f93          	addi	t6,t6,1
800013a8:	006282b3          	add	t0,t0,t1
800013ac:	006f0f33          	add	t5,t5,t1
800013b0:	006e8eb3          	add	t4,t4,t1
800013b4:	e4af92e3          	bne	t6,a0,800011f8 <matmul+0x60>
800013b8:	00148493          	addi	s1,s1,1
800013bc:	00438393          	addi	t2,t2,4
800013c0:	00440413          	addi	s0,s0,4
800013c4:	e29610e3          	bne	a2,s1,800011e4 <matmul+0x4c>
800013c8:	01c12403          	lw	s0,28(sp)
800013cc:	01812483          	lw	s1,24(sp)
800013d0:	01412903          	lw	s2,20(sp)
800013d4:	01012983          	lw	s3,16(sp)
800013d8:	00c12a03          	lw	s4,12(sp)
800013dc:	02010113          	addi	sp,sp,32
800013e0:	00008067          	ret

800013e4 <vprintfmt>:
800013e4:	eb010113          	addi	sp,sp,-336
800013e8:	13a12023          	sw	s10,288(sp)
800013ec:	40000d37          	lui	s10,0x40000
800013f0:	fffd0793          	addi	a5,s10,-1 # 3fffffff <buflen.2990+0x3fffff7f>
800013f4:	14812423          	sw	s0,328(sp)
800013f8:	14912223          	sw	s1,324(sp)
800013fc:	15212023          	sw	s2,320(sp)
80001400:	14112623          	sw	ra,332(sp)
80001404:	13312e23          	sw	s3,316(sp)
80001408:	13412c23          	sw	s4,312(sp)
8000140c:	13512a23          	sw	s5,308(sp)
80001410:	13612823          	sw	s6,304(sp)
80001414:	13712623          	sw	s7,300(sp)
80001418:	13812423          	sw	s8,296(sp)
8000141c:	13912223          	sw	s9,292(sp)
80001420:	11b12e23          	sw	s11,284(sp)
80001424:	00050913          	mv	s2,a0
80001428:	00058493          	mv	s1,a1
8000142c:	00060413          	mv	s0,a2
80001430:	00d12423          	sw	a3,8(sp)
80001434:	00f12623          	sw	a5,12(sp)
80001438:	00044503          	lbu	a0,0(s0)
8000143c:	02500793          	li	a5,37
80001440:	02f50463          	beq	a0,a5,80001468 <vprintfmt+0x84>
80001444:	06050a63          	beqz	a0,800014b8 <vprintfmt+0xd4>
80001448:	02500993          	li	s3,37
8000144c:	0080006f          	j	80001454 <vprintfmt+0x70>
80001450:	06050463          	beqz	a0,800014b8 <vprintfmt+0xd4>
80001454:	00048593          	mv	a1,s1
80001458:	00140413          	addi	s0,s0,1
8000145c:	000900e7          	jalr	s2
80001460:	00044503          	lbu	a0,0(s0)
80001464:	ff3516e3          	bne	a0,s3,80001450 <vprintfmt+0x6c>
80001468:	00144683          	lbu	a3,1(s0)
8000146c:	00140a93          	addi	s5,s0,1
80001470:	000a8713          	mv	a4,s5
80001474:	02000b13          	li	s6,32
80001478:	fff00993          	li	s3,-1
8000147c:	fff00a13          	li	s4,-1
80001480:	00000593          	li	a1,0
80001484:	05500513          	li	a0,85
80001488:	00900813          	li	a6,9
8000148c:	fdd68793          	addi	a5,a3,-35
80001490:	0ff7f793          	andi	a5,a5,255
80001494:	00170413          	addi	s0,a4,1
80001498:	36f56663          	bltu	a0,a5,80001804 <vprintfmt+0x420>
8000149c:	00002617          	auipc	a2,0x2
800014a0:	81860613          	addi	a2,a2,-2024 # 80002cb4 <main+0xe4>
800014a4:	00279793          	slli	a5,a5,0x2
800014a8:	00c787b3          	add	a5,a5,a2
800014ac:	0007a783          	lw	a5,0(a5)
800014b0:	00c787b3          	add	a5,a5,a2
800014b4:	00078067          	jr	a5
800014b8:	14c12083          	lw	ra,332(sp)
800014bc:	14812403          	lw	s0,328(sp)
800014c0:	14412483          	lw	s1,324(sp)
800014c4:	14012903          	lw	s2,320(sp)
800014c8:	13c12983          	lw	s3,316(sp)
800014cc:	13812a03          	lw	s4,312(sp)
800014d0:	13412a83          	lw	s5,308(sp)
800014d4:	13012b03          	lw	s6,304(sp)
800014d8:	12c12b83          	lw	s7,300(sp)
800014dc:	12812c03          	lw	s8,296(sp)
800014e0:	12412c83          	lw	s9,292(sp)
800014e4:	12012d03          	lw	s10,288(sp)
800014e8:	11c12d83          	lw	s11,284(sp)
800014ec:	15010113          	addi	sp,sp,336
800014f0:	00008067          	ret
800014f4:	00800a93          	li	s5,8
800014f8:	00012223          	sw	zero,4(sp)
800014fc:	00100793          	li	a5,1
80001500:	24b7c863          	blt	a5,a1,80001750 <vprintfmt+0x36c>
80001504:	00812783          	lw	a5,8(sp)
80001508:	00478693          	addi	a3,a5,4
8000150c:	00812783          	lw	a5,8(sp)
80001510:	00000d93          	li	s11,0
80001514:	0007ab83          	lw	s7,0(a5)
80001518:	00d12423          	sw	a3,8(sp)
8000151c:	000a8613          	mv	a2,s5
80001520:	00000693          	li	a3,0
80001524:	000b8513          	mv	a0,s7
80001528:	000d8593          	mv	a1,s11
8000152c:	294010ef          	jal	ra,800027c0 <__umoddi3>
80001530:	00a12823          	sw	a0,16(sp)
80001534:	00000793          	li	a5,0
80001538:	00050d13          	mv	s10,a0
8000153c:	33b78663          	beq	a5,s11,80001868 <vprintfmt+0x484>
80001540:	01410c13          	addi	s8,sp,20
80001544:	00100993          	li	s3,1
80001548:	000a8613          	mv	a2,s5
8000154c:	00000693          	li	a3,0
80001550:	000b8513          	mv	a0,s7
80001554:	000d8593          	mv	a1,s11
80001558:	635000ef          	jal	ra,8000238c <__udivdi3>
8000155c:	000a8613          	mv	a2,s5
80001560:	00000693          	li	a3,0
80001564:	00050b93          	mv	s7,a0
80001568:	00058d93          	mv	s11,a1
8000156c:	254010ef          	jal	ra,800027c0 <__umoddi3>
80001570:	00412783          	lw	a5,4(sp)
80001574:	00ac2023          	sw	a0,0(s8)
80001578:	00050d13          	mv	s10,a0
8000157c:	00198c93          	addi	s9,s3,1
80001580:	004c0c13          	addi	s8,s8,4
80001584:	01b78663          	beq	a5,s11,80001590 <vprintfmt+0x1ac>
80001588:	000c8993          	mv	s3,s9
8000158c:	fbdff06f          	j	80001548 <vprintfmt+0x164>
80001590:	ff5bfce3          	bgeu	s7,s5,80001588 <vprintfmt+0x1a4>
80001594:	014cdc63          	bge	s9,s4,800015ac <vprintfmt+0x1c8>
80001598:	fffa0a13          	addi	s4,s4,-1
8000159c:	00048593          	mv	a1,s1
800015a0:	000b0513          	mv	a0,s6
800015a4:	000900e7          	jalr	s2
800015a8:	ff4cc8e3          	blt	s9,s4,80001598 <vprintfmt+0x1b4>
800015ac:	00c12783          	lw	a5,12(sp)
800015b0:	00900a13          	li	s4,9
800015b4:	00f989b3          	add	s3,s3,a5
800015b8:	00299993          	slli	s3,s3,0x2
800015bc:	01010793          	addi	a5,sp,16
800015c0:	013789b3          	add	s3,a5,s3
800015c4:	00c0006f          	j	800015d0 <vprintfmt+0x1ec>
800015c8:	0009ad03          	lw	s10,0(s3)
800015cc:	ffc98993          	addi	s3,s3,-4
800015d0:	05700513          	li	a0,87
800015d4:	01aa6463          	bltu	s4,s10,800015dc <vprintfmt+0x1f8>
800015d8:	03000513          	li	a0,48
800015dc:	00048593          	mv	a1,s1
800015e0:	01a50533          	add	a0,a0,s10
800015e4:	000900e7          	jalr	s2
800015e8:	00c10793          	addi	a5,sp,12
800015ec:	fd379ee3          	bne	a5,s3,800015c8 <vprintfmt+0x1e4>
800015f0:	e49ff06f          	j	80001438 <vprintfmt+0x54>
800015f4:	03000513          	li	a0,48
800015f8:	00048593          	mv	a1,s1
800015fc:	000900e7          	jalr	s2
80001600:	00048593          	mv	a1,s1
80001604:	07800513          	li	a0,120
80001608:	000900e7          	jalr	s2
8000160c:	00812783          	lw	a5,8(sp)
80001610:	01000a93          	li	s5,16
80001614:	00012223          	sw	zero,4(sp)
80001618:	00478693          	addi	a3,a5,4
8000161c:	ef1ff06f          	j	8000150c <vprintfmt+0x128>
80001620:	00812783          	lw	a5,8(sp)
80001624:	00174683          	lbu	a3,1(a4)
80001628:	00040713          	mv	a4,s0
8000162c:	0007a983          	lw	s3,0(a5)
80001630:	00478793          	addi	a5,a5,4
80001634:	00f12423          	sw	a5,8(sp)
80001638:	e40a5ae3          	bgez	s4,8000148c <vprintfmt+0xa8>
8000163c:	00098a13          	mv	s4,s3
80001640:	fff00993          	li	s3,-1
80001644:	e49ff06f          	j	8000148c <vprintfmt+0xa8>
80001648:	00174683          	lbu	a3,1(a4)
8000164c:	02d00b13          	li	s6,45
80001650:	00040713          	mv	a4,s0
80001654:	e39ff06f          	j	8000148c <vprintfmt+0xa8>
80001658:	fffa4793          	not	a5,s4
8000165c:	41f7d793          	srai	a5,a5,0x1f
80001660:	00174683          	lbu	a3,1(a4)
80001664:	00fa7a33          	and	s4,s4,a5
80001668:	00040713          	mv	a4,s0
8000166c:	e21ff06f          	j	8000148c <vprintfmt+0xa8>
80001670:	00174683          	lbu	a3,1(a4)
80001674:	03000b13          	li	s6,48
80001678:	00040713          	mv	a4,s0
8000167c:	e11ff06f          	j	8000148c <vprintfmt+0xa8>
80001680:	00174603          	lbu	a2,1(a4)
80001684:	fd068993          	addi	s3,a3,-48
80001688:	00040713          	mv	a4,s0
8000168c:	fd060793          	addi	a5,a2,-48
80001690:	00060693          	mv	a3,a2
80001694:	faf862e3          	bltu	a6,a5,80001638 <vprintfmt+0x254>
80001698:	00299793          	slli	a5,s3,0x2
8000169c:	013789b3          	add	s3,a5,s3
800016a0:	00170713          	addi	a4,a4,1
800016a4:	00199993          	slli	s3,s3,0x1
800016a8:	00c989b3          	add	s3,s3,a2
800016ac:	00074603          	lbu	a2,0(a4)
800016b0:	fd098993          	addi	s3,s3,-48
800016b4:	fd060793          	addi	a5,a2,-48
800016b8:	00060693          	mv	a3,a2
800016bc:	fcf87ee3          	bgeu	a6,a5,80001698 <vprintfmt+0x2b4>
800016c0:	f79ff06f          	j	80001638 <vprintfmt+0x254>
800016c4:	00812783          	lw	a5,8(sp)
800016c8:	00048593          	mv	a1,s1
800016cc:	0007a503          	lw	a0,0(a5)
800016d0:	00478c93          	addi	s9,a5,4
800016d4:	000900e7          	jalr	s2
800016d8:	01912423          	sw	s9,8(sp)
800016dc:	d5dff06f          	j	80001438 <vprintfmt+0x54>
800016e0:	00100793          	li	a5,1
800016e4:	18b7ce63          	blt	a5,a1,80001880 <vprintfmt+0x49c>
800016e8:	00812703          	lw	a4,8(sp)
800016ec:	00470793          	addi	a5,a4,4
800016f0:	1a058863          	beqz	a1,800018a0 <vprintfmt+0x4bc>
800016f4:	00072b83          	lw	s7,0(a4)
800016f8:	00f12423          	sw	a5,8(sp)
800016fc:	41fbdd93          	srai	s11,s7,0x1f
80001700:	020dd263          	bgez	s11,80001724 <vprintfmt+0x340>
80001704:	00048593          	mv	a1,s1
80001708:	02d00513          	li	a0,45
8000170c:	000900e7          	jalr	s2
80001710:	41700733          	neg	a4,s7
80001714:	00e036b3          	snez	a3,a4
80001718:	41b007b3          	neg	a5,s11
8000171c:	00070b93          	mv	s7,a4
80001720:	40d78db3          	sub	s11,a5,a3
80001724:	00a00a93          	li	s5,10
80001728:	00012223          	sw	zero,4(sp)
8000172c:	df1ff06f          	j	8000151c <vprintfmt+0x138>
80001730:	00174683          	lbu	a3,1(a4)
80001734:	00158593          	addi	a1,a1,1
80001738:	00040713          	mv	a4,s0
8000173c:	d51ff06f          	j	8000148c <vprintfmt+0xa8>
80001740:	00012223          	sw	zero,4(sp)
80001744:	00100793          	li	a5,1
80001748:	00a00a93          	li	s5,10
8000174c:	dab7dce3          	bge	a5,a1,80001504 <vprintfmt+0x120>
80001750:	00812783          	lw	a5,8(sp)
80001754:	00778793          	addi	a5,a5,7
80001758:	ff87f793          	andi	a5,a5,-8
8000175c:	00878713          	addi	a4,a5,8
80001760:	00e12423          	sw	a4,8(sp)
80001764:	0007ab83          	lw	s7,0(a5)
80001768:	0047ad83          	lw	s11,4(a5)
8000176c:	db1ff06f          	j	8000151c <vprintfmt+0x138>
80001770:	01000a93          	li	s5,16
80001774:	00012223          	sw	zero,4(sp)
80001778:	d85ff06f          	j	800014fc <vprintfmt+0x118>
8000177c:	00174683          	lbu	a3,1(a4)
80001780:	00040713          	mv	a4,s0
80001784:	d09ff06f          	j	8000148c <vprintfmt+0xa8>
80001788:	00048593          	mv	a1,s1
8000178c:	02500513          	li	a0,37
80001790:	000900e7          	jalr	s2
80001794:	ca5ff06f          	j	80001438 <vprintfmt+0x54>
80001798:	00812783          	lw	a5,8(sp)
8000179c:	0007aa83          	lw	s5,0(a5)
800017a0:	00478c93          	addi	s9,a5,4
800017a4:	100a8263          	beqz	s5,800018a8 <vprintfmt+0x4c4>
800017a8:	0b405863          	blez	s4,80001858 <vprintfmt+0x474>
800017ac:	02d00793          	li	a5,45
800017b0:	06fb1863          	bne	s6,a5,80001820 <vprintfmt+0x43c>
800017b4:	000ac503          	lbu	a0,0(s5)
800017b8:	02050863          	beqz	a0,800017e8 <vprintfmt+0x404>
800017bc:	fff00b13          	li	s6,-1
800017c0:	0009c663          	bltz	s3,800017cc <vprintfmt+0x3e8>
800017c4:	fff98993          	addi	s3,s3,-1
800017c8:	01698e63          	beq	s3,s6,800017e4 <vprintfmt+0x400>
800017cc:	00048593          	mv	a1,s1
800017d0:	001a8a93          	addi	s5,s5,1
800017d4:	000900e7          	jalr	s2
800017d8:	000ac503          	lbu	a0,0(s5)
800017dc:	fffa0a13          	addi	s4,s4,-1
800017e0:	fe0510e3          	bnez	a0,800017c0 <vprintfmt+0x3dc>
800017e4:	01405c63          	blez	s4,800017fc <vprintfmt+0x418>
800017e8:	fffa0a13          	addi	s4,s4,-1
800017ec:	00048593          	mv	a1,s1
800017f0:	02000513          	li	a0,32
800017f4:	000900e7          	jalr	s2
800017f8:	fe0a18e3          	bnez	s4,800017e8 <vprintfmt+0x404>
800017fc:	01912423          	sw	s9,8(sp)
80001800:	c39ff06f          	j	80001438 <vprintfmt+0x54>
80001804:	00048593          	mv	a1,s1
80001808:	02500513          	li	a0,37
8000180c:	000900e7          	jalr	s2
80001810:	000a8413          	mv	s0,s5
80001814:	c25ff06f          	j	80001438 <vprintfmt+0x54>
80001818:	00001a97          	auipc	s5,0x1
8000181c:	45ca8a93          	addi	s5,s5,1116 # 80002c74 <main+0xa4>
80001820:	0a098463          	beqz	s3,800018c8 <vprintfmt+0x4e4>
80001824:	000ac783          	lbu	a5,0(s5)
80001828:	0a078063          	beqz	a5,800018c8 <vprintfmt+0x4e4>
8000182c:	001a8793          	addi	a5,s5,1
80001830:	013a8633          	add	a2,s5,s3
80001834:	0100006f          	j	80001844 <vprintfmt+0x460>
80001838:	00178793          	addi	a5,a5,1
8000183c:	fff7c703          	lbu	a4,-1(a5)
80001840:	0a070a63          	beqz	a4,800018f4 <vprintfmt+0x510>
80001844:	00078693          	mv	a3,a5
80001848:	fef618e3          	bne	a2,a5,80001838 <vprintfmt+0x454>
8000184c:	415606b3          	sub	a3,a2,s5
80001850:	40da0a33          	sub	s4,s4,a3
80001854:	07404a63          	bgtz	s4,800018c8 <vprintfmt+0x4e4>
80001858:	000ac503          	lbu	a0,0(s5)
8000185c:	fa0500e3          	beqz	a0,800017fc <vprintfmt+0x418>
80001860:	fff00b13          	li	s6,-1
80001864:	f5dff06f          	j	800017c0 <vprintfmt+0x3dc>
80001868:	cd5bfce3          	bgeu	s7,s5,80001540 <vprintfmt+0x15c>
8000186c:	00100793          	li	a5,1
80001870:	00000993          	li	s3,0
80001874:	00100c93          	li	s9,1
80001878:	d347c0e3          	blt	a5,s4,80001598 <vprintfmt+0x1b4>
8000187c:	d31ff06f          	j	800015ac <vprintfmt+0x1c8>
80001880:	00812783          	lw	a5,8(sp)
80001884:	00778793          	addi	a5,a5,7
80001888:	ff87f793          	andi	a5,a5,-8
8000188c:	00878713          	addi	a4,a5,8
80001890:	00e12423          	sw	a4,8(sp)
80001894:	0007ab83          	lw	s7,0(a5)
80001898:	0047ad83          	lw	s11,4(a5)
8000189c:	e65ff06f          	j	80001700 <vprintfmt+0x31c>
800018a0:	00812703          	lw	a4,8(sp)
800018a4:	e51ff06f          	j	800016f4 <vprintfmt+0x310>
800018a8:	01405663          	blez	s4,800018b4 <vprintfmt+0x4d0>
800018ac:	02d00793          	li	a5,45
800018b0:	f6fb14e3          	bne	s6,a5,80001818 <vprintfmt+0x434>
800018b4:	00001a97          	auipc	s5,0x1
800018b8:	3c0a8a93          	addi	s5,s5,960 # 80002c74 <main+0xa4>
800018bc:	02800513          	li	a0,40
800018c0:	fff00b13          	li	s6,-1
800018c4:	efdff06f          	j	800017c0 <vprintfmt+0x3dc>
800018c8:	fffa0a13          	addi	s4,s4,-1
800018cc:	00048593          	mv	a1,s1
800018d0:	000b0513          	mv	a0,s6
800018d4:	000900e7          	jalr	s2
800018d8:	f80a00e3          	beqz	s4,80001858 <vprintfmt+0x474>
800018dc:	fffa0a13          	addi	s4,s4,-1
800018e0:	00048593          	mv	a1,s1
800018e4:	000b0513          	mv	a0,s6
800018e8:	000900e7          	jalr	s2
800018ec:	fc0a1ee3          	bnez	s4,800018c8 <vprintfmt+0x4e4>
800018f0:	f69ff06f          	j	80001858 <vprintfmt+0x474>
800018f4:	415686b3          	sub	a3,a3,s5
800018f8:	f59ff06f          	j	80001850 <vprintfmt+0x46c>

800018fc <sprintf_putch.3104>:
800018fc:	0005a783          	lw	a5,0(a1)
80001900:	00a78023          	sb	a0,0(a5)
80001904:	0005a783          	lw	a5,0(a1)
80001908:	00178793          	addi	a5,a5,1
8000190c:	00f5a023          	sw	a5,0(a1)
80001910:	00008067          	ret

80001914 <syscall.constprop.2>:
80001914:	f8010113          	addi	sp,sp,-128
80001918:	03f10813          	addi	a6,sp,63
8000191c:	fc087813          	andi	a6,a6,-64
80001920:	04000713          	li	a4,64
80001924:	00e82023          	sw	a4,0(a6)
80001928:	00000793          	li	a5,0
8000192c:	00f82223          	sw	a5,4(a6)
80001930:	00100713          	li	a4,1
80001934:	00e82423          	sw	a4,8(a6)
80001938:	00000793          	li	a5,0
8000193c:	00f82623          	sw	a5,12(a6)
80001940:	00a82823          	sw	a0,16(a6)
80001944:	00b82a23          	sw	a1,20(a6)
80001948:	00c82c23          	sw	a2,24(a6)
8000194c:	00d82e23          	sw	a3,28(a6)
80001950:	0ff0000f          	fence
80001954:	fffff697          	auipc	a3,0xfffff
80001958:	6ac68693          	addi	a3,a3,1708 # 80001000 <tohost>
8000195c:	0106a023          	sw	a6,0(a3)
80001960:	00000793          	li	a5,0
80001964:	00f6a223          	sw	a5,4(a3)
80001968:	fffff697          	auipc	a3,0xfffff
8000196c:	6d868693          	addi	a3,a3,1752 # 80001040 <fromhost>
80001970:	0006a703          	lw	a4,0(a3)
80001974:	0046a783          	lw	a5,4(a3)
80001978:	00f76733          	or	a4,a4,a5
8000197c:	fe070ae3          	beqz	a4,80001970 <syscall.constprop.2+0x5c>
80001980:	00000713          	li	a4,0
80001984:	00e6a023          	sw	a4,0(a3)
80001988:	00000793          	li	a5,0
8000198c:	00f6a223          	sw	a5,4(a3)
80001990:	0ff0000f          	fence
80001994:	00082503          	lw	a0,0(a6)
80001998:	00482583          	lw	a1,4(a6)
8000199c:	08010113          	addi	sp,sp,128
800019a0:	00008067          	ret

800019a4 <putchar>:
800019a4:	ff010113          	addi	sp,sp,-16
800019a8:	00812423          	sw	s0,8(sp)
800019ac:	08022583          	lw	a1,128(tp) # 80 <buflen.2990>
800019b0:	04020793          	addi	a5,tp,64 # 40 <buf.2989>
800019b4:	00112623          	sw	ra,12(sp)
800019b8:	00b787b3          	add	a5,a5,a1
800019bc:	00158613          	addi	a2,a1,1
800019c0:	00a78023          	sb	a0,0(a5)
800019c4:	08c22023          	sw	a2,128(tp) # 80 <buflen.2990>
800019c8:	00a00793          	li	a5,10
800019cc:	02f50063          	beq	a0,a5,800019ec <putchar+0x48>
800019d0:	04000793          	li	a5,64
800019d4:	00f60c63          	beq	a2,a5,800019ec <putchar+0x48>
800019d8:	00c12083          	lw	ra,12(sp)
800019dc:	00812403          	lw	s0,8(sp)
800019e0:	00000513          	li	a0,0
800019e4:	01010113          	addi	sp,sp,16
800019e8:	00008067          	ret
800019ec:	41f65693          	srai	a3,a2,0x1f
800019f0:	04020513          	addi	a0,tp,64 # 40 <buf.2989>
800019f4:	00000593          	li	a1,0
800019f8:	f1dff0ef          	jal	ra,80001914 <syscall.constprop.2>
800019fc:	08022023          	sw	zero,128(tp) # 80 <buflen.2990>
80001a00:	00c12083          	lw	ra,12(sp)
80001a04:	00812403          	lw	s0,8(sp)
80001a08:	00000513          	li	a0,0
80001a0c:	01010113          	addi	sp,sp,16
80001a10:	00008067          	ret

80001a14 <setStats>:
80001a14:	b00027f3          	csrr	a5,mcycle
80001a18:	00002717          	auipc	a4,0x2
80001a1c:	15470713          	addi	a4,a4,340 # 80003b6c <counters>
80001a20:	00051e63          	bnez	a0,80001a3c <setStats+0x28>
80001a24:	00072683          	lw	a3,0(a4)
80001a28:	00001617          	auipc	a2,0x1
80001a2c:	25460613          	addi	a2,a2,596 # 80002c7c <main+0xac>
80001a30:	00002597          	auipc	a1,0x2
80001a34:	12c5aa23          	sw	a2,308(a1) # 80003b64 <counter_names>
80001a38:	40d787b3          	sub	a5,a5,a3
80001a3c:	00002697          	auipc	a3,0x2
80001a40:	12f6a823          	sw	a5,304(a3) # 80003b6c <counters>
80001a44:	b02027f3          	csrr	a5,minstret
80001a48:	00051e63          	bnez	a0,80001a64 <setStats+0x50>
80001a4c:	00472703          	lw	a4,4(a4)
80001a50:	00001697          	auipc	a3,0x1
80001a54:	23468693          	addi	a3,a3,564 # 80002c84 <main+0xb4>
80001a58:	00002617          	auipc	a2,0x2
80001a5c:	10d62823          	sw	a3,272(a2) # 80003b68 <counter_names+0x4>
80001a60:	40e787b3          	sub	a5,a5,a4
80001a64:	00002717          	auipc	a4,0x2
80001a68:	10f72623          	sw	a5,268(a4) # 80003b70 <counters+0x4>
80001a6c:	00008067          	ret

80001a70 <tohost_exit>:
80001a70:	00151513          	slli	a0,a0,0x1
80001a74:	fffff697          	auipc	a3,0xfffff
80001a78:	58c68693          	addi	a3,a3,1420 # 80001000 <tohost>
80001a7c:	00156713          	ori	a4,a0,1
80001a80:	00000793          	li	a5,0
80001a84:	00e6a023          	sw	a4,0(a3)
80001a88:	00f6a223          	sw	a5,4(a3)
80001a8c:	0000006f          	j	80001a8c <tohost_exit+0x1c>

80001a90 <handle_trap>:
80001a90:	00001637          	lui	a2,0x1
80001a94:	fffff797          	auipc	a5,0xfffff
80001a98:	56c78793          	addi	a5,a5,1388 # 80001000 <tohost>
80001a9c:	a7360613          	addi	a2,a2,-1421 # a73 <buflen.2990+0x9f3>
80001aa0:	00000693          	li	a3,0
80001aa4:	00c7a023          	sw	a2,0(a5)
80001aa8:	00d7a223          	sw	a3,4(a5)
80001aac:	0000006f          	j	80001aac <handle_trap+0x1c>

80001ab0 <exit>:
80001ab0:	ff010113          	addi	sp,sp,-16
80001ab4:	00112623          	sw	ra,12(sp)
80001ab8:	fb9ff0ef          	jal	ra,80001a70 <tohost_exit>

80001abc <abort>:
80001abc:	fffff797          	auipc	a5,0xfffff
80001ac0:	54478793          	addi	a5,a5,1348 # 80001000 <tohost>
80001ac4:	10d00613          	li	a2,269
80001ac8:	00000693          	li	a3,0
80001acc:	00c7a023          	sw	a2,0(a5)
80001ad0:	00d7a223          	sw	a3,4(a5)
80001ad4:	0000006f          	j	80001ad4 <abort+0x18>

80001ad8 <printstr>:
80001ad8:	00054783          	lbu	a5,0(a0)
80001adc:	02078263          	beqz	a5,80001b00 <printstr+0x28>
80001ae0:	00050613          	mv	a2,a0
80001ae4:	00160613          	addi	a2,a2,1
80001ae8:	00064783          	lbu	a5,0(a2)
80001aec:	fe079ce3          	bnez	a5,80001ae4 <printstr+0xc>
80001af0:	40a60633          	sub	a2,a2,a0
80001af4:	00000693          	li	a3,0
80001af8:	00000593          	li	a1,0
80001afc:	e19ff06f          	j	80001914 <syscall.constprop.2>
80001b00:	00000613          	li	a2,0
80001b04:	00000693          	li	a3,0
80001b08:	00000593          	li	a1,0
80001b0c:	e09ff06f          	j	80001914 <syscall.constprop.2>
80001b10:	00050463          	beqz	a0,80001b18 <printstr+0x40>
80001b14:	0000006f          	j	80001b14 <printstr+0x3c>
80001b18:	00008067          	ret

80001b1c <printhex>:
80001b1c:	fd010113          	addi	sp,sp,-48
80001b20:	00050793          	mv	a5,a0
80001b24:	02112623          	sw	ra,44(sp)
80001b28:	00c10513          	addi	a0,sp,12
80001b2c:	01b10693          	addi	a3,sp,27
80001b30:	00900313          	li	t1,9
80001b34:	0080006f          	j	80001b3c <printhex+0x20>
80001b38:	00070693          	mv	a3,a4
80001b3c:	00f7f613          	andi	a2,a5,15
80001b40:	01c59893          	slli	a7,a1,0x1c
80001b44:	0047d793          	srli	a5,a5,0x4
80001b48:	05700813          	li	a6,87
80001b4c:	0ff67713          	andi	a4,a2,255
80001b50:	00c36463          	bltu	t1,a2,80001b58 <printhex+0x3c>
80001b54:	03000813          	li	a6,48
80001b58:	01070733          	add	a4,a4,a6
80001b5c:	00e68023          	sb	a4,0(a3)
80001b60:	00f8e7b3          	or	a5,a7,a5
80001b64:	fff68713          	addi	a4,a3,-1
80001b68:	0045d593          	srli	a1,a1,0x4
80001b6c:	fcd516e3          	bne	a0,a3,80001b38 <printhex+0x1c>
80001b70:	00010e23          	sb	zero,28(sp)
80001b74:	f65ff0ef          	jal	ra,80001ad8 <printstr>
80001b78:	02c12083          	lw	ra,44(sp)
80001b7c:	03010113          	addi	sp,sp,48
80001b80:	00008067          	ret

80001b84 <printf>:
80001b84:	fc010113          	addi	sp,sp,-64
80001b88:	02410313          	addi	t1,sp,36
80001b8c:	02b12223          	sw	a1,36(sp)
80001b90:	02c12423          	sw	a2,40(sp)
80001b94:	02d12623          	sw	a3,44(sp)
80001b98:	00050613          	mv	a2,a0
80001b9c:	00030693          	mv	a3,t1
80001ba0:	00000517          	auipc	a0,0x0
80001ba4:	e0450513          	addi	a0,a0,-508 # 800019a4 <putchar>
80001ba8:	00000593          	li	a1,0
80001bac:	00112e23          	sw	ra,28(sp)
80001bb0:	02e12823          	sw	a4,48(sp)
80001bb4:	02f12a23          	sw	a5,52(sp)
80001bb8:	03012c23          	sw	a6,56(sp)
80001bbc:	03112e23          	sw	a7,60(sp)
80001bc0:	00612623          	sw	t1,12(sp)
80001bc4:	821ff0ef          	jal	ra,800013e4 <vprintfmt>
80001bc8:	01c12083          	lw	ra,28(sp)
80001bcc:	00000513          	li	a0,0
80001bd0:	04010113          	addi	sp,sp,64
80001bd4:	00008067          	ret

80001bd8 <sprintf>:
80001bd8:	fb010113          	addi	sp,sp,-80
80001bdc:	03810313          	addi	t1,sp,56
80001be0:	02812423          	sw	s0,40(sp)
80001be4:	00a12623          	sw	a0,12(sp)
80001be8:	02c12c23          	sw	a2,56(sp)
80001bec:	02d12e23          	sw	a3,60(sp)
80001bf0:	00050413          	mv	s0,a0
80001bf4:	00058613          	mv	a2,a1
80001bf8:	00000517          	auipc	a0,0x0
80001bfc:	d0450513          	addi	a0,a0,-764 # 800018fc <sprintf_putch.3104>
80001c00:	00c10593          	addi	a1,sp,12
80001c04:	00030693          	mv	a3,t1
80001c08:	02112623          	sw	ra,44(sp)
80001c0c:	04f12223          	sw	a5,68(sp)
80001c10:	04e12023          	sw	a4,64(sp)
80001c14:	05012423          	sw	a6,72(sp)
80001c18:	05112623          	sw	a7,76(sp)
80001c1c:	00612e23          	sw	t1,28(sp)
80001c20:	fc4ff0ef          	jal	ra,800013e4 <vprintfmt>
80001c24:	00c12783          	lw	a5,12(sp)
80001c28:	00078023          	sb	zero,0(a5)
80001c2c:	00c12503          	lw	a0,12(sp)
80001c30:	02c12083          	lw	ra,44(sp)
80001c34:	40850533          	sub	a0,a0,s0
80001c38:	02812403          	lw	s0,40(sp)
80001c3c:	05010113          	addi	sp,sp,80
80001c40:	00008067          	ret

80001c44 <memcpy>:
80001c44:	00c5e7b3          	or	a5,a1,a2
80001c48:	00f567b3          	or	a5,a0,a5
80001c4c:	0037f793          	andi	a5,a5,3
80001c50:	00c506b3          	add	a3,a0,a2
80001c54:	02078463          	beqz	a5,80001c7c <memcpy+0x38>
80001c58:	00c58633          	add	a2,a1,a2
80001c5c:	00050793          	mv	a5,a0
80001c60:	02d57e63          	bgeu	a0,a3,80001c9c <memcpy+0x58>
80001c64:	00158593          	addi	a1,a1,1
80001c68:	fff5c703          	lbu	a4,-1(a1)
80001c6c:	00178793          	addi	a5,a5,1
80001c70:	fee78fa3          	sb	a4,-1(a5)
80001c74:	feb618e3          	bne	a2,a1,80001c64 <memcpy+0x20>
80001c78:	00008067          	ret
80001c7c:	fed57ee3          	bgeu	a0,a3,80001c78 <memcpy+0x34>
80001c80:	00050793          	mv	a5,a0
80001c84:	00458593          	addi	a1,a1,4
80001c88:	ffc5a703          	lw	a4,-4(a1)
80001c8c:	00478793          	addi	a5,a5,4
80001c90:	fee7ae23          	sw	a4,-4(a5)
80001c94:	fed7e8e3          	bltu	a5,a3,80001c84 <memcpy+0x40>
80001c98:	00008067          	ret
80001c9c:	00008067          	ret

80001ca0 <memset>:
80001ca0:	00c567b3          	or	a5,a0,a2
80001ca4:	0037f793          	andi	a5,a5,3
80001ca8:	00c50633          	add	a2,a0,a2
80001cac:	02078063          	beqz	a5,80001ccc <memset+0x2c>
80001cb0:	0ff5f593          	andi	a1,a1,255
80001cb4:	00050793          	mv	a5,a0
80001cb8:	04c57063          	bgeu	a0,a2,80001cf8 <memset+0x58>
80001cbc:	00178793          	addi	a5,a5,1
80001cc0:	feb78fa3          	sb	a1,-1(a5)
80001cc4:	fef61ce3          	bne	a2,a5,80001cbc <memset+0x1c>
80001cc8:	00008067          	ret
80001ccc:	0ff5f593          	andi	a1,a1,255
80001cd0:	00859713          	slli	a4,a1,0x8
80001cd4:	00e5e733          	or	a4,a1,a4
80001cd8:	01071793          	slli	a5,a4,0x10
80001cdc:	00f76733          	or	a4,a4,a5
80001ce0:	fec574e3          	bgeu	a0,a2,80001cc8 <memset+0x28>
80001ce4:	00050793          	mv	a5,a0
80001ce8:	00478793          	addi	a5,a5,4
80001cec:	fee7ae23          	sw	a4,-4(a5)
80001cf0:	fec7ece3          	bltu	a5,a2,80001ce8 <memset+0x48>
80001cf4:	00008067          	ret
80001cf8:	00008067          	ret

80001cfc <_init>:
80001cfc:	f6010113          	addi	sp,sp,-160
80001d00:	c1818793          	addi	a5,gp,-1000 # 80003f74 <_tdata_begin>
80001d04:	09212823          	sw	s2,144(sp)
80001d08:	c1818913          	addi	s2,gp,-1000 # 80003f74 <_tdata_begin>
80001d0c:	08912a23          	sw	s1,148(sp)
80001d10:	40f904b3          	sub	s1,s2,a5
80001d14:	00048613          	mv	a2,s1
80001d18:	09312623          	sw	s3,140(sp)
80001d1c:	09412423          	sw	s4,136(sp)
80001d20:	00050993          	mv	s3,a0
80001d24:	00058a13          	mv	s4,a1
80001d28:	00020513          	mv	a0,tp
80001d2c:	00078593          	mv	a1,a5
80001d30:	08112e23          	sw	ra,156(sp)
80001d34:	08812c23          	sw	s0,152(sp)
80001d38:	09512223          	sw	s5,132(sp)
80001d3c:	00020a93          	mv	s5,tp
80001d40:	f05ff0ef          	jal	ra,80001c44 <memcpy>
80001d44:	ca818613          	addi	a2,gp,-856 # 80004004 <_tbss_end>
80001d48:	41260633          	sub	a2,a2,s2
80001d4c:	00000593          	li	a1,0
80001d50:	009a8533          	add	a0,s5,s1
80001d54:	f4dff0ef          	jal	ra,80001ca0 <memset>
80001d58:	000a0593          	mv	a1,s4
80001d5c:	00098513          	mv	a0,s3
80001d60:	b48ff0ef          	jal	ra,800010a8 <thread_entry>
80001d64:	00000593          	li	a1,0
80001d68:	00000513          	li	a0,0
80001d6c:	665000ef          	jal	ra,80002bd0 <main>
80001d70:	00002497          	auipc	s1,0x2
80001d74:	dfc48493          	addi	s1,s1,-516 # 80003b6c <counters>
80001d78:	0004a683          	lw	a3,0(s1)
80001d7c:	03f10413          	addi	s0,sp,63
80001d80:	fc047413          	andi	s0,s0,-64
80001d84:	00050913          	mv	s2,a0
80001d88:	04069463          	bnez	a3,80001dd0 <_init+0xd4>
80001d8c:	0044a683          	lw	a3,4(s1)
80001d90:	00069663          	bnez	a3,80001d9c <_init+0xa0>
80001d94:	00090513          	mv	a0,s2
80001d98:	cd9ff0ef          	jal	ra,80001a70 <tohost_exit>
80001d9c:	00040493          	mv	s1,s0
80001da0:	00002997          	auipc	s3,0x2
80001da4:	dc498993          	addi	s3,s3,-572 # 80003b64 <counter_names>
80001da8:	0049a603          	lw	a2,4(s3)
80001dac:	00048513          	mv	a0,s1
80001db0:	00001597          	auipc	a1,0x1
80001db4:	ef858593          	addi	a1,a1,-264 # 80002ca8 <main+0xd8>
80001db8:	e21ff0ef          	jal	ra,80001bd8 <sprintf>
80001dbc:	00a484b3          	add	s1,s1,a0
80001dc0:	fc940ae3          	beq	s0,s1,80001d94 <_init+0x98>
80001dc4:	00040513          	mv	a0,s0
80001dc8:	d11ff0ef          	jal	ra,80001ad8 <printstr>
80001dcc:	fc9ff06f          	j	80001d94 <_init+0x98>
80001dd0:	00002997          	auipc	s3,0x2
80001dd4:	d9498993          	addi	s3,s3,-620 # 80003b64 <counter_names>
80001dd8:	0009a603          	lw	a2,0(s3)
80001ddc:	00001597          	auipc	a1,0x1
80001de0:	ecc58593          	addi	a1,a1,-308 # 80002ca8 <main+0xd8>
80001de4:	00040513          	mv	a0,s0
80001de8:	df1ff0ef          	jal	ra,80001bd8 <sprintf>
80001dec:	0044a683          	lw	a3,4(s1)
80001df0:	00a404b3          	add	s1,s0,a0
80001df4:	fc0686e3          	beqz	a3,80001dc0 <_init+0xc4>
80001df8:	fb1ff06f          	j	80001da8 <_init+0xac>

80001dfc <strlen>:
80001dfc:	00054783          	lbu	a5,0(a0)
80001e00:	00078e63          	beqz	a5,80001e1c <strlen+0x20>
80001e04:	00050793          	mv	a5,a0
80001e08:	00178793          	addi	a5,a5,1
80001e0c:	0007c703          	lbu	a4,0(a5)
80001e10:	fe071ce3          	bnez	a4,80001e08 <strlen+0xc>
80001e14:	40a78533          	sub	a0,a5,a0
80001e18:	00008067          	ret
80001e1c:	00000513          	li	a0,0
80001e20:	00008067          	ret

80001e24 <strnlen>:
80001e24:	02058463          	beqz	a1,80001e4c <strnlen+0x28>
80001e28:	00054783          	lbu	a5,0(a0)
80001e2c:	02078a63          	beqz	a5,80001e60 <strnlen+0x3c>
80001e30:	00b506b3          	add	a3,a0,a1
80001e34:	00050793          	mv	a5,a0
80001e38:	00c0006f          	j	80001e44 <strnlen+0x20>
80001e3c:	0007c703          	lbu	a4,0(a5)
80001e40:	00070a63          	beqz	a4,80001e54 <strnlen+0x30>
80001e44:	00178793          	addi	a5,a5,1
80001e48:	fed79ae3          	bne	a5,a3,80001e3c <strnlen+0x18>
80001e4c:	00058513          	mv	a0,a1
80001e50:	00008067          	ret
80001e54:	40a785b3          	sub	a1,a5,a0
80001e58:	00058513          	mv	a0,a1
80001e5c:	00008067          	ret
80001e60:	00000593          	li	a1,0
80001e64:	fe9ff06f          	j	80001e4c <strnlen+0x28>

80001e68 <strcmp>:
80001e68:	00150513          	addi	a0,a0,1
80001e6c:	fff54783          	lbu	a5,-1(a0)
80001e70:	00158593          	addi	a1,a1,1
80001e74:	fff5c703          	lbu	a4,-1(a1)
80001e78:	00078863          	beqz	a5,80001e88 <strcmp+0x20>
80001e7c:	fee786e3          	beq	a5,a4,80001e68 <strcmp>
80001e80:	40e78533          	sub	a0,a5,a4
80001e84:	00008067          	ret
80001e88:	00000793          	li	a5,0
80001e8c:	ff5ff06f          	j	80001e80 <strcmp+0x18>

80001e90 <strcpy>:
80001e90:	00050793          	mv	a5,a0
80001e94:	00158593          	addi	a1,a1,1
80001e98:	fff5c703          	lbu	a4,-1(a1)
80001e9c:	00178793          	addi	a5,a5,1
80001ea0:	fee78fa3          	sb	a4,-1(a5)
80001ea4:	fe0718e3          	bnez	a4,80001e94 <strcpy+0x4>
80001ea8:	00008067          	ret

80001eac <atol>:
80001eac:	00054783          	lbu	a5,0(a0)
80001eb0:	02000713          	li	a4,32
80001eb4:	00e79863          	bne	a5,a4,80001ec4 <atol+0x18>
80001eb8:	00150513          	addi	a0,a0,1
80001ebc:	00054783          	lbu	a5,0(a0)
80001ec0:	fee78ce3          	beq	a5,a4,80001eb8 <atol+0xc>
80001ec4:	fd578713          	addi	a4,a5,-43
80001ec8:	0fd77713          	andi	a4,a4,253
80001ecc:	04070263          	beqz	a4,80001f10 <atol+0x64>
80001ed0:	00054683          	lbu	a3,0(a0)
80001ed4:	00050793          	mv	a5,a0
80001ed8:	00000613          	li	a2,0
80001edc:	04068863          	beqz	a3,80001f2c <atol+0x80>
80001ee0:	00000513          	li	a0,0
80001ee4:	00178793          	addi	a5,a5,1
80001ee8:	fd068593          	addi	a1,a3,-48
80001eec:	00251713          	slli	a4,a0,0x2
80001ef0:	0007c683          	lbu	a3,0(a5)
80001ef4:	00a70533          	add	a0,a4,a0
80001ef8:	00151513          	slli	a0,a0,0x1
80001efc:	00a58533          	add	a0,a1,a0
80001f00:	fe0692e3          	bnez	a3,80001ee4 <atol+0x38>
80001f04:	00060463          	beqz	a2,80001f0c <atol+0x60>
80001f08:	40a00533          	neg	a0,a0
80001f0c:	00008067          	ret
80001f10:	00154683          	lbu	a3,1(a0)
80001f14:	fd378793          	addi	a5,a5,-45
80001f18:	0017b613          	seqz	a2,a5
80001f1c:	00150793          	addi	a5,a0,1
80001f20:	fc0690e3          	bnez	a3,80001ee0 <atol+0x34>
80001f24:	00000513          	li	a0,0
80001f28:	fddff06f          	j	80001f04 <atol+0x58>
80001f2c:	00000513          	li	a0,0
80001f30:	00008067          	ret

80001f34 <__moddi3>:
80001f34:	00000893          	li	a7,0
80001f38:	0005dc63          	bgez	a1,80001f50 <__moddi3+0x1c>
80001f3c:	40a00533          	neg	a0,a0
80001f40:	00a037b3          	snez	a5,a0
80001f44:	40b005b3          	neg	a1,a1
80001f48:	40f585b3          	sub	a1,a1,a5
80001f4c:	fff00893          	li	a7,-1
80001f50:	0006da63          	bgez	a3,80001f64 <__moddi3+0x30>
80001f54:	40c00633          	neg	a2,a2
80001f58:	00c037b3          	snez	a5,a2
80001f5c:	40d006b3          	neg	a3,a3
80001f60:	40f686b3          	sub	a3,a3,a5
80001f64:	00060313          	mv	t1,a2
80001f68:	00068713          	mv	a4,a3
80001f6c:	00050793          	mv	a5,a0
80001f70:	00058813          	mv	a6,a1
80001f74:	24069863          	bnez	a3,800021c4 <__moddi3+0x290>
80001f78:	800036b7          	lui	a3,0x80003
80001f7c:	e0c68693          	addi	a3,a3,-500 # 80002e0c <__global_pointer$+0xffffeab0>
80001f80:	0ec5f863          	bgeu	a1,a2,80002070 <__moddi3+0x13c>
80001f84:	00010e37          	lui	t3,0x10
80001f88:	0dc67a63          	bgeu	a2,t3,8000205c <__moddi3+0x128>
80001f8c:	0ff00e13          	li	t3,255
80001f90:	00ce7463          	bgeu	t3,a2,80001f98 <__moddi3+0x64>
80001f94:	00800713          	li	a4,8
80001f98:	00e65e33          	srl	t3,a2,a4
80001f9c:	01c686b3          	add	a3,a3,t3
80001fa0:	0006ce83          	lbu	t4,0(a3)
80001fa4:	02000e13          	li	t3,32
80001fa8:	00ee8eb3          	add	t4,t4,a4
80001fac:	41de0e33          	sub	t3,t3,t4
80001fb0:	000e0c63          	beqz	t3,80001fc8 <__moddi3+0x94>
80001fb4:	01c595b3          	sll	a1,a1,t3
80001fb8:	01d55eb3          	srl	t4,a0,t4
80001fbc:	01c61333          	sll	t1,a2,t3
80001fc0:	00bee833          	or	a6,t4,a1
80001fc4:	01c517b3          	sll	a5,a0,t3
80001fc8:	01035613          	srli	a2,t1,0x10
80001fcc:	02c876b3          	remu	a3,a6,a2
80001fd0:	01031513          	slli	a0,t1,0x10
80001fd4:	01055513          	srli	a0,a0,0x10
80001fd8:	0107d713          	srli	a4,a5,0x10
80001fdc:	02c85833          	divu	a6,a6,a2
80001fe0:	01069693          	slli	a3,a3,0x10
80001fe4:	00e6e733          	or	a4,a3,a4
80001fe8:	03050833          	mul	a6,a0,a6
80001fec:	01077a63          	bgeu	a4,a6,80002000 <__moddi3+0xcc>
80001ff0:	00670733          	add	a4,a4,t1
80001ff4:	00676663          	bltu	a4,t1,80002000 <__moddi3+0xcc>
80001ff8:	01077463          	bgeu	a4,a6,80002000 <__moddi3+0xcc>
80001ffc:	00670733          	add	a4,a4,t1
80002000:	41070733          	sub	a4,a4,a6
80002004:	02c776b3          	remu	a3,a4,a2
80002008:	01079793          	slli	a5,a5,0x10
8000200c:	0107d793          	srli	a5,a5,0x10
80002010:	02c75733          	divu	a4,a4,a2
80002014:	02e50733          	mul	a4,a0,a4
80002018:	01069513          	slli	a0,a3,0x10
8000201c:	00f567b3          	or	a5,a0,a5
80002020:	00e7fa63          	bgeu	a5,a4,80002034 <__moddi3+0x100>
80002024:	006787b3          	add	a5,a5,t1
80002028:	0067e663          	bltu	a5,t1,80002034 <__moddi3+0x100>
8000202c:	00e7f463          	bgeu	a5,a4,80002034 <__moddi3+0x100>
80002030:	006787b3          	add	a5,a5,t1
80002034:	40e787b3          	sub	a5,a5,a4
80002038:	01c7d533          	srl	a0,a5,t3
8000203c:	00000593          	li	a1,0
80002040:	00088c63          	beqz	a7,80002058 <__moddi3+0x124>
80002044:	40a007b3          	neg	a5,a0
80002048:	00f03733          	snez	a4,a5
8000204c:	40b005b3          	neg	a1,a1
80002050:	00078513          	mv	a0,a5
80002054:	40e585b3          	sub	a1,a1,a4
80002058:	00008067          	ret
8000205c:	01000e37          	lui	t3,0x1000
80002060:	01000713          	li	a4,16
80002064:	f3c66ae3          	bltu	a2,t3,80001f98 <__moddi3+0x64>
80002068:	01800713          	li	a4,24
8000206c:	f2dff06f          	j	80001f98 <__moddi3+0x64>
80002070:	00061663          	bnez	a2,8000207c <__moddi3+0x148>
80002074:	00100313          	li	t1,1
80002078:	02e35333          	divu	t1,t1,a4
8000207c:	00010637          	lui	a2,0x10
80002080:	0ac37263          	bgeu	t1,a2,80002124 <__moddi3+0x1f0>
80002084:	0ff00613          	li	a2,255
80002088:	00667463          	bgeu	a2,t1,80002090 <__moddi3+0x15c>
8000208c:	00800713          	li	a4,8
80002090:	00e35633          	srl	a2,t1,a4
80002094:	00c686b3          	add	a3,a3,a2
80002098:	0006ce83          	lbu	t4,0(a3)
8000209c:	02000e13          	li	t3,32
800020a0:	00ee8eb3          	add	t4,t4,a4
800020a4:	41de0e33          	sub	t3,t3,t4
800020a8:	080e1863          	bnez	t3,80002138 <__moddi3+0x204>
800020ac:	406585b3          	sub	a1,a1,t1
800020b0:	01035693          	srli	a3,t1,0x10
800020b4:	01031513          	slli	a0,t1,0x10
800020b8:	01055513          	srli	a0,a0,0x10
800020bc:	0107d613          	srli	a2,a5,0x10
800020c0:	02d5f733          	remu	a4,a1,a3
800020c4:	02d5d5b3          	divu	a1,a1,a3
800020c8:	01071713          	slli	a4,a4,0x10
800020cc:	00c76733          	or	a4,a4,a2
800020d0:	02b505b3          	mul	a1,a0,a1
800020d4:	00b77a63          	bgeu	a4,a1,800020e8 <__moddi3+0x1b4>
800020d8:	00670733          	add	a4,a4,t1
800020dc:	00676663          	bltu	a4,t1,800020e8 <__moddi3+0x1b4>
800020e0:	00b77463          	bgeu	a4,a1,800020e8 <__moddi3+0x1b4>
800020e4:	00670733          	add	a4,a4,t1
800020e8:	40b705b3          	sub	a1,a4,a1
800020ec:	02d5f733          	remu	a4,a1,a3
800020f0:	01079793          	slli	a5,a5,0x10
800020f4:	0107d793          	srli	a5,a5,0x10
800020f8:	02d5d5b3          	divu	a1,a1,a3
800020fc:	02b505b3          	mul	a1,a0,a1
80002100:	01071513          	slli	a0,a4,0x10
80002104:	00f567b3          	or	a5,a0,a5
80002108:	00b7fa63          	bgeu	a5,a1,8000211c <__moddi3+0x1e8>
8000210c:	006787b3          	add	a5,a5,t1
80002110:	0067e663          	bltu	a5,t1,8000211c <__moddi3+0x1e8>
80002114:	00b7f463          	bgeu	a5,a1,8000211c <__moddi3+0x1e8>
80002118:	006787b3          	add	a5,a5,t1
8000211c:	40b787b3          	sub	a5,a5,a1
80002120:	f19ff06f          	j	80002038 <__moddi3+0x104>
80002124:	01000637          	lui	a2,0x1000
80002128:	01000713          	li	a4,16
8000212c:	f6c362e3          	bltu	t1,a2,80002090 <__moddi3+0x15c>
80002130:	01800713          	li	a4,24
80002134:	f5dff06f          	j	80002090 <__moddi3+0x15c>
80002138:	01c31333          	sll	t1,t1,t3
8000213c:	01d5df33          	srl	t5,a1,t4
80002140:	01c517b3          	sll	a5,a0,t3
80002144:	01d55eb3          	srl	t4,a0,t4
80002148:	01035513          	srli	a0,t1,0x10
8000214c:	02af56b3          	divu	a3,t5,a0
80002150:	01c595b3          	sll	a1,a1,t3
80002154:	00beeeb3          	or	t4,t4,a1
80002158:	01031593          	slli	a1,t1,0x10
8000215c:	0105d593          	srli	a1,a1,0x10
80002160:	010ed613          	srli	a2,t4,0x10
80002164:	02af7733          	remu	a4,t5,a0
80002168:	02d586b3          	mul	a3,a1,a3
8000216c:	01071713          	slli	a4,a4,0x10
80002170:	00c76733          	or	a4,a4,a2
80002174:	00d77a63          	bgeu	a4,a3,80002188 <__moddi3+0x254>
80002178:	00670733          	add	a4,a4,t1
8000217c:	00676663          	bltu	a4,t1,80002188 <__moddi3+0x254>
80002180:	00d77463          	bgeu	a4,a3,80002188 <__moddi3+0x254>
80002184:	00670733          	add	a4,a4,t1
80002188:	40d70633          	sub	a2,a4,a3
8000218c:	02a67733          	remu	a4,a2,a0
80002190:	010e9e93          	slli	t4,t4,0x10
80002194:	010ede93          	srli	t4,t4,0x10
80002198:	02a65633          	divu	a2,a2,a0
8000219c:	01071713          	slli	a4,a4,0x10
800021a0:	02c58633          	mul	a2,a1,a2
800021a4:	01d765b3          	or	a1,a4,t4
800021a8:	00c5fa63          	bgeu	a1,a2,800021bc <__moddi3+0x288>
800021ac:	006585b3          	add	a1,a1,t1
800021b0:	0065e663          	bltu	a1,t1,800021bc <__moddi3+0x288>
800021b4:	00c5f463          	bgeu	a1,a2,800021bc <__moddi3+0x288>
800021b8:	006585b3          	add	a1,a1,t1
800021bc:	40c585b3          	sub	a1,a1,a2
800021c0:	ef1ff06f          	j	800020b0 <__moddi3+0x17c>
800021c4:	e6d5eee3          	bltu	a1,a3,80002040 <__moddi3+0x10c>
800021c8:	00010737          	lui	a4,0x10
800021cc:	04e6fc63          	bgeu	a3,a4,80002224 <__moddi3+0x2f0>
800021d0:	0ff00f13          	li	t5,255
800021d4:	00df3733          	sltu	a4,t5,a3
800021d8:	00371713          	slli	a4,a4,0x3
800021dc:	80003e37          	lui	t3,0x80003
800021e0:	00e6d333          	srl	t1,a3,a4
800021e4:	e0ce0e13          	addi	t3,t3,-500 # 80002e0c <__global_pointer$+0xffffeab0>
800021e8:	01c30333          	add	t1,t1,t3
800021ec:	00034f03          	lbu	t5,0(t1)
800021f0:	02000e93          	li	t4,32
800021f4:	00ef0f33          	add	t5,t5,a4
800021f8:	41ee8eb3          	sub	t4,t4,t5
800021fc:	020e9e63          	bnez	t4,80002238 <__moddi3+0x304>
80002200:	00b6e463          	bltu	a3,a1,80002208 <__moddi3+0x2d4>
80002204:	00c56a63          	bltu	a0,a2,80002218 <__moddi3+0x2e4>
80002208:	40c507b3          	sub	a5,a0,a2
8000220c:	40d586b3          	sub	a3,a1,a3
80002210:	00f53533          	sltu	a0,a0,a5
80002214:	40a68833          	sub	a6,a3,a0
80002218:	00078513          	mv	a0,a5
8000221c:	00080593          	mv	a1,a6
80002220:	e21ff06f          	j	80002040 <__moddi3+0x10c>
80002224:	01000337          	lui	t1,0x1000
80002228:	01000713          	li	a4,16
8000222c:	fa66e8e3          	bltu	a3,t1,800021dc <__moddi3+0x2a8>
80002230:	01800713          	li	a4,24
80002234:	fa9ff06f          	j	800021dc <__moddi3+0x2a8>
80002238:	01e65733          	srl	a4,a2,t5
8000223c:	01d696b3          	sll	a3,a3,t4
80002240:	00d766b3          	or	a3,a4,a3
80002244:	01e5d7b3          	srl	a5,a1,t5
80002248:	0106d713          	srli	a4,a3,0x10
8000224c:	02e7fe33          	remu	t3,a5,a4
80002250:	01d595b3          	sll	a1,a1,t4
80002254:	01e55833          	srl	a6,a0,t5
80002258:	00b86833          	or	a6,a6,a1
8000225c:	01069593          	slli	a1,a3,0x10
80002260:	0105d593          	srli	a1,a1,0x10
80002264:	01085313          	srli	t1,a6,0x10
80002268:	01d61633          	sll	a2,a2,t4
8000226c:	01d51533          	sll	a0,a0,t4
80002270:	02e7d7b3          	divu	a5,a5,a4
80002274:	010e1e13          	slli	t3,t3,0x10
80002278:	006e6333          	or	t1,t3,t1
8000227c:	02f58fb3          	mul	t6,a1,a5
80002280:	00078e13          	mv	t3,a5
80002284:	01f37e63          	bgeu	t1,t6,800022a0 <__moddi3+0x36c>
80002288:	00d30333          	add	t1,t1,a3
8000228c:	fff78e13          	addi	t3,a5,-1
80002290:	00d36863          	bltu	t1,a3,800022a0 <__moddi3+0x36c>
80002294:	01f37663          	bgeu	t1,t6,800022a0 <__moddi3+0x36c>
80002298:	ffe78e13          	addi	t3,a5,-2
8000229c:	00d30333          	add	t1,t1,a3
800022a0:	41f30333          	sub	t1,t1,t6
800022a4:	02e37fb3          	remu	t6,t1,a4
800022a8:	01081813          	slli	a6,a6,0x10
800022ac:	01085813          	srli	a6,a6,0x10
800022b0:	02e35333          	divu	t1,t1,a4
800022b4:	010f9f93          	slli	t6,t6,0x10
800022b8:	010fefb3          	or	t6,t6,a6
800022bc:	026585b3          	mul	a1,a1,t1
800022c0:	00030793          	mv	a5,t1
800022c4:	00bffe63          	bgeu	t6,a1,800022e0 <__moddi3+0x3ac>
800022c8:	00df8fb3          	add	t6,t6,a3
800022cc:	fff30793          	addi	a5,t1,-1 # ffffff <buflen.2990+0xffff7f>
800022d0:	00dfe863          	bltu	t6,a3,800022e0 <__moddi3+0x3ac>
800022d4:	00bff663          	bgeu	t6,a1,800022e0 <__moddi3+0x3ac>
800022d8:	ffe30793          	addi	a5,t1,-2
800022dc:	00df8fb3          	add	t6,t6,a3
800022e0:	40bf85b3          	sub	a1,t6,a1
800022e4:	010e1e13          	slli	t3,t3,0x10
800022e8:	00010fb7          	lui	t6,0x10
800022ec:	00fe6e33          	or	t3,t3,a5
800022f0:	ffff8793          	addi	a5,t6,-1 # ffff <buflen.2990+0xff7f>
800022f4:	00fe7333          	and	t1,t3,a5
800022f8:	01065813          	srli	a6,a2,0x10
800022fc:	010e5e13          	srli	t3,t3,0x10
80002300:	00f677b3          	and	a5,a2,a5
80002304:	02f30733          	mul	a4,t1,a5
80002308:	02fe07b3          	mul	a5,t3,a5
8000230c:	03030333          	mul	t1,t1,a6
80002310:	030e0e33          	mul	t3,t3,a6
80002314:	00f30333          	add	t1,t1,a5
80002318:	01075813          	srli	a6,a4,0x10
8000231c:	00680833          	add	a6,a6,t1
80002320:	00f87463          	bgeu	a6,a5,80002328 <__moddi3+0x3f4>
80002324:	01fe0e33          	add	t3,t3,t6
80002328:	01085793          	srli	a5,a6,0x10
8000232c:	01c78e33          	add	t3,a5,t3
80002330:	000107b7          	lui	a5,0x10
80002334:	fff78793          	addi	a5,a5,-1 # ffff <buflen.2990+0xff7f>
80002338:	00f87833          	and	a6,a6,a5
8000233c:	01081813          	slli	a6,a6,0x10
80002340:	00f77733          	and	a4,a4,a5
80002344:	00e80733          	add	a4,a6,a4
80002348:	01c5e663          	bltu	a1,t3,80002354 <__moddi3+0x420>
8000234c:	01c59e63          	bne	a1,t3,80002368 <__moddi3+0x434>
80002350:	00e57c63          	bgeu	a0,a4,80002368 <__moddi3+0x434>
80002354:	40c70633          	sub	a2,a4,a2
80002358:	00c73733          	sltu	a4,a4,a2
8000235c:	00d70733          	add	a4,a4,a3
80002360:	40ee0e33          	sub	t3,t3,a4
80002364:	00060713          	mv	a4,a2
80002368:	40e50733          	sub	a4,a0,a4
8000236c:	00e53533          	sltu	a0,a0,a4
80002370:	41c585b3          	sub	a1,a1,t3
80002374:	40a585b3          	sub	a1,a1,a0
80002378:	01e597b3          	sll	a5,a1,t5
8000237c:	01d75733          	srl	a4,a4,t4
80002380:	00e7e533          	or	a0,a5,a4
80002384:	01d5d5b3          	srl	a1,a1,t4
80002388:	cb9ff06f          	j	80002040 <__moddi3+0x10c>

8000238c <__udivdi3>:
8000238c:	00058793          	mv	a5,a1
80002390:	00060813          	mv	a6,a2
80002394:	00068893          	mv	a7,a3
80002398:	00050313          	mv	t1,a0
8000239c:	28069663          	bnez	a3,80002628 <__udivdi3+0x29c>
800023a0:	80003737          	lui	a4,0x80003
800023a4:	e0c70713          	addi	a4,a4,-500 # 80002e0c <__global_pointer$+0xffffeab0>
800023a8:	0ec5f663          	bgeu	a1,a2,80002494 <__udivdi3+0x108>
800023ac:	000106b7          	lui	a3,0x10
800023b0:	0cd67863          	bgeu	a2,a3,80002480 <__udivdi3+0xf4>
800023b4:	0ff00693          	li	a3,255
800023b8:	00c6b6b3          	sltu	a3,a3,a2
800023bc:	00369693          	slli	a3,a3,0x3
800023c0:	00d658b3          	srl	a7,a2,a3
800023c4:	01170733          	add	a4,a4,a7
800023c8:	00074703          	lbu	a4,0(a4)
800023cc:	00d706b3          	add	a3,a4,a3
800023d0:	02000713          	li	a4,32
800023d4:	40d70733          	sub	a4,a4,a3
800023d8:	00070c63          	beqz	a4,800023f0 <__udivdi3+0x64>
800023dc:	00e797b3          	sll	a5,a5,a4
800023e0:	00d556b3          	srl	a3,a0,a3
800023e4:	00e61833          	sll	a6,a2,a4
800023e8:	00f6e5b3          	or	a1,a3,a5
800023ec:	00e51333          	sll	t1,a0,a4
800023f0:	01085513          	srli	a0,a6,0x10
800023f4:	02a5f733          	remu	a4,a1,a0
800023f8:	01081613          	slli	a2,a6,0x10
800023fc:	01065613          	srli	a2,a2,0x10
80002400:	01035693          	srli	a3,t1,0x10
80002404:	02a5d5b3          	divu	a1,a1,a0
80002408:	01071713          	slli	a4,a4,0x10
8000240c:	00d766b3          	or	a3,a4,a3
80002410:	02b607b3          	mul	a5,a2,a1
80002414:	00058713          	mv	a4,a1
80002418:	00f6fe63          	bgeu	a3,a5,80002434 <__udivdi3+0xa8>
8000241c:	010686b3          	add	a3,a3,a6
80002420:	fff58713          	addi	a4,a1,-1
80002424:	0106e863          	bltu	a3,a6,80002434 <__udivdi3+0xa8>
80002428:	00f6f663          	bgeu	a3,a5,80002434 <__udivdi3+0xa8>
8000242c:	ffe58713          	addi	a4,a1,-2
80002430:	010686b3          	add	a3,a3,a6
80002434:	40f686b3          	sub	a3,a3,a5
80002438:	02a6f7b3          	remu	a5,a3,a0
8000243c:	01031313          	slli	t1,t1,0x10
80002440:	01035313          	srli	t1,t1,0x10
80002444:	02a6d6b3          	divu	a3,a3,a0
80002448:	01079793          	slli	a5,a5,0x10
8000244c:	0067e333          	or	t1,a5,t1
80002450:	02d605b3          	mul	a1,a2,a3
80002454:	00068513          	mv	a0,a3
80002458:	00b37c63          	bgeu	t1,a1,80002470 <__udivdi3+0xe4>
8000245c:	00680333          	add	t1,a6,t1
80002460:	fff68513          	addi	a0,a3,-1 # ffff <buflen.2990+0xff7f>
80002464:	01036663          	bltu	t1,a6,80002470 <__udivdi3+0xe4>
80002468:	00b37463          	bgeu	t1,a1,80002470 <__udivdi3+0xe4>
8000246c:	ffe68513          	addi	a0,a3,-2
80002470:	01071713          	slli	a4,a4,0x10
80002474:	00a76733          	or	a4,a4,a0
80002478:	00000593          	li	a1,0
8000247c:	0e40006f          	j	80002560 <__udivdi3+0x1d4>
80002480:	010008b7          	lui	a7,0x1000
80002484:	01000693          	li	a3,16
80002488:	f3166ce3          	bltu	a2,a7,800023c0 <__udivdi3+0x34>
8000248c:	01800693          	li	a3,24
80002490:	f31ff06f          	j	800023c0 <__udivdi3+0x34>
80002494:	00061663          	bnez	a2,800024a0 <__udivdi3+0x114>
80002498:	00100693          	li	a3,1
8000249c:	02c6d833          	divu	a6,a3,a2
800024a0:	000106b7          	lui	a3,0x10
800024a4:	0cd87263          	bgeu	a6,a3,80002568 <__udivdi3+0x1dc>
800024a8:	0ff00693          	li	a3,255
800024ac:	0106f463          	bgeu	a3,a6,800024b4 <__udivdi3+0x128>
800024b0:	00800893          	li	a7,8
800024b4:	011856b3          	srl	a3,a6,a7
800024b8:	00d70733          	add	a4,a4,a3
800024bc:	00074683          	lbu	a3,0(a4)
800024c0:	02000713          	li	a4,32
800024c4:	011686b3          	add	a3,a3,a7
800024c8:	40d70733          	sub	a4,a4,a3
800024cc:	0a071863          	bnez	a4,8000257c <__udivdi3+0x1f0>
800024d0:	410787b3          	sub	a5,a5,a6
800024d4:	00100593          	li	a1,1
800024d8:	01085613          	srli	a2,a6,0x10
800024dc:	01081893          	slli	a7,a6,0x10
800024e0:	0108d893          	srli	a7,a7,0x10
800024e4:	01035693          	srli	a3,t1,0x10
800024e8:	02c7f733          	remu	a4,a5,a2
800024ec:	02c7d7b3          	divu	a5,a5,a2
800024f0:	01071713          	slli	a4,a4,0x10
800024f4:	00d766b3          	or	a3,a4,a3
800024f8:	02f88533          	mul	a0,a7,a5
800024fc:	00078713          	mv	a4,a5
80002500:	00a6fe63          	bgeu	a3,a0,8000251c <__udivdi3+0x190>
80002504:	010686b3          	add	a3,a3,a6
80002508:	fff78713          	addi	a4,a5,-1
8000250c:	0106e863          	bltu	a3,a6,8000251c <__udivdi3+0x190>
80002510:	00a6f663          	bgeu	a3,a0,8000251c <__udivdi3+0x190>
80002514:	ffe78713          	addi	a4,a5,-2
80002518:	010686b3          	add	a3,a3,a6
8000251c:	40a686b3          	sub	a3,a3,a0
80002520:	02c6f7b3          	remu	a5,a3,a2
80002524:	01031313          	slli	t1,t1,0x10
80002528:	01035313          	srli	t1,t1,0x10
8000252c:	02c6d6b3          	divu	a3,a3,a2
80002530:	01079793          	slli	a5,a5,0x10
80002534:	0067e333          	or	t1,a5,t1
80002538:	02d888b3          	mul	a7,a7,a3
8000253c:	00068513          	mv	a0,a3
80002540:	01137c63          	bgeu	t1,a7,80002558 <__udivdi3+0x1cc>
80002544:	00680333          	add	t1,a6,t1
80002548:	fff68513          	addi	a0,a3,-1 # ffff <buflen.2990+0xff7f>
8000254c:	01036663          	bltu	t1,a6,80002558 <__udivdi3+0x1cc>
80002550:	01137463          	bgeu	t1,a7,80002558 <__udivdi3+0x1cc>
80002554:	ffe68513          	addi	a0,a3,-2
80002558:	01071713          	slli	a4,a4,0x10
8000255c:	00a76733          	or	a4,a4,a0
80002560:	00070513          	mv	a0,a4
80002564:	00008067          	ret
80002568:	010006b7          	lui	a3,0x1000
8000256c:	01000893          	li	a7,16
80002570:	f4d862e3          	bltu	a6,a3,800024b4 <__udivdi3+0x128>
80002574:	01800893          	li	a7,24
80002578:	f3dff06f          	j	800024b4 <__udivdi3+0x128>
8000257c:	00e81833          	sll	a6,a6,a4
80002580:	00d7d5b3          	srl	a1,a5,a3
80002584:	00e51333          	sll	t1,a0,a4
80002588:	00d556b3          	srl	a3,a0,a3
8000258c:	01085513          	srli	a0,a6,0x10
80002590:	00e797b3          	sll	a5,a5,a4
80002594:	02a5f733          	remu	a4,a1,a0
80002598:	00f6e8b3          	or	a7,a3,a5
8000259c:	01081793          	slli	a5,a6,0x10
800025a0:	0107d793          	srli	a5,a5,0x10
800025a4:	0108d613          	srli	a2,a7,0x10
800025a8:	02a5d5b3          	divu	a1,a1,a0
800025ac:	01071713          	slli	a4,a4,0x10
800025b0:	00c76733          	or	a4,a4,a2
800025b4:	02b786b3          	mul	a3,a5,a1
800025b8:	00058613          	mv	a2,a1
800025bc:	00d77e63          	bgeu	a4,a3,800025d8 <__udivdi3+0x24c>
800025c0:	01070733          	add	a4,a4,a6
800025c4:	fff58613          	addi	a2,a1,-1
800025c8:	01076863          	bltu	a4,a6,800025d8 <__udivdi3+0x24c>
800025cc:	00d77663          	bgeu	a4,a3,800025d8 <__udivdi3+0x24c>
800025d0:	ffe58613          	addi	a2,a1,-2
800025d4:	01070733          	add	a4,a4,a6
800025d8:	40d706b3          	sub	a3,a4,a3
800025dc:	02a6f733          	remu	a4,a3,a0
800025e0:	01089893          	slli	a7,a7,0x10
800025e4:	0108d893          	srli	a7,a7,0x10
800025e8:	02a6d6b3          	divu	a3,a3,a0
800025ec:	01071713          	slli	a4,a4,0x10
800025f0:	02d785b3          	mul	a1,a5,a3
800025f4:	011767b3          	or	a5,a4,a7
800025f8:	00068713          	mv	a4,a3
800025fc:	00b7fe63          	bgeu	a5,a1,80002618 <__udivdi3+0x28c>
80002600:	010787b3          	add	a5,a5,a6
80002604:	fff68713          	addi	a4,a3,-1 # ffffff <buflen.2990+0xffff7f>
80002608:	0107e863          	bltu	a5,a6,80002618 <__udivdi3+0x28c>
8000260c:	00b7f663          	bgeu	a5,a1,80002618 <__udivdi3+0x28c>
80002610:	ffe68713          	addi	a4,a3,-2
80002614:	010787b3          	add	a5,a5,a6
80002618:	40b787b3          	sub	a5,a5,a1
8000261c:	01061593          	slli	a1,a2,0x10
80002620:	00e5e5b3          	or	a1,a1,a4
80002624:	eb5ff06f          	j	800024d8 <__udivdi3+0x14c>
80002628:	18d5e663          	bltu	a1,a3,800027b4 <__udivdi3+0x428>
8000262c:	00010737          	lui	a4,0x10
80002630:	04e6f463          	bgeu	a3,a4,80002678 <__udivdi3+0x2ec>
80002634:	0ff00813          	li	a6,255
80002638:	00d83733          	sltu	a4,a6,a3
8000263c:	00371713          	slli	a4,a4,0x3
80002640:	80003837          	lui	a6,0x80003
80002644:	e0c80813          	addi	a6,a6,-500 # 80002e0c <__global_pointer$+0xffffeab0>
80002648:	00e6d5b3          	srl	a1,a3,a4
8000264c:	010585b3          	add	a1,a1,a6
80002650:	0005c803          	lbu	a6,0(a1)
80002654:	02000593          	li	a1,32
80002658:	00e80833          	add	a6,a6,a4
8000265c:	410585b3          	sub	a1,a1,a6
80002660:	02059663          	bnez	a1,8000268c <__udivdi3+0x300>
80002664:	00100713          	li	a4,1
80002668:	eef6ece3          	bltu	a3,a5,80002560 <__udivdi3+0x1d4>
8000266c:	00c53533          	sltu	a0,a0,a2
80002670:	00154713          	xori	a4,a0,1
80002674:	eedff06f          	j	80002560 <__udivdi3+0x1d4>
80002678:	010005b7          	lui	a1,0x1000
8000267c:	01000713          	li	a4,16
80002680:	fcb6e0e3          	bltu	a3,a1,80002640 <__udivdi3+0x2b4>
80002684:	01800713          	li	a4,24
80002688:	fb9ff06f          	j	80002640 <__udivdi3+0x2b4>
8000268c:	01065733          	srl	a4,a2,a6
80002690:	00b696b3          	sll	a3,a3,a1
80002694:	00d766b3          	or	a3,a4,a3
80002698:	0106de93          	srli	t4,a3,0x10
8000269c:	0107d733          	srl	a4,a5,a6
800026a0:	03d778b3          	remu	a7,a4,t4
800026a4:	00b797b3          	sll	a5,a5,a1
800026a8:	01055833          	srl	a6,a0,a6
800026ac:	00f86333          	or	t1,a6,a5
800026b0:	01069793          	slli	a5,a3,0x10
800026b4:	0107d793          	srli	a5,a5,0x10
800026b8:	01035813          	srli	a6,t1,0x10
800026bc:	00b61633          	sll	a2,a2,a1
800026c0:	03d75733          	divu	a4,a4,t4
800026c4:	01089893          	slli	a7,a7,0x10
800026c8:	0108e833          	or	a6,a7,a6
800026cc:	02e78f33          	mul	t5,a5,a4
800026d0:	00070e13          	mv	t3,a4
800026d4:	01e87e63          	bgeu	a6,t5,800026f0 <__udivdi3+0x364>
800026d8:	00d80833          	add	a6,a6,a3
800026dc:	fff70e13          	addi	t3,a4,-1 # ffff <buflen.2990+0xff7f>
800026e0:	00d86863          	bltu	a6,a3,800026f0 <__udivdi3+0x364>
800026e4:	01e87663          	bgeu	a6,t5,800026f0 <__udivdi3+0x364>
800026e8:	ffe70e13          	addi	t3,a4,-2
800026ec:	00d80833          	add	a6,a6,a3
800026f0:	41e80833          	sub	a6,a6,t5
800026f4:	03d878b3          	remu	a7,a6,t4
800026f8:	03d85833          	divu	a6,a6,t4
800026fc:	01089893          	slli	a7,a7,0x10
80002700:	03078eb3          	mul	t4,a5,a6
80002704:	01031793          	slli	a5,t1,0x10
80002708:	0107d793          	srli	a5,a5,0x10
8000270c:	00f8e7b3          	or	a5,a7,a5
80002710:	00080713          	mv	a4,a6
80002714:	01d7fe63          	bgeu	a5,t4,80002730 <__udivdi3+0x3a4>
80002718:	00d787b3          	add	a5,a5,a3
8000271c:	fff80713          	addi	a4,a6,-1
80002720:	00d7e863          	bltu	a5,a3,80002730 <__udivdi3+0x3a4>
80002724:	01d7f663          	bgeu	a5,t4,80002730 <__udivdi3+0x3a4>
80002728:	ffe80713          	addi	a4,a6,-2
8000272c:	00d787b3          	add	a5,a5,a3
80002730:	010e1e13          	slli	t3,t3,0x10
80002734:	41d787b3          	sub	a5,a5,t4
80002738:	00010eb7          	lui	t4,0x10
8000273c:	00ee6733          	or	a4,t3,a4
80002740:	fffe8813          	addi	a6,t4,-1 # ffff <buflen.2990+0xff7f>
80002744:	01077333          	and	t1,a4,a6
80002748:	01075893          	srli	a7,a4,0x10
8000274c:	01067833          	and	a6,a2,a6
80002750:	01065613          	srli	a2,a2,0x10
80002754:	03030e33          	mul	t3,t1,a6
80002758:	03088833          	mul	a6,a7,a6
8000275c:	010e5693          	srli	a3,t3,0x10
80002760:	02c30333          	mul	t1,t1,a2
80002764:	01030333          	add	t1,t1,a6
80002768:	006686b3          	add	a3,a3,t1
8000276c:	02c888b3          	mul	a7,a7,a2
80002770:	0106f463          	bgeu	a3,a6,80002778 <__udivdi3+0x3ec>
80002774:	01d888b3          	add	a7,a7,t4
80002778:	0106d613          	srli	a2,a3,0x10
8000277c:	011608b3          	add	a7,a2,a7
80002780:	0317e663          	bltu	a5,a7,800027ac <__udivdi3+0x420>
80002784:	cf179ae3          	bne	a5,a7,80002478 <__udivdi3+0xec>
80002788:	000107b7          	lui	a5,0x10
8000278c:	fff78793          	addi	a5,a5,-1 # ffff <buflen.2990+0xff7f>
80002790:	00f6f6b3          	and	a3,a3,a5
80002794:	01069693          	slli	a3,a3,0x10
80002798:	00fe7e33          	and	t3,t3,a5
8000279c:	00b51533          	sll	a0,a0,a1
800027a0:	01c686b3          	add	a3,a3,t3
800027a4:	00000593          	li	a1,0
800027a8:	dad57ce3          	bgeu	a0,a3,80002560 <__udivdi3+0x1d4>
800027ac:	fff70713          	addi	a4,a4,-1
800027b0:	cc9ff06f          	j	80002478 <__udivdi3+0xec>
800027b4:	00000593          	li	a1,0
800027b8:	00000713          	li	a4,0
800027bc:	da5ff06f          	j	80002560 <__udivdi3+0x1d4>

800027c0 <__umoddi3>:
800027c0:	00060893          	mv	a7,a2
800027c4:	00068713          	mv	a4,a3
800027c8:	00050793          	mv	a5,a0
800027cc:	00058813          	mv	a6,a1
800027d0:	22069c63          	bnez	a3,80002a08 <__umoddi3+0x248>
800027d4:	800036b7          	lui	a3,0x80003
800027d8:	e0c68693          	addi	a3,a3,-500 # 80002e0c <__global_pointer$+0xffffeab0>
800027dc:	0cc5fc63          	bgeu	a1,a2,800028b4 <__umoddi3+0xf4>
800027e0:	00010337          	lui	t1,0x10
800027e4:	0a667e63          	bgeu	a2,t1,800028a0 <__umoddi3+0xe0>
800027e8:	0ff00313          	li	t1,255
800027ec:	00c37463          	bgeu	t1,a2,800027f4 <__umoddi3+0x34>
800027f0:	00800713          	li	a4,8
800027f4:	00e65333          	srl	t1,a2,a4
800027f8:	006686b3          	add	a3,a3,t1
800027fc:	0006ce03          	lbu	t3,0(a3)
80002800:	02000313          	li	t1,32
80002804:	00ee0e33          	add	t3,t3,a4
80002808:	41c30333          	sub	t1,t1,t3
8000280c:	00030c63          	beqz	t1,80002824 <__umoddi3+0x64>
80002810:	006595b3          	sll	a1,a1,t1
80002814:	01c55e33          	srl	t3,a0,t3
80002818:	006618b3          	sll	a7,a2,t1
8000281c:	00be6833          	or	a6,t3,a1
80002820:	006517b3          	sll	a5,a0,t1
80002824:	0108d613          	srli	a2,a7,0x10
80002828:	02c87733          	remu	a4,a6,a2
8000282c:	01089513          	slli	a0,a7,0x10
80002830:	01055513          	srli	a0,a0,0x10
80002834:	0107d693          	srli	a3,a5,0x10
80002838:	02c85833          	divu	a6,a6,a2
8000283c:	01071713          	slli	a4,a4,0x10
80002840:	00d766b3          	or	a3,a4,a3
80002844:	03050833          	mul	a6,a0,a6
80002848:	0106fa63          	bgeu	a3,a6,8000285c <__umoddi3+0x9c>
8000284c:	011686b3          	add	a3,a3,a7
80002850:	0116e663          	bltu	a3,a7,8000285c <__umoddi3+0x9c>
80002854:	0106f463          	bgeu	a3,a6,8000285c <__umoddi3+0x9c>
80002858:	011686b3          	add	a3,a3,a7
8000285c:	410686b3          	sub	a3,a3,a6
80002860:	02c6f733          	remu	a4,a3,a2
80002864:	01079793          	slli	a5,a5,0x10
80002868:	0107d793          	srli	a5,a5,0x10
8000286c:	02c6d6b3          	divu	a3,a3,a2
80002870:	02d506b3          	mul	a3,a0,a3
80002874:	01071513          	slli	a0,a4,0x10
80002878:	00f567b3          	or	a5,a0,a5
8000287c:	00d7fa63          	bgeu	a5,a3,80002890 <__umoddi3+0xd0>
80002880:	011787b3          	add	a5,a5,a7
80002884:	0117e663          	bltu	a5,a7,80002890 <__umoddi3+0xd0>
80002888:	00d7f463          	bgeu	a5,a3,80002890 <__umoddi3+0xd0>
8000288c:	011787b3          	add	a5,a5,a7
80002890:	40d787b3          	sub	a5,a5,a3
80002894:	0067d533          	srl	a0,a5,t1
80002898:	00000593          	li	a1,0
8000289c:	00008067          	ret
800028a0:	01000337          	lui	t1,0x1000
800028a4:	01000713          	li	a4,16
800028a8:	f46666e3          	bltu	a2,t1,800027f4 <__umoddi3+0x34>
800028ac:	01800713          	li	a4,24
800028b0:	f45ff06f          	j	800027f4 <__umoddi3+0x34>
800028b4:	00061663          	bnez	a2,800028c0 <__umoddi3+0x100>
800028b8:	00100613          	li	a2,1
800028bc:	031658b3          	divu	a7,a2,a7
800028c0:	00010637          	lui	a2,0x10
800028c4:	0ac8f263          	bgeu	a7,a2,80002968 <__umoddi3+0x1a8>
800028c8:	0ff00613          	li	a2,255
800028cc:	01167463          	bgeu	a2,a7,800028d4 <__umoddi3+0x114>
800028d0:	00800713          	li	a4,8
800028d4:	00e8d633          	srl	a2,a7,a4
800028d8:	00c686b3          	add	a3,a3,a2
800028dc:	0006ce03          	lbu	t3,0(a3)
800028e0:	02000313          	li	t1,32
800028e4:	00ee0e33          	add	t3,t3,a4
800028e8:	41c30333          	sub	t1,t1,t3
800028ec:	08031863          	bnez	t1,8000297c <__umoddi3+0x1bc>
800028f0:	411585b3          	sub	a1,a1,a7
800028f4:	0108d713          	srli	a4,a7,0x10
800028f8:	01089513          	slli	a0,a7,0x10
800028fc:	01055513          	srli	a0,a0,0x10
80002900:	0107d613          	srli	a2,a5,0x10
80002904:	02e5f6b3          	remu	a3,a1,a4
80002908:	02e5d5b3          	divu	a1,a1,a4
8000290c:	01069693          	slli	a3,a3,0x10
80002910:	00c6e6b3          	or	a3,a3,a2
80002914:	02b505b3          	mul	a1,a0,a1
80002918:	00b6fa63          	bgeu	a3,a1,8000292c <__umoddi3+0x16c>
8000291c:	011686b3          	add	a3,a3,a7
80002920:	0116e663          	bltu	a3,a7,8000292c <__umoddi3+0x16c>
80002924:	00b6f463          	bgeu	a3,a1,8000292c <__umoddi3+0x16c>
80002928:	011686b3          	add	a3,a3,a7
8000292c:	40b685b3          	sub	a1,a3,a1
80002930:	02e5f6b3          	remu	a3,a1,a4
80002934:	01079793          	slli	a5,a5,0x10
80002938:	0107d793          	srli	a5,a5,0x10
8000293c:	02e5d5b3          	divu	a1,a1,a4
80002940:	02b505b3          	mul	a1,a0,a1
80002944:	01069513          	slli	a0,a3,0x10
80002948:	00f567b3          	or	a5,a0,a5
8000294c:	00b7fa63          	bgeu	a5,a1,80002960 <__umoddi3+0x1a0>
80002950:	011787b3          	add	a5,a5,a7
80002954:	0117e663          	bltu	a5,a7,80002960 <__umoddi3+0x1a0>
80002958:	00b7f463          	bgeu	a5,a1,80002960 <__umoddi3+0x1a0>
8000295c:	011787b3          	add	a5,a5,a7
80002960:	40b787b3          	sub	a5,a5,a1
80002964:	f31ff06f          	j	80002894 <__umoddi3+0xd4>
80002968:	01000637          	lui	a2,0x1000
8000296c:	01000713          	li	a4,16
80002970:	f6c8e2e3          	bltu	a7,a2,800028d4 <__umoddi3+0x114>
80002974:	01800713          	li	a4,24
80002978:	f5dff06f          	j	800028d4 <__umoddi3+0x114>
8000297c:	006898b3          	sll	a7,a7,t1
80002980:	01c5d733          	srl	a4,a1,t3
80002984:	006517b3          	sll	a5,a0,t1
80002988:	01c55e33          	srl	t3,a0,t3
8000298c:	0108d513          	srli	a0,a7,0x10
80002990:	02a776b3          	remu	a3,a4,a0
80002994:	006595b3          	sll	a1,a1,t1
80002998:	00be6e33          	or	t3,t3,a1
8000299c:	01089593          	slli	a1,a7,0x10
800029a0:	0105d593          	srli	a1,a1,0x10
800029a4:	010e5613          	srli	a2,t3,0x10
800029a8:	02a75733          	divu	a4,a4,a0
800029ac:	01069693          	slli	a3,a3,0x10
800029b0:	00c6e6b3          	or	a3,a3,a2
800029b4:	02e58733          	mul	a4,a1,a4
800029b8:	00e6fa63          	bgeu	a3,a4,800029cc <__umoddi3+0x20c>
800029bc:	011686b3          	add	a3,a3,a7
800029c0:	0116e663          	bltu	a3,a7,800029cc <__umoddi3+0x20c>
800029c4:	00e6f463          	bgeu	a3,a4,800029cc <__umoddi3+0x20c>
800029c8:	011686b3          	add	a3,a3,a7
800029cc:	40e68633          	sub	a2,a3,a4
800029d0:	02a676b3          	remu	a3,a2,a0
800029d4:	010e1e13          	slli	t3,t3,0x10
800029d8:	010e5e13          	srli	t3,t3,0x10
800029dc:	02a65633          	divu	a2,a2,a0
800029e0:	01069693          	slli	a3,a3,0x10
800029e4:	02c58633          	mul	a2,a1,a2
800029e8:	01c6e5b3          	or	a1,a3,t3
800029ec:	00c5fa63          	bgeu	a1,a2,80002a00 <__umoddi3+0x240>
800029f0:	011585b3          	add	a1,a1,a7
800029f4:	0115e663          	bltu	a1,a7,80002a00 <__umoddi3+0x240>
800029f8:	00c5f463          	bgeu	a1,a2,80002a00 <__umoddi3+0x240>
800029fc:	011585b3          	add	a1,a1,a7
80002a00:	40c585b3          	sub	a1,a1,a2
80002a04:	ef1ff06f          	j	800028f4 <__umoddi3+0x134>
80002a08:	e8d5eae3          	bltu	a1,a3,8000289c <__umoddi3+0xdc>
80002a0c:	00010737          	lui	a4,0x10
80002a10:	04e6fc63          	bgeu	a3,a4,80002a68 <__umoddi3+0x2a8>
80002a14:	0ff00e93          	li	t4,255
80002a18:	00deb733          	sltu	a4,t4,a3
80002a1c:	00371713          	slli	a4,a4,0x3
80002a20:	80003337          	lui	t1,0x80003
80002a24:	00e6d8b3          	srl	a7,a3,a4
80002a28:	e0c30313          	addi	t1,t1,-500 # 80002e0c <__global_pointer$+0xffffeab0>
80002a2c:	006888b3          	add	a7,a7,t1
80002a30:	0008ce83          	lbu	t4,0(a7) # 1000000 <buflen.2990+0xffff80>
80002a34:	02000e13          	li	t3,32
80002a38:	00ee8eb3          	add	t4,t4,a4
80002a3c:	41de0e33          	sub	t3,t3,t4
80002a40:	020e1e63          	bnez	t3,80002a7c <__umoddi3+0x2bc>
80002a44:	00b6e463          	bltu	a3,a1,80002a4c <__umoddi3+0x28c>
80002a48:	00c56a63          	bltu	a0,a2,80002a5c <__umoddi3+0x29c>
80002a4c:	40c507b3          	sub	a5,a0,a2
80002a50:	40d585b3          	sub	a1,a1,a3
80002a54:	00f53533          	sltu	a0,a0,a5
80002a58:	40a58833          	sub	a6,a1,a0
80002a5c:	00078513          	mv	a0,a5
80002a60:	00080593          	mv	a1,a6
80002a64:	e39ff06f          	j	8000289c <__umoddi3+0xdc>
80002a68:	010008b7          	lui	a7,0x1000
80002a6c:	01000713          	li	a4,16
80002a70:	fb16e8e3          	bltu	a3,a7,80002a20 <__umoddi3+0x260>
80002a74:	01800713          	li	a4,24
80002a78:	fa9ff06f          	j	80002a20 <__umoddi3+0x260>
80002a7c:	01d65733          	srl	a4,a2,t4
80002a80:	01c696b3          	sll	a3,a3,t3
80002a84:	00d766b3          	or	a3,a4,a3
80002a88:	0106d813          	srli	a6,a3,0x10
80002a8c:	01d5d733          	srl	a4,a1,t4
80002a90:	03077333          	remu	t1,a4,a6
80002a94:	01c595b3          	sll	a1,a1,t3
80002a98:	01d557b3          	srl	a5,a0,t4
80002a9c:	00b7e7b3          	or	a5,a5,a1
80002aa0:	01069593          	slli	a1,a3,0x10
80002aa4:	0105d593          	srli	a1,a1,0x10
80002aa8:	0107d893          	srli	a7,a5,0x10
80002aac:	01c61633          	sll	a2,a2,t3
80002ab0:	01c51533          	sll	a0,a0,t3
80002ab4:	03075733          	divu	a4,a4,a6
80002ab8:	01031313          	slli	t1,t1,0x10
80002abc:	011368b3          	or	a7,t1,a7
80002ac0:	02e58f33          	mul	t5,a1,a4
80002ac4:	00070313          	mv	t1,a4
80002ac8:	01e8fe63          	bgeu	a7,t5,80002ae4 <__umoddi3+0x324>
80002acc:	00d888b3          	add	a7,a7,a3
80002ad0:	fff70313          	addi	t1,a4,-1 # ffff <buflen.2990+0xff7f>
80002ad4:	00d8e863          	bltu	a7,a3,80002ae4 <__umoddi3+0x324>
80002ad8:	01e8f663          	bgeu	a7,t5,80002ae4 <__umoddi3+0x324>
80002adc:	ffe70313          	addi	t1,a4,-2
80002ae0:	00d888b3          	add	a7,a7,a3
80002ae4:	41e888b3          	sub	a7,a7,t5
80002ae8:	0308ff33          	remu	t5,a7,a6
80002aec:	0308d8b3          	divu	a7,a7,a6
80002af0:	010f1f13          	slli	t5,t5,0x10
80002af4:	03158833          	mul	a6,a1,a7
80002af8:	01079593          	slli	a1,a5,0x10
80002afc:	0105d593          	srli	a1,a1,0x10
80002b00:	00bf65b3          	or	a1,t5,a1
80002b04:	00088793          	mv	a5,a7
80002b08:	0105fe63          	bgeu	a1,a6,80002b24 <__umoddi3+0x364>
80002b0c:	00d585b3          	add	a1,a1,a3
80002b10:	fff88793          	addi	a5,a7,-1 # ffffff <buflen.2990+0xffff7f>
80002b14:	00d5e863          	bltu	a1,a3,80002b24 <__umoddi3+0x364>
80002b18:	0105f663          	bgeu	a1,a6,80002b24 <__umoddi3+0x364>
80002b1c:	ffe88793          	addi	a5,a7,-2
80002b20:	00d585b3          	add	a1,a1,a3
80002b24:	01031313          	slli	t1,t1,0x10
80002b28:	00010f37          	lui	t5,0x10
80002b2c:	00f36333          	or	t1,t1,a5
80002b30:	ffff0793          	addi	a5,t5,-1 # ffff <buflen.2990+0xff7f>
80002b34:	00f378b3          	and	a7,t1,a5
80002b38:	410585b3          	sub	a1,a1,a6
80002b3c:	01035313          	srli	t1,t1,0x10
80002b40:	01065813          	srli	a6,a2,0x10
80002b44:	00f677b3          	and	a5,a2,a5
80002b48:	02f88733          	mul	a4,a7,a5
80002b4c:	02f307b3          	mul	a5,t1,a5
80002b50:	030888b3          	mul	a7,a7,a6
80002b54:	03030333          	mul	t1,t1,a6
80002b58:	00f888b3          	add	a7,a7,a5
80002b5c:	01075813          	srli	a6,a4,0x10
80002b60:	01180833          	add	a6,a6,a7
80002b64:	00f87463          	bgeu	a6,a5,80002b6c <__umoddi3+0x3ac>
80002b68:	01e30333          	add	t1,t1,t5
80002b6c:	01085793          	srli	a5,a6,0x10
80002b70:	00678333          	add	t1,a5,t1
80002b74:	000107b7          	lui	a5,0x10
80002b78:	fff78793          	addi	a5,a5,-1 # ffff <buflen.2990+0xff7f>
80002b7c:	00f87833          	and	a6,a6,a5
80002b80:	01081813          	slli	a6,a6,0x10
80002b84:	00f77733          	and	a4,a4,a5
80002b88:	00e80733          	add	a4,a6,a4
80002b8c:	0065e663          	bltu	a1,t1,80002b98 <__umoddi3+0x3d8>
80002b90:	00659e63          	bne	a1,t1,80002bac <__umoddi3+0x3ec>
80002b94:	00e57c63          	bgeu	a0,a4,80002bac <__umoddi3+0x3ec>
80002b98:	40c70633          	sub	a2,a4,a2
80002b9c:	00c73733          	sltu	a4,a4,a2
80002ba0:	00d70733          	add	a4,a4,a3
80002ba4:	40e30333          	sub	t1,t1,a4
80002ba8:	00060713          	mv	a4,a2
80002bac:	40e50733          	sub	a4,a0,a4
80002bb0:	00e53533          	sltu	a0,a0,a4
80002bb4:	406585b3          	sub	a1,a1,t1
80002bb8:	40a585b3          	sub	a1,a1,a0
80002bbc:	01d597b3          	sll	a5,a1,t4
80002bc0:	01c75733          	srl	a4,a4,t3
80002bc4:	00e7e533          	or	a0,a5,a4
80002bc8:	01c5d5b3          	srl	a1,a1,t3
80002bcc:	cd1ff06f          	j	8000289c <__umoddi3+0xdc>

セクション .text.startup の逆アセンブル:

80002bd0 <main>:
80002bd0:	ff010113          	addi	sp,sp,-16
80002bd4:	00000517          	auipc	a0,0x0
80002bd8:	0bc50513          	addi	a0,a0,188 # 80002c90 <main+0xc0>
80002bdc:	00112623          	sw	ra,12(sp)
80002be0:	ef9fe0ef          	jal	ra,80001ad8 <printstr>
80002be4:	00c12083          	lw	ra,12(sp)
80002be8:	fff00513          	li	a0,-1
80002bec:	01010113          	addi	sp,sp,16
80002bf0:	00008067          	ret

セクション .data の逆アセンブル:

80002f5c <input2_data>:
80002f5c:	0001                	nop
80002f5e:	0000                	unimp
80002f60:	0001                	nop
80002f62:	0000                	unimp
80002f64:	0000                	unimp
80002f66:	0000                	unimp
80002f68:	00000003          	lb	zero,0(zero) # 0 <threadsense.3208>
80002f6c:	0001                	nop
80002f6e:	0000                	unimp
80002f70:	0002                	c.slli64	zero
80002f72:	0000                	unimp
80002f74:	0000                	unimp
80002f76:	0000                	unimp
80002f78:	0000                	unimp
80002f7a:	0000                	unimp
80002f7c:	0000                	unimp
80002f7e:	0000                	unimp
80002f80:	0000                	unimp
80002f82:	0000                	unimp
80002f84:	0000                	unimp
80002f86:	0000                	unimp
80002f88:	0002                	c.slli64	zero
80002f8a:	0000                	unimp
80002f8c:	0001                	nop
80002f8e:	0000                	unimp
80002f90:	0002                	c.slli64	zero
80002f92:	0000                	unimp
80002f94:	00000003          	lb	zero,0(zero) # 0 <threadsense.3208>
80002f98:	0000                	unimp
80002f9a:	0000                	unimp
80002f9c:	0000                	unimp
80002f9e:	0000                	unimp
80002fa0:	00000003          	lb	zero,0(zero) # 0 <threadsense.3208>
80002fa4:	00000003          	lb	zero,0(zero) # 0 <threadsense.3208>
80002fa8:	0002                	c.slli64	zero
80002faa:	0000                	unimp
80002fac:	0002                	c.slli64	zero
80002fae:	0000                	unimp
80002fb0:	0001                	nop
80002fb2:	0000                	unimp
80002fb4:	0002                	c.slli64	zero
80002fb6:	0000                	unimp
80002fb8:	00000003          	lb	zero,0(zero) # 0 <threadsense.3208>
80002fbc:	00000003          	lb	zero,0(zero) # 0 <threadsense.3208>
80002fc0:	0000                	unimp
80002fc2:	0000                	unimp
80002fc4:	0002                	c.slli64	zero
80002fc6:	0000                	unimp
80002fc8:	0002                	c.slli64	zero
80002fca:	0000                	unimp
80002fcc:	0001                	nop
80002fce:	0000                	unimp
80002fd0:	0001                	nop
80002fd2:	0000                	unimp
80002fd4:	0002                	c.slli64	zero
80002fd6:	0000                	unimp
80002fd8:	0002                	c.slli64	zero
80002fda:	0000                	unimp
80002fdc:	0000                	unimp
80002fde:	0000                	unimp
80002fe0:	0002                	c.slli64	zero
80002fe2:	0000                	unimp
80002fe4:	0002                	c.slli64	zero
80002fe6:	0000                	unimp
80002fe8:	0001                	nop
80002fea:	0000                	unimp
80002fec:	0002                	c.slli64	zero
80002fee:	0000                	unimp
80002ff0:	00000003          	lb	zero,0(zero) # 0 <threadsense.3208>
80002ff4:	0002                	c.slli64	zero
80002ff6:	0000                	unimp
80002ff8:	0002                	c.slli64	zero
80002ffa:	0000                	unimp
80002ffc:	00000003          	lb	zero,0(zero) # 0 <threadsense.3208>
80003000:	00000003          	lb	zero,0(zero) # 0 <threadsense.3208>
80003004:	0002                	c.slli64	zero
80003006:	0000                	unimp
80003008:	0002                	c.slli64	zero
8000300a:	0000                	unimp
8000300c:	0001                	nop
8000300e:	0000                	unimp
80003010:	0001                	nop
80003012:	0000                	unimp
80003014:	0001                	nop
80003016:	0000                	unimp
80003018:	0001                	nop
8000301a:	0000                	unimp
8000301c:	0002                	c.slli64	zero
8000301e:	0000                	unimp
80003020:	0001                	nop
80003022:	0000                	unimp
80003024:	0002                	c.slli64	zero
80003026:	0000                	unimp
80003028:	0002                	c.slli64	zero
8000302a:	0000                	unimp
8000302c:	00000003          	lb	zero,0(zero) # 0 <threadsense.3208>
80003030:	00000003          	lb	zero,0(zero) # 0 <threadsense.3208>
80003034:	00000003          	lb	zero,0(zero) # 0 <threadsense.3208>
80003038:	0000                	unimp
8000303a:	0000                	unimp
8000303c:	0000                	unimp
8000303e:	0000                	unimp
80003040:	00000003          	lb	zero,0(zero) # 0 <threadsense.3208>
80003044:	0002                	c.slli64	zero
80003046:	0000                	unimp
80003048:	00000003          	lb	zero,0(zero) # 0 <threadsense.3208>
8000304c:	0002                	c.slli64	zero
8000304e:	0000                	unimp
80003050:	00000003          	lb	zero,0(zero) # 0 <threadsense.3208>
80003054:	0001                	nop
80003056:	0000                	unimp
80003058:	0002                	c.slli64	zero
8000305a:	0000                	unimp
8000305c:	0001                	nop
8000305e:	0000                	unimp
80003060:	0001                	nop
80003062:	0000                	unimp
80003064:	0002                	c.slli64	zero
80003066:	0000                	unimp
80003068:	0002                	c.slli64	zero
8000306a:	0000                	unimp
8000306c:	0000                	unimp
8000306e:	0000                	unimp
80003070:	0001                	nop
80003072:	0000                	unimp
80003074:	0000                	unimp
80003076:	0000                	unimp
80003078:	00000003          	lb	zero,0(zero) # 0 <threadsense.3208>
8000307c:	0002                	c.slli64	zero
8000307e:	0000                	unimp
80003080:	0001                	nop
80003082:	0000                	unimp
80003084:	0001                	nop
80003086:	0000                	unimp
80003088:	0001                	nop
8000308a:	0000                	unimp
8000308c:	0002                	c.slli64	zero
8000308e:	0000                	unimp
80003090:	0000                	unimp
80003092:	0000                	unimp
80003094:	0001                	nop
80003096:	0000                	unimp
80003098:	0002                	c.slli64	zero
8000309a:	0000                	unimp
8000309c:	0002                	c.slli64	zero
8000309e:	0000                	unimp
800030a0:	0000                	unimp
800030a2:	0000                	unimp
800030a4:	0002                	c.slli64	zero
800030a6:	0000                	unimp
800030a8:	0001                	nop
800030aa:	0000                	unimp
800030ac:	00000003          	lb	zero,0(zero) # 0 <threadsense.3208>
800030b0:	00000003          	lb	zero,0(zero) # 0 <threadsense.3208>
800030b4:	0002                	c.slli64	zero
800030b6:	0000                	unimp
800030b8:	00000003          	lb	zero,0(zero) # 0 <threadsense.3208>
800030bc:	0002                	c.slli64	zero
800030be:	0000                	unimp
800030c0:	0000                	unimp
800030c2:	0000                	unimp
800030c4:	00000003          	lb	zero,0(zero) # 0 <threadsense.3208>
800030c8:	0001                	nop
800030ca:	0000                	unimp
800030cc:	00000003          	lb	zero,0(zero) # 0 <threadsense.3208>
800030d0:	00000003          	lb	zero,0(zero) # 0 <threadsense.3208>
800030d4:	0002                	c.slli64	zero
800030d6:	0000                	unimp
800030d8:	0000                	unimp
800030da:	0000                	unimp
800030dc:	0001                	nop
800030de:	0000                	unimp
800030e0:	0000                	unimp
800030e2:	0000                	unimp
800030e4:	0001                	nop
800030e6:	0000                	unimp
800030e8:	0001                	nop
800030ea:	0000                	unimp
800030ec:	0002                	c.slli64	zero
800030ee:	0000                	unimp
800030f0:	0002                	c.slli64	zero
800030f2:	0000                	unimp
800030f4:	0001                	nop
800030f6:	0000                	unimp
800030f8:	0001                	nop
800030fa:	0000                	unimp
800030fc:	0002                	c.slli64	zero
800030fe:	0000                	unimp
80003100:	0002                	c.slli64	zero
80003102:	0000                	unimp
80003104:	0001                	nop
80003106:	0000                	unimp
80003108:	0002                	c.slli64	zero
8000310a:	0000                	unimp
8000310c:	00000003          	lb	zero,0(zero) # 0 <threadsense.3208>
80003110:	00000003          	lb	zero,0(zero) # 0 <threadsense.3208>
80003114:	0001                	nop
80003116:	0000                	unimp
80003118:	00000003          	lb	zero,0(zero) # 0 <threadsense.3208>
8000311c:	0002                	c.slli64	zero
8000311e:	0000                	unimp
80003120:	0002                	c.slli64	zero
80003122:	0000                	unimp
80003124:	0002                	c.slli64	zero
80003126:	0000                	unimp
80003128:	00000003          	lb	zero,0(zero) # 0 <threadsense.3208>
8000312c:	00000003          	lb	zero,0(zero) # 0 <threadsense.3208>
80003130:	0001                	nop
80003132:	0000                	unimp
80003134:	0000                	unimp
80003136:	0000                	unimp
80003138:	0002                	c.slli64	zero
8000313a:	0000                	unimp
8000313c:	0001                	nop
8000313e:	0000                	unimp
80003140:	0000                	unimp
80003142:	0000                	unimp
80003144:	0000                	unimp
80003146:	0000                	unimp
80003148:	0000                	unimp
8000314a:	0000                	unimp
8000314c:	0001                	nop
8000314e:	0000                	unimp
80003150:	0001                	nop
80003152:	0000                	unimp
80003154:	0002                	c.slli64	zero
80003156:	0000                	unimp
80003158:	0000                	unimp
8000315a:	0000                	unimp
8000315c:	00000003          	lb	zero,0(zero) # 0 <threadsense.3208>
80003160:	0002                	c.slli64	zero
80003162:	0000                	unimp
80003164:	00000003          	lb	zero,0(zero) # 0 <threadsense.3208>
80003168:	00000003          	lb	zero,0(zero) # 0 <threadsense.3208>
8000316c:	0000                	unimp
8000316e:	0000                	unimp
80003170:	0002                	c.slli64	zero
80003172:	0000                	unimp
80003174:	00000003          	lb	zero,0(zero) # 0 <threadsense.3208>
80003178:	0001                	nop
8000317a:	0000                	unimp
8000317c:	0000                	unimp
8000317e:	0000                	unimp
80003180:	0000                	unimp
80003182:	0000                	unimp
80003184:	0002                	c.slli64	zero
80003186:	0000                	unimp
80003188:	0001                	nop
8000318a:	0000                	unimp
8000318c:	0002                	c.slli64	zero
8000318e:	0000                	unimp
80003190:	0000                	unimp
80003192:	0000                	unimp
80003194:	0002                	c.slli64	zero
80003196:	0000                	unimp
80003198:	0001                	nop
8000319a:	0000                	unimp
8000319c:	0001                	nop
8000319e:	0000                	unimp
800031a0:	0002                	c.slli64	zero
800031a2:	0000                	unimp
800031a4:	00000003          	lb	zero,0(zero) # 0 <threadsense.3208>
800031a8:	0001                	nop
800031aa:	0000                	unimp
800031ac:	00000003          	lb	zero,0(zero) # 0 <threadsense.3208>
800031b0:	0002                	c.slli64	zero
800031b2:	0000                	unimp
800031b4:	0001                	nop
800031b6:	0000                	unimp
800031b8:	0000                	unimp
800031ba:	0000                	unimp
800031bc:	0000                	unimp
800031be:	0000                	unimp
800031c0:	0000                	unimp
800031c2:	0000                	unimp
800031c4:	0000                	unimp
800031c6:	0000                	unimp
800031c8:	0000                	unimp
800031ca:	0000                	unimp
800031cc:	0002                	c.slli64	zero
800031ce:	0000                	unimp
800031d0:	0002                	c.slli64	zero
800031d2:	0000                	unimp
800031d4:	0000                	unimp
800031d6:	0000                	unimp
800031d8:	0002                	c.slli64	zero
800031da:	0000                	unimp
800031dc:	0001                	nop
800031de:	0000                	unimp
800031e0:	0002                	c.slli64	zero
800031e2:	0000                	unimp
800031e4:	0000                	unimp
800031e6:	0000                	unimp
800031e8:	00000003          	lb	zero,0(zero) # 0 <threadsense.3208>
800031ec:	0002                	c.slli64	zero
800031ee:	0000                	unimp
800031f0:	0002                	c.slli64	zero
800031f2:	0000                	unimp
800031f4:	0000                	unimp
800031f6:	0000                	unimp
800031f8:	0000                	unimp
800031fa:	0000                	unimp
800031fc:	00000003          	lb	zero,0(zero) # 0 <threadsense.3208>
80003200:	0002                	c.slli64	zero
80003202:	0000                	unimp
80003204:	0001                	nop
80003206:	0000                	unimp
80003208:	0001                	nop
8000320a:	0000                	unimp
8000320c:	00000003          	lb	zero,0(zero) # 0 <threadsense.3208>
80003210:	0000                	unimp
80003212:	0000                	unimp
80003214:	0002                	c.slli64	zero
80003216:	0000                	unimp
80003218:	0000                	unimp
8000321a:	0000                	unimp
8000321c:	0000                	unimp
8000321e:	0000                	unimp
80003220:	0001                	nop
80003222:	0000                	unimp
80003224:	0000                	unimp
80003226:	0000                	unimp
80003228:	0002                	c.slli64	zero
8000322a:	0000                	unimp
8000322c:	00000003          	lb	zero,0(zero) # 0 <threadsense.3208>
80003230:	00000003          	lb	zero,0(zero) # 0 <threadsense.3208>
80003234:	0001                	nop
80003236:	0000                	unimp
80003238:	00000003          	lb	zero,0(zero) # 0 <threadsense.3208>
8000323c:	00000003          	lb	zero,0(zero) # 0 <threadsense.3208>
80003240:	0000                	unimp
80003242:	0000                	unimp
80003244:	0000                	unimp
80003246:	0000                	unimp
80003248:	0002                	c.slli64	zero
8000324a:	0000                	unimp
8000324c:	0002                	c.slli64	zero
8000324e:	0000                	unimp
80003250:	0000                	unimp
80003252:	0000                	unimp
80003254:	0000                	unimp
80003256:	0000                	unimp
80003258:	0000                	unimp
8000325a:	0000                	unimp
8000325c:	0001                	nop
8000325e:	0000                	unimp
80003260:	0000                	unimp
80003262:	0000                	unimp
80003264:	0000                	unimp
80003266:	0000                	unimp
80003268:	0001                	nop
8000326a:	0000                	unimp
8000326c:	00000003          	lb	zero,0(zero) # 0 <threadsense.3208>
80003270:	0000                	unimp
80003272:	0000                	unimp
80003274:	0002                	c.slli64	zero
80003276:	0000                	unimp
80003278:	0001                	nop
8000327a:	0000                	unimp
8000327c:	00000003          	lb	zero,0(zero) # 0 <threadsense.3208>
80003280:	0002                	c.slli64	zero
80003282:	0000                	unimp
80003284:	0002                	c.slli64	zero
80003286:	0000                	unimp
80003288:	0001                	nop
8000328a:	0000                	unimp
8000328c:	00000003          	lb	zero,0(zero) # 0 <threadsense.3208>
80003290:	0002                	c.slli64	zero
80003292:	0000                	unimp
80003294:	0000                	unimp
80003296:	0000                	unimp
80003298:	0001                	nop
8000329a:	0000                	unimp
8000329c:	0002                	c.slli64	zero
8000329e:	0000                	unimp
800032a0:	0002                	c.slli64	zero
800032a2:	0000                	unimp
800032a4:	00000003          	lb	zero,0(zero) # 0 <threadsense.3208>
800032a8:	0002                	c.slli64	zero
800032aa:	0000                	unimp
800032ac:	0001                	nop
800032ae:	0000                	unimp
800032b0:	0001                	nop
800032b2:	0000                	unimp
800032b4:	0001                	nop
800032b6:	0000                	unimp
800032b8:	0001                	nop
800032ba:	0000                	unimp
800032bc:	00000003          	lb	zero,0(zero) # 0 <threadsense.3208>
800032c0:	0000                	unimp
800032c2:	0000                	unimp
800032c4:	0001                	nop
800032c6:	0000                	unimp
800032c8:	00000003          	lb	zero,0(zero) # 0 <threadsense.3208>
800032cc:	0002                	c.slli64	zero
800032ce:	0000                	unimp
800032d0:	0002                	c.slli64	zero
800032d2:	0000                	unimp
800032d4:	00000003          	lb	zero,0(zero) # 0 <threadsense.3208>
800032d8:	0001                	nop
800032da:	0000                	unimp
800032dc:	0001                	nop
800032de:	0000                	unimp
800032e0:	0002                	c.slli64	zero
800032e2:	0000                	unimp
800032e4:	0000                	unimp
800032e6:	0000                	unimp
800032e8:	0002                	c.slli64	zero
800032ea:	0000                	unimp
800032ec:	0001                	nop
800032ee:	0000                	unimp
800032f0:	0001                	nop
800032f2:	0000                	unimp
800032f4:	0002                	c.slli64	zero
800032f6:	0000                	unimp
800032f8:	00000003          	lb	zero,0(zero) # 0 <threadsense.3208>
800032fc:	0001                	nop
800032fe:	0000                	unimp
80003300:	0000                	unimp
80003302:	0000                	unimp
80003304:	0001                	nop
80003306:	0000                	unimp
80003308:	0000                	unimp
8000330a:	0000                	unimp
8000330c:	0001                	nop
8000330e:	0000                	unimp
80003310:	0001                	nop
80003312:	0000                	unimp
80003314:	0000                	unimp
80003316:	0000                	unimp
80003318:	0000                	unimp
8000331a:	0000                	unimp
8000331c:	0002                	c.slli64	zero
8000331e:	0000                	unimp
80003320:	0000                	unimp
80003322:	0000                	unimp
80003324:	00000003          	lb	zero,0(zero) # 0 <threadsense.3208>
80003328:	0000                	unimp
8000332a:	0000                	unimp
8000332c:	00000003          	lb	zero,0(zero) # 0 <threadsense.3208>
80003330:	0000                	unimp
80003332:	0000                	unimp
80003334:	00000003          	lb	zero,0(zero) # 0 <threadsense.3208>
80003338:	0002                	c.slli64	zero
8000333a:	0000                	unimp
8000333c:	0002                	c.slli64	zero
8000333e:	0000                	unimp
80003340:	00000003          	lb	zero,0(zero) # 0 <threadsense.3208>
80003344:	00000003          	lb	zero,0(zero) # 0 <threadsense.3208>
80003348:	0002                	c.slli64	zero
8000334a:	0000                	unimp
8000334c:	0001                	nop
8000334e:	0000                	unimp
80003350:	0000                	unimp
80003352:	0000                	unimp
80003354:	0002                	c.slli64	zero
80003356:	0000                	unimp
80003358:	0002                	c.slli64	zero
8000335a:	0000                	unimp

8000335c <input1_data>:
8000335c:	0000                	unimp
8000335e:	0000                	unimp
80003360:	00000003          	lb	zero,0(zero) # 0 <threadsense.3208>
80003364:	0002                	c.slli64	zero
80003366:	0000                	unimp
80003368:	0000                	unimp
8000336a:	0000                	unimp
8000336c:	00000003          	lb	zero,0(zero) # 0 <threadsense.3208>
80003370:	0001                	nop
80003372:	0000                	unimp
80003374:	0000                	unimp
80003376:	0000                	unimp
80003378:	00000003          	lb	zero,0(zero) # 0 <threadsense.3208>
8000337c:	0002                	c.slli64	zero
8000337e:	0000                	unimp
80003380:	00000003          	lb	zero,0(zero) # 0 <threadsense.3208>
80003384:	0002                	c.slli64	zero
80003386:	0000                	unimp
80003388:	0000                	unimp
8000338a:	0000                	unimp
8000338c:	00000003          	lb	zero,0(zero) # 0 <threadsense.3208>
80003390:	00000003          	lb	zero,0(zero) # 0 <threadsense.3208>
80003394:	0001                	nop
80003396:	0000                	unimp
80003398:	0002                	c.slli64	zero
8000339a:	0000                	unimp
8000339c:	00000003          	lb	zero,0(zero) # 0 <threadsense.3208>
800033a0:	0000                	unimp
800033a2:	0000                	unimp
800033a4:	0000                	unimp
800033a6:	0000                	unimp
800033a8:	0001                	nop
800033aa:	0000                	unimp
800033ac:	0001                	nop
800033ae:	0000                	unimp
800033b0:	0001                	nop
800033b2:	0000                	unimp
800033b4:	0002                	c.slli64	zero
800033b6:	0000                	unimp
800033b8:	00000003          	lb	zero,0(zero) # 0 <threadsense.3208>
800033bc:	0001                	nop
800033be:	0000                	unimp
800033c0:	0002                	c.slli64	zero
800033c2:	0000                	unimp
800033c4:	00000003          	lb	zero,0(zero) # 0 <threadsense.3208>
800033c8:	0001                	nop
800033ca:	0000                	unimp
800033cc:	0001                	nop
800033ce:	0000                	unimp
800033d0:	00000003          	lb	zero,0(zero) # 0 <threadsense.3208>
800033d4:	0002                	c.slli64	zero
800033d6:	0000                	unimp
800033d8:	0002                	c.slli64	zero
800033da:	0000                	unimp
800033dc:	0000                	unimp
800033de:	0000                	unimp
800033e0:	0001                	nop
800033e2:	0000                	unimp
800033e4:	00000003          	lb	zero,0(zero) # 0 <threadsense.3208>
800033e8:	0002                	c.slli64	zero
800033ea:	0000                	unimp
800033ec:	0002                	c.slli64	zero
800033ee:	0000                	unimp
800033f0:	0002                	c.slli64	zero
800033f2:	0000                	unimp
800033f4:	0000                	unimp
800033f6:	0000                	unimp
800033f8:	0000                	unimp
800033fa:	0000                	unimp
800033fc:	0001                	nop
800033fe:	0000                	unimp
80003400:	0000                	unimp
80003402:	0000                	unimp
80003404:	0001                	nop
80003406:	0000                	unimp
80003408:	00000003          	lb	zero,0(zero) # 0 <threadsense.3208>
8000340c:	00000003          	lb	zero,0(zero) # 0 <threadsense.3208>
80003410:	0000                	unimp
80003412:	0000                	unimp
80003414:	00000003          	lb	zero,0(zero) # 0 <threadsense.3208>
80003418:	00000003          	lb	zero,0(zero) # 0 <threadsense.3208>
8000341c:	00000003          	lb	zero,0(zero) # 0 <threadsense.3208>
80003420:	00000003          	lb	zero,0(zero) # 0 <threadsense.3208>
80003424:	0000                	unimp
80003426:	0000                	unimp
80003428:	00000003          	lb	zero,0(zero) # 0 <threadsense.3208>
8000342c:	0002                	c.slli64	zero
8000342e:	0000                	unimp
80003430:	0001                	nop
80003432:	0000                	unimp
80003434:	0002                	c.slli64	zero
80003436:	0000                	unimp
80003438:	0002                	c.slli64	zero
8000343a:	0000                	unimp
8000343c:	0000                	unimp
8000343e:	0000                	unimp
80003440:	0000                	unimp
80003442:	0000                	unimp
80003444:	00000003          	lb	zero,0(zero) # 0 <threadsense.3208>
80003448:	0000                	unimp
8000344a:	0000                	unimp
8000344c:	0001                	nop
8000344e:	0000                	unimp
80003450:	0001                	nop
80003452:	0000                	unimp
80003454:	0000                	unimp
80003456:	0000                	unimp
80003458:	00000003          	lb	zero,0(zero) # 0 <threadsense.3208>
8000345c:	00000003          	lb	zero,0(zero) # 0 <threadsense.3208>
80003460:	0001                	nop
80003462:	0000                	unimp
80003464:	0002                	c.slli64	zero
80003466:	0000                	unimp
80003468:	00000003          	lb	zero,0(zero) # 0 <threadsense.3208>
8000346c:	00000003          	lb	zero,0(zero) # 0 <threadsense.3208>
80003470:	0000                	unimp
80003472:	0000                	unimp
80003474:	0001                	nop
80003476:	0000                	unimp
80003478:	0002                	c.slli64	zero
8000347a:	0000                	unimp
8000347c:	0001                	nop
8000347e:	0000                	unimp
80003480:	0000                	unimp
80003482:	0000                	unimp
80003484:	0001                	nop
80003486:	0000                	unimp
80003488:	0002                	c.slli64	zero
8000348a:	0000                	unimp
8000348c:	0002                	c.slli64	zero
8000348e:	0000                	unimp
80003490:	0001                	nop
80003492:	0000                	unimp
80003494:	0000                	unimp
80003496:	0000                	unimp
80003498:	00000003          	lb	zero,0(zero) # 0 <threadsense.3208>
8000349c:	0001                	nop
8000349e:	0000                	unimp
800034a0:	0000                	unimp
800034a2:	0000                	unimp
800034a4:	0002                	c.slli64	zero
800034a6:	0000                	unimp
800034a8:	0002                	c.slli64	zero
800034aa:	0000                	unimp
800034ac:	0001                	nop
800034ae:	0000                	unimp
800034b0:	0001                	nop
800034b2:	0000                	unimp
800034b4:	0001                	nop
800034b6:	0000                	unimp
800034b8:	0001                	nop
800034ba:	0000                	unimp
800034bc:	0001                	nop
800034be:	0000                	unimp
800034c0:	0001                	nop
800034c2:	0000                	unimp
800034c4:	0002                	c.slli64	zero
800034c6:	0000                	unimp
800034c8:	0000                	unimp
800034ca:	0000                	unimp
800034cc:	00000003          	lb	zero,0(zero) # 0 <threadsense.3208>
800034d0:	0001                	nop
800034d2:	0000                	unimp
800034d4:	0001                	nop
800034d6:	0000                	unimp
800034d8:	0002                	c.slli64	zero
800034da:	0000                	unimp
800034dc:	0002                	c.slli64	zero
800034de:	0000                	unimp
800034e0:	00000003          	lb	zero,0(zero) # 0 <threadsense.3208>
800034e4:	00000003          	lb	zero,0(zero) # 0 <threadsense.3208>
800034e8:	0001                	nop
800034ea:	0000                	unimp
800034ec:	00000003          	lb	zero,0(zero) # 0 <threadsense.3208>
800034f0:	0002                	c.slli64	zero
800034f2:	0000                	unimp
800034f4:	0000                	unimp
800034f6:	0000                	unimp
800034f8:	0000                	unimp
800034fa:	0000                	unimp
800034fc:	0000                	unimp
800034fe:	0000                	unimp
80003500:	00000003          	lb	zero,0(zero) # 0 <threadsense.3208>
80003504:	00000003          	lb	zero,0(zero) # 0 <threadsense.3208>
80003508:	00000003          	lb	zero,0(zero) # 0 <threadsense.3208>
8000350c:	0002                	c.slli64	zero
8000350e:	0000                	unimp
80003510:	0001                	nop
80003512:	0000                	unimp
80003514:	0002                	c.slli64	zero
80003516:	0000                	unimp
80003518:	00000003          	lb	zero,0(zero) # 0 <threadsense.3208>
8000351c:	0001                	nop
8000351e:	0000                	unimp
80003520:	0000                	unimp
80003522:	0000                	unimp
80003524:	0000                	unimp
80003526:	0000                	unimp
80003528:	0000                	unimp
8000352a:	0000                	unimp
8000352c:	0000                	unimp
8000352e:	0000                	unimp
80003530:	0001                	nop
80003532:	0000                	unimp
80003534:	0002                	c.slli64	zero
80003536:	0000                	unimp
80003538:	0002                	c.slli64	zero
8000353a:	0000                	unimp
8000353c:	0001                	nop
8000353e:	0000                	unimp
80003540:	0001                	nop
80003542:	0000                	unimp
80003544:	00000003          	lb	zero,0(zero) # 0 <threadsense.3208>
80003548:	00000003          	lb	zero,0(zero) # 0 <threadsense.3208>
8000354c:	00000003          	lb	zero,0(zero) # 0 <threadsense.3208>
80003550:	0001                	nop
80003552:	0000                	unimp
80003554:	0001                	nop
80003556:	0000                	unimp
80003558:	0002                	c.slli64	zero
8000355a:	0000                	unimp
8000355c:	00000003          	lb	zero,0(zero) # 0 <threadsense.3208>
80003560:	0001                	nop
80003562:	0000                	unimp
80003564:	00000003          	lb	zero,0(zero) # 0 <threadsense.3208>
80003568:	00000003          	lb	zero,0(zero) # 0 <threadsense.3208>
8000356c:	0002                	c.slli64	zero
8000356e:	0000                	unimp
80003570:	00000003          	lb	zero,0(zero) # 0 <threadsense.3208>
80003574:	0002                	c.slli64	zero
80003576:	0000                	unimp
80003578:	0001                	nop
8000357a:	0000                	unimp
8000357c:	0002                	c.slli64	zero
8000357e:	0000                	unimp
80003580:	00000003          	lb	zero,0(zero) # 0 <threadsense.3208>
80003584:	0000                	unimp
80003586:	0000                	unimp
80003588:	0002                	c.slli64	zero
8000358a:	0000                	unimp
8000358c:	0002                	c.slli64	zero
8000358e:	0000                	unimp
80003590:	0001                	nop
80003592:	0000                	unimp
80003594:	0001                	nop
80003596:	0000                	unimp
80003598:	0000                	unimp
8000359a:	0000                	unimp
8000359c:	0000                	unimp
8000359e:	0000                	unimp
800035a0:	0000                	unimp
800035a2:	0000                	unimp
800035a4:	0000                	unimp
800035a6:	0000                	unimp
800035a8:	0000                	unimp
800035aa:	0000                	unimp
800035ac:	0001                	nop
800035ae:	0000                	unimp
800035b0:	00000003          	lb	zero,0(zero) # 0 <threadsense.3208>
800035b4:	00000003          	lb	zero,0(zero) # 0 <threadsense.3208>
800035b8:	0001                	nop
800035ba:	0000                	unimp
800035bc:	0001                	nop
800035be:	0000                	unimp
800035c0:	0001                	nop
800035c2:	0000                	unimp
800035c4:	0002                	c.slli64	zero
800035c6:	0000                	unimp
800035c8:	0002                	c.slli64	zero
800035ca:	0000                	unimp
800035cc:	00000003          	lb	zero,0(zero) # 0 <threadsense.3208>
800035d0:	0002                	c.slli64	zero
800035d2:	0000                	unimp
800035d4:	0001                	nop
800035d6:	0000                	unimp
800035d8:	0001                	nop
800035da:	0000                	unimp
800035dc:	0001                	nop
800035de:	0000                	unimp
800035e0:	0001                	nop
800035e2:	0000                	unimp
800035e4:	00000003          	lb	zero,0(zero) # 0 <threadsense.3208>
800035e8:	0000                	unimp
800035ea:	0000                	unimp
800035ec:	0002                	c.slli64	zero
800035ee:	0000                	unimp
800035f0:	0002                	c.slli64	zero
800035f2:	0000                	unimp
800035f4:	0001                	nop
800035f6:	0000                	unimp
800035f8:	00000003          	lb	zero,0(zero) # 0 <threadsense.3208>
800035fc:	0002                	c.slli64	zero
800035fe:	0000                	unimp
80003600:	0001                	nop
80003602:	0000                	unimp
80003604:	0002                	c.slli64	zero
80003606:	0000                	unimp
80003608:	0002                	c.slli64	zero
8000360a:	0000                	unimp
8000360c:	0001                	nop
8000360e:	0000                	unimp
80003610:	00000003          	lb	zero,0(zero) # 0 <threadsense.3208>
80003614:	0001                	nop
80003616:	0000                	unimp
80003618:	00000003          	lb	zero,0(zero) # 0 <threadsense.3208>
8000361c:	0001                	nop
8000361e:	0000                	unimp
80003620:	00000003          	lb	zero,0(zero) # 0 <threadsense.3208>
80003624:	0002                	c.slli64	zero
80003626:	0000                	unimp
80003628:	00000003          	lb	zero,0(zero) # 0 <threadsense.3208>
8000362c:	0001                	nop
8000362e:	0000                	unimp
80003630:	0002                	c.slli64	zero
80003632:	0000                	unimp
80003634:	0001                	nop
80003636:	0000                	unimp
80003638:	00000003          	lb	zero,0(zero) # 0 <threadsense.3208>
8000363c:	0002                	c.slli64	zero
8000363e:	0000                	unimp
80003640:	0002                	c.slli64	zero
80003642:	0000                	unimp
80003644:	0000                	unimp
80003646:	0000                	unimp
80003648:	0001                	nop
8000364a:	0000                	unimp
8000364c:	0000                	unimp
8000364e:	0000                	unimp
80003650:	0000                	unimp
80003652:	0000                	unimp
80003654:	0001                	nop
80003656:	0000                	unimp
80003658:	0002                	c.slli64	zero
8000365a:	0000                	unimp
8000365c:	00000003          	lb	zero,0(zero) # 0 <threadsense.3208>
80003660:	00000003          	lb	zero,0(zero) # 0 <threadsense.3208>
80003664:	0001                	nop
80003666:	0000                	unimp
80003668:	0000                	unimp
8000366a:	0000                	unimp
8000366c:	0000                	unimp
8000366e:	0000                	unimp
80003670:	0000                	unimp
80003672:	0000                	unimp
80003674:	00000003          	lb	zero,0(zero) # 0 <threadsense.3208>
80003678:	0001                	nop
8000367a:	0000                	unimp
8000367c:	0002                	c.slli64	zero
8000367e:	0000                	unimp
80003680:	00000003          	lb	zero,0(zero) # 0 <threadsense.3208>
80003684:	0002                	c.slli64	zero
80003686:	0000                	unimp
80003688:	00000003          	lb	zero,0(zero) # 0 <threadsense.3208>
8000368c:	0002                	c.slli64	zero
8000368e:	0000                	unimp
80003690:	0000                	unimp
80003692:	0000                	unimp
80003694:	0000                	unimp
80003696:	0000                	unimp
80003698:	0000                	unimp
8000369a:	0000                	unimp
8000369c:	0000                	unimp
8000369e:	0000                	unimp
800036a0:	0000                	unimp
800036a2:	0000                	unimp
800036a4:	00000003          	lb	zero,0(zero) # 0 <threadsense.3208>
800036a8:	0001                	nop
800036aa:	0000                	unimp
800036ac:	00000003          	lb	zero,0(zero) # 0 <threadsense.3208>
800036b0:	0000                	unimp
800036b2:	0000                	unimp
800036b4:	0000                	unimp
800036b6:	0000                	unimp
800036b8:	0000                	unimp
800036ba:	0000                	unimp
800036bc:	00000003          	lb	zero,0(zero) # 0 <threadsense.3208>
800036c0:	0001                	nop
800036c2:	0000                	unimp
800036c4:	0001                	nop
800036c6:	0000                	unimp
800036c8:	0001                	nop
800036ca:	0000                	unimp
800036cc:	0001                	nop
800036ce:	0000                	unimp
800036d0:	0002                	c.slli64	zero
800036d2:	0000                	unimp
800036d4:	0001                	nop
800036d6:	0000                	unimp
800036d8:	0002                	c.slli64	zero
800036da:	0000                	unimp
800036dc:	00000003          	lb	zero,0(zero) # 0 <threadsense.3208>
800036e0:	0002                	c.slli64	zero
800036e2:	0000                	unimp
800036e4:	0000                	unimp
800036e6:	0000                	unimp
800036e8:	0000                	unimp
800036ea:	0000                	unimp
800036ec:	0002                	c.slli64	zero
800036ee:	0000                	unimp
800036f0:	0002                	c.slli64	zero
800036f2:	0000                	unimp
800036f4:	00000003          	lb	zero,0(zero) # 0 <threadsense.3208>
800036f8:	0000                	unimp
800036fa:	0000                	unimp
800036fc:	00000003          	lb	zero,0(zero) # 0 <threadsense.3208>
80003700:	0000                	unimp
80003702:	0000                	unimp
80003704:	0000                	unimp
80003706:	0000                	unimp
80003708:	00000003          	lb	zero,0(zero) # 0 <threadsense.3208>
8000370c:	0000                	unimp
8000370e:	0000                	unimp
80003710:	00000003          	lb	zero,0(zero) # 0 <threadsense.3208>
80003714:	0001                	nop
80003716:	0000                	unimp
80003718:	00000003          	lb	zero,0(zero) # 0 <threadsense.3208>
8000371c:	00000003          	lb	zero,0(zero) # 0 <threadsense.3208>
80003720:	0001                	nop
80003722:	0000                	unimp
80003724:	0001                	nop
80003726:	0000                	unimp
80003728:	0001                	nop
8000372a:	0000                	unimp
8000372c:	0002                	c.slli64	zero
8000372e:	0000                	unimp
80003730:	0002                	c.slli64	zero
80003732:	0000                	unimp
80003734:	0001                	nop
80003736:	0000                	unimp
80003738:	00000003          	lb	zero,0(zero) # 0 <threadsense.3208>
8000373c:	0000                	unimp
8000373e:	0000                	unimp
80003740:	00000003          	lb	zero,0(zero) # 0 <threadsense.3208>
80003744:	00000003          	lb	zero,0(zero) # 0 <threadsense.3208>
80003748:	0001                	nop
8000374a:	0000                	unimp
8000374c:	0000                	unimp
8000374e:	0000                	unimp
80003750:	0000                	unimp
80003752:	0000                	unimp
80003754:	00000003          	lb	zero,0(zero) # 0 <threadsense.3208>
80003758:	0002                	c.slli64	zero
8000375a:	0000                	unimp

8000375c <verify_data>:
8000375c:	0024                	addi	s1,sp,8
8000375e:	0000                	unimp
80003760:	002c                	addi	a1,sp,8
80003762:	0000                	unimp
80003764:	0039                	c.nop	14
80003766:	0000                	unimp
80003768:	0032                	c.slli	zero,0xc
8000376a:	0000                	unimp
8000376c:	0036                	c.slli	zero,0xd
8000376e:	0000                	unimp
80003770:	0024                	addi	s1,sp,8
80003772:	0000                	unimp
80003774:	0026                	c.slli	zero,0x9
80003776:	0000                	unimp
80003778:	002e                	c.slli	zero,0xb
8000377a:	0000                	unimp
8000377c:	00000037          	lui	zero,0x0
80003780:	0019                	c.nop	6
80003782:	0000                	unimp
80003784:	0026                	c.slli	zero,0x9
80003786:	0000                	unimp
80003788:	0022                	c.slli	zero,0x8
8000378a:	0000                	unimp
8000378c:	00000033          	add	zero,zero,zero
80003790:	001e                	c.slli	zero,0x7
80003792:	0000                	unimp
80003794:	0028                	addi	a0,sp,8
80003796:	0000                	unimp
80003798:	0020                	addi	s0,sp,8
8000379a:	0000                	unimp
8000379c:	0025                	c.nop	9
8000379e:	0000                	unimp
800037a0:	0022                	c.slli	zero,0x8
800037a2:	0000                	unimp
800037a4:	0026                	c.slli	zero,0x9
800037a6:	0000                	unimp
800037a8:	0034                	addi	a3,sp,8
800037aa:	0000                	unimp
800037ac:	00000033          	add	zero,zero,zero
800037b0:	0028                	addi	a0,sp,8
800037b2:	0000                	unimp
800037b4:	001c                	0x1c
800037b6:	0000                	unimp
800037b8:	0020                	addi	s0,sp,8
800037ba:	0000                	unimp
800037bc:	0029                	c.nop	10
800037be:	0000                	unimp
800037c0:	0016                	c.slli	zero,0x5
800037c2:	0000                	unimp
800037c4:	001a                	c.slli	zero,0x6
800037c6:	0000                	unimp
800037c8:	00000023          	sb	zero,0(zero) # 0 <threadsense.3208>
800037cc:	0031                	c.nop	12
800037ce:	0000                	unimp
800037d0:	00000023          	sb	zero,0(zero) # 0 <threadsense.3208>
800037d4:	002a                	c.slli	zero,0xa
800037d6:	0000                	unimp
800037d8:	00000017          	auipc	zero,0x0
800037dc:	001a                	c.slli	zero,0x6
800037de:	0000                	unimp
800037e0:	001a                	c.slli	zero,0x6
800037e2:	0000                	unimp
800037e4:	0021                	c.nop	8
800037e6:	0000                	unimp
800037e8:	0024                	addi	s1,sp,8
800037ea:	0000                	unimp
800037ec:	0034                	addi	a3,sp,8
800037ee:	0000                	unimp
800037f0:	0028                	addi	a0,sp,8
800037f2:	0000                	unimp
800037f4:	002d                	c.nop	11
800037f6:	0000                	unimp
800037f8:	0031                	c.nop	12
800037fa:	0000                	unimp
800037fc:	0032                	c.slli	zero,0xc
800037fe:	0000                	unimp
80003800:	0022                	c.slli	zero,0x8
80003802:	0000                	unimp
80003804:	0029                	c.nop	10
80003806:	0000                	unimp
80003808:	00000023          	sb	zero,0(zero) # 0 <threadsense.3208>
8000380c:	002c                	addi	a1,sp,8
8000380e:	0000                	unimp
80003810:	0019                	c.nop	6
80003812:	0000                	unimp
80003814:	00000017          	auipc	zero,0x0
80003818:	00000017          	auipc	zero,0x0
8000381c:	001f 0000 001d      	0x1d0000001f
80003822:	0000                	unimp
80003824:	00000027          	0x27
80003828:	002e                	c.slli	zero,0xb
8000382a:	0000                	unimp
8000382c:	0032                	c.slli	zero,0xc
8000382e:	0000                	unimp
80003830:	0024                	addi	s1,sp,8
80003832:	0000                	unimp
80003834:	001f 0000 0020      	0x200000001f
8000383a:	0000                	unimp
8000383c:	002a                	c.slli	zero,0xa
8000383e:	0000                	unimp
80003840:	0020                	addi	s0,sp,8
80003842:	0000                	unimp
80003844:	0022                	c.slli	zero,0x8
80003846:	0000                	unimp
80003848:	0029                	c.nop	10
8000384a:	0000                	unimp
8000384c:	002c                	addi	a1,sp,8
8000384e:	0000                	unimp
80003850:	0021                	c.nop	8
80003852:	0000                	unimp
80003854:	0000002b          	0x2b
80003858:	001e                	c.slli	zero,0x7
8000385a:	0000                	unimp
8000385c:	001f 0000 001c      	0x1c0000001f
80003862:	0000                	unimp
80003864:	00000027          	0x27
80003868:	002e                	c.slli	zero,0xb
8000386a:	0000                	unimp
8000386c:	0032                	c.slli	zero,0xc
8000386e:	0000                	unimp
80003870:	0028                	addi	a0,sp,8
80003872:	0000                	unimp
80003874:	00000023          	sb	zero,0(zero) # 0 <threadsense.3208>
80003878:	0025                	c.nop	9
8000387a:	0000                	unimp
8000387c:	0000002b          	0x2b
80003880:	00000023          	sb	zero,0(zero) # 0 <threadsense.3208>
80003884:	0021                	c.nop	8
80003886:	0000                	unimp
80003888:	0000002b          	0x2b
8000388c:	0000002b          	0x2b
80003890:	001d                	c.nop	7
80003892:	0000                	unimp
80003894:	0025                	c.nop	9
80003896:	0000                	unimp
80003898:	001d                	c.nop	7
8000389a:	0000                	unimp
8000389c:	0000001b          	0x1b
800038a0:	0016                	c.slli	zero,0x5
800038a2:	0000                	unimp
800038a4:	001e                	c.slli	zero,0x7
800038a6:	0000                	unimp
800038a8:	0021                	c.nop	8
800038aa:	0000                	unimp
800038ac:	0000002b          	0x2b
800038b0:	001f 0000 0020      	0x200000001f
800038b6:	0000                	unimp
800038b8:	0019                	c.nop	6
800038ba:	0000                	unimp
800038bc:	0024                	addi	s1,sp,8
800038be:	0000                	unimp
800038c0:	001f 0000 001f      	0x1f0000001f
800038c6:	0000                	unimp
800038c8:	001d                	c.nop	7
800038ca:	0000                	unimp
800038cc:	0028                	addi	a0,sp,8
800038ce:	0000                	unimp
800038d0:	001c                	0x1c
800038d2:	0000                	unimp
800038d4:	001a                	c.slli	zero,0x6
800038d6:	0000                	unimp
800038d8:	0016                	c.slli	zero,0x5
800038da:	0000                	unimp
800038dc:	001d                	c.nop	7
800038de:	0000                	unimp
800038e0:	002a                	c.slli	zero,0xa
800038e2:	0000                	unimp
800038e4:	0030                	addi	a2,sp,8
800038e6:	0000                	unimp
800038e8:	00000033          	add	zero,zero,zero
800038ec:	0041                	c.nop	16
800038ee:	0000                	unimp
800038f0:	0034                	addi	a3,sp,8
800038f2:	0000                	unimp
800038f4:	0000002b          	0x2b
800038f8:	0036                	c.slli	zero,0xd
800038fa:	0000                	unimp
800038fc:	0000003f 00000022 	0x220000003f
80003904:	002a                	c.slli	zero,0xa
80003906:	0000                	unimp
80003908:	002c                	addi	a1,sp,8
8000390a:	0000                	unimp
8000390c:	0038                	addi	a4,sp,8
8000390e:	0000                	unimp
80003910:	0021                	c.nop	8
80003912:	0000                	unimp
80003914:	0026                	c.slli	zero,0x9
80003916:	0000                	unimp
80003918:	0020                	addi	s0,sp,8
8000391a:	0000                	unimp
8000391c:	001a                	c.slli	zero,0x6
8000391e:	0000                	unimp
80003920:	0016                	c.slli	zero,0x5
80003922:	0000                	unimp
80003924:	00000017          	auipc	zero,0x0
80003928:	0026                	c.slli	zero,0x9
8000392a:	0000                	unimp
8000392c:	0031                	c.nop	12
8000392e:	0000                	unimp
80003930:	0020                	addi	s0,sp,8
80003932:	0000                	unimp
80003934:	001a                	c.slli	zero,0x6
80003936:	0000                	unimp
80003938:	001e                	c.slli	zero,0x7
8000393a:	0000                	unimp
8000393c:	0000002b          	0x2b
80003940:	0016                	c.slli	zero,0x5
80003942:	0000                	unimp
80003944:	0018                	0x18
80003946:	0000                	unimp
80003948:	0000001b          	0x1b
8000394c:	002d                	c.nop	11
8000394e:	0000                	unimp
80003950:	0018                	0x18
80003952:	0000                	unimp
80003954:	001a                	c.slli	zero,0x6
80003956:	0000                	unimp
80003958:	0011                	c.nop	4
8000395a:	0000                	unimp
8000395c:	00000023          	sb	zero,0(zero) # 0 <threadsense.3208>
80003960:	00000023          	sb	zero,0(zero) # 0 <threadsense.3208>
80003964:	0000002f          	0x2f
80003968:	00000033          	add	zero,zero,zero
8000396c:	0000003b          	0x3b
80003970:	0000003b          	0x3b
80003974:	0000002b          	0x2b
80003978:	002a                	c.slli	zero,0xa
8000397a:	0000                	unimp
8000397c:	0000002b          	0x2b
80003980:	001c                	0x1c
80003982:	0000                	unimp
80003984:	0025                	c.nop	9
80003986:	0000                	unimp
80003988:	0000002b          	0x2b
8000398c:	0038                	addi	a4,sp,8
8000398e:	0000                	unimp
80003990:	0030                	addi	a2,sp,8
80003992:	0000                	unimp
80003994:	0024                	addi	s1,sp,8
80003996:	0000                	unimp
80003998:	0020                	addi	s0,sp,8
8000399a:	0000                	unimp
8000399c:	001c                	0x1c
8000399e:	0000                	unimp
800039a0:	00000013          	nop
800039a4:	001c                	0x1c
800039a6:	0000                	unimp
800039a8:	0022                	c.slli	zero,0x8
800039aa:	0000                	unimp
800039ac:	002e                	c.slli	zero,0xb
800039ae:	0000                	unimp
800039b0:	0022                	c.slli	zero,0x8
800039b2:	0000                	unimp
800039b4:	001c                	0x1c
800039b6:	0000                	unimp
800039b8:	0022                	c.slli	zero,0x8
800039ba:	0000                	unimp
800039bc:	002d                	c.nop	11
800039be:	0000                	unimp
800039c0:	0014                	0x14
800039c2:	0000                	unimp
800039c4:	001d                	c.nop	7
800039c6:	0000                	unimp
800039c8:	001c                	0x1c
800039ca:	0000                	unimp
800039cc:	0032                	c.slli	zero,0xc
800039ce:	0000                	unimp
800039d0:	0020                	addi	s0,sp,8
800039d2:	0000                	unimp
800039d4:	001a                	c.slli	zero,0x6
800039d6:	0000                	unimp
800039d8:	0015                	c.nop	5
800039da:	0000                	unimp
800039dc:	0025                	c.nop	9
800039de:	0000                	unimp
800039e0:	0026                	c.slli	zero,0x9
800039e2:	0000                	unimp
800039e4:	00000033          	add	zero,zero,zero
800039e8:	0032                	c.slli	zero,0xc
800039ea:	0000                	unimp
800039ec:	00000037          	lui	zero,0x0
800039f0:	002d                	c.nop	11
800039f2:	0000                	unimp
800039f4:	0026                	c.slli	zero,0x9
800039f6:	0000                	unimp
800039f8:	0031                	c.nop	12
800039fa:	0000                	unimp
800039fc:	0038                	addi	a4,sp,8
800039fe:	0000                	unimp
80003a00:	001c                	0x1c
80003a02:	0000                	unimp
80003a04:	0026                	c.slli	zero,0x9
80003a06:	0000                	unimp
80003a08:	0028                	addi	a0,sp,8
80003a0a:	0000                	unimp
80003a0c:	0032                	c.slli	zero,0xc
80003a0e:	0000                	unimp
80003a10:	001d                	c.nop	7
80003a12:	0000                	unimp
80003a14:	002c                	addi	a1,sp,8
80003a16:	0000                	unimp
80003a18:	001a                	c.slli	zero,0x6
80003a1a:	0000                	unimp
80003a1c:	0020                	addi	s0,sp,8
80003a1e:	0000                	unimp
80003a20:	00000023          	sb	zero,0(zero) # 0 <threadsense.3208>
80003a24:	0032                	c.slli	zero,0xc
80003a26:	0000                	unimp
80003a28:	0000002b          	0x2b
80003a2c:	0035                	c.nop	13
80003a2e:	0000                	unimp
80003a30:	002c                	addi	a1,sp,8
80003a32:	0000                	unimp
80003a34:	0029                	c.nop	10
80003a36:	0000                	unimp
80003a38:	0029                	c.nop	10
80003a3a:	0000                	unimp
80003a3c:	0022                	c.slli	zero,0x8
80003a3e:	0000                	unimp
80003a40:	0018                	0x18
80003a42:	0000                	unimp
80003a44:	00000023          	sb	zero,0(zero) # 0 <threadsense.3208>
80003a48:	0022                	c.slli	zero,0x8
80003a4a:	0000                	unimp
80003a4c:	00000027          	0x27
80003a50:	0021                	c.nop	8
80003a52:	0000                	unimp
80003a54:	0022                	c.slli	zero,0x8
80003a56:	0000                	unimp
80003a58:	001d                	c.nop	7
80003a5a:	0000                	unimp
80003a5c:	0015                	c.nop	5
80003a5e:	0000                	unimp
80003a60:	0021                	c.nop	8
80003a62:	0000                	unimp
80003a64:	001f 0000 002d      	0x2d0000001f
80003a6a:	0000                	unimp
80003a6c:	0030                	addi	a2,sp,8
80003a6e:	0000                	unimp
80003a70:	002a                	c.slli	zero,0xa
80003a72:	0000                	unimp
80003a74:	0000001b          	0x1b
80003a78:	001d                	c.nop	7
80003a7a:	0000                	unimp
80003a7c:	0028                	addi	a0,sp,8
80003a7e:	0000                	unimp
80003a80:	0011                	c.nop	4
80003a82:	0000                	unimp
80003a84:	0015                	c.nop	5
80003a86:	0000                	unimp
80003a88:	0020                	addi	s0,sp,8
80003a8a:	0000                	unimp
80003a8c:	002d                	c.nop	11
80003a8e:	0000                	unimp
80003a90:	001e                	c.slli	zero,0x7
80003a92:	0000                	unimp
80003a94:	001d                	c.nop	7
80003a96:	0000                	unimp
80003a98:	001a                	c.slli	zero,0x6
80003a9a:	0000                	unimp
80003a9c:	001a                	c.slli	zero,0x6
80003a9e:	0000                	unimp
80003aa0:	0000001b          	0x1b
80003aa4:	0026                	c.slli	zero,0x9
80003aa6:	0000                	unimp
80003aa8:	0021                	c.nop	8
80003aaa:	0000                	unimp
80003aac:	001d                	c.nop	7
80003aae:	0000                	unimp
80003ab0:	001f 0000 0020      	0x200000001f
80003ab6:	0000                	unimp
80003ab8:	001f 0000 0023      	0x230000001f
80003abe:	0000                	unimp
80003ac0:	0019                	c.nop	6
80003ac2:	0000                	unimp
80003ac4:	001d                	c.nop	7
80003ac6:	0000                	unimp
80003ac8:	001d                	c.nop	7
80003aca:	0000                	unimp
80003acc:	0022                	c.slli	zero,0x8
80003ace:	0000                	unimp
80003ad0:	0000000f          	fence	unknown,unknown
80003ad4:	0019                	c.nop	6
80003ad6:	0000                	unimp
80003ad8:	00000017          	auipc	zero,0x0
80003adc:	0022                	c.slli	zero,0x8
80003ade:	0000                	unimp
80003ae0:	001c                	0x1c
80003ae2:	0000                	unimp
80003ae4:	002c                	addi	a1,sp,8
80003ae6:	0000                	unimp
80003ae8:	002d                	c.nop	11
80003aea:	0000                	unimp
80003aec:	0029                	c.nop	10
80003aee:	0000                	unimp
80003af0:	0029                	c.nop	10
80003af2:	0000                	unimp
80003af4:	0025                	c.nop	9
80003af6:	0000                	unimp
80003af8:	002d                	c.nop	11
80003afa:	0000                	unimp
80003afc:	002d                	c.nop	11
80003afe:	0000                	unimp
80003b00:	0011                	c.nop	4
80003b02:	0000                	unimp
80003b04:	0022                	c.slli	zero,0x8
80003b06:	0000                	unimp
80003b08:	002c                	addi	a1,sp,8
80003b0a:	0000                	unimp
80003b0c:	002e                	c.slli	zero,0xb
80003b0e:	0000                	unimp
80003b10:	001e                	c.slli	zero,0x7
80003b12:	0000                	unimp
80003b14:	0000002b          	0x2b
80003b18:	001d                	c.nop	7
80003b1a:	0000                	unimp
80003b1c:	001f 0000 0024      	0x240000001f
80003b22:	0000                	unimp
80003b24:	0025                	c.nop	9
80003b26:	0000                	unimp
80003b28:	0032                	c.slli	zero,0xc
80003b2a:	0000                	unimp
80003b2c:	0036                	c.slli	zero,0xd
80003b2e:	0000                	unimp
80003b30:	002c                	addi	a1,sp,8
80003b32:	0000                	unimp
80003b34:	001c                	0x1c
80003b36:	0000                	unimp
80003b38:	0028                	addi	a0,sp,8
80003b3a:	0000                	unimp
80003b3c:	0026                	c.slli	zero,0x9
80003b3e:	0000                	unimp
80003b40:	0016                	c.slli	zero,0x5
80003b42:	0000                	unimp
80003b44:	0000001b          	0x1b
80003b48:	001c                	0x1c
80003b4a:	0000                	unimp
80003b4c:	002d                	c.nop	11
80003b4e:	0000                	unimp
80003b50:	0020                	addi	s0,sp,8
80003b52:	0000                	unimp
80003b54:	0024                	addi	s1,sp,8
80003b56:	0000                	unimp
80003b58:	0016                	c.slli	zero,0x5
80003b5a:	0000                	unimp
