
vvadd.riscv:     ファイル形式 elf32-littleriscv


セクション .text.init の逆アセンブル:

80000000 <_start>:
80000000:	00000093          	li	ra,0
80000004:	00000113          	li	sp,0
80000008:	00000193          	li	gp,0
8000000c:	00000213          	li	tp,0
80000010:	00000293          	li	t0,0
80000014:	00000313          	li	t1,0
80000018:	00000393          	li	t2,0
8000001c:	00000413          	li	s0,0
80000020:	00000493          	li	s1,0
80000024:	00000513          	li	a0,0
80000028:	00000593          	li	a1,0
8000002c:	00000613          	li	a2,0
80000030:	00000693          	li	a3,0
80000034:	00000713          	li	a4,0
80000038:	00000793          	li	a5,0
8000003c:	00000813          	li	a6,0
80000040:	00000893          	li	a7,0
80000044:	00000913          	li	s2,0
80000048:	00000993          	li	s3,0
8000004c:	00000a13          	li	s4,0
80000050:	00000a93          	li	s5,0
80000054:	00000b13          	li	s6,0
80000058:	00000b93          	li	s7,0
8000005c:	00000c13          	li	s8,0
80000060:	00000c93          	li	s9,0
80000064:	00000d13          	li	s10,0
80000068:	00000d93          	li	s11,0
8000006c:	00000e13          	li	t3,0
80000070:	00000e93          	li	t4,0
80000074:	00000f13          	li	t5,0
80000078:	00000f93          	li	t6,0
8000007c:	0001e2b7          	lui	t0,0x1e
80000080:	3002a073          	csrs	mstatus,t0
80000084:	00100293          	li	t0,1
80000088:	01f29293          	slli	t0,t0,0x1f
8000008c:	0002ca63          	bltz	t0,800000a0 <_start+0xa0>
80000090:	00100513          	li	a0,1
80000094:	00001297          	auipc	t0,0x1
80000098:	f6a2a623          	sw	a0,-148(t0) # 80001000 <tohost>
8000009c:	ff5ff06f          	j	80000090 <_start+0x90>
800000a0:	00000297          	auipc	t0,0x0
800000a4:	04028293          	addi	t0,t0,64 # 800000e0 <trap_entry>
800000a8:	30529073          	csrw	mtvec,t0
800000ac:	00004197          	auipc	gp,0x4
800000b0:	1cc18193          	addi	gp,gp,460 # 80004278 <__global_pointer$>
800000b4:	88718213          	addi	tp,gp,-1913 # 80003aff <_end+0x3f>
800000b8:	fc027213          	andi	tp,tp,-64
800000bc:	f1402573          	csrr	a0,mhartid
800000c0:	00100593          	li	a1,1
800000c4:	00b57063          	bgeu	a0,a1,800000c4 <_start+0xc4>
800000c8:	01151613          	slli	a2,a0,0x11
800000cc:	00c20233          	add	tp,tp,a2
800000d0:	00150113          	addi	sp,a0,1
800000d4:	01111113          	slli	sp,sp,0x11
800000d8:	00410133          	add	sp,sp,tp
800000dc:	0b50106f          	j	80001990 <_init>

800000e0 <trap_entry>:
800000e0:	ef010113          	addi	sp,sp,-272
800000e4:	00112223          	sw	ra,4(sp)
800000e8:	00212423          	sw	sp,8(sp)
800000ec:	00312623          	sw	gp,12(sp)
800000f0:	00412823          	sw	tp,16(sp)
800000f4:	00512a23          	sw	t0,20(sp)
800000f8:	00612c23          	sw	t1,24(sp)
800000fc:	00712e23          	sw	t2,28(sp)
80000100:	02812023          	sw	s0,32(sp)
80000104:	02912223          	sw	s1,36(sp)
80000108:	02a12423          	sw	a0,40(sp)
8000010c:	02b12623          	sw	a1,44(sp)
80000110:	02c12823          	sw	a2,48(sp)
80000114:	02d12a23          	sw	a3,52(sp)
80000118:	02e12c23          	sw	a4,56(sp)
8000011c:	02f12e23          	sw	a5,60(sp)
80000120:	05012023          	sw	a6,64(sp)
80000124:	05112223          	sw	a7,68(sp)
80000128:	05212423          	sw	s2,72(sp)
8000012c:	05312623          	sw	s3,76(sp)
80000130:	05412823          	sw	s4,80(sp)
80000134:	05512a23          	sw	s5,84(sp)
80000138:	05612c23          	sw	s6,88(sp)
8000013c:	05712e23          	sw	s7,92(sp)
80000140:	07812023          	sw	s8,96(sp)
80000144:	07912223          	sw	s9,100(sp)
80000148:	07a12423          	sw	s10,104(sp)
8000014c:	07b12623          	sw	s11,108(sp)
80000150:	07c12823          	sw	t3,112(sp)
80000154:	07d12a23          	sw	t4,116(sp)
80000158:	07e12c23          	sw	t5,120(sp)
8000015c:	07f12e23          	sw	t6,124(sp)
80000160:	34202573          	csrr	a0,mcause
80000164:	341025f3          	csrr	a1,mepc
80000168:	00010613          	mv	a2,sp
8000016c:	5b8010ef          	jal	ra,80001724 <handle_trap>
80000170:	34151073          	csrw	mepc,a0
80000174:	000022b7          	lui	t0,0x2
80000178:	80028293          	addi	t0,t0,-2048 # 1800 <buflen.2990+0x17c0>
8000017c:	3002a073          	csrs	mstatus,t0
80000180:	00412083          	lw	ra,4(sp)
80000184:	00812103          	lw	sp,8(sp)
80000188:	00c12183          	lw	gp,12(sp)
8000018c:	01012203          	lw	tp,16(sp)
80000190:	01412283          	lw	t0,20(sp)
80000194:	01812303          	lw	t1,24(sp)
80000198:	01c12383          	lw	t2,28(sp)
8000019c:	02012403          	lw	s0,32(sp)
800001a0:	02412483          	lw	s1,36(sp)
800001a4:	02812503          	lw	a0,40(sp)
800001a8:	02c12583          	lw	a1,44(sp)
800001ac:	03012603          	lw	a2,48(sp)
800001b0:	03412683          	lw	a3,52(sp)
800001b4:	03812703          	lw	a4,56(sp)
800001b8:	03c12783          	lw	a5,60(sp)
800001bc:	04012803          	lw	a6,64(sp)
800001c0:	04412883          	lw	a7,68(sp)
800001c4:	04812903          	lw	s2,72(sp)
800001c8:	04c12983          	lw	s3,76(sp)
800001cc:	05012a03          	lw	s4,80(sp)
800001d0:	05412a83          	lw	s5,84(sp)
800001d4:	05812b03          	lw	s6,88(sp)
800001d8:	05c12b83          	lw	s7,92(sp)
800001dc:	06012c03          	lw	s8,96(sp)
800001e0:	06412c83          	lw	s9,100(sp)
800001e4:	06812d03          	lw	s10,104(sp)
800001e8:	06c12d83          	lw	s11,108(sp)
800001ec:	07012e03          	lw	t3,112(sp)
800001f0:	07412e83          	lw	t4,116(sp)
800001f4:	07812f03          	lw	t5,120(sp)
800001f8:	07c12f83          	lw	t6,124(sp)
800001fc:	11010113          	addi	sp,sp,272
80000200:	30200073          	mret

セクション .text の逆アセンブル:

80001048 <vvadd>:
80001048:	02a05663          	blez	a0,80001074 <vvadd+0x2c>
8000104c:	00251513          	slli	a0,a0,0x2
80001050:	00a58533          	add	a0,a1,a0
80001054:	0005a783          	lw	a5,0(a1)
80001058:	00062703          	lw	a4,0(a2)
8000105c:	00458593          	addi	a1,a1,4
80001060:	00460613          	addi	a2,a2,4
80001064:	00e787b3          	add	a5,a5,a4
80001068:	00f6a023          	sw	a5,0(a3)
8000106c:	00468693          	addi	a3,a3,4
80001070:	fea592e3          	bne	a1,a0,80001054 <vvadd+0xc>
80001074:	00008067          	ret

80001078 <vprintfmt>:
80001078:	eb010113          	addi	sp,sp,-336
8000107c:	13a12023          	sw	s10,288(sp)
80001080:	40000d37          	lui	s10,0x40000
80001084:	fffd0793          	addi	a5,s10,-1 # 3fffffff <buflen.2990+0x3fffffbf>
80001088:	14812423          	sw	s0,328(sp)
8000108c:	14912223          	sw	s1,324(sp)
80001090:	15212023          	sw	s2,320(sp)
80001094:	14112623          	sw	ra,332(sp)
80001098:	13312e23          	sw	s3,316(sp)
8000109c:	13412c23          	sw	s4,312(sp)
800010a0:	13512a23          	sw	s5,308(sp)
800010a4:	13612823          	sw	s6,304(sp)
800010a8:	13712623          	sw	s7,300(sp)
800010ac:	13812423          	sw	s8,296(sp)
800010b0:	13912223          	sw	s9,292(sp)
800010b4:	11b12e23          	sw	s11,284(sp)
800010b8:	00050913          	mv	s2,a0
800010bc:	00058493          	mv	s1,a1
800010c0:	00060413          	mv	s0,a2
800010c4:	00d12423          	sw	a3,8(sp)
800010c8:	00f12623          	sw	a5,12(sp)
800010cc:	00044503          	lbu	a0,0(s0)
800010d0:	02500793          	li	a5,37
800010d4:	02f50463          	beq	a0,a5,800010fc <vprintfmt+0x84>
800010d8:	06050a63          	beqz	a0,8000114c <vprintfmt+0xd4>
800010dc:	02500993          	li	s3,37
800010e0:	0080006f          	j	800010e8 <vprintfmt+0x70>
800010e4:	06050463          	beqz	a0,8000114c <vprintfmt+0xd4>
800010e8:	00048593          	mv	a1,s1
800010ec:	00140413          	addi	s0,s0,1
800010f0:	000900e7          	jalr	s2
800010f4:	00044503          	lbu	a0,0(s0)
800010f8:	ff3516e3          	bne	a0,s3,800010e4 <vprintfmt+0x6c>
800010fc:	00144683          	lbu	a3,1(s0)
80001100:	00140a93          	addi	s5,s0,1
80001104:	000a8713          	mv	a4,s5
80001108:	02000b13          	li	s6,32
8000110c:	fff00993          	li	s3,-1
80001110:	fff00a13          	li	s4,-1
80001114:	00000593          	li	a1,0
80001118:	05500513          	li	a0,85
8000111c:	00900813          	li	a6,9
80001120:	fdd68793          	addi	a5,a3,-35
80001124:	0ff7f793          	andi	a5,a5,255
80001128:	00170413          	addi	s0,a4,1
8000112c:	36f56663          	bltu	a0,a5,80001498 <vprintfmt+0x420>
80001130:	00002617          	auipc	a2,0x2
80001134:	85060613          	addi	a2,a2,-1968 # 80002980 <main+0x114>
80001138:	00279793          	slli	a5,a5,0x2
8000113c:	00c787b3          	add	a5,a5,a2
80001140:	0007a783          	lw	a5,0(a5)
80001144:	00c787b3          	add	a5,a5,a2
80001148:	00078067          	jr	a5
8000114c:	14c12083          	lw	ra,332(sp)
80001150:	14812403          	lw	s0,328(sp)
80001154:	14412483          	lw	s1,324(sp)
80001158:	14012903          	lw	s2,320(sp)
8000115c:	13c12983          	lw	s3,316(sp)
80001160:	13812a03          	lw	s4,312(sp)
80001164:	13412a83          	lw	s5,308(sp)
80001168:	13012b03          	lw	s6,304(sp)
8000116c:	12c12b83          	lw	s7,300(sp)
80001170:	12812c03          	lw	s8,296(sp)
80001174:	12412c83          	lw	s9,292(sp)
80001178:	12012d03          	lw	s10,288(sp)
8000117c:	11c12d83          	lw	s11,284(sp)
80001180:	15010113          	addi	sp,sp,336
80001184:	00008067          	ret
80001188:	00800a93          	li	s5,8
8000118c:	00012223          	sw	zero,4(sp)
80001190:	00100793          	li	a5,1
80001194:	24b7c863          	blt	a5,a1,800013e4 <vprintfmt+0x36c>
80001198:	00812783          	lw	a5,8(sp)
8000119c:	00478693          	addi	a3,a5,4
800011a0:	00812783          	lw	a5,8(sp)
800011a4:	00000d93          	li	s11,0
800011a8:	0007ab83          	lw	s7,0(a5)
800011ac:	00d12423          	sw	a3,8(sp)
800011b0:	000a8613          	mv	a2,s5
800011b4:	00000693          	li	a3,0
800011b8:	000b8513          	mv	a0,s7
800011bc:	000d8593          	mv	a1,s11
800011c0:	29c010ef          	jal	ra,8000245c <__umoddi3>
800011c4:	00a12823          	sw	a0,16(sp)
800011c8:	00000793          	li	a5,0
800011cc:	00050d13          	mv	s10,a0
800011d0:	33b78663          	beq	a5,s11,800014fc <vprintfmt+0x484>
800011d4:	01410c13          	addi	s8,sp,20
800011d8:	00100993          	li	s3,1
800011dc:	000a8613          	mv	a2,s5
800011e0:	00000693          	li	a3,0
800011e4:	000b8513          	mv	a0,s7
800011e8:	000d8593          	mv	a1,s11
800011ec:	63d000ef          	jal	ra,80002028 <__udivdi3>
800011f0:	000a8613          	mv	a2,s5
800011f4:	00000693          	li	a3,0
800011f8:	00050b93          	mv	s7,a0
800011fc:	00058d93          	mv	s11,a1
80001200:	25c010ef          	jal	ra,8000245c <__umoddi3>
80001204:	00412783          	lw	a5,4(sp)
80001208:	00ac2023          	sw	a0,0(s8)
8000120c:	00050d13          	mv	s10,a0
80001210:	00198c93          	addi	s9,s3,1
80001214:	004c0c13          	addi	s8,s8,4
80001218:	01b78663          	beq	a5,s11,80001224 <vprintfmt+0x1ac>
8000121c:	000c8993          	mv	s3,s9
80001220:	fbdff06f          	j	800011dc <vprintfmt+0x164>
80001224:	ff5bfce3          	bgeu	s7,s5,8000121c <vprintfmt+0x1a4>
80001228:	014cdc63          	bge	s9,s4,80001240 <vprintfmt+0x1c8>
8000122c:	fffa0a13          	addi	s4,s4,-1
80001230:	00048593          	mv	a1,s1
80001234:	000b0513          	mv	a0,s6
80001238:	000900e7          	jalr	s2
8000123c:	ff4cc8e3          	blt	s9,s4,8000122c <vprintfmt+0x1b4>
80001240:	00c12783          	lw	a5,12(sp)
80001244:	00900a13          	li	s4,9
80001248:	00f989b3          	add	s3,s3,a5
8000124c:	00299993          	slli	s3,s3,0x2
80001250:	01010793          	addi	a5,sp,16
80001254:	013789b3          	add	s3,a5,s3
80001258:	00c0006f          	j	80001264 <vprintfmt+0x1ec>
8000125c:	0009ad03          	lw	s10,0(s3)
80001260:	ffc98993          	addi	s3,s3,-4
80001264:	05700513          	li	a0,87
80001268:	01aa6463          	bltu	s4,s10,80001270 <vprintfmt+0x1f8>
8000126c:	03000513          	li	a0,48
80001270:	00048593          	mv	a1,s1
80001274:	01a50533          	add	a0,a0,s10
80001278:	000900e7          	jalr	s2
8000127c:	00c10793          	addi	a5,sp,12
80001280:	fd379ee3          	bne	a5,s3,8000125c <vprintfmt+0x1e4>
80001284:	e49ff06f          	j	800010cc <vprintfmt+0x54>
80001288:	03000513          	li	a0,48
8000128c:	00048593          	mv	a1,s1
80001290:	000900e7          	jalr	s2
80001294:	00048593          	mv	a1,s1
80001298:	07800513          	li	a0,120
8000129c:	000900e7          	jalr	s2
800012a0:	00812783          	lw	a5,8(sp)
800012a4:	01000a93          	li	s5,16
800012a8:	00012223          	sw	zero,4(sp)
800012ac:	00478693          	addi	a3,a5,4
800012b0:	ef1ff06f          	j	800011a0 <vprintfmt+0x128>
800012b4:	00812783          	lw	a5,8(sp)
800012b8:	00174683          	lbu	a3,1(a4)
800012bc:	00040713          	mv	a4,s0
800012c0:	0007a983          	lw	s3,0(a5)
800012c4:	00478793          	addi	a5,a5,4
800012c8:	00f12423          	sw	a5,8(sp)
800012cc:	e40a5ae3          	bgez	s4,80001120 <vprintfmt+0xa8>
800012d0:	00098a13          	mv	s4,s3
800012d4:	fff00993          	li	s3,-1
800012d8:	e49ff06f          	j	80001120 <vprintfmt+0xa8>
800012dc:	00174683          	lbu	a3,1(a4)
800012e0:	02d00b13          	li	s6,45
800012e4:	00040713          	mv	a4,s0
800012e8:	e39ff06f          	j	80001120 <vprintfmt+0xa8>
800012ec:	fffa4793          	not	a5,s4
800012f0:	41f7d793          	srai	a5,a5,0x1f
800012f4:	00174683          	lbu	a3,1(a4)
800012f8:	00fa7a33          	and	s4,s4,a5
800012fc:	00040713          	mv	a4,s0
80001300:	e21ff06f          	j	80001120 <vprintfmt+0xa8>
80001304:	00174683          	lbu	a3,1(a4)
80001308:	03000b13          	li	s6,48
8000130c:	00040713          	mv	a4,s0
80001310:	e11ff06f          	j	80001120 <vprintfmt+0xa8>
80001314:	00174603          	lbu	a2,1(a4)
80001318:	fd068993          	addi	s3,a3,-48
8000131c:	00040713          	mv	a4,s0
80001320:	fd060793          	addi	a5,a2,-48
80001324:	00060693          	mv	a3,a2
80001328:	faf862e3          	bltu	a6,a5,800012cc <vprintfmt+0x254>
8000132c:	00299793          	slli	a5,s3,0x2
80001330:	013789b3          	add	s3,a5,s3
80001334:	00170713          	addi	a4,a4,1
80001338:	00199993          	slli	s3,s3,0x1
8000133c:	00c989b3          	add	s3,s3,a2
80001340:	00074603          	lbu	a2,0(a4)
80001344:	fd098993          	addi	s3,s3,-48
80001348:	fd060793          	addi	a5,a2,-48
8000134c:	00060693          	mv	a3,a2
80001350:	fcf87ee3          	bgeu	a6,a5,8000132c <vprintfmt+0x2b4>
80001354:	f79ff06f          	j	800012cc <vprintfmt+0x254>
80001358:	00812783          	lw	a5,8(sp)
8000135c:	00048593          	mv	a1,s1
80001360:	0007a503          	lw	a0,0(a5)
80001364:	00478c93          	addi	s9,a5,4
80001368:	000900e7          	jalr	s2
8000136c:	01912423          	sw	s9,8(sp)
80001370:	d5dff06f          	j	800010cc <vprintfmt+0x54>
80001374:	00100793          	li	a5,1
80001378:	18b7ce63          	blt	a5,a1,80001514 <vprintfmt+0x49c>
8000137c:	00812703          	lw	a4,8(sp)
80001380:	00470793          	addi	a5,a4,4
80001384:	1a058863          	beqz	a1,80001534 <vprintfmt+0x4bc>
80001388:	00072b83          	lw	s7,0(a4)
8000138c:	00f12423          	sw	a5,8(sp)
80001390:	41fbdd93          	srai	s11,s7,0x1f
80001394:	020dd263          	bgez	s11,800013b8 <vprintfmt+0x340>
80001398:	00048593          	mv	a1,s1
8000139c:	02d00513          	li	a0,45
800013a0:	000900e7          	jalr	s2
800013a4:	41700733          	neg	a4,s7
800013a8:	00e036b3          	snez	a3,a4
800013ac:	41b007b3          	neg	a5,s11
800013b0:	00070b93          	mv	s7,a4
800013b4:	40d78db3          	sub	s11,a5,a3
800013b8:	00a00a93          	li	s5,10
800013bc:	00012223          	sw	zero,4(sp)
800013c0:	df1ff06f          	j	800011b0 <vprintfmt+0x138>
800013c4:	00174683          	lbu	a3,1(a4)
800013c8:	00158593          	addi	a1,a1,1
800013cc:	00040713          	mv	a4,s0
800013d0:	d51ff06f          	j	80001120 <vprintfmt+0xa8>
800013d4:	00012223          	sw	zero,4(sp)
800013d8:	00100793          	li	a5,1
800013dc:	00a00a93          	li	s5,10
800013e0:	dab7dce3          	bge	a5,a1,80001198 <vprintfmt+0x120>
800013e4:	00812783          	lw	a5,8(sp)
800013e8:	00778793          	addi	a5,a5,7
800013ec:	ff87f793          	andi	a5,a5,-8
800013f0:	00878713          	addi	a4,a5,8
800013f4:	00e12423          	sw	a4,8(sp)
800013f8:	0007ab83          	lw	s7,0(a5)
800013fc:	0047ad83          	lw	s11,4(a5)
80001400:	db1ff06f          	j	800011b0 <vprintfmt+0x138>
80001404:	01000a93          	li	s5,16
80001408:	00012223          	sw	zero,4(sp)
8000140c:	d85ff06f          	j	80001190 <vprintfmt+0x118>
80001410:	00174683          	lbu	a3,1(a4)
80001414:	00040713          	mv	a4,s0
80001418:	d09ff06f          	j	80001120 <vprintfmt+0xa8>
8000141c:	00048593          	mv	a1,s1
80001420:	02500513          	li	a0,37
80001424:	000900e7          	jalr	s2
80001428:	ca5ff06f          	j	800010cc <vprintfmt+0x54>
8000142c:	00812783          	lw	a5,8(sp)
80001430:	0007aa83          	lw	s5,0(a5)
80001434:	00478c93          	addi	s9,a5,4
80001438:	100a8263          	beqz	s5,8000153c <vprintfmt+0x4c4>
8000143c:	0b405863          	blez	s4,800014ec <vprintfmt+0x474>
80001440:	02d00793          	li	a5,45
80001444:	06fb1863          	bne	s6,a5,800014b4 <vprintfmt+0x43c>
80001448:	000ac503          	lbu	a0,0(s5)
8000144c:	02050863          	beqz	a0,8000147c <vprintfmt+0x404>
80001450:	fff00b13          	li	s6,-1
80001454:	0009c663          	bltz	s3,80001460 <vprintfmt+0x3e8>
80001458:	fff98993          	addi	s3,s3,-1
8000145c:	01698e63          	beq	s3,s6,80001478 <vprintfmt+0x400>
80001460:	00048593          	mv	a1,s1
80001464:	001a8a93          	addi	s5,s5,1
80001468:	000900e7          	jalr	s2
8000146c:	000ac503          	lbu	a0,0(s5)
80001470:	fffa0a13          	addi	s4,s4,-1
80001474:	fe0510e3          	bnez	a0,80001454 <vprintfmt+0x3dc>
80001478:	01405c63          	blez	s4,80001490 <vprintfmt+0x418>
8000147c:	fffa0a13          	addi	s4,s4,-1
80001480:	00048593          	mv	a1,s1
80001484:	02000513          	li	a0,32
80001488:	000900e7          	jalr	s2
8000148c:	fe0a18e3          	bnez	s4,8000147c <vprintfmt+0x404>
80001490:	01912423          	sw	s9,8(sp)
80001494:	c39ff06f          	j	800010cc <vprintfmt+0x54>
80001498:	00048593          	mv	a1,s1
8000149c:	02500513          	li	a0,37
800014a0:	000900e7          	jalr	s2
800014a4:	000a8413          	mv	s0,s5
800014a8:	c25ff06f          	j	800010cc <vprintfmt+0x54>
800014ac:	00001a97          	auipc	s5,0x1
800014b0:	72ca8a93          	addi	s5,s5,1836 # 80002bd8 <__clz_tab+0x100>
800014b4:	0a098463          	beqz	s3,8000155c <vprintfmt+0x4e4>
800014b8:	000ac783          	lbu	a5,0(s5)
800014bc:	0a078063          	beqz	a5,8000155c <vprintfmt+0x4e4>
800014c0:	001a8793          	addi	a5,s5,1
800014c4:	013a8633          	add	a2,s5,s3
800014c8:	0100006f          	j	800014d8 <vprintfmt+0x460>
800014cc:	00178793          	addi	a5,a5,1
800014d0:	fff7c703          	lbu	a4,-1(a5)
800014d4:	0a070a63          	beqz	a4,80001588 <vprintfmt+0x510>
800014d8:	00078693          	mv	a3,a5
800014dc:	fef618e3          	bne	a2,a5,800014cc <vprintfmt+0x454>
800014e0:	415606b3          	sub	a3,a2,s5
800014e4:	40da0a33          	sub	s4,s4,a3
800014e8:	07404a63          	bgtz	s4,8000155c <vprintfmt+0x4e4>
800014ec:	000ac503          	lbu	a0,0(s5)
800014f0:	fa0500e3          	beqz	a0,80001490 <vprintfmt+0x418>
800014f4:	fff00b13          	li	s6,-1
800014f8:	f5dff06f          	j	80001454 <vprintfmt+0x3dc>
800014fc:	cd5bfce3          	bgeu	s7,s5,800011d4 <vprintfmt+0x15c>
80001500:	00100793          	li	a5,1
80001504:	00000993          	li	s3,0
80001508:	00100c93          	li	s9,1
8000150c:	d347c0e3          	blt	a5,s4,8000122c <vprintfmt+0x1b4>
80001510:	d31ff06f          	j	80001240 <vprintfmt+0x1c8>
80001514:	00812783          	lw	a5,8(sp)
80001518:	00778793          	addi	a5,a5,7
8000151c:	ff87f793          	andi	a5,a5,-8
80001520:	00878713          	addi	a4,a5,8
80001524:	00e12423          	sw	a4,8(sp)
80001528:	0007ab83          	lw	s7,0(a5)
8000152c:	0047ad83          	lw	s11,4(a5)
80001530:	e65ff06f          	j	80001394 <vprintfmt+0x31c>
80001534:	00812703          	lw	a4,8(sp)
80001538:	e51ff06f          	j	80001388 <vprintfmt+0x310>
8000153c:	01405663          	blez	s4,80001548 <vprintfmt+0x4d0>
80001540:	02d00793          	li	a5,45
80001544:	f6fb14e3          	bne	s6,a5,800014ac <vprintfmt+0x434>
80001548:	00001a97          	auipc	s5,0x1
8000154c:	690a8a93          	addi	s5,s5,1680 # 80002bd8 <__clz_tab+0x100>
80001550:	02800513          	li	a0,40
80001554:	fff00b13          	li	s6,-1
80001558:	efdff06f          	j	80001454 <vprintfmt+0x3dc>
8000155c:	fffa0a13          	addi	s4,s4,-1
80001560:	00048593          	mv	a1,s1
80001564:	000b0513          	mv	a0,s6
80001568:	000900e7          	jalr	s2
8000156c:	f80a00e3          	beqz	s4,800014ec <vprintfmt+0x474>
80001570:	fffa0a13          	addi	s4,s4,-1
80001574:	00048593          	mv	a1,s1
80001578:	000b0513          	mv	a0,s6
8000157c:	000900e7          	jalr	s2
80001580:	fc0a1ee3          	bnez	s4,8000155c <vprintfmt+0x4e4>
80001584:	f69ff06f          	j	800014ec <vprintfmt+0x474>
80001588:	415686b3          	sub	a3,a3,s5
8000158c:	f59ff06f          	j	800014e4 <vprintfmt+0x46c>

80001590 <sprintf_putch.3104>:
80001590:	0005a783          	lw	a5,0(a1)
80001594:	00a78023          	sb	a0,0(a5)
80001598:	0005a783          	lw	a5,0(a1)
8000159c:	00178793          	addi	a5,a5,1
800015a0:	00f5a023          	sw	a5,0(a1)
800015a4:	00008067          	ret

800015a8 <syscall.constprop.2>:
800015a8:	f8010113          	addi	sp,sp,-128
800015ac:	03f10813          	addi	a6,sp,63
800015b0:	fc087813          	andi	a6,a6,-64
800015b4:	04000713          	li	a4,64
800015b8:	00e82023          	sw	a4,0(a6)
800015bc:	00000793          	li	a5,0
800015c0:	00f82223          	sw	a5,4(a6)
800015c4:	00100713          	li	a4,1
800015c8:	00e82423          	sw	a4,8(a6)
800015cc:	00000793          	li	a5,0
800015d0:	00f82623          	sw	a5,12(a6)
800015d4:	00a82823          	sw	a0,16(a6)
800015d8:	00b82a23          	sw	a1,20(a6)
800015dc:	00c82c23          	sw	a2,24(a6)
800015e0:	00d82e23          	sw	a3,28(a6)
800015e4:	0ff0000f          	fence
800015e8:	00000697          	auipc	a3,0x0
800015ec:	a1868693          	addi	a3,a3,-1512 # 80001000 <tohost>
800015f0:	0106a023          	sw	a6,0(a3)
800015f4:	00000793          	li	a5,0
800015f8:	00f6a223          	sw	a5,4(a3)
800015fc:	00000697          	auipc	a3,0x0
80001600:	a4468693          	addi	a3,a3,-1468 # 80001040 <fromhost>
80001604:	0006a703          	lw	a4,0(a3)
80001608:	0046a783          	lw	a5,4(a3)
8000160c:	00f76733          	or	a4,a4,a5
80001610:	fe070ae3          	beqz	a4,80001604 <syscall.constprop.2+0x5c>
80001614:	00000713          	li	a4,0
80001618:	00e6a023          	sw	a4,0(a3)
8000161c:	00000793          	li	a5,0
80001620:	00f6a223          	sw	a5,4(a3)
80001624:	0ff0000f          	fence
80001628:	00082503          	lw	a0,0(a6)
8000162c:	00482583          	lw	a1,4(a6)
80001630:	08010113          	addi	sp,sp,128
80001634:	00008067          	ret

80001638 <putchar>:
80001638:	ff010113          	addi	sp,sp,-16
8000163c:	00812423          	sw	s0,8(sp)
80001640:	04022583          	lw	a1,64(tp) # 40 <buflen.2990>
80001644:	00020793          	mv	a5,tp
80001648:	00112623          	sw	ra,12(sp)
8000164c:	00b787b3          	add	a5,a5,a1
80001650:	00158613          	addi	a2,a1,1
80001654:	00a78023          	sb	a0,0(a5)
80001658:	04c22023          	sw	a2,64(tp) # 40 <buflen.2990>
8000165c:	00a00793          	li	a5,10
80001660:	02f50063          	beq	a0,a5,80001680 <putchar+0x48>
80001664:	04000793          	li	a5,64
80001668:	00f60c63          	beq	a2,a5,80001680 <putchar+0x48>
8000166c:	00c12083          	lw	ra,12(sp)
80001670:	00812403          	lw	s0,8(sp)
80001674:	00000513          	li	a0,0
80001678:	01010113          	addi	sp,sp,16
8000167c:	00008067          	ret
80001680:	41f65693          	srai	a3,a2,0x1f
80001684:	00020513          	mv	a0,tp
80001688:	00000593          	li	a1,0
8000168c:	f1dff0ef          	jal	ra,800015a8 <syscall.constprop.2>
80001690:	04022023          	sw	zero,64(tp) # 40 <buflen.2990>
80001694:	00c12083          	lw	ra,12(sp)
80001698:	00812403          	lw	s0,8(sp)
8000169c:	00000513          	li	a0,0
800016a0:	01010113          	addi	sp,sp,16
800016a4:	00008067          	ret

800016a8 <setStats>:
800016a8:	b00027f3          	csrr	a5,mcycle
800016ac:	00002717          	auipc	a4,0x2
800016b0:	3d470713          	addi	a4,a4,980 # 80003a80 <counters>
800016b4:	00051e63          	bnez	a0,800016d0 <setStats+0x28>
800016b8:	00072683          	lw	a3,0(a4)
800016bc:	00001617          	auipc	a2,0x1
800016c0:	52460613          	addi	a2,a2,1316 # 80002be0 <__clz_tab+0x108>
800016c4:	00002597          	auipc	a1,0x2
800016c8:	3ac5aa23          	sw	a2,948(a1) # 80003a78 <counter_names>
800016cc:	40d787b3          	sub	a5,a5,a3
800016d0:	00002697          	auipc	a3,0x2
800016d4:	3af6a823          	sw	a5,944(a3) # 80003a80 <counters>
800016d8:	b02027f3          	csrr	a5,minstret
800016dc:	00051e63          	bnez	a0,800016f8 <setStats+0x50>
800016e0:	00472703          	lw	a4,4(a4)
800016e4:	00001697          	auipc	a3,0x1
800016e8:	50468693          	addi	a3,a3,1284 # 80002be8 <__clz_tab+0x110>
800016ec:	00002617          	auipc	a2,0x2
800016f0:	38d62823          	sw	a3,912(a2) # 80003a7c <counter_names+0x4>
800016f4:	40e787b3          	sub	a5,a5,a4
800016f8:	00002717          	auipc	a4,0x2
800016fc:	38f72623          	sw	a5,908(a4) # 80003a84 <counters+0x4>
80001700:	00008067          	ret

80001704 <tohost_exit>:
80001704:	00151513          	slli	a0,a0,0x1
80001708:	00000697          	auipc	a3,0x0
8000170c:	8f868693          	addi	a3,a3,-1800 # 80001000 <tohost>
80001710:	00156713          	ori	a4,a0,1
80001714:	00000793          	li	a5,0
80001718:	00e6a023          	sw	a4,0(a3)
8000171c:	00f6a223          	sw	a5,4(a3)
80001720:	0000006f          	j	80001720 <tohost_exit+0x1c>

80001724 <handle_trap>:
80001724:	00001637          	lui	a2,0x1
80001728:	00000797          	auipc	a5,0x0
8000172c:	8d878793          	addi	a5,a5,-1832 # 80001000 <tohost>
80001730:	a7360613          	addi	a2,a2,-1421 # a73 <buflen.2990+0xa33>
80001734:	00000693          	li	a3,0
80001738:	00c7a023          	sw	a2,0(a5)
8000173c:	00d7a223          	sw	a3,4(a5)
80001740:	0000006f          	j	80001740 <handle_trap+0x1c>

80001744 <exit>:
80001744:	ff010113          	addi	sp,sp,-16
80001748:	00112623          	sw	ra,12(sp)
8000174c:	fb9ff0ef          	jal	ra,80001704 <tohost_exit>

80001750 <abort>:
80001750:	00000797          	auipc	a5,0x0
80001754:	8b078793          	addi	a5,a5,-1872 # 80001000 <tohost>
80001758:	10d00613          	li	a2,269
8000175c:	00000693          	li	a3,0
80001760:	00c7a023          	sw	a2,0(a5)
80001764:	00d7a223          	sw	a3,4(a5)
80001768:	0000006f          	j	80001768 <abort+0x18>

8000176c <printstr>:
8000176c:	00054783          	lbu	a5,0(a0)
80001770:	02078263          	beqz	a5,80001794 <printstr+0x28>
80001774:	00050613          	mv	a2,a0
80001778:	00160613          	addi	a2,a2,1
8000177c:	00064783          	lbu	a5,0(a2)
80001780:	fe079ce3          	bnez	a5,80001778 <printstr+0xc>
80001784:	40a60633          	sub	a2,a2,a0
80001788:	00000693          	li	a3,0
8000178c:	00000593          	li	a1,0
80001790:	e19ff06f          	j	800015a8 <syscall.constprop.2>
80001794:	00000613          	li	a2,0
80001798:	00000693          	li	a3,0
8000179c:	00000593          	li	a1,0
800017a0:	e09ff06f          	j	800015a8 <syscall.constprop.2>

800017a4 <thread_entry>:
800017a4:	00050463          	beqz	a0,800017ac <thread_entry+0x8>
800017a8:	0000006f          	j	800017a8 <thread_entry+0x4>
800017ac:	00008067          	ret

800017b0 <printhex>:
800017b0:	fd010113          	addi	sp,sp,-48
800017b4:	00050793          	mv	a5,a0
800017b8:	02112623          	sw	ra,44(sp)
800017bc:	00c10513          	addi	a0,sp,12
800017c0:	01b10693          	addi	a3,sp,27
800017c4:	00900313          	li	t1,9
800017c8:	0080006f          	j	800017d0 <printhex+0x20>
800017cc:	00070693          	mv	a3,a4
800017d0:	00f7f613          	andi	a2,a5,15
800017d4:	01c59893          	slli	a7,a1,0x1c
800017d8:	0047d793          	srli	a5,a5,0x4
800017dc:	05700813          	li	a6,87
800017e0:	0ff67713          	andi	a4,a2,255
800017e4:	00c36463          	bltu	t1,a2,800017ec <printhex+0x3c>
800017e8:	03000813          	li	a6,48
800017ec:	01070733          	add	a4,a4,a6
800017f0:	00e68023          	sb	a4,0(a3)
800017f4:	00f8e7b3          	or	a5,a7,a5
800017f8:	fff68713          	addi	a4,a3,-1
800017fc:	0045d593          	srli	a1,a1,0x4
80001800:	fcd516e3          	bne	a0,a3,800017cc <printhex+0x1c>
80001804:	00010e23          	sb	zero,28(sp)
80001808:	f65ff0ef          	jal	ra,8000176c <printstr>
8000180c:	02c12083          	lw	ra,44(sp)
80001810:	03010113          	addi	sp,sp,48
80001814:	00008067          	ret

80001818 <printf>:
80001818:	fc010113          	addi	sp,sp,-64
8000181c:	02410313          	addi	t1,sp,36
80001820:	02b12223          	sw	a1,36(sp)
80001824:	02c12423          	sw	a2,40(sp)
80001828:	02d12623          	sw	a3,44(sp)
8000182c:	00050613          	mv	a2,a0
80001830:	00030693          	mv	a3,t1
80001834:	00000517          	auipc	a0,0x0
80001838:	e0450513          	addi	a0,a0,-508 # 80001638 <putchar>
8000183c:	00000593          	li	a1,0
80001840:	00112e23          	sw	ra,28(sp)
80001844:	02e12823          	sw	a4,48(sp)
80001848:	02f12a23          	sw	a5,52(sp)
8000184c:	03012c23          	sw	a6,56(sp)
80001850:	03112e23          	sw	a7,60(sp)
80001854:	00612623          	sw	t1,12(sp)
80001858:	821ff0ef          	jal	ra,80001078 <vprintfmt>
8000185c:	01c12083          	lw	ra,28(sp)
80001860:	00000513          	li	a0,0
80001864:	04010113          	addi	sp,sp,64
80001868:	00008067          	ret

8000186c <sprintf>:
8000186c:	fb010113          	addi	sp,sp,-80
80001870:	03810313          	addi	t1,sp,56
80001874:	02812423          	sw	s0,40(sp)
80001878:	00a12623          	sw	a0,12(sp)
8000187c:	02c12c23          	sw	a2,56(sp)
80001880:	02d12e23          	sw	a3,60(sp)
80001884:	00050413          	mv	s0,a0
80001888:	00058613          	mv	a2,a1
8000188c:	00000517          	auipc	a0,0x0
80001890:	d0450513          	addi	a0,a0,-764 # 80001590 <sprintf_putch.3104>
80001894:	00c10593          	addi	a1,sp,12
80001898:	00030693          	mv	a3,t1
8000189c:	02112623          	sw	ra,44(sp)
800018a0:	04f12223          	sw	a5,68(sp)
800018a4:	04e12023          	sw	a4,64(sp)
800018a8:	05012423          	sw	a6,72(sp)
800018ac:	05112623          	sw	a7,76(sp)
800018b0:	00612e23          	sw	t1,28(sp)
800018b4:	fc4ff0ef          	jal	ra,80001078 <vprintfmt>
800018b8:	00c12783          	lw	a5,12(sp)
800018bc:	00078023          	sb	zero,0(a5)
800018c0:	00c12503          	lw	a0,12(sp)
800018c4:	02c12083          	lw	ra,44(sp)
800018c8:	40850533          	sub	a0,a0,s0
800018cc:	02812403          	lw	s0,40(sp)
800018d0:	05010113          	addi	sp,sp,80
800018d4:	00008067          	ret

800018d8 <memcpy>:
800018d8:	00c5e7b3          	or	a5,a1,a2
800018dc:	00f567b3          	or	a5,a0,a5
800018e0:	0037f793          	andi	a5,a5,3
800018e4:	00c506b3          	add	a3,a0,a2
800018e8:	02078463          	beqz	a5,80001910 <memcpy+0x38>
800018ec:	00c58633          	add	a2,a1,a2
800018f0:	00050793          	mv	a5,a0
800018f4:	02d57e63          	bgeu	a0,a3,80001930 <memcpy+0x58>
800018f8:	00158593          	addi	a1,a1,1
800018fc:	fff5c703          	lbu	a4,-1(a1)
80001900:	00178793          	addi	a5,a5,1
80001904:	fee78fa3          	sb	a4,-1(a5)
80001908:	feb618e3          	bne	a2,a1,800018f8 <memcpy+0x20>
8000190c:	00008067          	ret
80001910:	fed57ee3          	bgeu	a0,a3,8000190c <memcpy+0x34>
80001914:	00050793          	mv	a5,a0
80001918:	00458593          	addi	a1,a1,4
8000191c:	ffc5a703          	lw	a4,-4(a1)
80001920:	00478793          	addi	a5,a5,4
80001924:	fee7ae23          	sw	a4,-4(a5)
80001928:	fed7e8e3          	bltu	a5,a3,80001918 <memcpy+0x40>
8000192c:	00008067          	ret
80001930:	00008067          	ret

80001934 <memset>:
80001934:	00c567b3          	or	a5,a0,a2
80001938:	0037f793          	andi	a5,a5,3
8000193c:	00c50633          	add	a2,a0,a2
80001940:	02078063          	beqz	a5,80001960 <memset+0x2c>
80001944:	0ff5f593          	andi	a1,a1,255
80001948:	00050793          	mv	a5,a0
8000194c:	04c57063          	bgeu	a0,a2,8000198c <memset+0x58>
80001950:	00178793          	addi	a5,a5,1
80001954:	feb78fa3          	sb	a1,-1(a5)
80001958:	fef61ce3          	bne	a2,a5,80001950 <memset+0x1c>
8000195c:	00008067          	ret
80001960:	0ff5f593          	andi	a1,a1,255
80001964:	00859713          	slli	a4,a1,0x8
80001968:	00e5e733          	or	a4,a1,a4
8000196c:	01071793          	slli	a5,a4,0x10
80001970:	00f76733          	or	a4,a4,a5
80001974:	fec574e3          	bgeu	a0,a2,8000195c <memset+0x28>
80001978:	00050793          	mv	a5,a0
8000197c:	00478793          	addi	a5,a5,4
80001980:	fee7ae23          	sw	a4,-4(a5)
80001984:	fec7ece3          	bltu	a5,a2,8000197c <memset+0x48>
80001988:	00008067          	ret
8000198c:	00008067          	ret

80001990 <_init>:
80001990:	f6010113          	addi	sp,sp,-160
80001994:	00002797          	auipc	a5,0x2
80001998:	0f478793          	addi	a5,a5,244 # 80003a88 <_tdata_begin>
8000199c:	09212823          	sw	s2,144(sp)
800019a0:	00002917          	auipc	s2,0x2
800019a4:	0e890913          	addi	s2,s2,232 # 80003a88 <_tdata_begin>
800019a8:	08912a23          	sw	s1,148(sp)
800019ac:	40f904b3          	sub	s1,s2,a5
800019b0:	00048613          	mv	a2,s1
800019b4:	09312623          	sw	s3,140(sp)
800019b8:	09412423          	sw	s4,136(sp)
800019bc:	00050993          	mv	s3,a0
800019c0:	00058a13          	mv	s4,a1
800019c4:	00020513          	mv	a0,tp
800019c8:	00078593          	mv	a1,a5
800019cc:	08112e23          	sw	ra,156(sp)
800019d0:	08812c23          	sw	s0,152(sp)
800019d4:	09512223          	sw	s5,132(sp)
800019d8:	00020a93          	mv	s5,tp
800019dc:	efdff0ef          	jal	ra,800018d8 <memcpy>
800019e0:	88c18613          	addi	a2,gp,-1908 # 80003b04 <_tbss_end>
800019e4:	41260633          	sub	a2,a2,s2
800019e8:	00000593          	li	a1,0
800019ec:	009a8533          	add	a0,s5,s1
800019f0:	f45ff0ef          	jal	ra,80001934 <memset>
800019f4:	000a0593          	mv	a1,s4
800019f8:	00098513          	mv	a0,s3
800019fc:	da9ff0ef          	jal	ra,800017a4 <thread_entry>
80001a00:	00000593          	li	a1,0
80001a04:	00000513          	li	a0,0
80001a08:	665000ef          	jal	ra,8000286c <main>
80001a0c:	00002497          	auipc	s1,0x2
80001a10:	07448493          	addi	s1,s1,116 # 80003a80 <counters>
80001a14:	0004a683          	lw	a3,0(s1)
80001a18:	03f10413          	addi	s0,sp,63
80001a1c:	fc047413          	andi	s0,s0,-64
80001a20:	00050913          	mv	s2,a0
80001a24:	04069463          	bnez	a3,80001a6c <_init+0xdc>
80001a28:	0044a683          	lw	a3,4(s1)
80001a2c:	00069663          	bnez	a3,80001a38 <_init+0xa8>
80001a30:	00090513          	mv	a0,s2
80001a34:	cd1ff0ef          	jal	ra,80001704 <tohost_exit>
80001a38:	00040493          	mv	s1,s0
80001a3c:	00002997          	auipc	s3,0x2
80001a40:	03c98993          	addi	s3,s3,60 # 80003a78 <counter_names>
80001a44:	0049a603          	lw	a2,4(s3)
80001a48:	00048513          	mv	a0,s1
80001a4c:	00001597          	auipc	a1,0x1
80001a50:	1c058593          	addi	a1,a1,448 # 80002c0c <__clz_tab+0x134>
80001a54:	e19ff0ef          	jal	ra,8000186c <sprintf>
80001a58:	00a484b3          	add	s1,s1,a0
80001a5c:	fc940ae3          	beq	s0,s1,80001a30 <_init+0xa0>
80001a60:	00040513          	mv	a0,s0
80001a64:	d09ff0ef          	jal	ra,8000176c <printstr>
80001a68:	fc9ff06f          	j	80001a30 <_init+0xa0>
80001a6c:	00002997          	auipc	s3,0x2
80001a70:	00c98993          	addi	s3,s3,12 # 80003a78 <counter_names>
80001a74:	0009a603          	lw	a2,0(s3)
80001a78:	00001597          	auipc	a1,0x1
80001a7c:	19458593          	addi	a1,a1,404 # 80002c0c <__clz_tab+0x134>
80001a80:	00040513          	mv	a0,s0
80001a84:	de9ff0ef          	jal	ra,8000186c <sprintf>
80001a88:	0044a683          	lw	a3,4(s1)
80001a8c:	00a404b3          	add	s1,s0,a0
80001a90:	fc0686e3          	beqz	a3,80001a5c <_init+0xcc>
80001a94:	fb1ff06f          	j	80001a44 <_init+0xb4>

80001a98 <strlen>:
80001a98:	00054783          	lbu	a5,0(a0)
80001a9c:	00078e63          	beqz	a5,80001ab8 <strlen+0x20>
80001aa0:	00050793          	mv	a5,a0
80001aa4:	00178793          	addi	a5,a5,1
80001aa8:	0007c703          	lbu	a4,0(a5)
80001aac:	fe071ce3          	bnez	a4,80001aa4 <strlen+0xc>
80001ab0:	40a78533          	sub	a0,a5,a0
80001ab4:	00008067          	ret
80001ab8:	00000513          	li	a0,0
80001abc:	00008067          	ret

80001ac0 <strnlen>:
80001ac0:	02058463          	beqz	a1,80001ae8 <strnlen+0x28>
80001ac4:	00054783          	lbu	a5,0(a0)
80001ac8:	02078a63          	beqz	a5,80001afc <strnlen+0x3c>
80001acc:	00b506b3          	add	a3,a0,a1
80001ad0:	00050793          	mv	a5,a0
80001ad4:	00c0006f          	j	80001ae0 <strnlen+0x20>
80001ad8:	0007c703          	lbu	a4,0(a5)
80001adc:	00070a63          	beqz	a4,80001af0 <strnlen+0x30>
80001ae0:	00178793          	addi	a5,a5,1
80001ae4:	fed79ae3          	bne	a5,a3,80001ad8 <strnlen+0x18>
80001ae8:	00058513          	mv	a0,a1
80001aec:	00008067          	ret
80001af0:	40a785b3          	sub	a1,a5,a0
80001af4:	00058513          	mv	a0,a1
80001af8:	00008067          	ret
80001afc:	00000593          	li	a1,0
80001b00:	fe9ff06f          	j	80001ae8 <strnlen+0x28>

80001b04 <strcmp>:
80001b04:	00150513          	addi	a0,a0,1
80001b08:	fff54783          	lbu	a5,-1(a0)
80001b0c:	00158593          	addi	a1,a1,1
80001b10:	fff5c703          	lbu	a4,-1(a1)
80001b14:	00078863          	beqz	a5,80001b24 <strcmp+0x20>
80001b18:	fee786e3          	beq	a5,a4,80001b04 <strcmp>
80001b1c:	40e78533          	sub	a0,a5,a4
80001b20:	00008067          	ret
80001b24:	00000793          	li	a5,0
80001b28:	ff5ff06f          	j	80001b1c <strcmp+0x18>

80001b2c <strcpy>:
80001b2c:	00050793          	mv	a5,a0
80001b30:	00158593          	addi	a1,a1,1
80001b34:	fff5c703          	lbu	a4,-1(a1)
80001b38:	00178793          	addi	a5,a5,1
80001b3c:	fee78fa3          	sb	a4,-1(a5)
80001b40:	fe0718e3          	bnez	a4,80001b30 <strcpy+0x4>
80001b44:	00008067          	ret

80001b48 <atol>:
80001b48:	00054783          	lbu	a5,0(a0)
80001b4c:	02000713          	li	a4,32
80001b50:	00e79863          	bne	a5,a4,80001b60 <atol+0x18>
80001b54:	00150513          	addi	a0,a0,1
80001b58:	00054783          	lbu	a5,0(a0)
80001b5c:	fee78ce3          	beq	a5,a4,80001b54 <atol+0xc>
80001b60:	fd578713          	addi	a4,a5,-43
80001b64:	0fd77713          	andi	a4,a4,253
80001b68:	04070263          	beqz	a4,80001bac <atol+0x64>
80001b6c:	00054683          	lbu	a3,0(a0)
80001b70:	00050793          	mv	a5,a0
80001b74:	00000613          	li	a2,0
80001b78:	04068863          	beqz	a3,80001bc8 <atol+0x80>
80001b7c:	00000513          	li	a0,0
80001b80:	00178793          	addi	a5,a5,1
80001b84:	fd068593          	addi	a1,a3,-48
80001b88:	00251713          	slli	a4,a0,0x2
80001b8c:	0007c683          	lbu	a3,0(a5)
80001b90:	00a70533          	add	a0,a4,a0
80001b94:	00151513          	slli	a0,a0,0x1
80001b98:	00a58533          	add	a0,a1,a0
80001b9c:	fe0692e3          	bnez	a3,80001b80 <atol+0x38>
80001ba0:	00060463          	beqz	a2,80001ba8 <atol+0x60>
80001ba4:	40a00533          	neg	a0,a0
80001ba8:	00008067          	ret
80001bac:	00154683          	lbu	a3,1(a0)
80001bb0:	fd378793          	addi	a5,a5,-45
80001bb4:	0017b613          	seqz	a2,a5
80001bb8:	00150793          	addi	a5,a0,1
80001bbc:	fc0690e3          	bnez	a3,80001b7c <atol+0x34>
80001bc0:	00000513          	li	a0,0
80001bc4:	fddff06f          	j	80001ba0 <atol+0x58>
80001bc8:	00000513          	li	a0,0
80001bcc:	00008067          	ret

80001bd0 <__moddi3>:
80001bd0:	00000893          	li	a7,0
80001bd4:	0005dc63          	bgez	a1,80001bec <__moddi3+0x1c>
80001bd8:	40a00533          	neg	a0,a0
80001bdc:	00a037b3          	snez	a5,a0
80001be0:	40b005b3          	neg	a1,a1
80001be4:	40f585b3          	sub	a1,a1,a5
80001be8:	fff00893          	li	a7,-1
80001bec:	0006da63          	bgez	a3,80001c00 <__moddi3+0x30>
80001bf0:	40c00633          	neg	a2,a2
80001bf4:	00c037b3          	snez	a5,a2
80001bf8:	40d006b3          	neg	a3,a3
80001bfc:	40f686b3          	sub	a3,a3,a5
80001c00:	00060313          	mv	t1,a2
80001c04:	00068713          	mv	a4,a3
80001c08:	00050793          	mv	a5,a0
80001c0c:	00058813          	mv	a6,a1
80001c10:	24069863          	bnez	a3,80001e60 <__moddi3+0x290>
80001c14:	800036b7          	lui	a3,0x80003
80001c18:	ad868693          	addi	a3,a3,-1320 # 80002ad8 <__global_pointer$+0xffffe860>
80001c1c:	0ec5f863          	bgeu	a1,a2,80001d0c <__moddi3+0x13c>
80001c20:	00010e37          	lui	t3,0x10
80001c24:	0dc67a63          	bgeu	a2,t3,80001cf8 <__moddi3+0x128>
80001c28:	0ff00e13          	li	t3,255
80001c2c:	00ce7463          	bgeu	t3,a2,80001c34 <__moddi3+0x64>
80001c30:	00800713          	li	a4,8
80001c34:	00e65e33          	srl	t3,a2,a4
80001c38:	01c686b3          	add	a3,a3,t3
80001c3c:	0006ce83          	lbu	t4,0(a3)
80001c40:	02000e13          	li	t3,32
80001c44:	00ee8eb3          	add	t4,t4,a4
80001c48:	41de0e33          	sub	t3,t3,t4
80001c4c:	000e0c63          	beqz	t3,80001c64 <__moddi3+0x94>
80001c50:	01c595b3          	sll	a1,a1,t3
80001c54:	01d55eb3          	srl	t4,a0,t4
80001c58:	01c61333          	sll	t1,a2,t3
80001c5c:	00bee833          	or	a6,t4,a1
80001c60:	01c517b3          	sll	a5,a0,t3
80001c64:	01035613          	srli	a2,t1,0x10
80001c68:	02c876b3          	remu	a3,a6,a2
80001c6c:	01031513          	slli	a0,t1,0x10
80001c70:	01055513          	srli	a0,a0,0x10
80001c74:	0107d713          	srli	a4,a5,0x10
80001c78:	02c85833          	divu	a6,a6,a2
80001c7c:	01069693          	slli	a3,a3,0x10
80001c80:	00e6e733          	or	a4,a3,a4
80001c84:	03050833          	mul	a6,a0,a6
80001c88:	01077a63          	bgeu	a4,a6,80001c9c <__moddi3+0xcc>
80001c8c:	00670733          	add	a4,a4,t1
80001c90:	00676663          	bltu	a4,t1,80001c9c <__moddi3+0xcc>
80001c94:	01077463          	bgeu	a4,a6,80001c9c <__moddi3+0xcc>
80001c98:	00670733          	add	a4,a4,t1
80001c9c:	41070733          	sub	a4,a4,a6
80001ca0:	02c776b3          	remu	a3,a4,a2
80001ca4:	01079793          	slli	a5,a5,0x10
80001ca8:	0107d793          	srli	a5,a5,0x10
80001cac:	02c75733          	divu	a4,a4,a2
80001cb0:	02e50733          	mul	a4,a0,a4
80001cb4:	01069513          	slli	a0,a3,0x10
80001cb8:	00f567b3          	or	a5,a0,a5
80001cbc:	00e7fa63          	bgeu	a5,a4,80001cd0 <__moddi3+0x100>
80001cc0:	006787b3          	add	a5,a5,t1
80001cc4:	0067e663          	bltu	a5,t1,80001cd0 <__moddi3+0x100>
80001cc8:	00e7f463          	bgeu	a5,a4,80001cd0 <__moddi3+0x100>
80001ccc:	006787b3          	add	a5,a5,t1
80001cd0:	40e787b3          	sub	a5,a5,a4
80001cd4:	01c7d533          	srl	a0,a5,t3
80001cd8:	00000593          	li	a1,0
80001cdc:	00088c63          	beqz	a7,80001cf4 <__moddi3+0x124>
80001ce0:	40a007b3          	neg	a5,a0
80001ce4:	00f03733          	snez	a4,a5
80001ce8:	40b005b3          	neg	a1,a1
80001cec:	00078513          	mv	a0,a5
80001cf0:	40e585b3          	sub	a1,a1,a4
80001cf4:	00008067          	ret
80001cf8:	01000e37          	lui	t3,0x1000
80001cfc:	01000713          	li	a4,16
80001d00:	f3c66ae3          	bltu	a2,t3,80001c34 <__moddi3+0x64>
80001d04:	01800713          	li	a4,24
80001d08:	f2dff06f          	j	80001c34 <__moddi3+0x64>
80001d0c:	00061663          	bnez	a2,80001d18 <__moddi3+0x148>
80001d10:	00100313          	li	t1,1
80001d14:	02e35333          	divu	t1,t1,a4
80001d18:	00010637          	lui	a2,0x10
80001d1c:	0ac37263          	bgeu	t1,a2,80001dc0 <__moddi3+0x1f0>
80001d20:	0ff00613          	li	a2,255
80001d24:	00667463          	bgeu	a2,t1,80001d2c <__moddi3+0x15c>
80001d28:	00800713          	li	a4,8
80001d2c:	00e35633          	srl	a2,t1,a4
80001d30:	00c686b3          	add	a3,a3,a2
80001d34:	0006ce83          	lbu	t4,0(a3)
80001d38:	02000e13          	li	t3,32
80001d3c:	00ee8eb3          	add	t4,t4,a4
80001d40:	41de0e33          	sub	t3,t3,t4
80001d44:	080e1863          	bnez	t3,80001dd4 <__moddi3+0x204>
80001d48:	406585b3          	sub	a1,a1,t1
80001d4c:	01035693          	srli	a3,t1,0x10
80001d50:	01031513          	slli	a0,t1,0x10
80001d54:	01055513          	srli	a0,a0,0x10
80001d58:	0107d613          	srli	a2,a5,0x10
80001d5c:	02d5f733          	remu	a4,a1,a3
80001d60:	02d5d5b3          	divu	a1,a1,a3
80001d64:	01071713          	slli	a4,a4,0x10
80001d68:	00c76733          	or	a4,a4,a2
80001d6c:	02b505b3          	mul	a1,a0,a1
80001d70:	00b77a63          	bgeu	a4,a1,80001d84 <__moddi3+0x1b4>
80001d74:	00670733          	add	a4,a4,t1
80001d78:	00676663          	bltu	a4,t1,80001d84 <__moddi3+0x1b4>
80001d7c:	00b77463          	bgeu	a4,a1,80001d84 <__moddi3+0x1b4>
80001d80:	00670733          	add	a4,a4,t1
80001d84:	40b705b3          	sub	a1,a4,a1
80001d88:	02d5f733          	remu	a4,a1,a3
80001d8c:	01079793          	slli	a5,a5,0x10
80001d90:	0107d793          	srli	a5,a5,0x10
80001d94:	02d5d5b3          	divu	a1,a1,a3
80001d98:	02b505b3          	mul	a1,a0,a1
80001d9c:	01071513          	slli	a0,a4,0x10
80001da0:	00f567b3          	or	a5,a0,a5
80001da4:	00b7fa63          	bgeu	a5,a1,80001db8 <__moddi3+0x1e8>
80001da8:	006787b3          	add	a5,a5,t1
80001dac:	0067e663          	bltu	a5,t1,80001db8 <__moddi3+0x1e8>
80001db0:	00b7f463          	bgeu	a5,a1,80001db8 <__moddi3+0x1e8>
80001db4:	006787b3          	add	a5,a5,t1
80001db8:	40b787b3          	sub	a5,a5,a1
80001dbc:	f19ff06f          	j	80001cd4 <__moddi3+0x104>
80001dc0:	01000637          	lui	a2,0x1000
80001dc4:	01000713          	li	a4,16
80001dc8:	f6c362e3          	bltu	t1,a2,80001d2c <__moddi3+0x15c>
80001dcc:	01800713          	li	a4,24
80001dd0:	f5dff06f          	j	80001d2c <__moddi3+0x15c>
80001dd4:	01c31333          	sll	t1,t1,t3
80001dd8:	01d5df33          	srl	t5,a1,t4
80001ddc:	01c517b3          	sll	a5,a0,t3
80001de0:	01d55eb3          	srl	t4,a0,t4
80001de4:	01035513          	srli	a0,t1,0x10
80001de8:	02af56b3          	divu	a3,t5,a0
80001dec:	01c595b3          	sll	a1,a1,t3
80001df0:	00beeeb3          	or	t4,t4,a1
80001df4:	01031593          	slli	a1,t1,0x10
80001df8:	0105d593          	srli	a1,a1,0x10
80001dfc:	010ed613          	srli	a2,t4,0x10
80001e00:	02af7733          	remu	a4,t5,a0
80001e04:	02d586b3          	mul	a3,a1,a3
80001e08:	01071713          	slli	a4,a4,0x10
80001e0c:	00c76733          	or	a4,a4,a2
80001e10:	00d77a63          	bgeu	a4,a3,80001e24 <__moddi3+0x254>
80001e14:	00670733          	add	a4,a4,t1
80001e18:	00676663          	bltu	a4,t1,80001e24 <__moddi3+0x254>
80001e1c:	00d77463          	bgeu	a4,a3,80001e24 <__moddi3+0x254>
80001e20:	00670733          	add	a4,a4,t1
80001e24:	40d70633          	sub	a2,a4,a3
80001e28:	02a67733          	remu	a4,a2,a0
80001e2c:	010e9e93          	slli	t4,t4,0x10
80001e30:	010ede93          	srli	t4,t4,0x10
80001e34:	02a65633          	divu	a2,a2,a0
80001e38:	01071713          	slli	a4,a4,0x10
80001e3c:	02c58633          	mul	a2,a1,a2
80001e40:	01d765b3          	or	a1,a4,t4
80001e44:	00c5fa63          	bgeu	a1,a2,80001e58 <__moddi3+0x288>
80001e48:	006585b3          	add	a1,a1,t1
80001e4c:	0065e663          	bltu	a1,t1,80001e58 <__moddi3+0x288>
80001e50:	00c5f463          	bgeu	a1,a2,80001e58 <__moddi3+0x288>
80001e54:	006585b3          	add	a1,a1,t1
80001e58:	40c585b3          	sub	a1,a1,a2
80001e5c:	ef1ff06f          	j	80001d4c <__moddi3+0x17c>
80001e60:	e6d5eee3          	bltu	a1,a3,80001cdc <__moddi3+0x10c>
80001e64:	00010737          	lui	a4,0x10
80001e68:	04e6fc63          	bgeu	a3,a4,80001ec0 <__moddi3+0x2f0>
80001e6c:	0ff00f13          	li	t5,255
80001e70:	00df3733          	sltu	a4,t5,a3
80001e74:	00371713          	slli	a4,a4,0x3
80001e78:	80003e37          	lui	t3,0x80003
80001e7c:	00e6d333          	srl	t1,a3,a4
80001e80:	ad8e0e13          	addi	t3,t3,-1320 # 80002ad8 <__global_pointer$+0xffffe860>
80001e84:	01c30333          	add	t1,t1,t3
80001e88:	00034f03          	lbu	t5,0(t1)
80001e8c:	02000e93          	li	t4,32
80001e90:	00ef0f33          	add	t5,t5,a4
80001e94:	41ee8eb3          	sub	t4,t4,t5
80001e98:	020e9e63          	bnez	t4,80001ed4 <__moddi3+0x304>
80001e9c:	00b6e463          	bltu	a3,a1,80001ea4 <__moddi3+0x2d4>
80001ea0:	00c56a63          	bltu	a0,a2,80001eb4 <__moddi3+0x2e4>
80001ea4:	40c507b3          	sub	a5,a0,a2
80001ea8:	40d586b3          	sub	a3,a1,a3
80001eac:	00f53533          	sltu	a0,a0,a5
80001eb0:	40a68833          	sub	a6,a3,a0
80001eb4:	00078513          	mv	a0,a5
80001eb8:	00080593          	mv	a1,a6
80001ebc:	e21ff06f          	j	80001cdc <__moddi3+0x10c>
80001ec0:	01000337          	lui	t1,0x1000
80001ec4:	01000713          	li	a4,16
80001ec8:	fa66e8e3          	bltu	a3,t1,80001e78 <__moddi3+0x2a8>
80001ecc:	01800713          	li	a4,24
80001ed0:	fa9ff06f          	j	80001e78 <__moddi3+0x2a8>
80001ed4:	01e65733          	srl	a4,a2,t5
80001ed8:	01d696b3          	sll	a3,a3,t4
80001edc:	00d766b3          	or	a3,a4,a3
80001ee0:	01e5d7b3          	srl	a5,a1,t5
80001ee4:	0106d713          	srli	a4,a3,0x10
80001ee8:	02e7fe33          	remu	t3,a5,a4
80001eec:	01d595b3          	sll	a1,a1,t4
80001ef0:	01e55833          	srl	a6,a0,t5
80001ef4:	00b86833          	or	a6,a6,a1
80001ef8:	01069593          	slli	a1,a3,0x10
80001efc:	0105d593          	srli	a1,a1,0x10
80001f00:	01085313          	srli	t1,a6,0x10
80001f04:	01d61633          	sll	a2,a2,t4
80001f08:	01d51533          	sll	a0,a0,t4
80001f0c:	02e7d7b3          	divu	a5,a5,a4
80001f10:	010e1e13          	slli	t3,t3,0x10
80001f14:	006e6333          	or	t1,t3,t1
80001f18:	02f58fb3          	mul	t6,a1,a5
80001f1c:	00078e13          	mv	t3,a5
80001f20:	01f37e63          	bgeu	t1,t6,80001f3c <__moddi3+0x36c>
80001f24:	00d30333          	add	t1,t1,a3
80001f28:	fff78e13          	addi	t3,a5,-1
80001f2c:	00d36863          	bltu	t1,a3,80001f3c <__moddi3+0x36c>
80001f30:	01f37663          	bgeu	t1,t6,80001f3c <__moddi3+0x36c>
80001f34:	ffe78e13          	addi	t3,a5,-2
80001f38:	00d30333          	add	t1,t1,a3
80001f3c:	41f30333          	sub	t1,t1,t6
80001f40:	02e37fb3          	remu	t6,t1,a4
80001f44:	01081813          	slli	a6,a6,0x10
80001f48:	01085813          	srli	a6,a6,0x10
80001f4c:	02e35333          	divu	t1,t1,a4
80001f50:	010f9f93          	slli	t6,t6,0x10
80001f54:	010fefb3          	or	t6,t6,a6
80001f58:	026585b3          	mul	a1,a1,t1
80001f5c:	00030793          	mv	a5,t1
80001f60:	00bffe63          	bgeu	t6,a1,80001f7c <__moddi3+0x3ac>
80001f64:	00df8fb3          	add	t6,t6,a3
80001f68:	fff30793          	addi	a5,t1,-1 # ffffff <buflen.2990+0xffffbf>
80001f6c:	00dfe863          	bltu	t6,a3,80001f7c <__moddi3+0x3ac>
80001f70:	00bff663          	bgeu	t6,a1,80001f7c <__moddi3+0x3ac>
80001f74:	ffe30793          	addi	a5,t1,-2
80001f78:	00df8fb3          	add	t6,t6,a3
80001f7c:	40bf85b3          	sub	a1,t6,a1
80001f80:	010e1e13          	slli	t3,t3,0x10
80001f84:	00010fb7          	lui	t6,0x10
80001f88:	00fe6e33          	or	t3,t3,a5
80001f8c:	ffff8793          	addi	a5,t6,-1 # ffff <buflen.2990+0xffbf>
80001f90:	00fe7333          	and	t1,t3,a5
80001f94:	01065813          	srli	a6,a2,0x10
80001f98:	010e5e13          	srli	t3,t3,0x10
80001f9c:	00f677b3          	and	a5,a2,a5
80001fa0:	02f30733          	mul	a4,t1,a5
80001fa4:	02fe07b3          	mul	a5,t3,a5
80001fa8:	03030333          	mul	t1,t1,a6
80001fac:	030e0e33          	mul	t3,t3,a6
80001fb0:	00f30333          	add	t1,t1,a5
80001fb4:	01075813          	srli	a6,a4,0x10
80001fb8:	00680833          	add	a6,a6,t1
80001fbc:	00f87463          	bgeu	a6,a5,80001fc4 <__moddi3+0x3f4>
80001fc0:	01fe0e33          	add	t3,t3,t6
80001fc4:	01085793          	srli	a5,a6,0x10
80001fc8:	01c78e33          	add	t3,a5,t3
80001fcc:	000107b7          	lui	a5,0x10
80001fd0:	fff78793          	addi	a5,a5,-1 # ffff <buflen.2990+0xffbf>
80001fd4:	00f87833          	and	a6,a6,a5
80001fd8:	01081813          	slli	a6,a6,0x10
80001fdc:	00f77733          	and	a4,a4,a5
80001fe0:	00e80733          	add	a4,a6,a4
80001fe4:	01c5e663          	bltu	a1,t3,80001ff0 <__moddi3+0x420>
80001fe8:	01c59e63          	bne	a1,t3,80002004 <__moddi3+0x434>
80001fec:	00e57c63          	bgeu	a0,a4,80002004 <__moddi3+0x434>
80001ff0:	40c70633          	sub	a2,a4,a2
80001ff4:	00c73733          	sltu	a4,a4,a2
80001ff8:	00d70733          	add	a4,a4,a3
80001ffc:	40ee0e33          	sub	t3,t3,a4
80002000:	00060713          	mv	a4,a2
80002004:	40e50733          	sub	a4,a0,a4
80002008:	00e53533          	sltu	a0,a0,a4
8000200c:	41c585b3          	sub	a1,a1,t3
80002010:	40a585b3          	sub	a1,a1,a0
80002014:	01e597b3          	sll	a5,a1,t5
80002018:	01d75733          	srl	a4,a4,t4
8000201c:	00e7e533          	or	a0,a5,a4
80002020:	01d5d5b3          	srl	a1,a1,t4
80002024:	cb9ff06f          	j	80001cdc <__moddi3+0x10c>

80002028 <__udivdi3>:
80002028:	00058793          	mv	a5,a1
8000202c:	00060813          	mv	a6,a2
80002030:	00068893          	mv	a7,a3
80002034:	00050313          	mv	t1,a0
80002038:	28069663          	bnez	a3,800022c4 <__udivdi3+0x29c>
8000203c:	80003737          	lui	a4,0x80003
80002040:	ad870713          	addi	a4,a4,-1320 # 80002ad8 <__global_pointer$+0xffffe860>
80002044:	0ec5f663          	bgeu	a1,a2,80002130 <__udivdi3+0x108>
80002048:	000106b7          	lui	a3,0x10
8000204c:	0cd67863          	bgeu	a2,a3,8000211c <__udivdi3+0xf4>
80002050:	0ff00693          	li	a3,255
80002054:	00c6b6b3          	sltu	a3,a3,a2
80002058:	00369693          	slli	a3,a3,0x3
8000205c:	00d658b3          	srl	a7,a2,a3
80002060:	01170733          	add	a4,a4,a7
80002064:	00074703          	lbu	a4,0(a4)
80002068:	00d706b3          	add	a3,a4,a3
8000206c:	02000713          	li	a4,32
80002070:	40d70733          	sub	a4,a4,a3
80002074:	00070c63          	beqz	a4,8000208c <__udivdi3+0x64>
80002078:	00e797b3          	sll	a5,a5,a4
8000207c:	00d556b3          	srl	a3,a0,a3
80002080:	00e61833          	sll	a6,a2,a4
80002084:	00f6e5b3          	or	a1,a3,a5
80002088:	00e51333          	sll	t1,a0,a4
8000208c:	01085513          	srli	a0,a6,0x10
80002090:	02a5f733          	remu	a4,a1,a0
80002094:	01081613          	slli	a2,a6,0x10
80002098:	01065613          	srli	a2,a2,0x10
8000209c:	01035693          	srli	a3,t1,0x10
800020a0:	02a5d5b3          	divu	a1,a1,a0
800020a4:	01071713          	slli	a4,a4,0x10
800020a8:	00d766b3          	or	a3,a4,a3
800020ac:	02b607b3          	mul	a5,a2,a1
800020b0:	00058713          	mv	a4,a1
800020b4:	00f6fe63          	bgeu	a3,a5,800020d0 <__udivdi3+0xa8>
800020b8:	010686b3          	add	a3,a3,a6
800020bc:	fff58713          	addi	a4,a1,-1
800020c0:	0106e863          	bltu	a3,a6,800020d0 <__udivdi3+0xa8>
800020c4:	00f6f663          	bgeu	a3,a5,800020d0 <__udivdi3+0xa8>
800020c8:	ffe58713          	addi	a4,a1,-2
800020cc:	010686b3          	add	a3,a3,a6
800020d0:	40f686b3          	sub	a3,a3,a5
800020d4:	02a6f7b3          	remu	a5,a3,a0
800020d8:	01031313          	slli	t1,t1,0x10
800020dc:	01035313          	srli	t1,t1,0x10
800020e0:	02a6d6b3          	divu	a3,a3,a0
800020e4:	01079793          	slli	a5,a5,0x10
800020e8:	0067e333          	or	t1,a5,t1
800020ec:	02d605b3          	mul	a1,a2,a3
800020f0:	00068513          	mv	a0,a3
800020f4:	00b37c63          	bgeu	t1,a1,8000210c <__udivdi3+0xe4>
800020f8:	00680333          	add	t1,a6,t1
800020fc:	fff68513          	addi	a0,a3,-1 # ffff <buflen.2990+0xffbf>
80002100:	01036663          	bltu	t1,a6,8000210c <__udivdi3+0xe4>
80002104:	00b37463          	bgeu	t1,a1,8000210c <__udivdi3+0xe4>
80002108:	ffe68513          	addi	a0,a3,-2
8000210c:	01071713          	slli	a4,a4,0x10
80002110:	00a76733          	or	a4,a4,a0
80002114:	00000593          	li	a1,0
80002118:	0e40006f          	j	800021fc <__udivdi3+0x1d4>
8000211c:	010008b7          	lui	a7,0x1000
80002120:	01000693          	li	a3,16
80002124:	f3166ce3          	bltu	a2,a7,8000205c <__udivdi3+0x34>
80002128:	01800693          	li	a3,24
8000212c:	f31ff06f          	j	8000205c <__udivdi3+0x34>
80002130:	00061663          	bnez	a2,8000213c <__udivdi3+0x114>
80002134:	00100693          	li	a3,1
80002138:	02c6d833          	divu	a6,a3,a2
8000213c:	000106b7          	lui	a3,0x10
80002140:	0cd87263          	bgeu	a6,a3,80002204 <__udivdi3+0x1dc>
80002144:	0ff00693          	li	a3,255
80002148:	0106f463          	bgeu	a3,a6,80002150 <__udivdi3+0x128>
8000214c:	00800893          	li	a7,8
80002150:	011856b3          	srl	a3,a6,a7
80002154:	00d70733          	add	a4,a4,a3
80002158:	00074683          	lbu	a3,0(a4)
8000215c:	02000713          	li	a4,32
80002160:	011686b3          	add	a3,a3,a7
80002164:	40d70733          	sub	a4,a4,a3
80002168:	0a071863          	bnez	a4,80002218 <__udivdi3+0x1f0>
8000216c:	410787b3          	sub	a5,a5,a6
80002170:	00100593          	li	a1,1
80002174:	01085613          	srli	a2,a6,0x10
80002178:	01081893          	slli	a7,a6,0x10
8000217c:	0108d893          	srli	a7,a7,0x10
80002180:	01035693          	srli	a3,t1,0x10
80002184:	02c7f733          	remu	a4,a5,a2
80002188:	02c7d7b3          	divu	a5,a5,a2
8000218c:	01071713          	slli	a4,a4,0x10
80002190:	00d766b3          	or	a3,a4,a3
80002194:	02f88533          	mul	a0,a7,a5
80002198:	00078713          	mv	a4,a5
8000219c:	00a6fe63          	bgeu	a3,a0,800021b8 <__udivdi3+0x190>
800021a0:	010686b3          	add	a3,a3,a6
800021a4:	fff78713          	addi	a4,a5,-1
800021a8:	0106e863          	bltu	a3,a6,800021b8 <__udivdi3+0x190>
800021ac:	00a6f663          	bgeu	a3,a0,800021b8 <__udivdi3+0x190>
800021b0:	ffe78713          	addi	a4,a5,-2
800021b4:	010686b3          	add	a3,a3,a6
800021b8:	40a686b3          	sub	a3,a3,a0
800021bc:	02c6f7b3          	remu	a5,a3,a2
800021c0:	01031313          	slli	t1,t1,0x10
800021c4:	01035313          	srli	t1,t1,0x10
800021c8:	02c6d6b3          	divu	a3,a3,a2
800021cc:	01079793          	slli	a5,a5,0x10
800021d0:	0067e333          	or	t1,a5,t1
800021d4:	02d888b3          	mul	a7,a7,a3
800021d8:	00068513          	mv	a0,a3
800021dc:	01137c63          	bgeu	t1,a7,800021f4 <__udivdi3+0x1cc>
800021e0:	00680333          	add	t1,a6,t1
800021e4:	fff68513          	addi	a0,a3,-1 # ffff <buflen.2990+0xffbf>
800021e8:	01036663          	bltu	t1,a6,800021f4 <__udivdi3+0x1cc>
800021ec:	01137463          	bgeu	t1,a7,800021f4 <__udivdi3+0x1cc>
800021f0:	ffe68513          	addi	a0,a3,-2
800021f4:	01071713          	slli	a4,a4,0x10
800021f8:	00a76733          	or	a4,a4,a0
800021fc:	00070513          	mv	a0,a4
80002200:	00008067          	ret
80002204:	010006b7          	lui	a3,0x1000
80002208:	01000893          	li	a7,16
8000220c:	f4d862e3          	bltu	a6,a3,80002150 <__udivdi3+0x128>
80002210:	01800893          	li	a7,24
80002214:	f3dff06f          	j	80002150 <__udivdi3+0x128>
80002218:	00e81833          	sll	a6,a6,a4
8000221c:	00d7d5b3          	srl	a1,a5,a3
80002220:	00e51333          	sll	t1,a0,a4
80002224:	00d556b3          	srl	a3,a0,a3
80002228:	01085513          	srli	a0,a6,0x10
8000222c:	00e797b3          	sll	a5,a5,a4
80002230:	02a5f733          	remu	a4,a1,a0
80002234:	00f6e8b3          	or	a7,a3,a5
80002238:	01081793          	slli	a5,a6,0x10
8000223c:	0107d793          	srli	a5,a5,0x10
80002240:	0108d613          	srli	a2,a7,0x10
80002244:	02a5d5b3          	divu	a1,a1,a0
80002248:	01071713          	slli	a4,a4,0x10
8000224c:	00c76733          	or	a4,a4,a2
80002250:	02b786b3          	mul	a3,a5,a1
80002254:	00058613          	mv	a2,a1
80002258:	00d77e63          	bgeu	a4,a3,80002274 <__udivdi3+0x24c>
8000225c:	01070733          	add	a4,a4,a6
80002260:	fff58613          	addi	a2,a1,-1
80002264:	01076863          	bltu	a4,a6,80002274 <__udivdi3+0x24c>
80002268:	00d77663          	bgeu	a4,a3,80002274 <__udivdi3+0x24c>
8000226c:	ffe58613          	addi	a2,a1,-2
80002270:	01070733          	add	a4,a4,a6
80002274:	40d706b3          	sub	a3,a4,a3
80002278:	02a6f733          	remu	a4,a3,a0
8000227c:	01089893          	slli	a7,a7,0x10
80002280:	0108d893          	srli	a7,a7,0x10
80002284:	02a6d6b3          	divu	a3,a3,a0
80002288:	01071713          	slli	a4,a4,0x10
8000228c:	02d785b3          	mul	a1,a5,a3
80002290:	011767b3          	or	a5,a4,a7
80002294:	00068713          	mv	a4,a3
80002298:	00b7fe63          	bgeu	a5,a1,800022b4 <__udivdi3+0x28c>
8000229c:	010787b3          	add	a5,a5,a6
800022a0:	fff68713          	addi	a4,a3,-1 # ffffff <buflen.2990+0xffffbf>
800022a4:	0107e863          	bltu	a5,a6,800022b4 <__udivdi3+0x28c>
800022a8:	00b7f663          	bgeu	a5,a1,800022b4 <__udivdi3+0x28c>
800022ac:	ffe68713          	addi	a4,a3,-2
800022b0:	010787b3          	add	a5,a5,a6
800022b4:	40b787b3          	sub	a5,a5,a1
800022b8:	01061593          	slli	a1,a2,0x10
800022bc:	00e5e5b3          	or	a1,a1,a4
800022c0:	eb5ff06f          	j	80002174 <__udivdi3+0x14c>
800022c4:	18d5e663          	bltu	a1,a3,80002450 <__udivdi3+0x428>
800022c8:	00010737          	lui	a4,0x10
800022cc:	04e6f463          	bgeu	a3,a4,80002314 <__udivdi3+0x2ec>
800022d0:	0ff00813          	li	a6,255
800022d4:	00d83733          	sltu	a4,a6,a3
800022d8:	00371713          	slli	a4,a4,0x3
800022dc:	80003837          	lui	a6,0x80003
800022e0:	ad880813          	addi	a6,a6,-1320 # 80002ad8 <__global_pointer$+0xffffe860>
800022e4:	00e6d5b3          	srl	a1,a3,a4
800022e8:	010585b3          	add	a1,a1,a6
800022ec:	0005c803          	lbu	a6,0(a1)
800022f0:	02000593          	li	a1,32
800022f4:	00e80833          	add	a6,a6,a4
800022f8:	410585b3          	sub	a1,a1,a6
800022fc:	02059663          	bnez	a1,80002328 <__udivdi3+0x300>
80002300:	00100713          	li	a4,1
80002304:	eef6ece3          	bltu	a3,a5,800021fc <__udivdi3+0x1d4>
80002308:	00c53533          	sltu	a0,a0,a2
8000230c:	00154713          	xori	a4,a0,1
80002310:	eedff06f          	j	800021fc <__udivdi3+0x1d4>
80002314:	010005b7          	lui	a1,0x1000
80002318:	01000713          	li	a4,16
8000231c:	fcb6e0e3          	bltu	a3,a1,800022dc <__udivdi3+0x2b4>
80002320:	01800713          	li	a4,24
80002324:	fb9ff06f          	j	800022dc <__udivdi3+0x2b4>
80002328:	01065733          	srl	a4,a2,a6
8000232c:	00b696b3          	sll	a3,a3,a1
80002330:	00d766b3          	or	a3,a4,a3
80002334:	0106de93          	srli	t4,a3,0x10
80002338:	0107d733          	srl	a4,a5,a6
8000233c:	03d778b3          	remu	a7,a4,t4
80002340:	00b797b3          	sll	a5,a5,a1
80002344:	01055833          	srl	a6,a0,a6
80002348:	00f86333          	or	t1,a6,a5
8000234c:	01069793          	slli	a5,a3,0x10
80002350:	0107d793          	srli	a5,a5,0x10
80002354:	01035813          	srli	a6,t1,0x10
80002358:	00b61633          	sll	a2,a2,a1
8000235c:	03d75733          	divu	a4,a4,t4
80002360:	01089893          	slli	a7,a7,0x10
80002364:	0108e833          	or	a6,a7,a6
80002368:	02e78f33          	mul	t5,a5,a4
8000236c:	00070e13          	mv	t3,a4
80002370:	01e87e63          	bgeu	a6,t5,8000238c <__udivdi3+0x364>
80002374:	00d80833          	add	a6,a6,a3
80002378:	fff70e13          	addi	t3,a4,-1 # ffff <buflen.2990+0xffbf>
8000237c:	00d86863          	bltu	a6,a3,8000238c <__udivdi3+0x364>
80002380:	01e87663          	bgeu	a6,t5,8000238c <__udivdi3+0x364>
80002384:	ffe70e13          	addi	t3,a4,-2
80002388:	00d80833          	add	a6,a6,a3
8000238c:	41e80833          	sub	a6,a6,t5
80002390:	03d878b3          	remu	a7,a6,t4
80002394:	03d85833          	divu	a6,a6,t4
80002398:	01089893          	slli	a7,a7,0x10
8000239c:	03078eb3          	mul	t4,a5,a6
800023a0:	01031793          	slli	a5,t1,0x10
800023a4:	0107d793          	srli	a5,a5,0x10
800023a8:	00f8e7b3          	or	a5,a7,a5
800023ac:	00080713          	mv	a4,a6
800023b0:	01d7fe63          	bgeu	a5,t4,800023cc <__udivdi3+0x3a4>
800023b4:	00d787b3          	add	a5,a5,a3
800023b8:	fff80713          	addi	a4,a6,-1
800023bc:	00d7e863          	bltu	a5,a3,800023cc <__udivdi3+0x3a4>
800023c0:	01d7f663          	bgeu	a5,t4,800023cc <__udivdi3+0x3a4>
800023c4:	ffe80713          	addi	a4,a6,-2
800023c8:	00d787b3          	add	a5,a5,a3
800023cc:	010e1e13          	slli	t3,t3,0x10
800023d0:	41d787b3          	sub	a5,a5,t4
800023d4:	00010eb7          	lui	t4,0x10
800023d8:	00ee6733          	or	a4,t3,a4
800023dc:	fffe8813          	addi	a6,t4,-1 # ffff <buflen.2990+0xffbf>
800023e0:	01077333          	and	t1,a4,a6
800023e4:	01075893          	srli	a7,a4,0x10
800023e8:	01067833          	and	a6,a2,a6
800023ec:	01065613          	srli	a2,a2,0x10
800023f0:	03030e33          	mul	t3,t1,a6
800023f4:	03088833          	mul	a6,a7,a6
800023f8:	010e5693          	srli	a3,t3,0x10
800023fc:	02c30333          	mul	t1,t1,a2
80002400:	01030333          	add	t1,t1,a6
80002404:	006686b3          	add	a3,a3,t1
80002408:	02c888b3          	mul	a7,a7,a2
8000240c:	0106f463          	bgeu	a3,a6,80002414 <__udivdi3+0x3ec>
80002410:	01d888b3          	add	a7,a7,t4
80002414:	0106d613          	srli	a2,a3,0x10
80002418:	011608b3          	add	a7,a2,a7
8000241c:	0317e663          	bltu	a5,a7,80002448 <__udivdi3+0x420>
80002420:	cf179ae3          	bne	a5,a7,80002114 <__udivdi3+0xec>
80002424:	000107b7          	lui	a5,0x10
80002428:	fff78793          	addi	a5,a5,-1 # ffff <buflen.2990+0xffbf>
8000242c:	00f6f6b3          	and	a3,a3,a5
80002430:	01069693          	slli	a3,a3,0x10
80002434:	00fe7e33          	and	t3,t3,a5
80002438:	00b51533          	sll	a0,a0,a1
8000243c:	01c686b3          	add	a3,a3,t3
80002440:	00000593          	li	a1,0
80002444:	dad57ce3          	bgeu	a0,a3,800021fc <__udivdi3+0x1d4>
80002448:	fff70713          	addi	a4,a4,-1
8000244c:	cc9ff06f          	j	80002114 <__udivdi3+0xec>
80002450:	00000593          	li	a1,0
80002454:	00000713          	li	a4,0
80002458:	da5ff06f          	j	800021fc <__udivdi3+0x1d4>

8000245c <__umoddi3>:
8000245c:	00060893          	mv	a7,a2
80002460:	00068713          	mv	a4,a3
80002464:	00050793          	mv	a5,a0
80002468:	00058813          	mv	a6,a1
8000246c:	22069c63          	bnez	a3,800026a4 <__umoddi3+0x248>
80002470:	800036b7          	lui	a3,0x80003
80002474:	ad868693          	addi	a3,a3,-1320 # 80002ad8 <__global_pointer$+0xffffe860>
80002478:	0cc5fc63          	bgeu	a1,a2,80002550 <__umoddi3+0xf4>
8000247c:	00010337          	lui	t1,0x10
80002480:	0a667e63          	bgeu	a2,t1,8000253c <__umoddi3+0xe0>
80002484:	0ff00313          	li	t1,255
80002488:	00c37463          	bgeu	t1,a2,80002490 <__umoddi3+0x34>
8000248c:	00800713          	li	a4,8
80002490:	00e65333          	srl	t1,a2,a4
80002494:	006686b3          	add	a3,a3,t1
80002498:	0006ce03          	lbu	t3,0(a3)
8000249c:	02000313          	li	t1,32
800024a0:	00ee0e33          	add	t3,t3,a4
800024a4:	41c30333          	sub	t1,t1,t3
800024a8:	00030c63          	beqz	t1,800024c0 <__umoddi3+0x64>
800024ac:	006595b3          	sll	a1,a1,t1
800024b0:	01c55e33          	srl	t3,a0,t3
800024b4:	006618b3          	sll	a7,a2,t1
800024b8:	00be6833          	or	a6,t3,a1
800024bc:	006517b3          	sll	a5,a0,t1
800024c0:	0108d613          	srli	a2,a7,0x10
800024c4:	02c87733          	remu	a4,a6,a2
800024c8:	01089513          	slli	a0,a7,0x10
800024cc:	01055513          	srli	a0,a0,0x10
800024d0:	0107d693          	srli	a3,a5,0x10
800024d4:	02c85833          	divu	a6,a6,a2
800024d8:	01071713          	slli	a4,a4,0x10
800024dc:	00d766b3          	or	a3,a4,a3
800024e0:	03050833          	mul	a6,a0,a6
800024e4:	0106fa63          	bgeu	a3,a6,800024f8 <__umoddi3+0x9c>
800024e8:	011686b3          	add	a3,a3,a7
800024ec:	0116e663          	bltu	a3,a7,800024f8 <__umoddi3+0x9c>
800024f0:	0106f463          	bgeu	a3,a6,800024f8 <__umoddi3+0x9c>
800024f4:	011686b3          	add	a3,a3,a7
800024f8:	410686b3          	sub	a3,a3,a6
800024fc:	02c6f733          	remu	a4,a3,a2
80002500:	01079793          	slli	a5,a5,0x10
80002504:	0107d793          	srli	a5,a5,0x10
80002508:	02c6d6b3          	divu	a3,a3,a2
8000250c:	02d506b3          	mul	a3,a0,a3
80002510:	01071513          	slli	a0,a4,0x10
80002514:	00f567b3          	or	a5,a0,a5
80002518:	00d7fa63          	bgeu	a5,a3,8000252c <__umoddi3+0xd0>
8000251c:	011787b3          	add	a5,a5,a7
80002520:	0117e663          	bltu	a5,a7,8000252c <__umoddi3+0xd0>
80002524:	00d7f463          	bgeu	a5,a3,8000252c <__umoddi3+0xd0>
80002528:	011787b3          	add	a5,a5,a7
8000252c:	40d787b3          	sub	a5,a5,a3
80002530:	0067d533          	srl	a0,a5,t1
80002534:	00000593          	li	a1,0
80002538:	00008067          	ret
8000253c:	01000337          	lui	t1,0x1000
80002540:	01000713          	li	a4,16
80002544:	f46666e3          	bltu	a2,t1,80002490 <__umoddi3+0x34>
80002548:	01800713          	li	a4,24
8000254c:	f45ff06f          	j	80002490 <__umoddi3+0x34>
80002550:	00061663          	bnez	a2,8000255c <__umoddi3+0x100>
80002554:	00100613          	li	a2,1
80002558:	031658b3          	divu	a7,a2,a7
8000255c:	00010637          	lui	a2,0x10
80002560:	0ac8f263          	bgeu	a7,a2,80002604 <__umoddi3+0x1a8>
80002564:	0ff00613          	li	a2,255
80002568:	01167463          	bgeu	a2,a7,80002570 <__umoddi3+0x114>
8000256c:	00800713          	li	a4,8
80002570:	00e8d633          	srl	a2,a7,a4
80002574:	00c686b3          	add	a3,a3,a2
80002578:	0006ce03          	lbu	t3,0(a3)
8000257c:	02000313          	li	t1,32
80002580:	00ee0e33          	add	t3,t3,a4
80002584:	41c30333          	sub	t1,t1,t3
80002588:	08031863          	bnez	t1,80002618 <__umoddi3+0x1bc>
8000258c:	411585b3          	sub	a1,a1,a7
80002590:	0108d713          	srli	a4,a7,0x10
80002594:	01089513          	slli	a0,a7,0x10
80002598:	01055513          	srli	a0,a0,0x10
8000259c:	0107d613          	srli	a2,a5,0x10
800025a0:	02e5f6b3          	remu	a3,a1,a4
800025a4:	02e5d5b3          	divu	a1,a1,a4
800025a8:	01069693          	slli	a3,a3,0x10
800025ac:	00c6e6b3          	or	a3,a3,a2
800025b0:	02b505b3          	mul	a1,a0,a1
800025b4:	00b6fa63          	bgeu	a3,a1,800025c8 <__umoddi3+0x16c>
800025b8:	011686b3          	add	a3,a3,a7
800025bc:	0116e663          	bltu	a3,a7,800025c8 <__umoddi3+0x16c>
800025c0:	00b6f463          	bgeu	a3,a1,800025c8 <__umoddi3+0x16c>
800025c4:	011686b3          	add	a3,a3,a7
800025c8:	40b685b3          	sub	a1,a3,a1
800025cc:	02e5f6b3          	remu	a3,a1,a4
800025d0:	01079793          	slli	a5,a5,0x10
800025d4:	0107d793          	srli	a5,a5,0x10
800025d8:	02e5d5b3          	divu	a1,a1,a4
800025dc:	02b505b3          	mul	a1,a0,a1
800025e0:	01069513          	slli	a0,a3,0x10
800025e4:	00f567b3          	or	a5,a0,a5
800025e8:	00b7fa63          	bgeu	a5,a1,800025fc <__umoddi3+0x1a0>
800025ec:	011787b3          	add	a5,a5,a7
800025f0:	0117e663          	bltu	a5,a7,800025fc <__umoddi3+0x1a0>
800025f4:	00b7f463          	bgeu	a5,a1,800025fc <__umoddi3+0x1a0>
800025f8:	011787b3          	add	a5,a5,a7
800025fc:	40b787b3          	sub	a5,a5,a1
80002600:	f31ff06f          	j	80002530 <__umoddi3+0xd4>
80002604:	01000637          	lui	a2,0x1000
80002608:	01000713          	li	a4,16
8000260c:	f6c8e2e3          	bltu	a7,a2,80002570 <__umoddi3+0x114>
80002610:	01800713          	li	a4,24
80002614:	f5dff06f          	j	80002570 <__umoddi3+0x114>
80002618:	006898b3          	sll	a7,a7,t1
8000261c:	01c5d733          	srl	a4,a1,t3
80002620:	006517b3          	sll	a5,a0,t1
80002624:	01c55e33          	srl	t3,a0,t3
80002628:	0108d513          	srli	a0,a7,0x10
8000262c:	02a776b3          	remu	a3,a4,a0
80002630:	006595b3          	sll	a1,a1,t1
80002634:	00be6e33          	or	t3,t3,a1
80002638:	01089593          	slli	a1,a7,0x10
8000263c:	0105d593          	srli	a1,a1,0x10
80002640:	010e5613          	srli	a2,t3,0x10
80002644:	02a75733          	divu	a4,a4,a0
80002648:	01069693          	slli	a3,a3,0x10
8000264c:	00c6e6b3          	or	a3,a3,a2
80002650:	02e58733          	mul	a4,a1,a4
80002654:	00e6fa63          	bgeu	a3,a4,80002668 <__umoddi3+0x20c>
80002658:	011686b3          	add	a3,a3,a7
8000265c:	0116e663          	bltu	a3,a7,80002668 <__umoddi3+0x20c>
80002660:	00e6f463          	bgeu	a3,a4,80002668 <__umoddi3+0x20c>
80002664:	011686b3          	add	a3,a3,a7
80002668:	40e68633          	sub	a2,a3,a4
8000266c:	02a676b3          	remu	a3,a2,a0
80002670:	010e1e13          	slli	t3,t3,0x10
80002674:	010e5e13          	srli	t3,t3,0x10
80002678:	02a65633          	divu	a2,a2,a0
8000267c:	01069693          	slli	a3,a3,0x10
80002680:	02c58633          	mul	a2,a1,a2
80002684:	01c6e5b3          	or	a1,a3,t3
80002688:	00c5fa63          	bgeu	a1,a2,8000269c <__umoddi3+0x240>
8000268c:	011585b3          	add	a1,a1,a7
80002690:	0115e663          	bltu	a1,a7,8000269c <__umoddi3+0x240>
80002694:	00c5f463          	bgeu	a1,a2,8000269c <__umoddi3+0x240>
80002698:	011585b3          	add	a1,a1,a7
8000269c:	40c585b3          	sub	a1,a1,a2
800026a0:	ef1ff06f          	j	80002590 <__umoddi3+0x134>
800026a4:	e8d5eae3          	bltu	a1,a3,80002538 <__umoddi3+0xdc>
800026a8:	00010737          	lui	a4,0x10
800026ac:	04e6fc63          	bgeu	a3,a4,80002704 <__umoddi3+0x2a8>
800026b0:	0ff00e93          	li	t4,255
800026b4:	00deb733          	sltu	a4,t4,a3
800026b8:	00371713          	slli	a4,a4,0x3
800026bc:	80003337          	lui	t1,0x80003
800026c0:	00e6d8b3          	srl	a7,a3,a4
800026c4:	ad830313          	addi	t1,t1,-1320 # 80002ad8 <__global_pointer$+0xffffe860>
800026c8:	006888b3          	add	a7,a7,t1
800026cc:	0008ce83          	lbu	t4,0(a7) # 1000000 <buflen.2990+0xffffc0>
800026d0:	02000e13          	li	t3,32
800026d4:	00ee8eb3          	add	t4,t4,a4
800026d8:	41de0e33          	sub	t3,t3,t4
800026dc:	020e1e63          	bnez	t3,80002718 <__umoddi3+0x2bc>
800026e0:	00b6e463          	bltu	a3,a1,800026e8 <__umoddi3+0x28c>
800026e4:	00c56a63          	bltu	a0,a2,800026f8 <__umoddi3+0x29c>
800026e8:	40c507b3          	sub	a5,a0,a2
800026ec:	40d585b3          	sub	a1,a1,a3
800026f0:	00f53533          	sltu	a0,a0,a5
800026f4:	40a58833          	sub	a6,a1,a0
800026f8:	00078513          	mv	a0,a5
800026fc:	00080593          	mv	a1,a6
80002700:	e39ff06f          	j	80002538 <__umoddi3+0xdc>
80002704:	010008b7          	lui	a7,0x1000
80002708:	01000713          	li	a4,16
8000270c:	fb16e8e3          	bltu	a3,a7,800026bc <__umoddi3+0x260>
80002710:	01800713          	li	a4,24
80002714:	fa9ff06f          	j	800026bc <__umoddi3+0x260>
80002718:	01d65733          	srl	a4,a2,t4
8000271c:	01c696b3          	sll	a3,a3,t3
80002720:	00d766b3          	or	a3,a4,a3
80002724:	0106d813          	srli	a6,a3,0x10
80002728:	01d5d733          	srl	a4,a1,t4
8000272c:	03077333          	remu	t1,a4,a6
80002730:	01c595b3          	sll	a1,a1,t3
80002734:	01d557b3          	srl	a5,a0,t4
80002738:	00b7e7b3          	or	a5,a5,a1
8000273c:	01069593          	slli	a1,a3,0x10
80002740:	0105d593          	srli	a1,a1,0x10
80002744:	0107d893          	srli	a7,a5,0x10
80002748:	01c61633          	sll	a2,a2,t3
8000274c:	01c51533          	sll	a0,a0,t3
80002750:	03075733          	divu	a4,a4,a6
80002754:	01031313          	slli	t1,t1,0x10
80002758:	011368b3          	or	a7,t1,a7
8000275c:	02e58f33          	mul	t5,a1,a4
80002760:	00070313          	mv	t1,a4
80002764:	01e8fe63          	bgeu	a7,t5,80002780 <__umoddi3+0x324>
80002768:	00d888b3          	add	a7,a7,a3
8000276c:	fff70313          	addi	t1,a4,-1 # ffff <buflen.2990+0xffbf>
80002770:	00d8e863          	bltu	a7,a3,80002780 <__umoddi3+0x324>
80002774:	01e8f663          	bgeu	a7,t5,80002780 <__umoddi3+0x324>
80002778:	ffe70313          	addi	t1,a4,-2
8000277c:	00d888b3          	add	a7,a7,a3
80002780:	41e888b3          	sub	a7,a7,t5
80002784:	0308ff33          	remu	t5,a7,a6
80002788:	0308d8b3          	divu	a7,a7,a6
8000278c:	010f1f13          	slli	t5,t5,0x10
80002790:	03158833          	mul	a6,a1,a7
80002794:	01079593          	slli	a1,a5,0x10
80002798:	0105d593          	srli	a1,a1,0x10
8000279c:	00bf65b3          	or	a1,t5,a1
800027a0:	00088793          	mv	a5,a7
800027a4:	0105fe63          	bgeu	a1,a6,800027c0 <__umoddi3+0x364>
800027a8:	00d585b3          	add	a1,a1,a3
800027ac:	fff88793          	addi	a5,a7,-1 # ffffff <buflen.2990+0xffffbf>
800027b0:	00d5e863          	bltu	a1,a3,800027c0 <__umoddi3+0x364>
800027b4:	0105f663          	bgeu	a1,a6,800027c0 <__umoddi3+0x364>
800027b8:	ffe88793          	addi	a5,a7,-2
800027bc:	00d585b3          	add	a1,a1,a3
800027c0:	01031313          	slli	t1,t1,0x10
800027c4:	00010f37          	lui	t5,0x10
800027c8:	00f36333          	or	t1,t1,a5
800027cc:	ffff0793          	addi	a5,t5,-1 # ffff <buflen.2990+0xffbf>
800027d0:	00f378b3          	and	a7,t1,a5
800027d4:	410585b3          	sub	a1,a1,a6
800027d8:	01035313          	srli	t1,t1,0x10
800027dc:	01065813          	srli	a6,a2,0x10
800027e0:	00f677b3          	and	a5,a2,a5
800027e4:	02f88733          	mul	a4,a7,a5
800027e8:	02f307b3          	mul	a5,t1,a5
800027ec:	030888b3          	mul	a7,a7,a6
800027f0:	03030333          	mul	t1,t1,a6
800027f4:	00f888b3          	add	a7,a7,a5
800027f8:	01075813          	srli	a6,a4,0x10
800027fc:	01180833          	add	a6,a6,a7
80002800:	00f87463          	bgeu	a6,a5,80002808 <__umoddi3+0x3ac>
80002804:	01e30333          	add	t1,t1,t5
80002808:	01085793          	srli	a5,a6,0x10
8000280c:	00678333          	add	t1,a5,t1
80002810:	000107b7          	lui	a5,0x10
80002814:	fff78793          	addi	a5,a5,-1 # ffff <buflen.2990+0xffbf>
80002818:	00f87833          	and	a6,a6,a5
8000281c:	01081813          	slli	a6,a6,0x10
80002820:	00f77733          	and	a4,a4,a5
80002824:	00e80733          	add	a4,a6,a4
80002828:	0065e663          	bltu	a1,t1,80002834 <__umoddi3+0x3d8>
8000282c:	00659e63          	bne	a1,t1,80002848 <__umoddi3+0x3ec>
80002830:	00e57c63          	bgeu	a0,a4,80002848 <__umoddi3+0x3ec>
80002834:	40c70633          	sub	a2,a4,a2
80002838:	00c73733          	sltu	a4,a4,a2
8000283c:	00d70733          	add	a4,a4,a3
80002840:	40e30333          	sub	t1,t1,a4
80002844:	00060713          	mv	a4,a2
80002848:	40e50733          	sub	a4,a0,a4
8000284c:	00e53533          	sltu	a0,a0,a4
80002850:	406585b3          	sub	a1,a1,t1
80002854:	40a585b3          	sub	a1,a1,a0
80002858:	01d597b3          	sll	a5,a1,t4
8000285c:	01c75733          	srl	a4,a4,t3
80002860:	00e7e533          	or	a0,a5,a4
80002864:	01c5d5b3          	srl	a1,a1,t3
80002868:	cd1ff06f          	j	80002538 <__umoddi3+0xdc>

セクション .text.startup の逆アセンブル:

8000286c <main>:
8000286c:	b3010113          	addi	sp,sp,-1232
80002870:	4c812423          	sw	s0,1224(sp)
80002874:	4c912223          	sw	s1,1220(sp)
80002878:	4d212023          	sw	s2,1216(sp)
8000287c:	00000497          	auipc	s1,0x0
80002880:	3ec48493          	addi	s1,s1,1004 # 80002c68 <input1_data>
80002884:	00001917          	auipc	s2,0x1
80002888:	89490913          	addi	s2,s2,-1900 # 80003118 <input2_data>
8000288c:	00010413          	mv	s0,sp
80002890:	4b312e23          	sw	s3,1212(sp)
80002894:	4c112623          	sw	ra,1228(sp)
80002898:	00090993          	mv	s3,s2
8000289c:	00040613          	mv	a2,s0
800028a0:	00090693          	mv	a3,s2
800028a4:	00048793          	mv	a5,s1
800028a8:	0007a703          	lw	a4,0(a5)
800028ac:	0006a583          	lw	a1,0(a3)
800028b0:	00478793          	addi	a5,a5,4
800028b4:	00468693          	addi	a3,a3,4
800028b8:	00b70733          	add	a4,a4,a1
800028bc:	00e62023          	sw	a4,0(a2) # 1000000 <buflen.2990+0xffffc0>
800028c0:	00460613          	addi	a2,a2,4
800028c4:	ff3792e3          	bne	a5,s3,800028a8 <main+0x3c>
800028c8:	00100513          	li	a0,1
800028cc:	dddfe0ef          	jal	ra,800016a8 <setStats>
800028d0:	00040713          	mv	a4,s0
800028d4:	0004a783          	lw	a5,0(s1)
800028d8:	00092683          	lw	a3,0(s2)
800028dc:	00448493          	addi	s1,s1,4
800028e0:	00490913          	addi	s2,s2,4
800028e4:	00d787b3          	add	a5,a5,a3
800028e8:	00f72023          	sw	a5,0(a4)
800028ec:	00470713          	addi	a4,a4,4
800028f0:	ff3492e3          	bne	s1,s3,800028d4 <main+0x68>
800028f4:	00000513          	li	a0,0
800028f8:	db1fe0ef          	jal	ra,800016a8 <setStats>
800028fc:	00001797          	auipc	a5,0x1
80002900:	ccc78793          	addi	a5,a5,-820 # 800035c8 <verify_data>
80002904:	00000513          	li	a0,0
80002908:	12c00813          	li	a6,300
8000290c:	00042683          	lw	a3,0(s0)
80002910:	0007a703          	lw	a4,0(a5)
80002914:	00442583          	lw	a1,4(s0)
80002918:	0047a603          	lw	a2,4(a5)
8000291c:	02e69c63          	bne	a3,a4,80002954 <main+0xe8>
80002920:	00250513          	addi	a0,a0,2
80002924:	00c59a63          	bne	a1,a2,80002938 <main+0xcc>
80002928:	00840413          	addi	s0,s0,8
8000292c:	00878793          	addi	a5,a5,8
80002930:	fd051ee3          	bne	a0,a6,8000290c <main+0xa0>
80002934:	00000513          	li	a0,0
80002938:	4cc12083          	lw	ra,1228(sp)
8000293c:	4c812403          	lw	s0,1224(sp)
80002940:	4c412483          	lw	s1,1220(sp)
80002944:	4c012903          	lw	s2,1216(sp)
80002948:	4bc12983          	lw	s3,1212(sp)
8000294c:	4d010113          	addi	sp,sp,1232
80002950:	00008067          	ret
80002954:	00150513          	addi	a0,a0,1
80002958:	fe1ff06f          	j	80002938 <main+0xcc>
8000295c:	ff010113          	addi	sp,sp,-16
80002960:	00000517          	auipc	a0,0x0
80002964:	29450513          	addi	a0,a0,660 # 80002bf4 <__clz_tab+0x11c>
80002968:	00112623          	sw	ra,12(sp)
8000296c:	e01fe0ef          	jal	ra,8000176c <printstr>
80002970:	00c12083          	lw	ra,12(sp)
80002974:	fff00513          	li	a0,-1
80002978:	01010113          	addi	sp,sp,16
8000297c:	00008067          	ret

セクション .data の逆アセンブル:

80002c68 <input1_data>:
80002c68:	0029                	c.nop	10
80002c6a:	0000                	unimp
80002c6c:	0341                	addi	t1,t1,16
80002c6e:	0000                	unimp
80002c70:	0234                	addi	a3,sp,264
80002c72:	0000                	unimp
80002c74:	000000bb          	0xbb
80002c78:	02ed                	addi	t0,t0,27
80002c7a:	0000                	unimp
80002c7c:	015e                	slli	sp,sp,0x17
80002c7e:	0000                	unimp
80002c80:	0084                	addi	s1,sp,64
80002c82:	0000                	unimp
80002c84:	03b5                	addi	t2,t2,13
80002c86:	0000                	unimp
80002c88:	0248                	addi	a0,sp,260
80002c8a:	0000                	unimp
80002c8c:	0325                	addi	t1,t1,9
80002c8e:	0000                	unimp
80002c90:	026d                	addi	tp,tp,27
80002c92:	0000                	unimp
80002c94:	0006                	c.slli	zero,0x1
80002c96:	0000                	unimp
80002c98:	000003a3          	sb	zero,7(zero) # 7 <buf.2989+0x7>
80002c9c:	037a                	slli	t1,t1,0x1e
80002c9e:	0000                	unimp
80002ca0:	0188                	addi	a0,sp,192
80002ca2:	0000                	unimp
80002ca4:	02b6                	slli	t0,t0,0xd
80002ca6:	0000                	unimp
80002ca8:	03c1                	addi	t2,t2,16
80002caa:	0000                	unimp
80002cac:	006e                	c.slli	zero,0x1b
80002cae:	0000                	unimp
80002cb0:	0074                	addi	a3,sp,12
80002cb2:	0000                	unimp
80002cb4:	0128                	addi	a0,sp,136
80002cb6:	0000                	unimp
80002cb8:	01aa                	slli	gp,gp,0xa
80002cba:	0000                	unimp
80002cbc:	013a                	slli	sp,sp,0xe
80002cbe:	0000                	unimp
80002cc0:	00000293          	li	t0,0
80002cc4:	0306                	slli	t1,t1,0x1
80002cc6:	0000                	unimp
80002cc8:	0000013f 000002a6 	0x2a60000013f
80002cd0:	0000036b          	0x36b
80002cd4:	0178                	addi	a4,sp,140
80002cd6:	0000                	unimp
80002cd8:	01da                	slli	gp,gp,0x16
80002cda:	0000                	unimp
80002cdc:	03aa                	slli	t2,t2,0xa
80002cde:	0000                	unimp
80002ce0:	0000021b          	0x21b
80002ce4:	0239                	addi	tp,tp,14
80002ce6:	0000                	unimp
80002ce8:	000000cb          	fnmsub.s	ft1,ft0,ft0,ft0,rne
80002cec:	0118                	addi	a4,sp,128
80002cee:	0000                	unimp
80002cf0:	000002f7          	0x2f7
80002cf4:	025e                	slli	tp,tp,0x17
80002cf6:	0000                	unimp
80002cf8:	01ff                	0x1ff
80002cfa:	0000                	unimp
80002cfc:	0291                	addi	t0,t0,4
80002cfe:	0000                	unimp
80002d00:	000000c3          	fmadd.s	ft1,ft0,ft0,ft0,rne
80002d04:	0051                	c.nop	20
80002d06:	0000                	unimp
80002d08:	0000010b          	0x10b
80002d0c:	00e5                	addi	ra,ra,25
80002d0e:	0000                	unimp
80002d10:	0151                	addi	sp,sp,20
80002d12:	0000                	unimp
80002d14:	03b0                	addi	a2,sp,456
80002d16:	0000                	unimp
80002d18:	0386                	slli	t2,t2,0x1
80002d1a:	0000                	unimp
80002d1c:	00f1                	addi	ra,ra,28
80002d1e:	0000                	unimp
80002d20:	0391                	addi	t2,t2,4
80002d22:	0000                	unimp
80002d24:	033a                	slli	t1,t1,0xe
80002d26:	0000                	unimp
80002d28:	03a5                	addi	t2,t2,9
80002d2a:	0000                	unimp
80002d2c:	03d9                	addi	t2,t2,22
80002d2e:	0000                	unimp
80002d30:	000000c3          	fmadd.s	ft1,ft0,ft0,ft0,rne
80002d34:	03c0                	addi	s0,sp,452
80002d36:	0000                	unimp
80002d38:	0236                	slli	tp,tp,0xd
80002d3a:	0000                	unimp
80002d3c:	015e                	slli	sp,sp,0x17
80002d3e:	0000                	unimp
80002d40:	0289                	addi	t0,t0,2
80002d42:	0000                	unimp
80002d44:	0291                	addi	t0,t0,4
80002d46:	0000                	unimp
80002d48:	00b5                	addi	ra,ra,13
80002d4a:	0000                	unimp
80002d4c:	0000006f          	j	80002d4c <input1_data+0xe4>
80002d50:	0000035b          	0x35b
80002d54:	0041                	c.nop	16
80002d56:	0000                	unimp
80002d58:	0120                	addi	s0,sp,136
80002d5a:	0000                	unimp
80002d5c:	015d                	addi	sp,sp,23
80002d5e:	0000                	unimp
80002d60:	008d                	addi	ra,ra,3
80002d62:	0000                	unimp
80002d64:	0389                	addi	t2,t2,2
80002d66:	0000                	unimp
80002d68:	0376                	slli	t1,t1,0x1d
80002d6a:	0000                	unimp
80002d6c:	0108                	addi	a0,sp,128
80002d6e:	0000                	unimp
80002d70:	0240                	addi	s0,sp,260
80002d72:	0000                	unimp
80002d74:	000003d3          	fadd.s	ft7,ft0,ft0,rne
80002d78:	02f9                	addi	t0,t0,30
80002d7a:	0000                	unimp
80002d7c:	00f1                	addi	ra,ra,28
80002d7e:	0000                	unimp
80002d80:	01de                	slli	gp,gp,0x17
80002d82:	0000                	unimp
80002d84:	000001f3          	0x1f3
80002d88:	00000193          	li	gp,0
80002d8c:	00de                	slli	ra,ra,0x17
80002d8e:	0000                	unimp
80002d90:	01bc                	addi	a5,sp,200
80002d92:	0000                	unimp
80002d94:	02d1                	addi	t0,t0,20
80002d96:	0000                	unimp
80002d98:	02a4                	addi	s1,sp,328
80002d9a:	0000                	unimp
80002d9c:	013d                	addi	sp,sp,15
80002d9e:	0000                	unimp
80002da0:	00e0                	addi	s0,sp,76
80002da2:	0000                	unimp
80002da4:	03a9                	addi	t2,t2,10
80002da6:	0000                	unimp
80002da8:	0120                	addi	s0,sp,136
80002daa:	0000                	unimp
80002dac:	00000077          	0x77
80002db0:	00000267          	jalr	tp,zero # 0 <buf.2989>
80002db4:	025e                	slli	tp,tp,0x17
80002db6:	0000                	unimp
80002db8:	0185                	addi	gp,gp,1
80002dba:	0000                	unimp
80002dbc:	015f 0000 01c7      	0x1c70000015f
80002dc2:	0000                	unimp
80002dc4:	0116                	slli	sp,sp,0x5
80002dc6:	0000                	unimp
80002dc8:	0000016f          	jal	sp,80002dc8 <input1_data+0x160>
80002dcc:	0166                	slli	sp,sp,0x19
80002dce:	0000                	unimp
80002dd0:	0248                	addi	a0,sp,260
80002dd2:	0000                	unimp
80002dd4:	003e                	c.slli	zero,0xf
80002dd6:	0000                	unimp
80002dd8:	03d9                	addi	t2,t2,22
80002dda:	0000                	unimp
80002ddc:	00000193          	li	gp,0
80002de0:	015a                	slli	sp,sp,0x16
80002de2:	0000                	unimp
80002de4:	0205                	addi	tp,tp,1
80002de6:	0000                	unimp
80002de8:	0000022f          	0x22f
80002dec:	038c                	addi	a1,sp,448
80002dee:	0000                	unimp
80002df0:	00000307          	0x307
80002df4:	00ff                	0xff
80002df6:	0000                	unimp
80002df8:	030a                	slli	t1,t1,0x2
80002dfa:	0000                	unimp
80002dfc:	0256                	slli	tp,tp,0x15
80002dfe:	0000                	unimp
80002e00:	0000008f          	0x8f
80002e04:	0021                	c.nop	8
80002e06:	0000                	unimp
80002e08:	007d                	c.nop	31
80002e0a:	0000                	unimp
80002e0c:	03ad                	addi	t2,t2,11
80002e0e:	0000                	unimp
80002e10:	03a5                	addi	t2,t2,9
80002e12:	0000                	unimp
80002e14:	031f 0000 0229      	0x2290000031f
80002e1a:	0000                	unimp
80002e1c:	000001af          	0x1af
80002e20:	0288                	addi	a0,sp,320
80002e22:	0000                	unimp
80002e24:	03b8                	addi	a4,sp,456
80002e26:	0000                	unimp
80002e28:	011f 0000 0013      	0x130000011f
80002e2e:	0000                	unimp
80002e30:	0031                	c.nop	12
80002e32:	0000                	unimp
80002e34:	0056                	c.slli	zero,0x15
80002e36:	0000                	unimp
80002e38:	005f 0000 01b9      	0x1b90000005f
80002e3e:	0000                	unimp
80002e40:	0000024b          	fnmsub.s	ft4,ft0,ft0,ft0,rne
80002e44:	0266                	slli	tp,tp,0x19
80002e46:	0000                	unimp
80002e48:	017e                	slli	sp,sp,0x1f
80002e4a:	0000                	unimp
80002e4c:	0118                	addi	a4,sp,128
80002e4e:	0000                	unimp
80002e50:	0328                	addi	a0,sp,392
80002e52:	0000                	unimp
80002e54:	000003cb          	fnmsub.s	ft7,ft0,ft0,ft0,rne
80002e58:	00000333          	add	t1,zero,zero
80002e5c:	0158                	addi	a4,sp,132
80002e5e:	0000                	unimp
80002e60:	01c2                	slli	gp,gp,0x10
80002e62:	0000                	unimp
80002e64:	0200                	addi	s0,sp,256
80002e66:	0000                	unimp
80002e68:	03c5                	addi	t2,t2,17
80002e6a:	0000                	unimp
80002e6c:	0000015b          	0x15b
80002e70:	0328                	addi	a0,sp,392
80002e72:	0000                	unimp
80002e74:	0372                	slli	t1,t1,0x1c
80002e76:	0000                	unimp
80002e78:	0219                	addi	tp,tp,6
80002e7a:	0000                	unimp
80002e7c:	03b2                	slli	t2,t2,0xc
80002e7e:	0000                	unimp
80002e80:	02bd                	addi	t0,t0,15
80002e82:	0000                	unimp
80002e84:	0164                	addi	s1,sp,140
80002e86:	0000                	unimp
80002e88:	00000237          	lui	tp,0x0
80002e8c:	0000037b          	0x37b
80002e90:	0016                	c.slli	zero,0x5
80002e92:	0000                	unimp
80002e94:	0238                	addi	a4,sp,264
80002e96:	0000                	unimp
80002e98:	0299                	addi	t0,t0,6
80002e9a:	0000                	unimp
80002e9c:	000001a7          	0x1a7
80002ea0:	01b2                	slli	gp,gp,0xc
80002ea2:	0000                	unimp
80002ea4:	009e                	slli	ra,ra,0x7
80002ea6:	0000                	unimp
80002ea8:	0002                	c.slli64	zero
80002eaa:	0000                	unimp
80002eac:	0054                	addi	a3,sp,4
80002eae:	0000                	unimp
80002eb0:	000000f7          	0xf7
80002eb4:	0031                	c.nop	12
80002eb6:	0000                	unimp
80002eb8:	000001b3          	add	gp,zero,zero
80002ebc:	0318                	addi	a4,sp,384
80002ebe:	0000                	unimp
80002ec0:	0365                	addi	t1,t1,25
80002ec2:	0000                	unimp
80002ec4:	01e6                	slli	gp,gp,0x19
80002ec6:	0000                	unimp
80002ec8:	019e                	slli	gp,gp,0x7
80002eca:	0000                	unimp
80002ecc:	0171                	addi	sp,sp,28
80002ece:	0000                	unimp
80002ed0:	0224                	addi	s1,sp,264
80002ed2:	0000                	unimp
80002ed4:	0206                	slli	tp,tp,0x1
80002ed6:	0000                	unimp
80002ed8:	0378                	addi	a4,sp,396
80002eda:	0000                	unimp
80002edc:	02aa                	slli	t0,t0,0xa
80002ede:	0000                	unimp
80002ee0:	011c                	addi	a5,sp,128
80002ee2:	0000                	unimp
80002ee4:	0108                	addi	a0,sp,128
80002ee6:	0000                	unimp
80002ee8:	000001f3          	0x1f3
80002eec:	0122                	slli	sp,sp,0x8
80002eee:	0000                	unimp
80002ef0:	0381                	addi	t2,t2,0
80002ef2:	0000                	unimp
80002ef4:	000000d7          	0xd7
80002ef8:	000002db          	0x2db
80002efc:	02b0                	addi	a2,sp,328
80002efe:	0000                	unimp
80002f00:	000000fb          	0xfb
80002f04:	0312                	slli	t1,t1,0x4
80002f06:	0000                	unimp
80002f08:	0000022b          	0x22b
80002f0c:	012e                	slli	sp,sp,0xb
80002f0e:	0000                	unimp
80002f10:	0210                	addi	a2,sp,256
80002f12:	0000                	unimp
80002f14:	0220                	addi	s0,sp,264
80002f16:	0000                	unimp
80002f18:	0142                	slli	sp,sp,0x10
80002f1a:	0000                	unimp
80002f1c:	000003b3          	add	t2,zero,zero
80002f20:	011f 0000 0338      	0x3380000011f
80002f26:	0000                	unimp
80002f28:	0130                	addi	a2,sp,136
80002f2a:	0000                	unimp
80002f2c:	0314                	addi	a3,sp,384
80002f2e:	0000                	unimp
80002f30:	02dd                	addi	t0,t0,23
80002f32:	0000                	unimp
80002f34:	000003bf 0000016e 	0x16e000003bf
80002f3c:	02d2                	slli	t0,t0,0x14
80002f3e:	0000                	unimp
80002f40:	0126                	slli	sp,sp,0x9
80002f42:	0000                	unimp
80002f44:	000003cf          	fnmadd.s	ft7,ft0,ft0,ft0,rne
80002f48:	028d                	addi	t0,t0,3
80002f4a:	0000                	unimp
80002f4c:	02ec                	addi	a1,sp,332
80002f4e:	0000                	unimp
80002f50:	0000005b          	0x5b
80002f54:	017a                	slli	sp,sp,0x1e
80002f56:	0000                	unimp
80002f58:	0069                	c.nop	26
80002f5a:	0000                	unimp
80002f5c:	0066                	c.slli	zero,0x19
80002f5e:	0000                	unimp
80002f60:	017d                	addi	sp,sp,31
80002f62:	0000                	unimp
80002f64:	0000028b          	0x28b
80002f68:	0339                	addi	t1,t1,14
80002f6a:	0000                	unimp
80002f6c:	0348                	addi	a0,sp,388
80002f6e:	0000                	unimp
80002f70:	0164                	addi	s1,sp,140
80002f72:	0000                	unimp
80002f74:	0094                	addi	a3,sp,64
80002f76:	0000                	unimp
80002f78:	0036                	c.slli	zero,0xd
80002f7a:	0000                	unimp
80002f7c:	008c                	addi	a1,sp,64
80002f7e:	0000                	unimp
80002f80:	000003bb          	0x3bb
80002f84:	00000157          	0x157
80002f88:	0215                	addi	tp,tp,5
80002f8a:	0000                	unimp
80002f8c:	02f5                	addi	t0,t0,29
80002f8e:	0000                	unimp
80002f90:	0209                	addi	tp,tp,2
80002f92:	0000                	unimp
80002f94:	0345                	addi	t1,t1,17
80002f96:	0000                	unimp
80002f98:	0250                	addi	a2,sp,260
80002f9a:	0000                	unimp
80002f9c:	000d                	c.nop	3
80002f9e:	0000                	unimp
80002fa0:	00ad                	addi	ra,ra,11
80002fa2:	0000                	unimp
80002fa4:	0000003f 00000079 	0x790000003f
80002fac:	0085                	addi	ra,ra,1
80002fae:	0000                	unimp
80002fb0:	02f6                	slli	t0,t0,0x1d
80002fb2:	0000                	unimp
80002fb4:	0174                	addi	a3,sp,140
80002fb6:	0000                	unimp
80002fb8:	000003b7          	lui	t2,0x0
80002fbc:	00000027          	0x27
80002fc0:	0081                	addi	ra,ra,0
80002fc2:	0000                	unimp
80002fc4:	006e                	c.slli	zero,0x1b
80002fc6:	0000                	unimp
80002fc8:	0000034f          	fnmadd.s	ft6,ft0,ft0,ft0,rne
80002fcc:	01b5                	addi	gp,gp,13
80002fce:	0000                	unimp
80002fd0:	00ff                	0xff
80002fd2:	0000                	unimp
80002fd4:	010d                	addi	sp,sp,3
80002fd6:	0000                	unimp
80002fd8:	0199                	addi	gp,gp,6
80002fda:	0000                	unimp
80002fdc:	0274                	addi	a3,sp,268
80002fde:	0000                	unimp
80002fe0:	0000018f          	0x18f
80002fe4:	0225                	addi	tp,tp,9
80002fe6:	0000                	unimp
80002fe8:	02f1                	addi	t0,t0,28
80002fea:	0000                	unimp
80002fec:	0234                	addi	a3,sp,264
80002fee:	0000                	unimp
80002ff0:	000000ab          	0xab
80002ff4:	00000013          	nop
80002ff8:	000002d7          	0x2d7
80002ffc:	01f5                	addi	gp,gp,29
80002ffe:	0000                	unimp
80003000:	0309                	addi	t1,t1,2
80003002:	0000                	unimp
80003004:	0000002b          	0x2b
80003008:	02f1                	addi	t0,t0,28
8000300a:	0000                	unimp
8000300c:	0051                	c.nop	20
8000300e:	0000                	unimp
80003010:	00ca                	slli	ra,ra,0x12
80003012:	0000                	unimp
80003014:	0355                	addi	t1,t1,21
80003016:	0000                	unimp
80003018:	0099                	addi	ra,ra,6
8000301a:	0000                	unimp
8000301c:	02f8                	addi	a4,sp,332
8000301e:	0000                	unimp
80003020:	0165                	addi	sp,sp,25
80003022:	0000                	unimp
80003024:	000003af          	0x3af
80003028:	039a                	slli	t2,t2,0x6
8000302a:	0000                	unimp
8000302c:	0148                	addi	a0,sp,132
8000302e:	0000                	unimp
80003030:	01f0                	addi	a2,sp,204
80003032:	0000                	unimp
80003034:	01ba                	slli	gp,gp,0xe
80003036:	0000                	unimp
80003038:	0204                	addi	s1,sp,256
8000303a:	0000                	unimp
8000303c:	0281                	addi	t0,t0,0
8000303e:	0000                	unimp
80003040:	0114                	addi	a3,sp,128
80003042:	0000                	unimp
80003044:	0312                	slli	t1,t1,0x4
80003046:	0000                	unimp
80003048:	0071                	c.nop	28
8000304a:	0000                	unimp
8000304c:	034a                	slli	t1,t1,0x12
8000304e:	0000                	unimp
80003050:	0000038b          	0x38b
80003054:	00000113          	li	sp,0
80003058:	00ed                	addi	ra,ra,27
8000305a:	0000                	unimp
8000305c:	0020                	addi	s0,sp,8
8000305e:	0000                	unimp
80003060:	0310                	addi	a2,sp,384
80003062:	0000                	unimp
80003064:	0235                	addi	tp,tp,13
80003066:	0000                	unimp
80003068:	0165                	addi	sp,sp,25
8000306a:	0000                	unimp
8000306c:	00000323          	sb	zero,6(zero) # 6 <buf.2989+0x6>
80003070:	00000333          	add	t1,zero,zero
80003074:	000002ef          	jal	t0,80003074 <input1_data+0x40c>
80003078:	0118                	addi	a4,sp,128
8000307a:	0000                	unimp
8000307c:	0055                	c.nop	21
8000307e:	0000                	unimp
80003080:	01ca                	slli	gp,gp,0x12
80003082:	0000                	unimp
80003084:	01c6                	slli	gp,gp,0x11
80003086:	0000                	unimp
80003088:	02c6                	slli	t0,t0,0x11
8000308a:	0000                	unimp
8000308c:	000001cb          	fnmsub.s	ft3,ft0,ft0,ft0,rne
80003090:	0029                	c.nop	10
80003092:	0000                	unimp
80003094:	00fd                	addi	ra,ra,31
80003096:	0000                	unimp
80003098:	0179                	addi	sp,sp,30
8000309a:	0000                	unimp
8000309c:	01fc                	addi	a5,sp,204
8000309e:	0000                	unimp
800030a0:	02bc                	addi	a5,sp,328
800030a2:	0000                	unimp
800030a4:	035c                	addi	a5,sp,388
800030a6:	0000                	unimp
800030a8:	01e0                	addi	s0,sp,204
800030aa:	0000                	unimp
800030ac:	02e5                	addi	t0,t0,25
800030ae:	0000                	unimp
800030b0:	000001f3          	0x1f3
800030b4:	02c5                	addi	t0,t0,17
800030b6:	0000                	unimp
800030b8:	0031                	c.nop	12
800030ba:	0000                	unimp
800030bc:	00000173          	0x173
800030c0:	0369                	addi	t1,t1,26
800030c2:	0000                	unimp
800030c4:	03b1                	addi	t2,t2,12
800030c6:	0000                	unimp
800030c8:	03e0                	addi	s0,sp,460
800030ca:	0000                	unimp
800030cc:	020e                	slli	tp,tp,0x3
800030ce:	0000                	unimp
800030d0:	02d1                	addi	t0,t0,20
800030d2:	0000                	unimp
800030d4:	000001b3          	add	gp,zero,zero
800030d8:	00e8                	addi	a0,sp,76
800030da:	0000                	unimp
800030dc:	01f1                	addi	gp,gp,28
800030de:	0000                	unimp
800030e0:	02b9                	addi	t0,t0,14
800030e2:	0000                	unimp
800030e4:	001e                	c.slli	zero,0x7
800030e6:	0000                	unimp
800030e8:	015c                	addi	a5,sp,132
800030ea:	0000                	unimp
800030ec:	00fa                	slli	ra,ra,0x1e
800030ee:	0000                	unimp
800030f0:	015e                	slli	sp,sp,0x17
800030f2:	0000                	unimp
800030f4:	00fa                	slli	ra,ra,0x1e
800030f6:	0000                	unimp
800030f8:	023d                	addi	tp,tp,15
800030fa:	0000                	unimp
800030fc:	0310                	addi	a2,sp,384
800030fe:	0000                	unimp
80003100:	02ed                	addi	t0,t0,27
80003102:	0000                	unimp
80003104:	01f6                	slli	gp,gp,0x1d
80003106:	0000                	unimp
80003108:	00000337          	lui	t1,0x0
8000310c:	033a                	slli	t1,t1,0xe
8000310e:	0000                	unimp
80003110:	00aa                	slli	ra,ra,0xa
80003112:	0000                	unimp
80003114:	00a0                	addi	s0,sp,72
80003116:	0000                	unimp

80003118 <input2_data>:
80003118:	01c6                	slli	gp,gp,0x11
8000311a:	0000                	unimp
8000311c:	0000014f          	fnmadd.s	ft2,ft0,ft0,ft0,rne
80003120:	0001                	nop
80003122:	0000                	unimp
80003124:	03dd                	addi	t2,t2,23
80003126:	0000                	unimp
80003128:	016d                	addi	sp,sp,27
8000312a:	0000                	unimp
8000312c:	023c                	addi	a5,sp,264
8000312e:	0000                	unimp
80003130:	0040                	addi	s0,sp,4
80003132:	0000                	unimp
80003134:	0099                	addi	ra,ra,6
80003136:	0000                	unimp
80003138:	00d8                	addi	a4,sp,68
8000313a:	0000                	unimp
8000313c:	008c                	addi	a1,sp,64
8000313e:	0000                	unimp
80003140:	00d2                	slli	ra,ra,0x14
80003142:	0000                	unimp
80003144:	023c                	addi	a5,sp,264
80003146:	0000                	unimp
80003148:	00000153          	fadd.s	ft2,ft0,ft0,rne
8000314c:	0251                	addi	tp,tp,20
8000314e:	0000                	unimp
80003150:	0382                	c.slli64	t2
80003152:	0000                	unimp
80003154:	00e4                	addi	s1,sp,76
80003156:	0000                	unimp
80003158:	000c                	0xc
8000315a:	0000                	unimp
8000315c:	00000373          	0x373
80003160:	02ee                	slli	t0,t0,0x1b
80003162:	0000                	unimp
80003164:	0286                	slli	t0,t0,0x1
80003166:	0000                	unimp
80003168:	01f4                	addi	a3,sp,204
8000316a:	0000                	unimp
8000316c:	01b4                	addi	a3,sp,200
8000316e:	0000                	unimp
80003170:	02bd                	addi	t0,t0,15
80003172:	0000                	unimp
80003174:	032c                	addi	a1,sp,392
80003176:	0000                	unimp
80003178:	03d5                	addi	t2,t2,21
8000317a:	0000                	unimp
8000317c:	0096                	slli	ra,ra,0x5
8000317e:	0000                	unimp
80003180:	02b8                	addi	a4,sp,328
80003182:	0000                	unimp
80003184:	0234                	addi	a3,sp,264
80003186:	0000                	unimp
80003188:	0110                	addi	a2,sp,128
8000318a:	0000                	unimp
8000318c:	0102                	c.slli64	sp
8000318e:	0000                	unimp
80003190:	00000287          	0x287
80003194:	01fd                	addi	gp,gp,31
80003196:	0000                	unimp
80003198:	0058                	addi	a4,sp,4
8000319a:	0000                	unimp
8000319c:	000002bf 0000029d 	0x29d000002bf
800031a4:	00000177          	0x177
800031a8:	00000227          	0x227
800031ac:	03a8                	addi	a0,sp,456
800031ae:	0000                	unimp
800031b0:	0250                	addi	a2,sp,260
800031b2:	0000                	unimp
800031b4:	0239                	addi	tp,tp,14
800031b6:	0000                	unimp
800031b8:	03b8                	addi	a4,sp,456
800031ba:	0000                	unimp
800031bc:	0320                	addi	s0,sp,392
800031be:	0000                	unimp
800031c0:	0248                	addi	a0,sp,260
800031c2:	0000                	unimp
800031c4:	00000283          	lb	t0,0(zero) # 0 <buf.2989>
800031c8:	0170                	addi	a2,sp,140
800031ca:	0000                	unimp
800031cc:	01e9                	addi	gp,gp,26
800031ce:	0000                	unimp
800031d0:	0148                	addi	a0,sp,132
800031d2:	0000                	unimp
800031d4:	0139                	addi	sp,sp,14
800031d6:	0000                	unimp
800031d8:	0250                	addi	a2,sp,260
800031da:	0000                	unimp
800031dc:	0184                	addi	s1,sp,192
800031de:	0000                	unimp
800031e0:	021f 0000 0289      	0x2890000021f
800031e6:	0000                	unimp
800031e8:	000003d3          	fadd.s	ft7,ft0,ft0,rne
800031ec:	03e5                	addi	t2,t2,25
800031ee:	0000                	unimp
800031f0:	032e                	slli	t1,t1,0xb
800031f2:	0000                	unimp
800031f4:	0000004f          	fnmadd.s	ft0,ft0,ft0,ft0,rne
800031f8:	00d0                	addi	a2,sp,68
800031fa:	0000                	unimp
800031fc:	03e6                	slli	t2,t2,0x19
800031fe:	0000                	unimp
80003200:	0275                	addi	tp,tp,29
80003202:	0000                	unimp
80003204:	0000034f          	fnmadd.s	ft6,ft0,ft0,ft0,rne
80003208:	02c0                	addi	s0,sp,324
8000320a:	0000                	unimp
8000320c:	03e5                	addi	t2,t2,25
8000320e:	0000                	unimp
80003210:	00fd                	addi	ra,ra,31
80003212:	0000                	unimp
80003214:	000002cb          	fnmsub.s	ft5,ft0,ft0,ft0,rne
80003218:	01ae                	slli	gp,gp,0xb
8000321a:	0000                	unimp
8000321c:	019f 0000 021a      	0x21a0000019f
80003222:	0000                	unimp
80003224:	02bc                	addi	a5,sp,328
80003226:	0000                	unimp
80003228:	0004                	0x4
8000322a:	0000                	unimp
8000322c:	01ee                	slli	gp,gp,0x1b
8000322e:	0000                	unimp
80003230:	0064                	addi	s1,sp,12
80003232:	0000                	unimp
80003234:	0360                	addi	s0,sp,396
80003236:	0000                	unimp
80003238:	02b5                	addi	t0,t0,13
8000323a:	0000                	unimp
8000323c:	01a0                	addi	s0,sp,200
8000323e:	0000                	unimp
80003240:	0128                	addi	a0,sp,136
80003242:	0000                	unimp
80003244:	011d                	addi	sp,sp,7
80003246:	0000                	unimp
80003248:	026c                	addi	a1,sp,268
8000324a:	0000                	unimp
8000324c:	004e                	c.slli	zero,0x13
8000324e:	0000                	unimp
80003250:	015f 0000 021c      	0x21c0000015f
80003256:	0000                	unimp
80003258:	0286                	slli	t0,t0,0x1
8000325a:	0000                	unimp
8000325c:	00a9                	addi	ra,ra,10
8000325e:	0000                	unimp
80003260:	0000020f          	0x20f
80003264:	0121                	addi	sp,sp,8
80003266:	0000                	unimp
80003268:	031c                	addi	a5,sp,384
8000326a:	0000                	unimp
8000326c:	0321                	addi	t1,t1,8
8000326e:	0000                	unimp
80003270:	02d0                	addi	a2,sp,324
80003272:	0000                	unimp
80003274:	02f6                	slli	t0,t0,0x1d
80003276:	0000                	unimp
80003278:	02e9                	addi	t0,t0,26
8000327a:	0000                	unimp
8000327c:	005c                	addi	a5,sp,4
8000327e:	0000                	unimp
80003280:	03dd                	addi	t2,t2,23
80003282:	0000                	unimp
80003284:	0000010f          	0x10f
80003288:	0355                	addi	t1,t1,21
8000328a:	0000                	unimp
8000328c:	0314                	addi	a3,sp,384
8000328e:	0000                	unimp
80003290:	00000213          	li	tp,0
80003294:	00de                	slli	ra,ra,0x17
80003296:	0000                	unimp
80003298:	01cd                	addi	gp,gp,19
8000329a:	0000                	unimp
8000329c:	00f1                	addi	ra,ra,28
8000329e:	0000                	unimp
800032a0:	0166                	slli	sp,sp,0x19
800032a2:	0000                	unimp
800032a4:	014c                	addi	a1,sp,132
800032a6:	0000                	unimp
800032a8:	02ac                	addi	a1,sp,328
800032aa:	0000                	unimp
800032ac:	02e4                	addi	s1,sp,332
800032ae:	0000                	unimp
800032b0:	01be                	slli	gp,gp,0xf
800032b2:	0000                	unimp
800032b4:	00000137          	lui	sp,0x0
800032b8:	000002e7          	jalr	t0,zero # 0 <buf.2989>
800032bc:	022d                	addi	tp,tp,11
800032be:	0000                	unimp
800032c0:	01df 0000 022d      	0x22d000001df
800032c6:	0000                	unimp
800032c8:	039d                	addi	t2,t2,7
800032ca:	0000                	unimp
800032cc:	031c                	addi	a5,sp,384
800032ce:	0000                	unimp
800032d0:	0165                	addi	sp,sp,25
800032d2:	0000                	unimp
800032d4:	0000037b          	0x37b
800032d8:	029a                	slli	t0,t0,0x6
800032da:	0000                	unimp
800032dc:	0202                	c.slli64	tp
800032de:	0000                	unimp
800032e0:	022d                	addi	tp,tp,11
800032e2:	0000                	unimp
800032e4:	0366                	slli	t1,t1,0x19
800032e6:	0000                	unimp
800032e8:	0355                	addi	t1,t1,21
800032ea:	0000                	unimp
800032ec:	01b8                	addi	a4,sp,200
800032ee:	0000                	unimp
800032f0:	003d                	c.nop	15
800032f2:	0000                	unimp
800032f4:	02a6                	slli	t0,t0,0x9
800032f6:	0000                	unimp
800032f8:	018c                	addi	a1,sp,192
800032fa:	0000                	unimp
800032fc:	0009                	c.nop	2
800032fe:	0000                	unimp
80003300:	0011                	c.nop	4
80003302:	0000                	unimp
80003304:	00aa                	slli	ra,ra,0xa
80003306:	0000                	unimp
80003308:	00000123          	sb	zero,2(zero) # 2 <buf.2989+0x2>
8000330c:	017c                	addi	a5,sp,140
8000330e:	0000                	unimp
80003310:	0218                	addi	a4,sp,256
80003312:	0000                	unimp
80003314:	00b9                	addi	ra,ra,14
80003316:	0000                	unimp
80003318:	0395                	addi	t2,t2,5
8000331a:	0000                	unimp
8000331c:	0000021b          	0x21b
80003320:	000003d7          	0x3d7
80003324:	00000377          	0x377
80003328:	0036                	c.slli	zero,0xd
8000332a:	0000                	unimp
8000332c:	0264                	addi	s1,sp,268
8000332e:	0000                	unimp
80003330:	000003b7          	lui	t2,0x0
80003334:	01df 0000 0097      	0x97000001df
8000333a:	0000                	unimp
8000333c:	00000007          	0x7
80003340:	0281                	addi	t0,t0,0
80003342:	0000                	unimp
80003344:	0000014f          	fnmadd.s	ft2,ft0,ft0,ft0,rne
80003348:	02da                	slli	t0,t0,0x16
8000334a:	0000                	unimp
8000334c:	005f 0000 02d8      	0x2d80000005f
80003352:	0000                	unimp
80003354:	0118                	addi	a4,sp,128
80003356:	0000                	unimp
80003358:	0000018b          	0x18b
8000335c:	02b0                	addi	a2,sp,328
8000335e:	0000                	unimp
80003360:	0000038f          	0x38f
80003364:	01dc                	addi	a5,sp,196
80003366:	0000                	unimp
80003368:	0000032f          	0x32f
8000336c:	02d9                	addi	t0,t0,22
8000336e:	0000                	unimp
80003370:	0109                	addi	sp,sp,2
80003372:	0000                	unimp
80003374:	007f                	0x7f
80003376:	0000                	unimp
80003378:	00ec                	addi	a1,sp,76
8000337a:	0000                	unimp
8000337c:	00d6                	slli	ra,ra,0x15
8000337e:	0000                	unimp
80003380:	00b4                	addi	a3,sp,72
80003382:	0000                	unimp
80003384:	0006                	c.slli	zero,0x1
80003386:	0000                	unimp
80003388:	000001f7          	0x1f7
8000338c:	0254                	addi	a3,sp,260
8000338e:	0000                	unimp
80003390:	00ad                	addi	ra,ra,11
80003392:	0000                	unimp
80003394:	00000283          	lb	t0,0(zero) # 0 <buf.2989>
80003398:	015a                	slli	sp,sp,0x16
8000339a:	0000                	unimp
8000339c:	00000257          	0x257
800033a0:	0044                	addi	s1,sp,4
800033a2:	0000                	unimp
800033a4:	0351                	addi	t1,t1,20
800033a6:	0000                	unimp
800033a8:	0292                	slli	t0,t0,0x4
800033aa:	0000                	unimp
800033ac:	0000026b          	0x26b
800033b0:	0079                	c.nop	30
800033b2:	0000                	unimp
800033b4:	00000083          	lb	ra,0(zero) # 0 <buf.2989>
800033b8:	033c                	addi	a5,sp,392
800033ba:	0000                	unimp
800033bc:	0000029b          	0x29b
800033c0:	01b1                	addi	gp,gp,12
800033c2:	0000                	unimp
800033c4:	000001e7          	jalr	gp,zero # 0 <buf.2989>
800033c8:	02f1                	addi	t0,t0,28
800033ca:	0000                	unimp
800033cc:	007d                	c.nop	31
800033ce:	0000                	unimp
800033d0:	0272                	slli	tp,tp,0x1c
800033d2:	0000                	unimp
800033d4:	000e                	c.slli	zero,0x3
800033d6:	0000                	unimp
800033d8:	000a                	c.slli	zero,0x2
800033da:	0000                	unimp
800033dc:	00000193          	li	gp,0
800033e0:	006a                	c.slli	zero,0x1a
800033e2:	0000                	unimp
800033e4:	000002bf 00000332 	0x332000002bf
800033ec:	03c4                	addi	s1,sp,452
800033ee:	0000                	unimp
800033f0:	0196                	slli	gp,gp,0x5
800033f2:	0000                	unimp
800033f4:	036a                	slli	t1,t1,0x1a
800033f6:	0000                	unimp
800033f8:	0358                	addi	a4,sp,388
800033fa:	0000                	unimp
800033fc:	0056                	c.slli	zero,0x15
800033fe:	0000                	unimp
80003400:	003c                	addi	a5,sp,8
80003402:	0000                	unimp
80003404:	0294                	addi	a3,sp,320
80003406:	0000                	unimp
80003408:	0000029b          	0x29b
8000340c:	0099                	addi	ra,ra,6
8000340e:	0000                	unimp
80003410:	0079                	c.nop	30
80003412:	0000                	unimp
80003414:	0062                	c.slli	zero,0x18
80003416:	0000                	unimp
80003418:	019c                	addi	a5,sp,192
8000341a:	0000                	unimp
8000341c:	00ec                	addi	a1,sp,76
8000341e:	0000                	unimp
80003420:	000c                	0xc
80003422:	0000                	unimp
80003424:	000001a7          	0x1a7
80003428:	03c5                	addi	t2,t2,17
8000342a:	0000                	unimp
8000342c:	00d8                	addi	a4,sp,68
8000342e:	0000                	unimp
80003430:	026d                	addi	tp,tp,27
80003432:	0000                	unimp
80003434:	0169                	addi	sp,sp,26
80003436:	0000                	unimp
80003438:	0399                	addi	t2,t2,6
8000343a:	0000                	unimp
8000343c:	000002cb          	fnmsub.s	ft5,ft0,ft0,ft0,rne
80003440:	00000287          	0x287
80003444:	0000012b          	0x12b
80003448:	0376                	slli	t1,t1,0x1d
8000344a:	0000                	unimp
8000344c:	02aa                	slli	t0,t0,0xa
8000344e:	0000                	unimp
80003450:	0024                	addi	s1,sp,8
80003452:	0000                	unimp
80003454:	01ed                	addi	gp,gp,27
80003456:	0000                	unimp
80003458:	00000227          	0x227
8000345c:	0219                	addi	tp,tp,6
8000345e:	0000                	unimp
80003460:	03c9                	addi	t2,t2,18
80003462:	0000                	unimp
80003464:	00000283          	lb	t0,0(zero) # 0 <buf.2989>
80003468:	01b2                	slli	gp,gp,0xc
8000346a:	0000                	unimp
8000346c:	019f 0000 012f      	0x12f0000019f
80003472:	0000                	unimp
80003474:	01b6                	slli	gp,gp,0xd
80003476:	0000                	unimp
80003478:	035c                	addi	a5,sp,388
8000347a:	0000                	unimp
8000347c:	000000cb          	fnmsub.s	ft1,ft0,ft0,ft0,rne
80003480:	01de                	slli	gp,gp,0x17
80003482:	0000                	unimp
80003484:	03dc                	addi	a5,sp,452
80003486:	0000                	unimp
80003488:	000002a3          	sb	zero,5(zero) # 5 <buf.2989+0x5>
8000348c:	000002cf          	fnmadd.s	ft5,ft0,ft0,ft0,rne
80003490:	03de                	slli	t2,t2,0x17
80003492:	0000                	unimp
80003494:	0152                	slli	sp,sp,0x14
80003496:	0000                	unimp
80003498:	01c2                	slli	gp,gp,0x10
8000349a:	0000                	unimp
8000349c:	0279                	addi	tp,tp,30
8000349e:	0000                	unimp
800034a0:	0000009b          	0x9b
800034a4:	0286                	slli	t0,t0,0x1
800034a6:	0000                	unimp
800034a8:	01c4                	addi	s1,sp,196
800034aa:	0000                	unimp
800034ac:	000001ab          	0x1ab
800034b0:	01fd                	addi	gp,gp,31
800034b2:	0000                	unimp
800034b4:	03dc                	addi	a5,sp,452
800034b6:	0000                	unimp
800034b8:	01aa                	slli	gp,gp,0xa
800034ba:	0000                	unimp
800034bc:	000c                	0xc
800034be:	0000                	unimp
800034c0:	000001e3          	beqz	zero,80003cc2 <_tbss_end+0x1be>
800034c4:	008e                	slli	ra,ra,0x3
800034c6:	0000                	unimp
800034c8:	00000153          	fadd.s	ft2,ft0,ft0,rne
800034cc:	0186                	slli	gp,gp,0x1
800034ce:	0000                	unimp
800034d0:	0032                	c.slli	zero,0xc
800034d2:	0000                	unimp
800034d4:	000000ab          	0xab
800034d8:	0259                	addi	tp,tp,22
800034da:	0000                	unimp
800034dc:	0069                	c.nop	26
800034de:	0000                	unimp
800034e0:	03c8                	addi	a0,sp,452
800034e2:	0000                	unimp
800034e4:	0079                	c.nop	30
800034e6:	0000                	unimp
800034e8:	0000036f          	jal	t1,800034e8 <input2_data+0x3d0>
800034ec:	0051                	c.nop	20
800034ee:	0000                	unimp
800034f0:	0366                	slli	t1,t1,0x19
800034f2:	0000                	unimp
800034f4:	0258                	addi	a4,sp,260
800034f6:	0000                	unimp
800034f8:	0000025b          	0x25b
800034fc:	00000367          	jalr	t1,zero # 0 <buf.2989>
80003500:	00000377          	0x377
80003504:	0262                	slli	tp,tp,0x18
80003506:	0000                	unimp
80003508:	0194                	addi	a3,sp,192
8000350a:	0000                	unimp
8000350c:	00ea                	slli	ra,ra,0x1a
8000350e:	0000                	unimp
80003510:	02e9                	addi	t0,t0,26
80003512:	0000                	unimp
80003514:	020e                	slli	tp,tp,0x3
80003516:	0000                	unimp
80003518:	00000113          	li	sp,0
8000351c:	01b9                	addi	gp,gp,14
8000351e:	0000                	unimp
80003520:	00e2                	slli	ra,ra,0x18
80003522:	0000                	unimp
80003524:	02f0                	addi	a2,sp,332
80003526:	0000                	unimp
80003528:	000003af          	0x3af
8000352c:	02d6                	slli	t0,t0,0x15
8000352e:	0000                	unimp
80003530:	02c5                	addi	t0,t0,17
80003532:	0000                	unimp
80003534:	00c9                	addi	ra,ra,18
80003536:	0000                	unimp
80003538:	0036                	c.slli	zero,0xd
8000353a:	0000                	unimp
8000353c:	02f6                	slli	t0,t0,0x1d
8000353e:	0000                	unimp
80003540:	0035                	c.nop	13
80003542:	0000                	unimp
80003544:	018d                	addi	gp,gp,3
80003546:	0000                	unimp
80003548:	0029                	c.nop	10
8000354a:	0000                	unimp
8000354c:	008d                	addi	ra,ra,3
8000354e:	0000                	unimp
80003550:	01a0                	addi	s0,sp,200
80003552:	0000                	unimp
80003554:	000002eb          	0x2eb
80003558:	000000db          	0xdb
8000355c:	01de                	slli	gp,gp,0x17
8000355e:	0000                	unimp
80003560:	0302                	c.slli64	t1
80003562:	0000                	unimp
80003564:	00b4                	addi	a3,sp,72
80003566:	0000                	unimp
80003568:	01e2                	slli	gp,gp,0x18
8000356a:	0000                	unimp
8000356c:	000002b3          	add	t0,zero,zero
80003570:	02d5                	addi	t0,t0,21
80003572:	0000                	unimp
80003574:	00ad                	addi	ra,ra,11
80003576:	0000                	unimp
80003578:	00ba                	slli	ra,ra,0xe
8000357a:	0000                	unimp
8000357c:	0392                	slli	t2,t2,0x4
8000357e:	0000                	unimp
80003580:	0001                	nop
80003582:	0000                	unimp
80003584:	000003c3          	fmadd.s	ft7,ft0,ft0,ft0,rne
80003588:	000000f7          	0xf7
8000358c:	01d0                	addi	a2,sp,196
8000358e:	0000                	unimp
80003590:	016a                	slli	sp,sp,0x1a
80003592:	0000                	unimp
80003594:	0209                	addi	tp,tp,2
80003596:	0000                	unimp
80003598:	00e9                	addi	ra,ra,26
8000359a:	0000                	unimp
8000359c:	0078                	addi	a4,sp,12
8000359e:	0000                	unimp
800035a0:	0028                	addi	a0,sp,8
800035a2:	0000                	unimp
800035a4:	0000030b          	0x30b
800035a8:	000000c3          	fmadd.s	ft1,ft0,ft0,ft0,rne
800035ac:	00a1                	addi	ra,ra,8
800035ae:	0000                	unimp
800035b0:	000002e7          	jalr	t0,zero # 0 <buf.2989>
800035b4:	000001b7          	lui	gp,0x0
800035b8:	00000163          	beqz	zero,800035ba <input2_data+0x4a2>
800035bc:	00000193          	li	gp,0
800035c0:	008d                	addi	ra,ra,3
800035c2:	0000                	unimp
800035c4:	0279                	addi	tp,tp,30
800035c6:	0000                	unimp

800035c8 <verify_data>:
800035c8:	000001ef          	jal	gp,800035c8 <verify_data>
800035cc:	0490                	addi	a2,sp,576
800035ce:	0000                	unimp
800035d0:	0235                	addi	tp,tp,13
800035d2:	0000                	unimp
800035d4:	0498                	addi	a4,sp,576
800035d6:	0000                	unimp
800035d8:	045a                	slli	s0,s0,0x16
800035da:	0000                	unimp
800035dc:	039a                	slli	t2,t2,0x6
800035de:	0000                	unimp
800035e0:	00c4                	addi	s1,sp,68
800035e2:	0000                	unimp
800035e4:	044e                	slli	s0,s0,0x13
800035e6:	0000                	unimp
800035e8:	0320                	addi	s0,sp,392
800035ea:	0000                	unimp
800035ec:	03b1                	addi	t2,t2,12
800035ee:	0000                	unimp
800035f0:	0000033f 00000242 	0x2420000033f
800035f8:	04f6                	slli	s1,s1,0x1d
800035fa:	0000                	unimp
800035fc:	000005cb          	fnmsub.s	fa1,ft0,ft0,ft0,rne
80003600:	050a                	slli	a0,a0,0x2
80003602:	0000                	unimp
80003604:	039a                	slli	t2,t2,0x6
80003606:	0000                	unimp
80003608:	03cd                	addi	t2,t2,19
8000360a:	0000                	unimp
8000360c:	03e1                	addi	t2,t2,24
8000360e:	0000                	unimp
80003610:	0362                	slli	t1,t1,0x18
80003612:	0000                	unimp
80003614:	03ae                	slli	t2,t2,0xb
80003616:	0000                	unimp
80003618:	039e                	slli	t2,t2,0x7
8000361a:	0000                	unimp
8000361c:	02ee                	slli	t0,t0,0x1b
8000361e:	0000                	unimp
80003620:	0550                	addi	a2,sp,644
80003622:	0000                	unimp
80003624:	0632                	slli	a2,a2,0xc
80003626:	0000                	unimp
80003628:	0514                	addi	a3,sp,640
8000362a:	0000                	unimp
8000362c:	033c                	addi	a5,sp,392
8000362e:	0000                	unimp
80003630:	00000623          	sb	zero,12(zero) # c <buf.2989+0xc>
80003634:	03ac                	addi	a1,sp,456
80003636:	0000                	unimp
80003638:	02ea                	slli	t0,t0,0x1a
8000363a:	0000                	unimp
8000363c:	04ac                	addi	a1,sp,584
8000363e:	0000                	unimp
80003640:	04a2                	slli	s1,s1,0x8
80003642:	0000                	unimp
80003644:	0436                	slli	s0,s0,0xd
80003646:	0000                	unimp
80003648:	00000123          	sb	zero,2(zero) # 2 <buf.2989+0x2>
8000364c:	000003d7          	0x3d7
80003650:	0594                	addi	a3,sp,704
80003652:	0000                	unimp
80003654:	03d5                	addi	t2,t2,21
80003656:	0000                	unimp
80003658:	0426                	slli	s0,s0,0x9
8000365a:	0000                	unimp
8000365c:	0639                	addi	a2,a2,14
8000365e:	0000                	unimp
80003660:	00000313          	li	t1,0
80003664:	028a                	slli	t0,t0,0x2
80003666:	0000                	unimp
80003668:	000004c3          	fmadd.s	fs1,ft0,ft0,ft0,rne
8000366c:	0405                	addi	s0,s0,1
8000366e:	0000                	unimp
80003670:	0399                	addi	t2,t2,6
80003672:	0000                	unimp
80003674:	00000633          	add	a2,zero,zero
80003678:	04f6                	slli	s1,s1,0x1d
8000367a:	0000                	unimp
8000367c:	02da                	slli	t0,t0,0x16
8000367e:	0000                	unimp
80003680:	04d9                	addi	s1,s1,22
80003682:	0000                	unimp
80003684:	00000473          	0x473
80003688:	05f5                	addi	a1,a1,29
8000368a:	0000                	unimp
8000368c:	055d                	addi	a0,a0,23
8000368e:	0000                	unimp
80003690:	02e2                	slli	t0,t0,0x18
80003692:	0000                	unimp
80003694:	0649                	addi	a2,a2,18
80003696:	0000                	unimp
80003698:	0609                	addi	a2,a2,2
8000369a:	0000                	unimp
8000369c:	00000543          	fmadd.s	fa0,ft0,ft0,ft0,rne
800036a0:	000005b7          	lui	a1,0x0
800036a4:	02e0                	addi	s0,sp,332
800036a6:	0000                	unimp
800036a8:	0185                	addi	gp,gp,1
800036aa:	0000                	unimp
800036ac:	0455                	addi	s0,s0,21
800036ae:	0000                	unimp
800036b0:	05d0                	addi	a2,sp,708
800036b2:	0000                	unimp
800036b4:	0390                	addi	a2,sp,448
800036b6:	0000                	unimp
800036b8:	03e0                	addi	s0,sp,460
800036ba:	0000                	unimp
800036bc:	0542                	slli	a0,a0,0x10
800036be:	0000                	unimp
800036c0:	018a                	slli	gp,gp,0x2
800036c2:	0000                	unimp
800036c4:	0654                	addi	a3,sp,772
800036c6:	0000                	unimp
800036c8:	0524                	addi	s1,sp,648
800036ca:	0000                	unimp
800036cc:	000002a7          	0x2a7
800036d0:	045a                	slli	s0,s0,0x16
800036d2:	0000                	unimp
800036d4:	0000068f          	0x68f
800036d8:	02fd                	addi	t0,t0,31
800036da:	0000                	unimp
800036dc:	02df 0000 0242      	0x242000002df
800036e2:	0000                	unimp
800036e4:	00000553          	fadd.s	fa0,ft0,ft0,rne
800036e8:	0448                	addi	a0,sp,516
800036ea:	0000                	unimp
800036ec:	027e                	slli	tp,tp,0x1f
800036ee:	0000                	unimp
800036f0:	02e4                	addi	s1,sp,332
800036f2:	0000                	unimp
800036f4:	03ee                	slli	t2,t2,0x1b
800036f6:	0000                	unimp
800036f8:	0510                	addi	a2,sp,640
800036fa:	0000                	unimp
800036fc:	0000018b          	0x18b
80003700:	0000023f 000005c5 	0x5c50000023f
80003708:	03a6                	slli	t2,t2,0x9
8000370a:	0000                	unimp
8000370c:	0120                	addi	s0,sp,136
8000370e:	0000                	unimp
80003710:	0476                	slli	s0,s0,0x1d
80003712:	0000                	unimp
80003714:	037f                	0x37f
80003716:	0000                	unimp
80003718:	04a1                	addi	s1,s1,8
8000371a:	0000                	unimp
8000371c:	0480                	addi	s0,sp,576
8000371e:	0000                	unimp
80003720:	00000497          	auipc	s1,0x0
80003724:	040c                	addi	a1,sp,512
80003726:	0000                	unimp
80003728:	0458                	addi	a4,sp,516
8000372a:	0000                	unimp
8000372c:	01c2                	slli	gp,gp,0x10
8000372e:	0000                	unimp
80003730:	0625                	addi	a2,a2,9
80003732:	0000                	unimp
80003734:	014d                	addi	sp,sp,19
80003736:	0000                	unimp
80003738:	072e                	slli	a4,a4,0xb
8000373a:	0000                	unimp
8000373c:	000004a7          	0x4a7
80003740:	036d                	addi	t1,t1,27
80003742:	0000                	unimp
80003744:	000002e3          	beqz	zero,80003f48 <_tbss_end+0x444>
80003748:	03fc                	addi	a5,sp,460
8000374a:	0000                	unimp
8000374c:	047d                	addi	s0,s0,31
8000374e:	0000                	unimp
80003750:	046d                	addi	s0,s0,27
80003752:	0000                	unimp
80003754:	0000024b          	fnmsub.s	ft4,ft0,ft0,ft0,rne
80003758:	05b6                	slli	a1,a1,0xd
8000375a:	0000                	unimp
8000375c:	053a                	slli	a0,a0,0xe
8000375e:	0000                	unimp
80003760:	024d                	addi	tp,tp,19
80003762:	0000                	unimp
80003764:	0158                	addi	a4,sp,132
80003766:	0000                	unimp
80003768:	0364                	addi	s1,sp,396
8000376a:	0000                	unimp
8000376c:	05da                	slli	a1,a1,0x16
8000376e:	0000                	unimp
80003770:	0584                	addi	s1,sp,704
80003772:	0000                	unimp
80003774:	054c                	addi	a1,sp,644
80003776:	0000                	unimp
80003778:	05c6                	slli	a1,a1,0x11
8000377a:	0000                	unimp
8000377c:	000004cb          	fnmsub.s	fs1,ft0,ft0,ft0,rne
80003780:	03ed                	addi	t2,t2,27
80003782:	0000                	unimp
80003784:	00000733          	add	a4,zero,zero
80003788:	03b9                	addi	t2,t2,14
8000378a:	0000                	unimp
8000378c:	0215                	addi	tp,tp,5
8000378e:	0000                	unimp
80003790:	025e                	slli	tp,tp,0x17
80003792:	0000                	unimp
80003794:	03bc                	addi	a5,sp,456
80003796:	0000                	unimp
80003798:	03b4                	addi	a3,sp,456
8000379a:	0000                	unimp
8000379c:	0371                	addi	t1,t1,28
8000379e:	0000                	unimp
800037a0:	0288                	addi	a0,sp,320
800037a2:	0000                	unimp
800037a4:	050c                	addi	a1,sp,640
800037a6:	0000                	unimp
800037a8:	030a                	slli	t1,t1,0x2
800037aa:	0000                	unimp
800037ac:	0121                	addi	sp,sp,8
800037ae:	0000                	unimp
800037b0:	0339                	addi	t1,t1,14
800037b2:	0000                	unimp
800037b4:	0475                	addi	s0,s0,29
800037b6:	0000                	unimp
800037b8:	0456                	slli	s0,s0,0x15
800037ba:	0000                	unimp
800037bc:	02d4                	addi	a3,sp,324
800037be:	0000                	unimp
800037c0:	03da                	slli	t2,t2,0x16
800037c2:	0000                	unimp
800037c4:	02b9                	addi	t0,t0,14
800037c6:	0000                	unimp
800037c8:	075a                	slli	a4,a4,0x16
800037ca:	0000                	unimp
800037cc:	0376                	slli	t1,t1,0x1d
800037ce:	0000                	unimp
800037d0:	06ff                	0x6ff
800037d2:	0000                	unimp
800037d4:	06e9                	addi	a3,a3,26
800037d6:	0000                	unimp
800037d8:	0000024f          	fnmadd.s	ft4,ft0,ft0,ft0,rne
800037dc:	0616                	slli	a2,a2,0x5
800037de:	0000                	unimp
800037e0:	0674                	addi	a3,sp,780
800037e2:	0000                	unimp
800037e4:	00000343          	fmadd.s	ft6,ft0,ft0,ft0,rne
800037e8:	02ce                	slli	t0,t0,0x13
800037ea:	0000                	unimp
800037ec:	0382                	c.slli64	t2
800037ee:	0000                	unimp
800037f0:	00000297          	auipc	t0,0x0
800037f4:	00000387          	0x387
800037f8:	00000573          	0x573
800037fc:	0206                	slli	tp,tp,0x1
800037fe:	0000                	unimp
80003800:	048a                	slli	s1,s1,0x2
80003802:	0000                	unimp
80003804:	01b6                	slli	gp,gp,0xd
80003806:	0000                	unimp
80003808:	018d                	addi	gp,gp,3
8000380a:	0000                	unimp
8000380c:	0304                	addi	s1,sp,384
8000380e:	0000                	unimp
80003810:	0486                	slli	s1,s1,0x1
80003812:	0000                	unimp
80003814:	020d                	addi	tp,tp,3
80003816:	0000                	unimp
80003818:	04e2                	slli	s1,s1,0x18
8000381a:	0000                	unimp
8000381c:	05f1                	addi	a1,a1,28
8000381e:	0000                	unimp
80003820:	046e                	slli	s0,s0,0x1b
80003822:	0000                	unimp
80003824:	0265                	addi	tp,tp,25
80003826:	0000                	unimp
80003828:	028a                	slli	t0,t0,0x2
8000382a:	0000                	unimp
8000382c:	00000247          	fmsub.s	ft4,ft0,ft0,ft0,rne
80003830:	02d8                	addi	a4,sp,324
80003832:	0000                	unimp
80003834:	020c                	addi	a1,sp,256
80003836:	0000                	unimp
80003838:	0000056f          	jal	a0,80003838 <verify_data+0x270>
8000383c:	04fe                	slli	s1,s1,0x1f
8000383e:	0000                	unimp
80003840:	01c9                	addi	gp,gp,18
80003842:	0000                	unimp
80003844:	0000038b          	0x38b
80003848:	034d                	addi	t1,t1,19
8000384a:	0000                	unimp
8000384c:	0379                	addi	t1,t1,30
8000384e:	0000                	unimp
80003850:	03c5                	addi	t2,t2,17
80003852:	0000                	unimp
80003854:	0428                	addi	a0,sp,520
80003856:	0000                	unimp
80003858:	056d                	addi	a0,a0,27
8000385a:	0000                	unimp
8000385c:	0000051b          	0x51b
80003860:	0174                	addi	a3,sp,140
80003862:	0000                	unimp
80003864:	0395                	addi	t2,t2,5
80003866:	0000                	unimp
80003868:	00000567          	jalr	a0,zero # 0 <buf.2989>
8000386c:	03c9                	addi	t2,t2,18
8000386e:	0000                	unimp
80003870:	03c1                	addi	t2,t2,16
80003872:	0000                	unimp
80003874:	00000407          	0x407
80003878:	00000433          	add	s0,zero,zero
8000387c:	0430                	addi	a2,sp,520
8000387e:	0000                	unimp
80003880:	0391                	addi	t2,t2,4
80003882:	0000                	unimp
80003884:	0346                	slli	t1,t1,0x11
80003886:	0000                	unimp
80003888:	013a                	slli	sp,sp,0xe
8000388a:	0000                	unimp
8000388c:	000004a7          	0x4a7
80003890:	00000347          	fmsub.s	ft6,ft0,ft0,ft0,rne
80003894:	067e                	slli	a2,a2,0x1f
80003896:	0000                	unimp
80003898:	04a0                	addi	s0,sp,584
8000389a:	0000                	unimp
8000389c:	0696                	slli	a3,a3,0x5
8000389e:	0000                	unimp
800038a0:	02bc                	addi	a5,sp,328
800038a2:	0000                	unimp
800038a4:	0739                	addi	a4,a4,14
800038a6:	0000                	unimp
800038a8:	05e5                	addi	a1,a1,25
800038aa:	0000                	unimp
800038ac:	0342                	slli	t1,t1,0x10
800038ae:	0000                	unimp
800038b0:	00000097          	auipc	ra,0x0
800038b4:	040e                	slli	s0,s0,0x3
800038b6:	0000                	unimp
800038b8:	0304                	addi	s1,sp,384
800038ba:	0000                	unimp
800038bc:	00ff                	0xff
800038be:	0000                	unimp
800038c0:	01f6                	slli	gp,gp,0x1d
800038c2:	0000                	unimp
800038c4:	02ed                	addi	t0,t0,27
800038c6:	0000                	unimp
800038c8:	04d5                	addi	s1,s1,21
800038ca:	0000                	unimp
800038cc:	0434                	addi	a3,sp,520
800038ce:	0000                	unimp
800038d0:	0170                	addi	a2,sp,140
800038d2:	0000                	unimp
800038d4:	0000023b          	0x23b
800038d8:	000003fb          	0x3fb
800038dc:	0164                	addi	s1,sp,140
800038de:	0000                	unimp
800038e0:	0628                	addi	a0,sp,776
800038e2:	0000                	unimp
800038e4:	02c0                	addi	s0,sp,324
800038e6:	0000                	unimp
800038e8:	05ae                	slli	a1,a1,0xb
800038ea:	0000                	unimp
800038ec:	05c0                	addi	s0,sp,708
800038ee:	0000                	unimp
800038f0:	0490                	addi	a2,sp,576
800038f2:	0000                	unimp
800038f4:	0470                	addi	a2,sp,524
800038f6:	0000                	unimp
800038f8:	05c6                	slli	a1,a1,0x11
800038fa:	0000                	unimp
800038fc:	000002b7          	lui	t0,0x0
80003900:	00d1                	addi	ra,ra,20
80003902:	0000                	unimp
80003904:	022c                	addi	a1,sp,264
80003906:	0000                	unimp
80003908:	02a0                	addi	s0,sp,328
8000390a:	0000                	unimp
8000390c:	029e                	slli	t0,t0,0x7
8000390e:	0000                	unimp
80003910:	000006bf 000003f7 	0x3f7000006bf
80003918:	0569                	addi	a0,a0,26
8000391a:	0000                	unimp
8000391c:	01c6                	slli	gp,gp,0x11
8000391e:	0000                	unimp
80003920:	01b0                	addi	a2,sp,200
80003922:	0000                	unimp
80003924:	0224                	addi	s1,sp,264
80003926:	0000                	unimp
80003928:	000006ab          	0x6ab
8000392c:	0280                	addi	s0,sp,320
8000392e:	0000                	unimp
80003930:	02dd                	addi	t0,t0,23
80003932:	0000                	unimp
80003934:	04e9                	addi	s1,s1,26
80003936:	0000                	unimp
80003938:	043c                	addi	a5,sp,520
8000393a:	0000                	unimp
8000393c:	00000543          	fmadd.s	fa0,ft0,ft0,ft0,rne
80003940:	056d                	addi	a0,a0,27
80003942:	0000                	unimp
80003944:	00000377          	0x377
80003948:	000004b3          	add	s1,zero,zero
8000394c:	04ad                	addi	s1,s1,11
8000394e:	0000                	unimp
80003950:	0146                	slli	sp,sp,0x11
80003952:	0000                	unimp
80003954:	0299                	addi	t0,t0,6
80003956:	0000                	unimp
80003958:	0000049b          	0x49b
8000395c:	03a0                	addi	s0,sp,456
8000395e:	0000                	unimp
80003960:	0506                	slli	a0,a0,0x1
80003962:	0000                	unimp
80003964:	00000407          	0x407
80003968:	0000049b          	0x49b
8000396c:	005d                	c.nop	23
8000396e:	0000                	unimp
80003970:	02ad                	addi	t0,t0,11
80003972:	0000                	unimp
80003974:	000003e3          	beqz	zero,8000417a <_tbss_end+0x676>
80003978:	01ec                	addi	a1,sp,204
8000397a:	0000                	unimp
8000397c:	047e                	slli	s0,s0,0x1f
8000397e:	0000                	unimp
80003980:	00000197          	auipc	gp,0x0
80003984:	045a                	slli	s0,s0,0x16
80003986:	0000                	unimp
80003988:	000005f3          	0x5f3
8000398c:	01b1                	addi	gp,gp,12
8000398e:	0000                	unimp
80003990:	05b8                	addi	a4,sp,712
80003992:	0000                	unimp
80003994:	00000233          	add	tp,zero,zero
80003998:	00000573          	0x573
8000399c:	02d2                	slli	t0,t0,0x14
8000399e:	0000                	unimp
800039a0:	047a                	slli	s0,s0,0x1e
800039a2:	0000                	unimp
800039a4:	056a                	slli	a0,a0,0x1a
800039a6:	0000                	unimp
800039a8:	02cc                	addi	a1,sp,324
800039aa:	0000                	unimp
800039ac:	06b1                	addi	a3,a3,12
800039ae:	0000                	unimp
800039b0:	0702                	c.slli64	a4
800039b2:	0000                	unimp
800039b4:	0375                	addi	t1,t1,29
800039b6:	0000                	unimp
800039b8:	0281                	addi	t0,t0,0
800039ba:	0000                	unimp
800039bc:	010a                	slli	sp,sp,0x2
800039be:	0000                	unimp
800039c0:	05f9                	addi	a1,a1,30
800039c2:	0000                	unimp
800039c4:	00000443          	fmadd.s	fs0,ft0,ft0,ft0,rne
800039c8:	0278                	addi	a4,sp,268
800039ca:	0000                	unimp
800039cc:	04dc                	addi	a5,sp,580
800039ce:	0000                	unimp
800039d0:	0415                	addi	s0,s0,5
800039d2:	0000                	unimp
800039d4:	05df 0000 04c7      	0x4c7000005df
800039da:	0000                	unimp
800039dc:	0000032b          	0x32b
800039e0:	0000048f          	0x48f
800039e4:	0000028f          	0x28f
800039e8:	02fc                	addi	a5,sp,332
800039ea:	0000                	unimp
800039ec:	04c1                	addi	s1,s1,16
800039ee:	0000                	unimp
800039f0:	005e                	c.slli	zero,0x17
800039f2:	0000                	unimp
800039f4:	028a                	slli	t0,t0,0x2
800039f6:	0000                	unimp
800039f8:	01a2                	slli	gp,gp,0x8
800039fa:	0000                	unimp
800039fc:	0289                	addi	t0,t0,2
800039fe:	0000                	unimp
80003a00:	045c                	addi	a5,sp,516
80003a02:	0000                	unimp
80003a04:	00000647          	fmsub.s	fa2,ft0,ft0,ft0,rne
80003a08:	000002bb          	0x2bb
80003a0c:	000004c3          	fmadd.s	fs1,ft0,ft0,ft0,rne
80003a10:	04f5                	addi	s1,s1,29
80003a12:	0000                	unimp
80003a14:	0379                	addi	t1,t1,30
80003a16:	0000                	unimp
80003a18:	00000213          	li	tp,0
80003a1c:	0426                	slli	s0,s0,0x9
80003a1e:	0000                	unimp
80003a20:	063e                	slli	a2,a2,0xf
80003a22:	0000                	unimp
80003a24:	045e                	slli	s0,s0,0x17
80003a26:	0000                	unimp
80003a28:	049a                	slli	s1,s1,0x6
80003a2a:	0000                	unimp
80003a2c:	05a0                	addi	s0,sp,712
80003a2e:	0000                	unimp
80003a30:	02d2                	slli	t0,t0,0x14
80003a32:	0000                	unimp
80003a34:	0576                	slli	a0,a0,0x1d
80003a36:	0000                	unimp
80003a38:	01df 0000 03c1      	0x3c1000001df
80003a3e:	0000                	unimp
80003a40:	00000423          	sb	zero,8(zero) # 8 <buf.2989+0x8>
80003a44:	00000227          	0x227
80003a48:	0245                	addi	tp,tp,17
80003a4a:	0000                	unimp
80003a4c:	0172                	slli	sp,sp,0x1c
80003a4e:	0000                	unimp
80003a50:	0186                	slli	gp,gp,0x1
80003a52:	0000                	unimp
80003a54:	0405                	addi	s0,s0,1
80003a56:	0000                	unimp
80003a58:	0300                	addi	s0,sp,384
80003a5a:	0000                	unimp
80003a5c:	03b1                	addi	t2,t2,12
80003a5e:	0000                	unimp
80003a60:	05d4                	addi	a3,sp,708
80003a62:	0000                	unimp
80003a64:	03ad                	addi	t2,t2,11
80003a66:	0000                	unimp
80003a68:	049a                	slli	s1,s1,0x6
80003a6a:	0000                	unimp
80003a6c:	04cd                	addi	s1,s1,19
80003a6e:	0000                	unimp
80003a70:	00000137          	lui	sp,0x0
80003a74:	0319                	addi	t1,t1,6
80003a76:	0000                	unimp
